
evkmimxrt1060_iled_blinky_teensy_test.axf:     file format elf32-littlearm
evkmimxrt1060_iled_blinky_teensy_test.axf
architecture: armv7e-m, flags 0x00000112:
EXEC_P, HAS_SYMS, D_PAGED
start address 0x60001000

Program Header:
    LOAD off    0x00010004 vaddr 0x20000004 paddr 0x20000004 align 2**16
         filesz 0x00000000 memsz 0x00002114 flags rw-
    LOAD off    0x00010000 vaddr 0x60000000 paddr 0x60000000 align 2**16
         filesz 0x00002060 memsz 0x00002060 flags rwx
    LOAD off    0x00020000 vaddr 0x00000000 paddr 0x60002060 align 2**16
         filesz 0x00004bb0 memsz 0x00004bb0 flags r-x
    LOAD off    0x00030000 vaddr 0x20000000 paddr 0x60006c10 align 2**16
         filesz 0x00000004 memsz 0x00000004 flags rw-
private flags = 5000400: [Version5 EABI] [hard-float ABI]

Sections:
Idx Name          Size      VMA       LMA       File off  Algn
  0 .boot_hdr     00002000  60000000  60000000  00010000  2**2
                  CONTENTS, ALLOC, LOAD, DATA
  1 .teensy_boot  00000060  60002000  60002000  00012000  2**3
                  CONTENTS, ALLOC, LOAD, READONLY, CODE
  2 .text         00004bb0  00000000  60002060  00020000  2**2
                  CONTENTS, ALLOC, LOAD, READONLY, CODE
  3 .data_RAM     00000000  00004bb0  00004bb0  00030004  2**0
                  CONTENTS
  4 .data         00000004  20000000  60006c10  00030000  2**2
                  CONTENTS, ALLOC, LOAD, DATA
  5 .data_RAM3    00000000  20200000  20200000  00030004  2**2
                  CONTENTS
  6 .bss_RAM      00000000  00004bb0  00004bb0  00030004  2**0
                  CONTENTS
  7 .bss          00000114  20000004  20000004  00010004  2**2
                  ALLOC
  8 .bss_RAM3     00000000  20200000  20200000  00030004  2**0
                  CONTENTS
  9 .uninit_RESERVED 00000000  20000000  20000000  00030004  2**0
                  CONTENTS
 10 .noinit_RAM   00000000  00004bb0  00004bb0  00030004  2**0
                  CONTENTS
 11 .noinit_RAM3  00000000  20200000  20200000  00030004  2**0
                  CONTENTS
 12 .noinit       00000000  20000118  20000118  00030004  2**0
                  CONTENTS
 13 .heap         00001000  20000118  20000118  00010004  2**2
                  ALLOC
 14 .stack        00001000  20001118  20001118  00010004  2**2
                  ALLOC
 15 .debug_info   0000d68c  00000000  00000000  00030004  2**0
                  CONTENTS, READONLY, DEBUGGING
 16 .debug_abbrev 00001c37  00000000  00000000  0003d690  2**0
                  CONTENTS, READONLY, DEBUGGING
 17 .debug_aranges 00000bd8  00000000  00000000  0003f2c7  2**0
                  CONTENTS, READONLY, DEBUGGING
 18 .debug_ranges 00000af8  00000000  00000000  0003fe9f  2**0
                  CONTENTS, READONLY, DEBUGGING
 19 .debug_macro  00002c6b  00000000  00000000  00040997  2**0
                  CONTENTS, READONLY, DEBUGGING
 20 .debug_line   000062f2  00000000  00000000  00043602  2**0
                  CONTENTS, READONLY, DEBUGGING
 21 .debug_str    0016a897  00000000  00000000  000498f4  2**0
                  CONTENTS, READONLY, DEBUGGING
 22 .comment      00000075  00000000  00000000  001b418b  2**0
                  CONTENTS, READONLY
 23 .ARM.attributes 00000035  00000000  00000000  001b4200  2**0
                  CONTENTS, READONLY
 24 .debug_frame  00002824  00000000  00000000  001b4238  2**2
                  CONTENTS, READONLY, DEBUGGING
SYMBOL TABLE:
60000000 l    d  .boot_hdr	00000000 .boot_hdr
60002000 l    d  .teensy_boot	00000000 .teensy_boot
00000000 l    d  .text	00000000 .text
00004bb0 l    d  .data_RAM	00000000 .data_RAM
20000000 l    d  .data	00000000 .data
20200000 l    d  .data_RAM3	00000000 .data_RAM3
00004bb0 l    d  .bss_RAM	00000000 .bss_RAM
20000004 l    d  .bss	00000000 .bss
20200000 l    d  .bss_RAM3	00000000 .bss_RAM3
20000000 l    d  .uninit_RESERVED	00000000 .uninit_RESERVED
00004bb0 l    d  .noinit_RAM	00000000 .noinit_RAM
20200000 l    d  .noinit_RAM3	00000000 .noinit_RAM3
20000118 l    d  .noinit	00000000 .noinit
20000118 l    d  .heap	00000000 .heap
20001118 l    d  .stack	00000000 .stack
00000000 l    d  .debug_info	00000000 .debug_info
00000000 l    d  .debug_abbrev	00000000 .debug_abbrev
00000000 l    d  .debug_aranges	00000000 .debug_aranges
00000000 l    d  .debug_ranges	00000000 .debug_ranges
00000000 l    d  .debug_macro	00000000 .debug_macro
00000000 l    d  .debug_line	00000000 .debug_line
00000000 l    d  .debug_str	00000000 .debug_str
00000000 l    d  .comment	00000000 .comment
00000000 l    d  .ARM.attributes	00000000 .ARM.attributes
00000000 l    d  .debug_frame	00000000 .debug_frame
00000000 l    df *ABS*	00000000 startup_mimxrt1062.c
6000203c l     F .teensy_boot	00000016 memory_copy
00000000 l    df *ABS*	00000000 fsl_debug_console.c
20000004 l     O .bss	0000001c s_debugConsoleState
00000000 l    df *ABS*	00000000 led_blinky.c
00000000 l    df *ABS*	00000000 fsl_clock.c
00000534 l     F .text	00000030 CLOCK_GetOscFreq
00002dc8 l     F .text	00000032 CLOCK_IsPllBypassed
00002dfa l     F .text	0000003c CLOCK_IsPllEnabled
00002e36 l     F .text	00000034 CLOCK_GetPllBypassRefClk
00000000 l    df *ABS*	00000000 fsl_gpio.c
00000b38 l     F .text	00000064 CLOCK_ControlGate
00002e6a l     F .text	0000001e CLOCK_EnableClock
00002e88 l     F .text	00000022 GPIO_SetPinInterruptConfig
00003964 l     O .text	00000028 s_gpioBases
0000398c l     O .text	0000000c s_gpioClock
00000b9c l     F .text	0000004c GPIO_GetInstance
00000000 l    df *ABS*	00000000 fsl_lpuart.c
00000ddc l     F .text	00000064 CLOCK_ControlGate
00002eaa l     F .text	0000001e CLOCK_EnableClock
00002ec8 l     F .text	0000002c LPUART_SoftwareReset
0000404c l     O .text	00000024 s_lpuartBases
2000002c l     O .bss	00000024 s_lpuartHandle
00004070 l     O .text	00000012 s_lpuartClock
20000050 l     O .bss	00000004 s_lpuartIsr
00000000 l    df *ABS*	00000000 system_MIMXRT1062.c
00001334 l     F .text	00000040 SCB_EnableICache
00001374 l     F .text	00000080 SCB_EnableDCache
00000000 l    df *ABS*	00000000 lpuart_adapter.c
00004084 l     O .text	00000024 s_LpuartAdapterBase
00002f02 l     F .text	00000022 HAL_UartGetStatus
00000000 l    df *ABS*	00000000 serial_manager.c
00000000 l    df *ABS*	00000000 serial_port_uart.c
00000000 l    df *ABS*	00000000 board.c
00001994 l     F .text	00000044 CLOCK_GetMux
000019d8 l     F .text	00000044 CLOCK_GetDiv
00001a1c l     F .text	00000030 CLOCK_GetOscFreq
00000000 l    df *ABS*	00000000 clock_config.c
00001ab0 l     F .text	0000009c CLOCK_SetMux
00001b4c l     F .text	0000009c CLOCK_SetDiv
00001be8 l     F .text	00000064 CLOCK_ControlGate
00002f46 l     F .text	0000001e CLOCK_DisableClock
00001c4c l     F .text	00000020 CLOCK_SetXtalFreq
00001c6c l     F .text	00000020 CLOCK_SetRtcXtalFreq
00002f64 l     F .text	0000004e CLOCK_SetPllBypass
00001c8c l     F .text	00000048 IOMUXC_EnableMode
00002fb2 l     F .text	0000006c IOMUXC_SetSaiMClkClockSource
00001cd4 l     F .text	00000044 IOMUXC_MQSConfig
00000000 l    df *ABS*	00000000 pin_mux.c
00002390 l     F .text	00000064 CLOCK_ControlGate
0000301e l     F .text	0000001e CLOCK_EnableClock
0000303c l     F .text	0000003a IOMUXC_SetPinMux
00000000 l    df *ABS*	00000000 _cr_assert.c
00000000 l    df *ABS*	00000000 _writebuf.c
00000000 l    df *ABS*	00000000 alloc.c
00000000 l    df *ABS*	00000000 fseek.c
00000000 l    df *ABS*	00000000 ftell.c
00000000 l    df *ABS*	00000000 initio.c
00000000 l    df *ABS*	00000000 setvbuf.c
00000000 l    df *ABS*	00000000 _cr_sbrk.c
00000000 l    df *ABS*	00000000 fflush.c
00000000 l    df *ABS*	00000000 _cr_check_heap.c
00000000 l    df *ABS*	00000000 semihost_hardfault.c
00002daa l       .text	00000000 _MSP
00002dae l       .text	00000000 _process
00002dbc l       .text	00000000 _semihost_return
00000000 l    df *ABS*	00000000 _cr__main.c
00000000 l    df *ABS*	00000000 __sys_appexit.c
00000000 l    df *ABS*	00000000 memset.c
00000000 l    df *ABS*	00000000 _deferredlazyseek.c
00000000 l    df *ABS*	00000000 _fflush.c
00000000 l    df *ABS*	00000000 fputs.c
00000000 l    df *ABS*	00000000 strlen.c
00000000 l    df *ABS*	00000000 _fdopen.c
00000000 l    df *ABS*	00000000 fclose.c
00000000 l    df *ABS*	00000000 remove.c
00000000 l    df *ABS*	00000000 _do_fflush.c
00000000 l    df *ABS*	00000000 division_64.o
00003468 l       .text	00000000 ldiv64
00003506 l       .text	00000000 ldiv_divzero
00003438 l       .text	00000000 ldiv32
00003512 l       .text	00000000 udiv6432
00003440 l       .text	00000000 ldiv_return
00003456 l       .text	00000000 ldiv_sign
000034f0 l       .text	00000000 ldiv_res01
0000352e l       .text	00000000 udiv6432_entry
0000351a l       .text	00000000 udiv6432_loop1
00003530 l       .text	00000000 udiv6432_loop
00000000 l    df *ABS*	00000000 division_idiv0.o
00000000 l    df *ABS*	00000000 memcpy.o
000035b4 l       .text	00000000 memset1a
000035a2 l       .text	00000000 __bhs_memset4
000035a4 l       .text	00000000 memset4
000035b0 l       .text	00000000 memset1
00000000 l    df *ABS*	00000000 __sys_close.c
00000000 l    df *ABS*	00000000 __sys_flen.c
00000000 l    df *ABS*	00000000 __sys_istty.c
00000000 l    df *ABS*	00000000 __sys_remove.c
00000000 l    df *ABS*	00000000 __sys_seek.c
00000000 l    df *ABS*	00000000 __sys_tmpnam.c
00000000 l    df *ABS*	00000000 __sys_write.c
00000000 l    df *ABS*	00000000 __ciob.c
60002058 l     F .teensy_boot	00000008 __ResetISR_veneer
0000037a  w    F .text	00000002 ACMP4_DriverIRQHandler
00002ab4  w    F .text	00000008 USB_PHY1_IRQHandler
0000037a  w    F .text	00000002 Reserved87_DriverIRQHandler
00001310 g     F .text	00000024 LPUART8_DriverIRQHandler
60000000 g       *ABS*	00000000 __boot_hdr_start__
000028bc  w    F .text	00000008 DMA2_DMA18_IRQHandler
0000037a  w    F .text	00000002 KPP_DriverIRQHandler
00003076 g     F .text	0000000e __main
0000037a  w    F .text	00000002 FLEXSPI2_DriverIRQHandler
0000037a  w    F .text	00000002 LPSPI2_DriverIRQHandler
00000e8c g     F .text	000002fe LPUART_Init
00002a5c  w    F .text	00000008 SJC_IRQHandler
00002c5c  w    F .text	00000008 ADC_ETC_IRQ0_IRQHandler
00000000 g     O .text	000002b8 __Vectors
0000308a g     F .text	00000040 _deferredlazyseek
0000037a  w    F .text	00000002 LCDIF_DriverIRQHandler
0000037a  w    F .text	00000002 SAI3_RX_DriverIRQHandler
0000037a  w    F .text	00000002 CCM_2_DriverIRQHandler
0000037a  w    F .text	00000002 PIT_DriverIRQHandler
000002b8 g       .text	00000000 __section_table_start
00003084  w    F .text	00000002 __exit
0000037a  w    F .text	00000002 PMU_EVENT_DriverIRQHandler
00002a0c  w    F .text	00000008 PXP_IRQHandler
0000037a  w    F .text	00000002 PWM4_FAULT_DriverIRQHandler
0000037a  w    F .text	00000002 DMA13_DMA29_DriverIRQHandler
00004b34 g     O .text	00000014 sysPllConfig_BOARD_BootClockRUN
000035de g     F .text	00000006 __sys_tmpnam
00002f24 g     F .text	00000022 BOARD_InitDebugConsole
0000037a  w    F .text	00000002 FLEXRAM_DriverIRQHandler
00002d9c g     F .text	0000002c HardFault_Handler
00002adc  w    F .text	00000008 Reserved86_IRQHandler
00000000 g       *ABS*	00000000 __vectors_start__
00002bbc  w    F .text	00000008 SRC_IRQHandler
0000037a  w    F .text	00000002 LPSPI4_DriverIRQHandler
00001000 g       *ABS*	00000000 _HeapSize
0000037a  w    F .text	00000002 SEMC_DriverIRQHandler
000028c4  w    F .text	00000008 DMA3_DMA19_IRQHandler
00002b3c  w    F .text	00000008 GPIO2_Combined_0_15_IRQHandler
0000037a  w    F .text	00000002 SPDIF_DriverIRQHandler
00002afc  w    F .text	00000008 GPIO1_INT2_IRQHandler
00002a04  w    F .text	00000008 CSI_IRQHandler
00000378  w    F .text	00000002 SysTick_Handler
0000037a  w    F .text	00000002 PWM4_3_DriverIRQHandler
0000037a  w    F .text	00000002 ENET2_DriverIRQHandler
601f0000 g       *ABS*	00000000 __top_Flash_00
20200000 g       *ABS*	00000000 __base_SRAM_OC
00002a2c  w    F .text	00000008 SNVS_LP_WRAPPER_IRQHandler
00002cbc  w    F .text	00000008 ENC2_IRQHandler
60002060 g       *ABS*	00000000 _itcm_loadstart
00002d04  w    F .text	00000008 PWM2_2_IRQHandler
20000000 g       *ABS*	00000000 __base_RAM2
00000376  w    F .text	00000002 PendSV_Handler
00000370  w    F .text	00000002 NMI_Handler
00004bb0 g       .text	00000000 __exidx_end
000002dc g       .text	00000000 __data_section_table_end
00000690 g     F .text	0000009c CLOCK_InitSysPll
0000072c g     F .text	00000018 CLOCK_DeinitUsb2Pll
00002d64  w    F .text	00000008 PWM4_FAULT_IRQHandler
0000291c  w    F .text	00000008 DMA14_DMA30_IRQHandler
00002b24  w    F .text	00000008 GPIO1_INT7_IRQHandler
000030ca g     F .text	00000140 __flsbuf
0000037a  w    F .text	00000002 USB_PHY1_DriverIRQHandler
60001000 g     O .boot_hdr	00000020 ImageVectorTable
00002ba4  w    F .text	00000008 CCM_1_IRQHandler
000029cc  w    F .text	00000008 CAN1_IRQHandler
0000037a  w    F .text	00000002 GPIO3_Combined_0_15_DriverIRQHandler
0000037a  w    F .text	00000002 CAN3_DriverIRQHandler
00002c64  w    F .text	00000008 ADC_ETC_IRQ1_IRQHandler
0000037a  w    F .text	00000002 Reserved171_DriverIRQHandler
000028cc  w    F .text	00000008 DMA4_DMA20_IRQHandler
00002b84  w    F .text	00000008 FLEXIO2_IRQHandler
00002b7c  w    F .text	00000008 FLEXIO1_IRQHandler
000029bc  w    F .text	00000008 LPSPI3_IRQHandler
20000110 g     O .bss	00000004 errno
0000037a  w    F .text	00000002 DMA7_DMA23_DriverIRQHandler
00004bb0 g       .text	00000000 _etext
00002934  w    F .text	00000008 CTI0_ERROR_IRQHandler
0000037a  w    F .text	00000002 BEE_DriverIRQHandler
00002b6c  w    F .text	00000008 GPIO5_Combined_0_15_IRQHandler
00002bdc  w    F .text	00000008 PWM1_0_IRQHandler
00002a4c  w    F .text	00000008 Reserved68_IRQHandler
00000564 g     F .text	0000006c CLOCK_InitExternalClk
0000037a  w    F .text	00000002 LPI2C3_DriverIRQHandler
0000037a  w    F .text	00000002 GPR_IRQ_DriverIRQHandler
00002974  w    F .text	00000008 LPUART6_IRQHandler
00002abc  w    F .text	00000008 USB_PHY2_IRQHandler
000028dc  w    F .text	00000008 DMA6_DMA22_IRQHandler
00001914 g     F .text	00000080 Serial_UartInit
000029ec  w    F .text	00000008 TSC_DIG_IRQHandler
000028f4  w    F .text	00000008 DMA9_DMA25_IRQHandler
000005d0 g     F .text	00000034 CLOCK_SwitchOsc
00001000 g       *ABS*	00000000 _StackSize
0000037a  w    F .text	00000002 PWM2_FAULT_DriverIRQHandler
0000035e g     F .text	00000012 bss_init
00002b5c  w    F .text	00000008 GPIO4_Combined_0_15_IRQHandler
0000037a  w    F .text	00000002 PWM3_1_DriverIRQHandler
00002964  w    F .text	00000008 LPUART4_IRQHandler
00002c44  w    F .text	00000008 ENET_1588_Timer_IRQHandler
0000185c g     F .text	00000058 SerialManager_OpenWriteHandle
000027d4 g     F .text	00000040 setvbuf
00002cf4  w    F .text	00000008 PWM2_0_IRQHandler
00002a44  w    F .text	00000008 DCP_VMI_IRQHandler
00002a7c  w    F .text	00000008 SAI3_RX_IRQHandler
0000037a  w    F .text	00000002 DMA14_DMA30_DriverIRQHandler
00002c04  w    F .text	00000008 FLEXSPI2_IRQHandler
0000037a  w    F .text	00000002 TMR1_DriverIRQHandler
0000037a  w    F .text	00000002 TRNG_DriverIRQHandler
00003418 g     F .text	00000174 __aeabi_uldivmod
20000118 g       .noinit	00000000 _noinit
0000037a  w    F .text	00000002 PWM3_2_DriverIRQHandler
60000000 g     O .boot_hdr	00000200 FlexSPI_NOR_Config
0000037a  w    F .text	00000002 ENET_1588_Timer_DriverIRQHandler
00002c1c  w    F .text	00000008 USDHC1_IRQHandler
00002cfc  w    F .text	00000008 PWM2_1_IRQHandler
20000000 g     O .data	00000004 SystemCoreClock
000028ec  w    F .text	00000008 DMA8_DMA24_IRQHandler
20000024 g     O .bss	00000004 g_xtalFreq
0000252c g     F .text	000000c8 malloc
000033c4 g     F .text	00000014 remove
00002d14  w    F .text	00000008 PWM2_FAULT_IRQHandler
0000037a  w    F .text	00000002 FLEXIO2_DriverIRQHandler
0000037a  w    F .text	00000002 GPIO2_Combined_16_31_DriverIRQHandler
00002d7c  w    F .text	00000008 CAN3_IRQHandler
0000037a  w    F .text	00000002 Reserved143_DriverIRQHandler
00080000 g       *ABS*	00000000 __top_RAM
00002b8c  w    F .text	00000008 WDOG1_IRQHandler
00001a4c g     F .text	00000064 BOARD_DebugConsoleSrcFreq
0000037a  w    F .text	00000002 PWM4_1_DriverIRQHandler
000029c4  w    F .text	00000008 LPSPI4_IRQHandler
00002a94  w    F .text	00000008 PMU_EVENT_IRQHandler
000012a4 g     F .text	00000024 LPUART5_DriverIRQHandler
00002bcc  w    F .text	00000008 GPT1_IRQHandler
aaaaaaab g       *ABS*	00000000 _flexram_bank_config
00002954  w    F .text	00000008 LPUART2_IRQHandler
00002d4c  w    F .text	00000008 PWM4_1_IRQHandler
000035c6 g     F .text	00000006 __sys_flen
00002c2c  w    F .text	00000008 USB_OTG2_IRQHandler
00002c9c  w    F .text	00000008 ACMP4_IRQHandler
00002c14  w    F .text	00000008 SEMC_IRQHandler
0000037a  w    F .text	00000002 PWM3_3_DriverIRQHandler
0000037a  w    F .text	00000002 DMA0_DMA16_DriverIRQHandler
0000037a  w    F .text	00000002 IntDefaultHandler
20080000 g       *ABS*	00000000 __top_RAM2
0000077c g     F .text	0000001c CLOCK_DeinitEnetPll
20001118 g       .heap	00000000 _pvHeapLimit
00002be4  w    F .text	00000008 PWM1_1_IRQHandler
0000295c  w    F .text	00000008 LPUART3_IRQHandler
0000037a  w    F .text	00000002 DMA2_DMA18_DriverIRQHandler
00002850 g     F .text	00000044 fflush
000016e8 g     F .text	00000100 HAL_UartInit
00000ad4 g     F .text	00000064 CLOCK_InitSysPfd
0000037a  w    F .text	00000002 SRC_DriverIRQHandler
00002d1c  w    F .text	00000008 PWM3_0_IRQHandler
0000037a  w    F .text	00000002 GPIO1_INT4_DriverIRQHandler
0000037a  w    F .text	00000002 Reserved144_DriverIRQHandler
00004bb0 g       .text	00000000 __exidx_start
00002474 g     F .text	0000004c __assertion_failed
0000037a  w    F .text	00000002 USDHC1_DriverIRQHandler
00002d34  w    F .text	00000008 PWM3_3_IRQHandler
00002aec  w    F .text	00000008 GPIO1_INT0_IRQHandler
0000037a  w    F .text	00000002 ENC3_DriverIRQHandler
00001238 g     F .text	00000024 LPUART2_DriverIRQHandler
0000296c  w    F .text	00000008 LPUART5_IRQHandler
0000037a  w    F .text	00000002 PWM3_FAULT_DriverIRQHandler
00002a34  w    F .text	00000008 CSU_IRQHandler
00003304 g     F .text	00000068 _fdopen
0000358e g     F .text	00000032 __aeabi_lowlevel_memset
00002a74  w    F .text	00000008 SAI2_IRQHandler
00002ac4  w    F .text	00000008 ADC1_IRQHandler
00002814 g     F .text	0000003c _sbrk
00080000 g       *ABS*	00000000 __top_SRAM_ITC
0000037a  w    F .text	00000002 EWM_DriverIRQHandler
00000628 g     F .text	00000068 CLOCK_InitArmPll
0000037a  w    F .text	00000002 TSC_DIG_DriverIRQHandler
0000037a  w    F .text	00000002 WDOG1_DriverIRQHandler
0000037a  w    F .text	00000002 FLEXIO1_DriverIRQHandler
000002b8 g       .text	00000000 __data_section_table
0000037a  w    F .text	00000002 ENET_DriverIRQHandler
0000037a  w    F .text	00000002 Reserved78_DriverIRQHandler
00002d6c  w    F .text	00000008 ENET2_IRQHandler
00004b78 g     O .text	00000004 __num_Ciob_streams
0000037a  w    F .text	00000002 TMR4_DriverIRQHandler
0000037a  w    F .text	00000002 ENC2_DriverIRQHandler
20080000 g       *ABS*	00000000 __top_SRAM_DTC
0000037a  w    F .text	00000002 ADC_ETC_IRQ2_DriverIRQHandler
00000e40 g     F .text	0000004c LPUART_GetInstance
20000118 g       .bss	00000000 _ebss
00000480 g     F .text	00000038 SysTick_DelayTicks
00002b34  w    F .text	00000008 GPIO1_Combined_16_31_IRQHandler
0000297c  w    F .text	00000008 LPUART7_IRQHandler
00002b94  w    F .text	00000008 RTWDOG_IRQHandler
0000037a  w    F .text	00000002 GPIO1_Combined_16_31_DriverIRQHandler
00004bb4 g       *ABS*	00000000 _image_size
0000037a  w    F .text	00000002 GPIO1_INT7_DriverIRQHandler
00002a9c  w    F .text	00000008 Reserved78_IRQHandler
0000037a  w    F .text	00000002 SAI1_DriverIRQHandler
0000037a  w    F .text	00000002 DCDC_DriverIRQHandler
0000037a  w    F .text	00000002 DMA12_DMA28_DriverIRQHandler
0000037a  w    F .text	00000002 PWM4_0_DriverIRQHandler
00002cc4  w    F .text	00000008 ENC3_IRQHandler
20200000 g       *ABS*	00000000 __base_RAM3
0000037a  w    F .text	00000002 ADC_ETC_ERROR_IRQ_DriverIRQHandler
0000037a  w    F .text	00000002 ACMP2_DriverIRQHandler
00002b54  w    F .text	00000008 GPIO3_Combined_16_31_IRQHandler
00002b9c  w    F .text	00000008 EWM_IRQHandler
0000037a  w    F .text	00000002 GPIO5_Combined_0_15_DriverIRQHandler
00002aa4  w    F .text	00000008 TEMP_LOW_HIGH_IRQHandler
0000037a  w    F .text	00000002 GPIO1_INT0_DriverIRQHandler
0000037a  w    F .text	00000002 GPIO1_INT2_DriverIRQHandler
00000001 g       *ABS*	00000000 _itcm_block_count
00002a14  w    F .text	00000008 WDOG2_IRQHandler
0000037a  w    F .text	00000002 RTWDOG_DriverIRQHandler
00002b14  w    F .text	00000008 GPIO1_INT5_IRQHandler
0000037a  w    F .text	00000002 FLEXSPI_DriverIRQHandler
00000340 g     F .text	0000001e data_init
000029ac  w    F .text	00000008 LPSPI1_IRQHandler
0000037a  w    F .text	00000002 GPT2_DriverIRQHandler
00002d24  w    F .text	00000008 PWM3_1_IRQHandler
00002d0c  w    F .text	00000008 PWM2_3_IRQHandler
60002000 g     O .teensy_boot	00000008 vector_table
00000744 g     F .text	0000001c CLOCK_DeinitAudioPll
000028d4  w    F .text	00000008 DMA5_DMA21_IRQHandler
00002944  w    F .text	00000008 CORE_IRQHandler
00002904  w    F .text	00000008 DMA11_DMA27_IRQHandler
60002000 g       *ABS*	00000000 __teensy_vectors_start__
00001d18 g     F .text	00000678 BOARD_BootClockRUN
00002994  w    F .text	00000008 LPI2C2_IRQHandler
0000037a  w    F .text	00000002 USB_PHY2_DriverIRQHandler
0000037a  w    F .text	00000002 DMA10_DMA26_DriverIRQHandler
0000037a  w    F .text	00000002 PWM2_1_DriverIRQHandler
00002aac  w    F .text	00000008 TEMP_PANIC_IRQHandler
00002b1c  w    F .text	00000008 GPIO1_INT6_IRQHandler
00002bec  w    F .text	00000008 PWM1_2_IRQHandler
00002614 g     F .text	00000100 fseek
00002cac  w    F .text	00000008 Reserved144_IRQHandler
0000037a  w    F .text	00000002 PWM1_1_DriverIRQHandler
000029f4  w    F .text	00000008 GPR_IRQ_IRQHandler
20000000 g       *ABS*	00000000 __base_SRAM_DTC
0000037a  w    F .text	00000002 PXP_DriverIRQHandler
60000000 g       *ABS*	00000000 __base_Flash
000023f4 g     F .text	00000080 BOARD_InitPins
00002bb4  w    F .text	00000008 GPC_IRQHandler
00001214 g     F .text	00000024 LPUART1_DriverIRQHandler
0000320a g     F .text	00000052 _fflush
00002ad4  w    F .text	00000008 DCDC_IRQHandler
0000037a  w    F .text	00000002 ADC1_DriverIRQHandler
00002b4c  w    F .text	00000008 GPIO3_Combined_0_15_IRQHandler
00002d5c  w    F .text	00000008 PWM4_3_IRQHandler
0000037a  w    F .text	00000002 PWM1_0_DriverIRQHandler
00002c24  w    F .text	00000008 USDHC2_IRQHandler
20000004 g       .bss	00000000 _bss
0000037a  w    F .text	00000002 SJC_DriverIRQHandler
000018b4 g     F .text	00000060 SerialManager_OpenReadHandle
0000037a  w    F .text	00000002 DMA1_DMA17_DriverIRQHandler
00000ce0 g     F .text	000000fc GPIO_PinSetInterruptConfig
0000037a  w    F .text	00000002 ENC1_DriverIRQHandler
60002060 g       *ABS*	00000000 _image_start
00002c34  w    F .text	00000008 USB_OTG1_IRQHandler
601f0000 g       *ABS*	00000000 __top_Flash
0000037a  w    F .text	00000002 ENC4_DriverIRQHandler
00001280 g     F .text	00000024 LPUART4_DriverIRQHandler
0000037a  w    F .text	00000002 CAN2_DriverIRQHandler
0000037a  w    F .text	00000002 DCP_DriverIRQHandler
20000118 g       .noinit	00000000 _end_noinit
20002118 g       .stack	00000000 _vStackTop
0000290c  w    F .text	00000008 DMA12_DMA28_IRQHandler
00002b74  w    F .text	00000008 GPIO5_Combined_16_31_IRQHandler
00002cdc  w    F .text	00000008 TMR2_IRQHandler
0000037a  w    F .text	00000002 CTI0_ERROR_DriverIRQHandler
00002c74  w    F .text	00000008 ADC_ETC_ERROR_IRQ_IRQHandler
0000037a  w    F .text	00000002 DMA8_DMA24_DriverIRQHandler
0000037a  w    F .text	00000002 GPT1_DriverIRQHandler
00002d54  w    F .text	00000008 PWM4_2_IRQHandler
000002f4 g       .text	00000000 __bss_section_table_end
00002894 g     F .text	00000018 __check_heap_overflow
0000037a  w    F .text	00000002 ACMP3_DriverIRQHandler
0000037a  w    F .text	00000002 DMA6_DMA22_DriverIRQHandler
0000037a  w    F .text	00000002 CSU_DriverIRQHandler
00002a64  w    F .text	00000008 BEE_IRQHandler
00002af4  w    F .text	00000008 GPIO1_INT1_IRQHandler
00002a8c  w    F .text	00000008 SPDIF_IRQHandler
0000037a  w    F .text	00000002 GPIO1_INT5_DriverIRQHandler
60000000 g       *ABS*	00000000 __base_Flash_00
0000037a  w    F .text	00000002 TMR3_DriverIRQHandler
00004cc8 g       *ABS*	00000000 _itcm_end
0000037a  w    F .text	00000002 TMR2_DriverIRQHandler
00002c6c  w    F .text	00000008 ADC_ETC_IRQ2_IRQHandler
00002b0c  w    F .text	00000008 GPIO1_INT4_IRQHandler
000012c8 g     F .text	00000024 LPUART6_DriverIRQHandler
0000037a  w    F .text	00000002 CTI1_ERROR_DriverIRQHandler
00002bac  w    F .text	00000008 CCM_2_IRQHandler
00004b2c g     O .text	00000008 armPllConfig_BOARD_BootClockRUN
000029e4  w    F .text	00000008 KPP_IRQHandler
00002c0c  w    F .text	00000008 FLEXSPI_IRQHandler
00002acc  w    F .text	00000008 ADC2_IRQHandler
0000037a  w    F .text	00000002 GPIO1_Combined_0_15_DriverIRQHandler
0000037a  w    F .text	00000002 USDHC2_DriverIRQHandler
00000760 g     F .text	0000001c CLOCK_DeinitVideoPll
000035e4 g     F .text	00000004 __sys_write
00003086 g     F .text	00000004 memset
0000037a  w    F .text	00000002 PWM4_2_DriverIRQHandler
0000037a  w    F .text	00000002 SAI2_DriverIRQHandler
000004b8 g     F .text	0000007c main
0000037a  w    F .text	00000002 CORE_DriverIRQHandler
00002a84  w    F .text	00000008 SAI3_TX_IRQHandler
000033d8 g     F .text	00000040 _do_fflush
20000114 g     O .bss	00000001 g_pinSet
00002714 g     F .text	00000048 ftell
00002c7c  w    F .text	00000008 PIT_IRQHandler
00002bc4  w    F .text	00000008 Reserved115_IRQHandler
00002a1c  w    F .text	00000008 SNVS_HP_WRAPPER_IRQHandler
00000374  w    F .text	00000002 SVC_Handler
0000336c g     F .text	00000058 fclose
0000037a  w    F .text	00000002 DMA11_DMA27_DriverIRQHandler
0000037a  w    F .text	00000002 CSI_DriverIRQHandler
000029a4  w    F .text	00000008 LPI2C4_IRQHandler
0000037a  w    F .text	00000002 PWM2_3_DriverIRQHandler
0000037a  w    F .text	00000002 XBAR1_IRQ_2_3_DriverIRQHandler
00002c54  w    F .text	00000008 XBAR1_IRQ_2_3_IRQHandler
00002d2c  w    F .text	00000008 PWM3_2_IRQHandler
0000037a  w    F .text	00000002 SNVS_HP_WRAPPER_TZ_DriverIRQHandler
0000037a  w    F .text	00000002 GPIO3_Combined_16_31_DriverIRQHandler
000035d8 g     F .text	00000006 __sys_seek
00002d74  w    F .text	00000008 ENET2_1588_Timer_IRQHandler
0000037a  w    F .text	00000002 PWM1_FAULT_DriverIRQHandler
0000037a  w    F .text	00000002 LPI2C1_DriverIRQHandler
0000341c g     F .text	00000000 __bhs_ldivmod1
00002a3c  w    F .text	00000008 DCP_IRQHandler
0000037a  w    F .text	00000002 ENET2_1588_Timer_DriverIRQHandler
00002d84  w    F .text	00000008 Reserved171_IRQHandler
00000604 g     F .text	00000024 CLOCK_InitRcOsc24M
000012ec g     F .text	00000024 LPUART7_DriverIRQHandler
00002984  w    F .text	00000008 LPUART8_IRQHandler
0000037a  w    F .text	00000002 PWM2_2_DriverIRQHandler
0000037a  w    F .text	00000002 DMA4_DMA20_DriverIRQHandler
00002b04  w    F .text	00000008 GPIO1_INT3_IRQHandler
0000037a  w    F .text	00000002 DMA9_DMA25_DriverIRQHandler
60002008 g     F .teensy_boot	00000034 ResetISR_pre
000013f4 g     F .text	000000f4 SystemInit
0000037a  w    F .text	00000002 SNVS_HP_WRAPPER_DriverIRQHandler
00002b2c  w    F .text	00000008 GPIO1_Combined_0_15_IRQHandler
000002dc g       .text	00000000 __bss_section_table
60001020 g     O .boot_hdr	0000000c BootData
0000037a  w    F .text	00000002 XBAR1_IRQ_0_1_DriverIRQHandler
0000037a  w    F .text	00000002 ADC_ETC_IRQ1_DriverIRQHandler
0000037a  w    F .text	00000002 LPSPI1_DriverIRQHandler
000035c0 g     F .text	00000006 __sys_close
00002914  w    F .text	00000008 DMA13_DMA29_IRQHandler
0000037a  w    F .text	00000002 DMA3_DMA19_DriverIRQHandler
00002cec  w    F .text	00000008 TMR4_IRQHandler
00002c94  w    F .text	00000008 ACMP3_IRQHandler
0000292c  w    F .text	00000008 DMA_ERROR_IRQHandler
00002cb4  w    F .text	00000008 ENC1_IRQHandler
00002bfc  w    F .text	00000008 PWM1_FAULT_IRQHandler
00000000 g       .stack	00000000 _itcm_start
00002ca4  w    F .text	00000008 Reserved143_IRQHandler
20000000 g       .uninit_RESERVED	00000000 _end_uninit_RESERVED
000024c0 g     F .text	0000006c _Cwritebuf
0000037a  w    F .text	00000002 GPIO1_INT3_DriverIRQHandler
0000037a  w    F .text	00000002 DCP_VMI_DriverIRQHandler
00002d94  w    F .text	00000008 GPIO6_7_8_9_IRQHandler
00004cc8 g       *ABS*	00000000 _itcm_size
20000000 g       .data	00000000 _data
20000028 g     O .bss	00000004 g_rtcXtalFreq
00002d8c  w    F .text	00000008 FLEXIO3_IRQHandler
00002b44  w    F .text	00000008 GPIO2_Combined_16_31_IRQHandler
0000037a  w    F .text	00000002 LPI2C4_DriverIRQHandler
20000118 g       .heap	00000000 _pvHeapStart
0000037a  w    F .text	00000002 GPC_DriverIRQHandler
0000294c  w    F .text	00000008 LPUART1_IRQHandler
00002ce4  w    F .text	00000008 TMR3_IRQHandler
0000298c  w    F .text	00000008 LPI2C1_IRQHandler
000002f4 g       .text	00000000 __section_table_end
0000037a  w    F .text	00000002 GPIO2_Combined_0_15_DriverIRQHandler
0000118c g     F .text	00000088 LPUART_GetDefaultConfig
00002c4c  w    F .text	00000008 XBAR1_IRQ_0_1_IRQHandler
00000000 g       *ABS*	00000000 __base_SRAM_ITC
000028e4  w    F .text	00000008 DMA7_DMA23_IRQHandler
0000299c  w    F .text	00000008 LPI2C3_IRQHandler
0000037c g     F .text	00000104 DbgConsole_Init
0000037a  w    F .text	00000002 PWM1_2_DriverIRQHandler
0000037a  w    F .text	00000002 USB_OTG1_DriverIRQHandler
000035d2 g     F .text	00000006 __sys_remove
0000037a  w    F .text	00000002 TEMP_LOW_HIGH_DriverIRQHandler
00002a24  w    F .text	00000008 SNVS_HP_WRAPPER_TZ_IRQHandler
0000037a  w    F .text	00000002 SAI3_TX_DriverIRQHandler
0000037a  w    F .text	00000002 FLEXIO3_DriverIRQHandler
20000004 g       .data	00000000 _edata
0000037a  w    F .text	00000002 WDOG2_DriverIRQHandler
00000be8 g     F .text	000000a4 GPIO_PinInit
0000037a  w    F .text	00000002 Reserved68_DriverIRQHandler
00002ef4  w    F .text	0000000e SystemInitHook
0000037a  w    F .text	00000002 PWM3_0_DriverIRQHandler
2000010c g     O .bss	00000004 __heaps
0000037a  w    F .text	00000002 GPIO4_Combined_0_15_DriverIRQHandler
00003084 g     F .text	00000002 __sys_appexit
000029b4  w    F .text	00000008 LPSPI2_IRQHandler
00002c8c  w    F .text	00000008 ACMP2_IRQHandler
0000037a  w    F .text	00000002 GPIO4_Combined_16_31_DriverIRQHandler
00000000 g       *ABS*	00000000 __base_RAM
00000000 g     O .text	000002b8 g_pfnVectors
000002f4 g     F .text	0000004c ResetISR
000014e8 g     F .text	00000200 SystemCoreClockUpdate
60006c14 g       *ABS*	00000000 _image_end
0000037a  w    F .text	00000002 GPIO6_7_8_9_DriverIRQHandler
20000108 g     O .bss	00000004 __end_of_heap
00002bd4  w    F .text	00000008 GPT2_IRQHandler
0000037a  w    F .text	00000002 GPIO5_Combined_16_31_DriverIRQHandler
000025f4 g     F .text	00000020 _Csys_alloc
000029dc  w    F .text	00000008 FLEXRAM_IRQHandler
000029d4  w    F .text	00000008 CAN2_IRQHandler
20280000 g       *ABS*	00000000 __top_SRAM_OC
0000037a  w    F .text	00000002 DMA5_DMA21_DriverIRQHandler
0000358c g     F .text	00000002 __aeabi_idiv0
00002924  w    F .text	00000008 DMA15_DMA31_IRQHandler
0000037a  w    F .text	00000002 CCM_1_DriverIRQHandler
60001030 g       *ABS*	00000000 __boot_hdr_end__
0000037a  w    F .text	00000002 ADC2_DriverIRQHandler
20280000 g       *ABS*	00000000 __top_RAM3
00002c84  w    F .text	00000008 ACMP1_IRQHandler
0000037a  w    F .text	00000002 Reserved115_DriverIRQHandler
0000037a  w    F .text	00000002 TEMP_PANIC_DriverIRQHandler
00002ae4  w    F .text	00000008 Reserved87_IRQHandler
0000037a  w    F .text	00000002 DMA15_DMA31_DriverIRQHandler
00002b64  w    F .text	00000008 GPIO4_Combined_16_31_IRQHandler
000032b8 g     F .text	0000004c strlen
000017e8 g     F .text	00000074 SerialManager_Init
0000037a  w    F .text	00000002 LPSPI3_DriverIRQHandler
00002ccc  w    F .text	00000008 ENC4_IRQHandler
0000037a  w    F .text	00000002 PWM1_3_DriverIRQHandler
0000037a  w    F .text	00000002 ACMP1_DriverIRQHandler
0000037a  w    F .text	00000002 LPI2C2_DriverIRQHandler
000028fc  w    F .text	00000008 DMA10_DMA26_IRQHandler
0000328c g     F .text	0000002c fputs
0000037a  w    F .text	00000002 Reserved86_DriverIRQHandler
00000c8c g     F .text	00000054 GPIO_PinWrite
00000798 g     F .text	0000033c CLOCK_GetPllFreq
0000037a  w    F .text	00000002 DMA_ERROR_DriverIRQHandler
20001118 g       .stack	00000000 _vStackBase
0000037a  w    F .text	00000002 ADC_ETC_IRQ0_DriverIRQHandler
20000020 g     O .bss	00000004 g_serialHandle
00002d44  w    F .text	00000008 PWM4_0_IRQHandler
0000037a  w    F .text	00000002 CAN1_DriverIRQHandler
0000275c g     F .text	00000078 _initio
00002cd4  w    F .text	00000008 TMR1_IRQHandler
000028ac  w    F .text	00000008 DMA0_DMA16_IRQHandler
0000037a  w    F .text	00000002 GPIO1_INT6_DriverIRQHandler
0000037a  w    F .text	00000002 GPIO1_INT1_DriverIRQHandler
00002a54  w    F .text	00000008 TRNG_IRQHandler
000029fc  w    F .text	00000008 LCDIF_IRQHandler
20000054 g     O .bss	000000b4 __Ciob
00002d3c  w    F .text	00000008 PWM3_FAULT_IRQHandler
00002c3c  w    F .text	00000008 ENET_IRQHandler
000035cc g     F .text	00000006 __sys_istty
0000293c  w    F .text	00000008 CTI1_ERROR_IRQHandler
0000037a  w    F .text	00000002 PWM2_0_DriverIRQHandler
00002bf4  w    F .text	00000008 PWM1_3_IRQHandler
000028b4  w    F .text	00000008 DMA1_DMA17_IRQHandler
00002a6c  w    F .text	00000008 SAI1_IRQHandler
0000125c g     F .text	00000024 LPUART3_DriverIRQHandler
0000325c g     F .text	00000030 free
0000037a  w    F .text	00000002 SNVS_LP_WRAPPER_DriverIRQHandler
0000037a  w    F .text	00000002 USB_OTG2_DriverIRQHandler



Disassembly of section .teensy_boot:

60002000 <vector_table>:
60002000:	00 00 01 20 09 20 00 60                             ... . .`

60002008 <ResetISR_pre>:
60002008:	4b07      	ldr	r3, [pc, #28]	; (60002028 <ResetISR_pre+0x20>)
6000200a:	4a08      	ldr	r2, [pc, #32]	; (6000202c <ResetISR_pre+0x24>)
6000200c:	645a      	str	r2, [r3, #68]	; 0x44
6000200e:	2207      	movs	r2, #7
60002010:	641a      	str	r2, [r3, #64]	; 0x40
60002012:	f44f 022a 	mov.w	r2, #11141120	; 0xaa0000
60002016:	639a      	str	r2, [r3, #56]	; 0x38
60002018:	4a05      	ldr	r2, [pc, #20]	; (60002030 <ResetISR_pre+0x28>)
6000201a:	4906      	ldr	r1, [pc, #24]	; (60002034 <ResetISR_pre+0x2c>)
6000201c:	4806      	ldr	r0, [pc, #24]	; (60002038 <ResetISR_pre+0x30>)
6000201e:	f000 f80d 	bl	6000203c <memory_copy>
60002022:	f000 f819 	bl	60002058 <__ResetISR_veneer>
60002026:	bf00      	nop
60002028:	400ac000 	.word	0x400ac000
6000202c:	aaaaaaab 	.word	0xaaaaaaab
60002030:	00004cc8 	.word	0x00004cc8
60002034:	60002060 	.word	0x60002060
60002038:	00000000 	.word	0x00000000

6000203c <memory_copy>:
6000203c:	4288      	cmp	r0, r1
6000203e:	d006      	beq.n	6000204e <memory_copy+0x12>
60002040:	4290      	cmp	r0, r2
60002042:	d205      	bcs.n	60002050 <memory_copy+0x14>
60002044:	f851 3b04 	ldr.w	r3, [r1], #4
60002048:	f840 3b04 	str.w	r3, [r0], #4
6000204c:	e7f8      	b.n	60002040 <memory_copy+0x4>
6000204e:	4770      	bx	lr
60002050:	4770      	bx	lr
60002052:	ffff ffff 			; <UNDEFINED> instruction: 0xffffffff
60002056:	Address 0x60002056 is out of bounds.


60002058 <__ResetISR_veneer>:
60002058:	f85f f000 	ldr.w	pc, [pc]	; 6000205c <__ResetISR_veneer+0x4>
6000205c:	000002f5 	.word	0x000002f5

Disassembly of section .text:

00000000 <__Vectors>:
       0:	20002118 000002f5 00000371 00002d9d     .!. ....q....-..
	...
      2c:	00000375 00000000 00000000 00000377     u...........w...
      3c:	00000379 000028ad 000028b5 000028bd     y....(...(...(..
      4c:	000028c5 000028cd 000028d5 000028dd     .(...(...(...(..
      5c:	000028e5 000028ed 000028f5 000028fd     .(...(...(...(..
      6c:	00002905 0000290d 00002915 0000291d     .)...)...)...)..
      7c:	00002925 0000292d 00002935 0000293d     %)..-)..5)..=)..
      8c:	00002945 0000294d 00002955 0000295d     E)..M)..U)..])..
      9c:	00002965 0000296d 00002975 0000297d     e)..m)..u)..})..
      ac:	00002985 0000298d 00002995 0000299d     .)...)...)...)..
      bc:	000029a5 000029ad 000029b5 000029bd     .)...)...)...)..
      cc:	000029c5 000029cd 000029d5 000029dd     .)...)...)...)..
      dc:	000029e5 000029ed 000029f5 000029fd     .)...)...)...)..
      ec:	00002a05 00002a0d 00002a15 00002a1d     .*...*...*...*..
      fc:	00002a25 00002a2d 00002a35 00002a3d     %*..-*..5*..=*..
     10c:	00002a45 00002a4d 00002a55 00002a5d     E*..M*..U*..]*..
     11c:	00002a65 00002a6d 00002a75 00002a7d     e*..m*..u*..}*..
     12c:	00002a85 00002a8d 00002a95 00002a9d     .*...*...*...*..
     13c:	00002aa5 00002aad 00002ab5 00002abd     .*...*...*...*..
     14c:	00002ac5 00002acd 00002ad5 00002add     .*...*...*...*..
     15c:	00002ae5 00002aed 00002af5 00002afd     .*...*...*...*..
     16c:	00002b05 00002b0d 00002b15 00002b1d     .+...+...+...+..
     17c:	00002b25 00002b2d 00002b35 00002b3d     %+..-+..5+..=+..
     18c:	00002b45 00002b4d 00002b55 00002b5d     E+..M+..U+..]+..
     19c:	00002b65 00002b6d 00002b75 00002b7d     e+..m+..u+..}+..
     1ac:	00002b85 00002b8d 00002b95 00002b9d     .+...+...+...+..
     1bc:	00002ba5 00002bad 00002bb5 00002bbd     .+...+...+...+..
     1cc:	00002bc5 00002bcd 00002bd5 00002bdd     .+...+...+...+..
     1dc:	00002be5 00002bed 00002bf5 00002bfd     .+...+...+...+..
     1ec:	00002c05 00002c0d 00002c15 00002c1d     .,...,...,...,..
     1fc:	00002c25 00002c2d 00002c35 00002c3d     %,..-,..5,..=,..
     20c:	00002c45 00002c4d 00002c55 00002c5d     E,..M,..U,..],..
     21c:	00002c65 00002c6d 00002c75 00002c7d     e,..m,..u,..},..
     22c:	00002c85 00002c8d 00002c95 00002c9d     .,...,...,...,..
     23c:	00002ca5 00002cad 00002cb5 00002cbd     .,...,...,...,..
     24c:	00002cc5 00002ccd 00002cd5 00002cdd     .,...,...,...,..
     25c:	00002ce5 00002ced 00002cf5 00002cfd     .,...,...,...,..
     26c:	00002d05 00002d0d 00002d15 00002d1d     .-...-...-...-..
     27c:	00002d25 00002d2d 00002d35 00002d3d     %-..--..5-..=-..
     28c:	00002d45 00002d4d 00002d55 00002d5d     E-..M-..U-..]-..
     29c:	00002d65 00002d6d 00002d75 00002d7d     e-..m-..u-..}-..
     2ac:	00002d85 00002d8d 00002d95              .-...-...-..

000002b8 <__data_section_table>:
     2b8:	60006c10 	.word	0x60006c10
     2bc:	00004bb0 	.word	0x00004bb0
     2c0:	00000000 	.word	0x00000000
     2c4:	60006c10 	.word	0x60006c10
     2c8:	20000000 	.word	0x20000000
     2cc:	00000004 	.word	0x00000004
     2d0:	60006c10 	.word	0x60006c10
     2d4:	20200000 	.word	0x20200000
     2d8:	00000000 	.word	0x00000000

000002dc <__bss_section_table>:
     2dc:	00004bb0 	.word	0x00004bb0
     2e0:	00000000 	.word	0x00000000
     2e4:	20000004 	.word	0x20000004
     2e8:	00000114 	.word	0x00000114
     2ec:	20200000 	.word	0x20200000
     2f0:	00000000 	.word	0x00000000

000002f4 <ResetISR>:
     2f4:	b672b510 	.word	0xb672b510
     2f8:	f87cf001 	.word	0xf87cf001
     2fc:	e0074b0d 	.word	0xe0074b0d
     300:	040cf103 	.word	0x040cf103
     304:	6859689a 	.word	0x6859689a
     308:	6818      	ldr	r0, [r3, #0]
     30a:	f000 f819 	bl	340 <data_init>
     30e:	4623      	mov	r3, r4
     310:	4a09      	ldr	r2, [pc, #36]	; (338 <ResetISR+0x44>)
     312:	4293      	cmp	r3, r2
     314:	d3f4      	bcc.n	300 <ResetISR+0xc>
     316:	e006      	b.n	326 <ResetISR+0x32>
     318:	461c      	mov	r4, r3
     31a:	6859      	ldr	r1, [r3, #4]
     31c:	f854 0b08 	ldr.w	r0, [r4], #8
     320:	f000 f81d 	bl	35e <bss_init>
     324:	4623      	mov	r3, r4
     326:	4a05      	ldr	r2, [pc, #20]	; (33c <ResetISR+0x48>)
     328:	4293      	cmp	r3, r2
     32a:	d3f5      	bcc.n	318 <ResetISR+0x24>
     32c:	b662      	cpsie	i
     32e:	f002 fea2 	bl	3076 <__main>
     332:	e7fe      	b.n	332 <ResetISR+0x3e>
     334:	02b8      	lsls	r0, r7, #10
     336:	0000      	movs	r0, r0
     338:	02dc      	lsls	r4, r3, #11
     33a:	0000      	movs	r0, r0
     33c:	02f4      	lsls	r4, r6, #11
	...

00000340 <data_init>:
     340:	2300      	movs	r3, #0
     342:	4293      	cmp	r3, r2
     344:	d20a      	bcs.n	35c <data_init+0x1c>
     346:	b410      	push	{r4}
     348:	f850 4b04 	ldr.w	r4, [r0], #4
     34c:	f841 4b04 	str.w	r4, [r1], #4
     350:	3304      	adds	r3, #4
     352:	4293      	cmp	r3, r2
     354:	d3f8      	bcc.n	348 <data_init+0x8>
     356:	f85d 4b04 	ldr.w	r4, [sp], #4
     35a:	4770      	bx	lr
     35c:	4770      	bx	lr

0000035e <bss_init>:
     35e:	2300      	movs	r3, #0
     360:	428b      	cmp	r3, r1
     362:	d204      	bcs.n	36e <bss_init+0x10>
     364:	2200      	movs	r2, #0
     366:	f840 2b04 	str.w	r2, [r0], #4
     36a:	3304      	adds	r3, #4
     36c:	e7f8      	b.n	360 <bss_init+0x2>
     36e:	4770      	bx	lr

00000370 <NMI_Handler>:
     370:	e7fe      	b.n	370 <NMI_Handler>
     372:	e7fe      	b.n	372 <NMI_Handler+0x2>

00000374 <SVC_Handler>:
     374:	e7fe      	b.n	374 <SVC_Handler>

00000376 <PendSV_Handler>:
     376:	e7fe      	b.n	376 <PendSV_Handler>

00000378 <SysTick_Handler>:
     378:	e7fe      	b.n	378 <SysTick_Handler>

0000037a <ACMP1_DriverIRQHandler>:
     37a:	e7fe      	b.n	37a <ACMP1_DriverIRQHandler>

0000037c <DbgConsole_Init>:
     37c:	b580      	push	{r7, lr}
     37e:	b08e      	sub	sp, #56	; 0x38
     380:	af00      	add	r7, sp, #0
     382:	60b9      	str	r1, [r7, #8]
     384:	607b      	str	r3, [r7, #4]
     386:	4603      	mov	r3, r0
     388:	73fb      	strb	r3, [r7, #15]
     38a:	4613      	mov	r3, r2
     38c:	73bb      	strb	r3, [r7, #14]
     38e:	f243 5321 	movw	r3, #13601	; 0x3521
     392:	637b      	str	r3, [r7, #52]	; 0x34
     394:	687b      	ldr	r3, [r7, #4]
     396:	617b      	str	r3, [r7, #20]
     398:	68bb      	ldr	r3, [r7, #8]
     39a:	61bb      	str	r3, [r7, #24]
     39c:	2300      	movs	r3, #0
     39e:	773b      	strb	r3, [r7, #28]
     3a0:	2300      	movs	r3, #0
     3a2:	777b      	strb	r3, [r7, #29]
     3a4:	7bfb      	ldrb	r3, [r7, #15]
     3a6:	77bb      	strb	r3, [r7, #30]
     3a8:	2301      	movs	r3, #1
     3aa:	77fb      	strb	r3, [r7, #31]
     3ac:	2301      	movs	r3, #1
     3ae:	f887 3020 	strb.w	r3, [r7, #32]
     3b2:	7bbb      	ldrb	r3, [r7, #14]
     3b4:	f887 302c 	strb.w	r3, [r7, #44]	; 0x2c
     3b8:	7bbb      	ldrb	r3, [r7, #14]
     3ba:	2b01      	cmp	r3, #1
     3bc:	d118      	bne.n	3f0 <DbgConsole_Init+0x74>
     3be:	f107 0314 	add.w	r3, r7, #20
     3c2:	633b      	str	r3, [r7, #48]	; 0x30
     3c4:	221c      	movs	r2, #28
     3c6:	2100      	movs	r1, #0
     3c8:	4826      	ldr	r0, [pc, #152]	; (464 <DbgConsole_Init+0xe8>)
     3ca:	f002 fe5c 	bl	3086 <memset>
     3ce:	4b25      	ldr	r3, [pc, #148]	; (464 <DbgConsole_Init+0xe8>)
     3d0:	4a24      	ldr	r2, [pc, #144]	; (464 <DbgConsole_Init+0xe8>)
     3d2:	611a      	str	r2, [r3, #16]
     3d4:	4b23      	ldr	r3, [pc, #140]	; (464 <DbgConsole_Init+0xe8>)
     3d6:	691b      	ldr	r3, [r3, #16]
     3d8:	f107 0224 	add.w	r2, r7, #36	; 0x24
     3dc:	4611      	mov	r1, r2
     3de:	4618      	mov	r0, r3
     3e0:	f001 fa02 	bl	17e8 <SerialManager_Init>
     3e4:	4603      	mov	r3, r0
     3e6:	637b      	str	r3, [r7, #52]	; 0x34
     3e8:	6b7b      	ldr	r3, [r7, #52]	; 0x34
     3ea:	2b00      	cmp	r3, #0
     3ec:	d014      	beq.n	418 <DbgConsole_Init+0x9c>
     3ee:	e010      	b.n	412 <DbgConsole_Init+0x96>
     3f0:	7bbb      	ldrb	r3, [r7, #14]
     3f2:	2b02      	cmp	r3, #2
     3f4:	d101      	bne.n	3fa <DbgConsole_Init+0x7e>
     3f6:	6b7b      	ldr	r3, [r7, #52]	; 0x34
     3f8:	e02f      	b.n	45a <DbgConsole_Init+0xde>
     3fa:	7bbb      	ldrb	r3, [r7, #14]
     3fc:	2b03      	cmp	r3, #3
     3fe:	d101      	bne.n	404 <DbgConsole_Init+0x88>
     400:	6b7b      	ldr	r3, [r7, #52]	; 0x34
     402:	e02a      	b.n	45a <DbgConsole_Init+0xde>
     404:	7bbb      	ldrb	r3, [r7, #14]
     406:	2b04      	cmp	r3, #4
     408:	d101      	bne.n	40e <DbgConsole_Init+0x92>
     40a:	6b7b      	ldr	r3, [r7, #52]	; 0x34
     40c:	e025      	b.n	45a <DbgConsole_Init+0xde>
     40e:	6b7b      	ldr	r3, [r7, #52]	; 0x34
     410:	e023      	b.n	45a <DbgConsole_Init+0xde>
     412:	4815      	ldr	r0, [pc, #84]	; (468 <DbgConsole_Init+0xec>)
     414:	f002 f82e 	bl	2474 <__assertion_failed>
     418:	4b12      	ldr	r3, [pc, #72]	; (464 <DbgConsole_Init+0xe8>)
     41a:	691b      	ldr	r3, [r3, #16]
     41c:	4913      	ldr	r1, [pc, #76]	; (46c <DbgConsole_Init+0xf0>)
     41e:	4618      	mov	r0, r3
     420:	f001 fa1c 	bl	185c <SerialManager_OpenWriteHandle>
     424:	4603      	mov	r3, r0
     426:	637b      	str	r3, [r7, #52]	; 0x34
     428:	6b7b      	ldr	r3, [r7, #52]	; 0x34
     42a:	2b00      	cmp	r3, #0
     42c:	d002      	beq.n	434 <DbgConsole_Init+0xb8>
     42e:	4810      	ldr	r0, [pc, #64]	; (470 <DbgConsole_Init+0xf4>)
     430:	f002 f820 	bl	2474 <__assertion_failed>
     434:	4b0b      	ldr	r3, [pc, #44]	; (464 <DbgConsole_Init+0xe8>)
     436:	691b      	ldr	r3, [r3, #16]
     438:	490e      	ldr	r1, [pc, #56]	; (474 <DbgConsole_Init+0xf8>)
     43a:	4618      	mov	r0, r3
     43c:	f001 fa3a 	bl	18b4 <SerialManager_OpenReadHandle>
     440:	4603      	mov	r3, r0
     442:	637b      	str	r3, [r7, #52]	; 0x34
     444:	6b7b      	ldr	r3, [r7, #52]	; 0x34
     446:	2b00      	cmp	r3, #0
     448:	d002      	beq.n	450 <DbgConsole_Init+0xd4>
     44a:	480b      	ldr	r0, [pc, #44]	; (478 <DbgConsole_Init+0xfc>)
     44c:	f002 f812 	bl	2474 <__assertion_failed>
     450:	4b04      	ldr	r3, [pc, #16]	; (464 <DbgConsole_Init+0xe8>)
     452:	691b      	ldr	r3, [r3, #16]
     454:	4a09      	ldr	r2, [pc, #36]	; (47c <DbgConsole_Init+0x100>)
     456:	6013      	str	r3, [r2, #0]
     458:	2300      	movs	r3, #0
     45a:	4618      	mov	r0, r3
     45c:	3738      	adds	r7, #56	; 0x38
     45e:	46bd      	mov	sp, r7
     460:	bd80      	pop	{r7, pc}
     462:	bf00      	nop
     464:	0004      	movs	r4, r0
     466:	2000      	movs	r0, #0
     468:	3718      	adds	r7, #24
     46a:	0000      	movs	r0, r0
     46c:	0018      	movs	r0, r3
     46e:	2000      	movs	r0, #0
     470:	3768      	adds	r7, #104	; 0x68
     472:	0000      	movs	r0, r0
     474:	001c      	movs	r4, r3
     476:	2000      	movs	r0, #0
     478:	37b8      	adds	r7, #184	; 0xb8
     47a:	0000      	movs	r0, r0
     47c:	0020      	movs	r0, r4
     47e:	2000      	movs	r0, #0

00000480 <SysTick_DelayTicks>:
     480:	b480      	push	{r7}
     482:	b085      	sub	sp, #20
     484:	af00      	add	r7, sp, #0
     486:	6078      	str	r0, [r7, #4]
     488:	2300      	movs	r3, #0
     48a:	60fb      	str	r3, [r7, #12]
     48c:	2300      	movs	r3, #0
     48e:	60fb      	str	r3, [r7, #12]
     490:	e002      	b.n	498 <SysTick_DelayTicks+0x18>
     492:	68fb      	ldr	r3, [r7, #12]
     494:	3301      	adds	r3, #1
     496:	60fb      	str	r3, [r7, #12]
     498:	687b      	ldr	r3, [r7, #4]
     49a:	4a06      	ldr	r2, [pc, #24]	; (4b4 <SysTick_DelayTicks+0x34>)
     49c:	fb02 f303 	mul.w	r3, r2, r3
     4a0:	68fa      	ldr	r2, [r7, #12]
     4a2:	429a      	cmp	r2, r3
     4a4:	d9f5      	bls.n	492 <SysTick_DelayTicks+0x12>
     4a6:	bf00      	nop
     4a8:	3714      	adds	r7, #20
     4aa:	46bd      	mov	sp, r7
     4ac:	f85d 7b04 	ldr.w	r7, [sp], #4
     4b0:	4770      	bx	lr
     4b2:	bf00      	nop
     4b4:	4240      	negs	r0, r0
     4b6:	000f      	movs	r7, r1

000004b8 <main>:
     4b8:	b580      	push	{r7, lr}
     4ba:	b082      	sub	sp, #8
     4bc:	af00      	add	r7, sp, #0
     4be:	2301      	movs	r3, #1
     4c0:	2300713b 	.word	0x2300713b
     4c4:	717b      	strb	r3, [r7, #5]
     4c6:	2300      	.short	0x2300
     4c8:	71bb      	strb	r3, [r7, #6]
     4ca:	f001      	.short	0xf001
     4cc:	ff93 f001 	vaddl.u16	<illegal reg q7.5>, d3, d1
     4d0:	f002fc23 	.word	0xf002fc23
     4d4:	fd27 f001 	stc2	0, cr15, [r7, #-4]!
     4d8:	1d3bf807 	.word	0x1d3bf807
     4dc:	461a      	mov	r2, r3
     4de:	2103      	.short	0x2103
     4e0:	4812      	ldr	r0, [pc, #72]	; (52c <main+0x74>)
     4e2:	f000      	.short	0xf000
     4e4:	fb81 2201 	smull	r2, r2, r1, r1
     4e8:	48102103 	.word	0x48102103
     4ec:	f000 fbce 	bl	c8c <GPIO_PinWrite>
     4f0:	22014b0f 	.word	0x22014b0f
     4f4:	701a      	strb	r2, [r3, #0]
     4f6:	f44f      	.short	0xf44f
     4f8:	707a      	strb	r2, [r7, #1]
     4fa:	f7ff      	.short	0xf7ff
     4fc:	ffc1 4b0c 			; <UNDEFINED> instruction: 0xffc14b0c
     500:	b2db781b 	.word	0xb2db781b
     504:	2b00      	cmp	r3, #0
     506:	d008      	.short	0xd008
     508:	2200      	movs	r2, #0
     50a:	2103      	.short	0x2103
     50c:	4807      	ldr	r0, [pc, #28]	; (52c <main+0x74>)
     50e:	f000      	.short	0xf000
     510:	fbbd 4b07 			; <UNDEFINED> instruction: 0xfbbd4b07
     514:	701a2200 	.word	0x701a2200
     518:	e7ed      	b.n	4f6 <main+0x3e>
     51a:	2201      	.short	0x2201
     51c:	2103      	movs	r1, #3
     51e:	4803      	.short	0x4803
     520:	f000 fbb4 	bl	c8c <GPIO_PinWrite>
     524:	22014b02 	.word	0x22014b02
     528:	701a      	strb	r2, [r3, #0]
     52a:	e7e4      	.short	0xe7e4
     52c:	8000      	strh	r0, [r0, #0]
     52e:	401b      	.short	0x401b
     530:	0114      	lsls	r4, r2, #4
     532:	2000      	.short	0x2000

00000534 <CLOCK_GetOscFreq>:
     534:	b480      	push	{r7}
     536:	af00      	.short	0xaf00
     538:	4b07      	ldr	r3, [pc, #28]	; (558 <CLOCK_GetOscFreq+0x24>)
     53a:	f8d3      	.short	0xf8d3
     53c:	3270      	adds	r2, #112	; 0x70
     53e:	f003      	.short	0xf003
     540:	0310      	lsls	r0, r2, #12
     542:	2b00      	.short	0x2b00
     544:	d102      	bne.n	54c <CLOCK_GetOscFreq+0x18>
     546:	4b05      	.short	0x4b05
     548:	681b      	ldr	r3, [r3, #0]
     54a:	e000      	.short	0xe000
     54c:	4b04      	ldr	r3, [pc, #16]	; (560 <CLOCK_GetOscFreq+0x2c>)
     54e:	4618      	.short	0x4618
     550:	46bd      	mov	sp, r7
     552:	f85d      	.short	0xf85d
     554:	7b04      	ldrb	r4, [r0, #12]
     556:	4770      	.short	0x4770
     558:	8000      	strh	r0, [r0, #0]
     55a:	400d      	.short	0x400d
     55c:	0024      	movs	r4, r4
     55e:	2000      	.short	0x2000
     560:	3600      	adds	r6, #0
     562:	016e      	.short	0x016e

00000564 <CLOCK_InitExternalClk>:
     564:	b580      	push	{r7, lr}
     566:	b082      	.short	0xb082
     568:	af00      	add	r7, sp, #0
     56a:	4603      	.short	0x4603
     56c:	71fb      	strb	r3, [r7, #7]
     56e:	79fb      	.short	0x79fb
     570:	f083 0301 	eor.w	r3, r3, #1
     574:	2b00b2db 	.word	0x2b00b2db
     578:	d102      	bne.n	580 <CLOCK_InitExternalClk+0x1c>
     57a:	4813      	.short	0x4813
     57c:	f001 ff7a 	bl	2474 <__assertion_failed>
     580:	f04f4b12 	.word	0xf04f4b12
     584:	4280      	cmp	r0, r0
     586:	f8c3      	.short	0xf8c3
     588:	2158      	movs	r1, #88	; 0x58
     58a:	bf00      	.short	0xbf00
     58c:	4b0f      	ldr	r3, [pc, #60]	; (5cc <CLOCK_InitExternalClk+0x68>)
     58e:	f8d3      	.short	0xf8d3
     590:	3270      	adds	r2, #112	; 0x70
     592:	f403      	.short	0xf403
     594:	3380      	adds	r3, #128	; 0x80
     596:	2b00      	cmp	r3, #0
     598:	4b0cd0f8 	.word	0x4b0cd0f8
     59c:	f44f 3280 	mov.w	r2, #65536	; 0x10000
     5a0:	2154f8c3 	.word	0x2154f8c3
     5a4:	bf00      	nop
     5a6:	4b09      	.short	0x4b09
     5a8:	f8d3 3150 	ldr.w	r3, [r3, #336]	; 0x150
     5ac:	f403 4300 	and.w	r3, r3, #32768	; 0x8000
     5b0:	d0f82b00 	.word	0xd0f82b00
     5b4:	4b05      	ldr	r3, [pc, #20]	; (5cc <CLOCK_InitExternalClk+0x68>)
     5b6:	f44f      	.short	0xf44f
     5b8:	3280      	adds	r2, #128	; 0x80
     5ba:	f8c3      	.short	0xf8c3
     5bc:	2158      	movs	r1, #88	; 0x58
     5be:	bf00      	.short	0xbf00
     5c0:	3708      	adds	r7, #8
     5c2:	46bd      	.short	0x46bd
     5c4:	bd80      	pop	{r7, pc}
     5c6:	bf00      	.short	0xbf00
     5c8:	3808      	subs	r0, #8
     5ca:	0000      	.short	0x0000
     5cc:	8000      	strh	r0, [r0, #0]
     5ce:	400d      	.short	0x400d

000005d0 <CLOCK_SwitchOsc>:
     5d0:	b480      	push	{r7}
     5d2:	b083      	.short	0xb083
     5d4:	af00      	add	r7, sp, #0
     5d6:	4603      	.short	0x4603
     5d8:	71fb      	strb	r3, [r7, #7]
     5da:	79fb      	.short	0x79fb
     5dc:	2b00      	cmp	r3, #0
     5de:	d104      	.short	0xd104
     5e0:	4b07      	ldr	r3, [pc, #28]	; (600 <CLOCK_SwitchOsc+0x30>)
     5e2:	2210      	.short	0x2210
     5e4:	f8c3 2274 	str.w	r2, [r3, #628]	; 0x274
     5e8:	4b05e003 	.word	0x4b05e003
     5ec:	2210      	movs	r2, #16
     5ee:	f8c3      	.short	0xf8c3
     5f0:	2278      	movs	r2, #120	; 0x78
     5f2:	bf00      	.short	0xbf00
     5f4:	370c      	adds	r7, #12
     5f6:	46bd      	mov	sp, r7
     5f8:	f85d 7b04 	ldr.w	r7, [sp], #4
     5fc:	4770      	bx	lr
     5fe:	bf00      	nop
     600:	400d8000 	.word	0x400d8000

00000604 <CLOCK_InitRcOsc24M>:
     604:	b480      	push	{r7}
     606:	af00      	add	r7, sp, #0
     608:	4b06      	ldr	r3, [pc, #24]	; (624 <CLOCK_InitRcOsc24M+0x20>)
     60a:	f8d3 3270 	ldr.w	r3, [r3, #624]	; 0x270
     60e:	4a05      	ldr	r2, [pc, #20]	; (624 <CLOCK_InitRcOsc24M+0x20>)
     610:	f043 0301 	orr.w	r3, r3, #1
     614:	f8c2 3270 	str.w	r3, [r2, #624]	; 0x270
     618:	bf00      	nop
     61a:	46bd      	mov	sp, r7
     61c:	f85d 7b04 	ldr.w	r7, [sp], #4
     620:	4770      	bx	lr
     622:	bf00      	nop
     624:	400d8000 	.word	0x400d8000

00000628 <CLOCK_InitArmPll>:
     628:	b480      	push	{r7}
     62a:	b083      	sub	sp, #12
     62c:	af00      	add	r7, sp, #0
     62e:	6078      	str	r0, [r7, #4]
     630:	4b15      	ldr	r3, [pc, #84]	; (688 <CLOCK_InitArmPll+0x60>)
     632:	681b      	ldr	r3, [r3, #0]
     634:	f423 32e0 	bic.w	r2, r3, #114688	; 0x1c000
     638:	687b      	ldr	r3, [r7, #4]
     63a:	791b      	ldrb	r3, [r3, #4]
     63c:	039b      	lsls	r3, r3, #14
     63e:	b29b      	uxth	r3, r3
     640:	4313      	orrs	r3, r2
     642:	4a11      	ldr	r2, [pc, #68]	; (688 <CLOCK_InitArmPll+0x60>)
     644:	f443 3380 	orr.w	r3, r3, #65536	; 0x10000
     648:	6013      	str	r3, [r2, #0]
     64a:	4b0f      	ldr	r3, [pc, #60]	; (688 <CLOCK_InitArmPll+0x60>)
     64c:	681a      	ldr	r2, [r3, #0]
     64e:	4b0f      	ldr	r3, [pc, #60]	; (68c <CLOCK_InitArmPll+0x64>)
     650:	4013      	ands	r3, r2
     652:	687a      	ldr	r2, [r7, #4]
     654:	6812      	ldr	r2, [r2, #0]
     656:	f002 027f 	and.w	r2, r2, #127	; 0x7f
     65a:	4313      	orrs	r3, r2
     65c:	4a0a      	ldr	r2, [pc, #40]	; (688 <CLOCK_InitArmPll+0x60>)
     65e:	f443 5300 	orr.w	r3, r3, #8192	; 0x2000
     662:	6013      	str	r3, [r2, #0]
     664:	bf00      	nop
     666:	4b08      	ldr	r3, [pc, #32]	; (688 <CLOCK_InitArmPll+0x60>)
     668:	681b      	ldr	r3, [r3, #0]
     66a:	2b00      	cmp	r3, #0
     66c:	dafb      	bge.n	666 <CLOCK_InitArmPll+0x3e>
     66e:	4b06      	ldr	r3, [pc, #24]	; (688 <CLOCK_InitArmPll+0x60>)
     670:	681b      	ldr	r3, [r3, #0]
     672:	4a05      	ldr	r2, [pc, #20]	; (688 <CLOCK_InitArmPll+0x60>)
     674:	f423 3380 	bic.w	r3, r3, #65536	; 0x10000
     678:	6013      	str	r3, [r2, #0]
     67a:	bf00      	nop
     67c:	370c      	adds	r7, #12
     67e:	46bd      	mov	sp, r7
     680:	f85d 7b04 	ldr.w	r7, [sp], #4
     684:	4770      	bx	lr
     686:	bf00      	nop
     688:	400d8000 	.word	0x400d8000
     68c:	ffffcf80 	.word	0xffffcf80

00000690 <CLOCK_InitSysPll>:
     690:	b480      	push	{r7}
     692:	b083      	sub	sp, #12
     694:	af00      	add	r7, sp, #0
     696:	6078      	str	r0, [r7, #4]
     698:	4b22      	ldr	r3, [pc, #136]	; (724 <CLOCK_InitSysPll+0x94>)
     69a:	6b1b      	ldr	r3, [r3, #48]	; 0x30
     69c:	f423 32e0 	bic.w	r2, r3, #114688	; 0x1c000
     6a0:	687b      	ldr	r3, [r7, #4]
     6a2:	7b1b      	ldrb	r3, [r3, #12]
     6a4:	039b      	lsls	r3, r3, #14
     6a6:	b29b      	uxth	r3, r3
     6a8:	4313      	orrs	r3, r2
     6aa:	4a1e      	ldr	r2, [pc, #120]	; (724 <CLOCK_InitSysPll+0x94>)
     6ac:	f443 3380 	orr.w	r3, r3, #65536	; 0x10000
     6b0:	6313      	str	r3, [r2, #48]	; 0x30
     6b2:	4b1c      	ldr	r3, [pc, #112]	; (724 <CLOCK_InitSysPll+0x94>)
     6b4:	6b1a      	ldr	r2, [r3, #48]	; 0x30
     6b6:	4b1c      	ldr	r3, [pc, #112]	; (728 <CLOCK_InitSysPll+0x98>)
     6b8:	4013      	ands	r3, r2
     6ba:	687a      	ldr	r2, [r7, #4]
     6bc:	7812      	ldrb	r2, [r2, #0]
     6be:	f002 0201 	and.w	r2, r2, #1
     6c2:	4313      	orrs	r3, r2
     6c4:	4a17      	ldr	r2, [pc, #92]	; (724 <CLOCK_InitSysPll+0x94>)
     6c6:	f443 5300 	orr.w	r3, r3, #8192	; 0x2000
     6ca:	6313      	str	r3, [r2, #48]	; 0x30
     6cc:	687b      	ldr	r3, [r7, #4]
     6ce:	685b      	ldr	r3, [r3, #4]
     6d0:	4a14      	ldr	r2, [pc, #80]	; (724 <CLOCK_InitSysPll+0x94>)
     6d2:	f023 4340 	bic.w	r3, r3, #3221225472	; 0xc0000000
     6d6:	6513      	str	r3, [r2, #80]	; 0x50
     6d8:	687b      	ldr	r3, [r7, #4]
     6da:	689b      	ldr	r3, [r3, #8]
     6dc:	4a11      	ldr	r2, [pc, #68]	; (724 <CLOCK_InitSysPll+0x94>)
     6de:	f023 4340 	bic.w	r3, r3, #3221225472	; 0xc0000000
     6e2:	6613      	str	r3, [r2, #96]	; 0x60
     6e4:	687b      	ldr	r3, [r7, #4]
     6e6:	8a5b      	ldrh	r3, [r3, #18]
     6e8:	f3c3 020e 	ubfx	r2, r3, #0, #15
     6ec:	687b      	ldr	r3, [r7, #4]
     6ee:	7c1b      	ldrb	r3, [r3, #16]
     6f0:	03db      	lsls	r3, r3, #15
     6f2:	b29b      	uxth	r3, r3
     6f4:	431a      	orrs	r2, r3
     6f6:	687b      	ldr	r3, [r7, #4]
     6f8:	89db      	ldrh	r3, [r3, #14]
     6fa:	041b      	lsls	r3, r3, #16
     6fc:	4909      	ldr	r1, [pc, #36]	; (724 <CLOCK_InitSysPll+0x94>)
     6fe:	4313      	orrs	r3, r2
     700:	640b      	str	r3, [r1, #64]	; 0x40
     702:	bf00      	nop
     704:	4b07      	ldr	r3, [pc, #28]	; (724 <CLOCK_InitSysPll+0x94>)
     706:	6b1b      	ldr	r3, [r3, #48]	; 0x30
     708:	2b00      	cmp	r3, #0
     70a:	dafb      	bge.n	704 <CLOCK_InitSysPll+0x74>
     70c:	4b05      	ldr	r3, [pc, #20]	; (724 <CLOCK_InitSysPll+0x94>)
     70e:	6b1b      	ldr	r3, [r3, #48]	; 0x30
     710:	4a04      	ldr	r2, [pc, #16]	; (724 <CLOCK_InitSysPll+0x94>)
     712:	f423 3380 	bic.w	r3, r3, #65536	; 0x10000
     716:	6313      	str	r3, [r2, #48]	; 0x30
     718:	bf00      	nop
     71a:	370c      	adds	r7, #12
     71c:	46bd      	mov	sp, r7
     71e:	f85d 7b04 	ldr.w	r7, [sp], #4
     722:	4770      	bx	lr
     724:	400d8000 	.word	0x400d8000
     728:	ffffcffe 	.word	0xffffcffe

0000072c <CLOCK_DeinitUsb2Pll>:
     72c:	b480      	push	{r7}
     72e:	af00      	add	r7, sp, #0
     730:	4b03      	ldr	r3, [pc, #12]	; (740 <CLOCK_DeinitUsb2Pll+0x14>)
     732:	2200      	movs	r2, #0
     734:	621a      	str	r2, [r3, #32]
     736:	bf00      	nop
     738:	46bd      	mov	sp, r7
     73a:	f85d 7b04 	ldr.w	r7, [sp], #4
     73e:	4770      	bx	lr
     740:	400d8000 	.word	0x400d8000

00000744 <CLOCK_DeinitAudioPll>:
     744:	b480      	push	{r7}
     746:	af00      	add	r7, sp, #0
     748:	4b04      	ldr	r3, [pc, #16]	; (75c <CLOCK_DeinitAudioPll+0x18>)
     74a:	f44f 5280 	mov.w	r2, #4096	; 0x1000
     74e:	671a      	str	r2, [r3, #112]	; 0x70
     750:	bf00      	nop
     752:	46bd      	mov	sp, r7
     754:	f85d 7b04 	ldr.w	r7, [sp], #4
     758:	4770      	bx	lr
     75a:	bf00      	nop
     75c:	400d8000 	.word	0x400d8000

00000760 <CLOCK_DeinitVideoPll>:
     760:	b480      	push	{r7}
     762:	af00      	add	r7, sp, #0
     764:	4b04      	ldr	r3, [pc, #16]	; (778 <CLOCK_DeinitVideoPll+0x18>)
     766:	f44f 5280 	mov.w	r2, #4096	; 0x1000
     76a:	f8c3 20a0 	str.w	r2, [r3, #160]	; 0xa0
     76e:	bf00      	nop
     770:	46bd      	mov	sp, r7
     772:	f85d 7b04 	ldr.w	r7, [sp], #4
     776:	4770      	bx	lr
     778:	400d8000 	.word	0x400d8000

0000077c <CLOCK_DeinitEnetPll>:
     77c:	b480      	push	{r7}
     77e:	af00      	add	r7, sp, #0
     780:	4b04      	ldr	r3, [pc, #16]	; (794 <CLOCK_DeinitEnetPll+0x18>)
     782:	f44f 5280 	mov.w	r2, #4096	; 0x1000
     786:	f8c3 20e0 	str.w	r2, [r3, #224]	; 0xe0
     78a:	bf00      	nop
     78c:	46bd      	mov	sp, r7
     78e:	f85d 7b04 	ldr.w	r7, [sp], #4
     792:	4770      	bx	lr
     794:	400d8000 	.word	0x400d8000

00000798 <CLOCK_GetPllFreq>:
     798:	b590      	push	{r4, r7, lr}
     79a:	b08d      	sub	sp, #52	; 0x34
     79c:	af00      	add	r7, sp, #0
     79e:	6078      	str	r0, [r7, #4]
     7a0:	4bb2      	ldr	r3, [pc, #712]	; (a6c <CLOCK_GetPllFreq+0x2d4>)
     7a2:	f107 040c 	add.w	r4, r7, #12
     7a6:	cb0f      	ldmia	r3, {r0, r1, r2, r3}
     7a8:	e884 000f 	stmia.w	r4, {r0, r1, r2, r3}
     7ac:	6879      	ldr	r1, [r7, #4]
     7ae:	48b0      	ldr	r0, [pc, #704]	; (a70 <CLOCK_GetPllFreq+0x2d8>)
     7b0:	f002 fb23 	bl	2dfa <CLOCK_IsPllEnabled>
     7b4:	4603      	mov	r3, r0
     7b6:	f083 0301 	eor.w	r3, r3, #1
     7ba:	b2db      	uxtb	r3, r3
     7bc:	2b00      	cmp	r3, #0
     7be:	d001      	beq.n	7c4 <CLOCK_GetPllFreq+0x2c>
     7c0:	2300      	movs	r3, #0
     7c2:	e17e      	b.n	ac2 <CLOCK_GetPllFreq+0x32a>
     7c4:	6879      	ldr	r1, [r7, #4]
     7c6:	48aa      	ldr	r0, [pc, #680]	; (a70 <CLOCK_GetPllFreq+0x2d8>)
     7c8:	f002 fb35 	bl	2e36 <CLOCK_GetPllBypassRefClk>
     7cc:	62f8      	str	r0, [r7, #44]	; 0x2c
     7ce:	6879      	ldr	r1, [r7, #4]
     7d0:	48a7      	ldr	r0, [pc, #668]	; (a70 <CLOCK_GetPllFreq+0x2d8>)
     7d2:	f002 faf9 	bl	2dc8 <CLOCK_IsPllBypassed>
     7d6:	4603      	mov	r3, r0
     7d8:	2b00      	cmp	r3, #0
     7da:	d001      	beq.n	7e0 <CLOCK_GetPllFreq+0x48>
     7dc:	6afb      	ldr	r3, [r7, #44]	; 0x2c
     7de:	e170      	b.n	ac2 <CLOCK_GetPllFreq+0x32a>
     7e0:	687b      	ldr	r3, [r7, #4]
     7e2:	4aa4      	ldr	r2, [pc, #656]	; (a74 <CLOCK_GetPllFreq+0x2dc>)
     7e4:	4293      	cmp	r3, r2
     7e6:	d07e      	beq.n	8e6 <CLOCK_GetPllFreq+0x14e>
     7e8:	687b      	ldr	r3, [r7, #4]
     7ea:	4aa2      	ldr	r2, [pc, #648]	; (a74 <CLOCK_GetPllFreq+0x2dc>)
     7ec:	4293      	cmp	r3, r2
     7ee:	d815      	bhi.n	81c <CLOCK_GetPllFreq+0x84>
     7f0:	687b      	ldr	r3, [r7, #4]
     7f2:	4aa1      	ldr	r2, [pc, #644]	; (a78 <CLOCK_GetPllFreq+0x2e0>)
     7f4:	4293      	cmp	r3, r2
     7f6:	d068      	beq.n	8ca <CLOCK_GetPllFreq+0x132>
     7f8:	687b      	ldr	r3, [r7, #4]
     7fa:	4a9f      	ldr	r2, [pc, #636]	; (a78 <CLOCK_GetPllFreq+0x2e0>)
     7fc:	4293      	cmp	r3, r2
     7fe:	d803      	bhi.n	808 <CLOCK_GetPllFreq+0x70>
     800:	687b      	ldr	r3, [r7, #4]
     802:	2b0d      	cmp	r3, #13
     804:	d024      	beq.n	850 <CLOCK_GetPllFreq+0xb8>
     806:	e158      	b.n	aba <CLOCK_GetPllFreq+0x322>
     808:	687b      	ldr	r3, [r7, #4]
     80a:	4a9c      	ldr	r2, [pc, #624]	; (a7c <CLOCK_GetPllFreq+0x2e4>)
     80c:	4293      	cmp	r3, r2
     80e:	f000 8146 	beq.w	a9e <CLOCK_GetPllFreq+0x306>
     812:	687b      	ldr	r3, [r7, #4]
     814:	4a9a      	ldr	r2, [pc, #616]	; (a80 <CLOCK_GetPllFreq+0x2e8>)
     816:	4293      	cmp	r3, r2
     818:	d024      	beq.n	864 <CLOCK_GetPllFreq+0xcc>
     81a:	e14e      	b.n	aba <CLOCK_GetPllFreq+0x322>
     81c:	687b      	ldr	r3, [r7, #4]
     81e:	4a99      	ldr	r2, [pc, #612]	; (a84 <CLOCK_GetPllFreq+0x2ec>)
     820:	4293      	cmp	r3, r2
     822:	f000 8104 	beq.w	a2e <CLOCK_GetPllFreq+0x296>
     826:	687b      	ldr	r3, [r7, #4]
     828:	4a96      	ldr	r2, [pc, #600]	; (a84 <CLOCK_GetPllFreq+0x2ec>)
     82a:	4293      	cmp	r3, r2
     82c:	d805      	bhi.n	83a <CLOCK_GetPllFreq+0xa2>
     82e:	687b      	ldr	r3, [r7, #4]
     830:	4a95      	ldr	r2, [pc, #596]	; (a88 <CLOCK_GetPllFreq+0x2f0>)
     832:	4293      	cmp	r3, r2
     834:	f000 80a8 	beq.w	988 <CLOCK_GetPllFreq+0x1f0>
     838:	e13f      	b.n	aba <CLOCK_GetPllFreq+0x322>
     83a:	687b      	ldr	r3, [r7, #4]
     83c:	4a93      	ldr	r2, [pc, #588]	; (a8c <CLOCK_GetPllFreq+0x2f4>)
     83e:	4293      	cmp	r3, r2
     840:	f000 8104 	beq.w	a4c <CLOCK_GetPllFreq+0x2b4>
     844:	687b      	ldr	r3, [r7, #4]
     846:	4a92      	ldr	r2, [pc, #584]	; (a90 <CLOCK_GetPllFreq+0x2f8>)
     848:	4293      	cmp	r3, r2
     84a:	f000 8125 	beq.w	a98 <CLOCK_GetPllFreq+0x300>
     84e:	e134      	b.n	aba <CLOCK_GetPllFreq+0x322>
     850:	4b87      	ldr	r3, [pc, #540]	; (a70 <CLOCK_GetPllFreq+0x2d8>)
     852:	681b      	ldr	r3, [r3, #0]
     854:	f003 037f 	and.w	r3, r3, #127	; 0x7f
     858:	6afa      	ldr	r2, [r7, #44]	; 0x2c
     85a:	fb02 f303 	mul.w	r3, r2, r3
     85e:	085b      	lsrs	r3, r3, #1
     860:	62fb      	str	r3, [r7, #44]	; 0x2c
     862:	e12d      	b.n	ac0 <CLOCK_GetPllFreq+0x328>
     864:	6afb      	ldr	r3, [r7, #44]	; 0x2c
     866:	ee07 3a90 	vmov	s15, r3
     86a:	eeb8 6b67 	vcvt.f64.u32	d6, s15
     86e:	4b80      	ldr	r3, [pc, #512]	; (a70 <CLOCK_GetPllFreq+0x2d8>)
     870:	6d1b      	ldr	r3, [r3, #80]	; 0x50
     872:	ee07 3a90 	vmov	s15, r3
     876:	eeb8 7b67 	vcvt.f64.u32	d7, s15
     87a:	ee26 5b07 	vmul.f64	d5, d6, d7
     87e:	4b7c      	ldr	r3, [pc, #496]	; (a70 <CLOCK_GetPllFreq+0x2d8>)
     880:	6e1b      	ldr	r3, [r3, #96]	; 0x60
     882:	ee07 3a90 	vmov	s15, r3
     886:	eeb8 6b67 	vcvt.f64.u32	d6, s15
     88a:	ee85 7b06 	vdiv.f64	d7, d5, d6
     88e:	ed87 7b08 	vstr	d7, [r7, #32]
     892:	4b77      	ldr	r3, [pc, #476]	; (a70 <CLOCK_GetPllFreq+0x2d8>)
     894:	6b1b      	ldr	r3, [r3, #48]	; 0x30
     896:	f003 0301 	and.w	r3, r3, #1
     89a:	2b00      	cmp	r3, #0
     89c:	d005      	beq.n	8aa <CLOCK_GetPllFreq+0x112>
     89e:	6afb      	ldr	r3, [r7, #44]	; 0x2c
     8a0:	2216      	movs	r2, #22
     8a2:	fb02 f303 	mul.w	r3, r2, r3
     8a6:	62fb      	str	r3, [r7, #44]	; 0x2c
     8a8:	e005      	b.n	8b6 <CLOCK_GetPllFreq+0x11e>
     8aa:	6afa      	ldr	r2, [r7, #44]	; 0x2c
     8ac:	4613      	mov	r3, r2
     8ae:	009b      	lsls	r3, r3, #2
     8b0:	4413      	add	r3, r2
     8b2:	009b      	lsls	r3, r3, #2
     8b4:	62fb      	str	r3, [r7, #44]	; 0x2c
     8b6:	ed97 7b08 	vldr	d7, [r7, #32]
     8ba:	eefc 7bc7 	vcvt.u32.f64	s15, d7
     8be:	ee17 2a90 	vmov	r2, s15
     8c2:	6afb      	ldr	r3, [r7, #44]	; 0x2c
     8c4:	4413      	add	r3, r2
     8c6:	62fb      	str	r3, [r7, #44]	; 0x2c
     8c8:	e0fa      	b.n	ac0 <CLOCK_GetPllFreq+0x328>
     8ca:	4b69      	ldr	r3, [pc, #420]	; (a70 <CLOCK_GetPllFreq+0x2d8>)
     8cc:	691b      	ldr	r3, [r3, #16]
     8ce:	f003 0302 	and.w	r3, r3, #2
     8d2:	2b00      	cmp	r3, #0
     8d4:	d001      	beq.n	8da <CLOCK_GetPllFreq+0x142>
     8d6:	2216      	movs	r2, #22
     8d8:	e000      	b.n	8dc <CLOCK_GetPllFreq+0x144>
     8da:	2214      	movs	r2, #20
     8dc:	6afb      	ldr	r3, [r7, #44]	; 0x2c
     8de:	fb02 f303 	mul.w	r3, r2, r3
     8e2:	62fb      	str	r3, [r7, #44]	; 0x2c
     8e4:	e0ec      	b.n	ac0 <CLOCK_GetPllFreq+0x328>
     8e6:	4b62      	ldr	r3, [pc, #392]	; (a70 <CLOCK_GetPllFreq+0x2d8>)
     8e8:	6f1b      	ldr	r3, [r3, #112]	; 0x70
     8ea:	f003 037f 	and.w	r3, r3, #127	; 0x7f
     8ee:	61fb      	str	r3, [r7, #28]
     8f0:	6afb      	ldr	r3, [r7, #44]	; 0x2c
     8f2:	ee07 3a90 	vmov	s15, r3
     8f6:	eeb8 6b67 	vcvt.f64.u32	d6, s15
     8fa:	4b5d      	ldr	r3, [pc, #372]	; (a70 <CLOCK_GetPllFreq+0x2d8>)
     8fc:	f8d3 3080 	ldr.w	r3, [r3, #128]	; 0x80
     900:	ee07 3a90 	vmov	s15, r3
     904:	eeb8 7b67 	vcvt.f64.u32	d7, s15
     908:	ee26 5b07 	vmul.f64	d5, d6, d7
     90c:	4b58      	ldr	r3, [pc, #352]	; (a70 <CLOCK_GetPllFreq+0x2d8>)
     90e:	f8d3 3090 	ldr.w	r3, [r3, #144]	; 0x90
     912:	ee07 3a90 	vmov	s15, r3
     916:	eeb8 6b67 	vcvt.f64.u32	d6, s15
     91a:	ee85 7b06 	vdiv.f64	d7, d5, d6
     91e:	ed87 7b08 	vstr	d7, [r7, #32]
     922:	6afb      	ldr	r3, [r7, #44]	; 0x2c
     924:	69fa      	ldr	r2, [r7, #28]
     926:	fb02 f303 	mul.w	r3, r2, r3
     92a:	ed97 7b08 	vldr	d7, [r7, #32]
     92e:	eefc 7bc7 	vcvt.u32.f64	s15, d7
     932:	ee17 2a90 	vmov	r2, s15
     936:	4413      	add	r3, r2
     938:	62fb      	str	r3, [r7, #44]	; 0x2c
     93a:	4b4d      	ldr	r3, [pc, #308]	; (a70 <CLOCK_GetPllFreq+0x2d8>)
     93c:	6f1b      	ldr	r3, [r3, #112]	; 0x70
     93e:	f403 13c0 	and.w	r3, r3, #1572864	; 0x180000
     942:	2b00      	cmp	r3, #0
     944:	d003      	beq.n	94e <CLOCK_GetPllFreq+0x1b6>
     946:	f5b3 2f00 	cmp.w	r3, #524288	; 0x80000
     94a:	d004      	beq.n	956 <CLOCK_GetPllFreq+0x1be>
     94c:	e007      	b.n	95e <CLOCK_GetPllFreq+0x1c6>
     94e:	6afb      	ldr	r3, [r7, #44]	; 0x2c
     950:	089b      	lsrs	r3, r3, #2
     952:	62fb      	str	r3, [r7, #44]	; 0x2c
     954:	e003      	b.n	95e <CLOCK_GetPllFreq+0x1c6>
     956:	6afb      	ldr	r3, [r7, #44]	; 0x2c
     958:	085b      	lsrs	r3, r3, #1
     95a:	62fb      	str	r3, [r7, #44]	; 0x2c
     95c:	bf00      	nop
     95e:	4b44      	ldr	r3, [pc, #272]	; (a70 <CLOCK_GetPllFreq+0x2d8>)
     960:	f8d3 2170 	ldr.w	r2, [r3, #368]	; 0x170
     964:	4b4b      	ldr	r3, [pc, #300]	; (a94 <CLOCK_GetPllFreq+0x2fc>)
     966:	4013      	ands	r3, r2
     968:	f5b3 4f00 	cmp.w	r3, #32768	; 0x8000
     96c:	d006      	beq.n	97c <CLOCK_GetPllFreq+0x1e4>
     96e:	4a49      	ldr	r2, [pc, #292]	; (a94 <CLOCK_GetPllFreq+0x2fc>)
     970:	4293      	cmp	r3, r2
     972:	d107      	bne.n	984 <CLOCK_GetPllFreq+0x1ec>
     974:	6afb      	ldr	r3, [r7, #44]	; 0x2c
     976:	089b      	lsrs	r3, r3, #2
     978:	62fb      	str	r3, [r7, #44]	; 0x2c
     97a:	e004      	b.n	986 <CLOCK_GetPllFreq+0x1ee>
     97c:	6afb      	ldr	r3, [r7, #44]	; 0x2c
     97e:	085b      	lsrs	r3, r3, #1
     980:	62fb      	str	r3, [r7, #44]	; 0x2c
     982:	e000      	b.n	986 <CLOCK_GetPllFreq+0x1ee>
     984:	bf00      	nop
     986:	e09b      	b.n	ac0 <CLOCK_GetPllFreq+0x328>
     988:	4b39      	ldr	r3, [pc, #228]	; (a70 <CLOCK_GetPllFreq+0x2d8>)
     98a:	f8d3 30a0 	ldr.w	r3, [r3, #160]	; 0xa0
     98e:	f003 037f 	and.w	r3, r3, #127	; 0x7f
     992:	61fb      	str	r3, [r7, #28]
     994:	6afb      	ldr	r3, [r7, #44]	; 0x2c
     996:	ee07 3a90 	vmov	s15, r3
     99a:	eeb8 6b67 	vcvt.f64.u32	d6, s15
     99e:	4b34      	ldr	r3, [pc, #208]	; (a70 <CLOCK_GetPllFreq+0x2d8>)
     9a0:	f8d3 30b0 	ldr.w	r3, [r3, #176]	; 0xb0
     9a4:	ee07 3a90 	vmov	s15, r3
     9a8:	eeb8 7b67 	vcvt.f64.u32	d7, s15
     9ac:	ee26 5b07 	vmul.f64	d5, d6, d7
     9b0:	4b2f      	ldr	r3, [pc, #188]	; (a70 <CLOCK_GetPllFreq+0x2d8>)
     9b2:	f8d3 30c0 	ldr.w	r3, [r3, #192]	; 0xc0
     9b6:	ee07 3a90 	vmov	s15, r3
     9ba:	eeb8 6b67 	vcvt.f64.u32	d6, s15
     9be:	ee85 7b06 	vdiv.f64	d7, d5, d6
     9c2:	ed87 7b08 	vstr	d7, [r7, #32]
     9c6:	6afb      	ldr	r3, [r7, #44]	; 0x2c
     9c8:	69fa      	ldr	r2, [r7, #28]
     9ca:	fb02 f303 	mul.w	r3, r2, r3
     9ce:	ed97 7b08 	vldr	d7, [r7, #32]
     9d2:	eefc 7bc7 	vcvt.u32.f64	s15, d7
     9d6:	ee17 2a90 	vmov	r2, s15
     9da:	4413      	add	r3, r2
     9dc:	62fb      	str	r3, [r7, #44]	; 0x2c
     9de:	4b24      	ldr	r3, [pc, #144]	; (a70 <CLOCK_GetPllFreq+0x2d8>)
     9e0:	f8d3 30a0 	ldr.w	r3, [r3, #160]	; 0xa0
     9e4:	f403 13c0 	and.w	r3, r3, #1572864	; 0x180000
     9e8:	2b00      	cmp	r3, #0
     9ea:	d003      	beq.n	9f4 <CLOCK_GetPllFreq+0x25c>
     9ec:	f5b3 2f00 	cmp.w	r3, #524288	; 0x80000
     9f0:	d004      	beq.n	9fc <CLOCK_GetPllFreq+0x264>
     9f2:	e007      	b.n	a04 <CLOCK_GetPllFreq+0x26c>
     9f4:	6afb      	ldr	r3, [r7, #44]	; 0x2c
     9f6:	089b      	lsrs	r3, r3, #2
     9f8:	62fb      	str	r3, [r7, #44]	; 0x2c
     9fa:	e003      	b.n	a04 <CLOCK_GetPllFreq+0x26c>
     9fc:	6afb      	ldr	r3, [r7, #44]	; 0x2c
     9fe:	085b      	lsrs	r3, r3, #1
     a00:	62fb      	str	r3, [r7, #44]	; 0x2c
     a02:	bf00      	nop
     a04:	4b1a      	ldr	r3, [pc, #104]	; (a70 <CLOCK_GetPllFreq+0x2d8>)
     a06:	f8d3 3170 	ldr.w	r3, [r3, #368]	; 0x170
     a0a:	f003 4340 	and.w	r3, r3, #3221225472	; 0xc0000000
     a0e:	f1b3 4f80 	cmp.w	r3, #1073741824	; 0x40000000
     a12:	d006      	beq.n	a22 <CLOCK_GetPllFreq+0x28a>
     a14:	f1b3 4f40 	cmp.w	r3, #3221225472	; 0xc0000000
     a18:	d107      	bne.n	a2a <CLOCK_GetPllFreq+0x292>
     a1a:	6afb      	ldr	r3, [r7, #44]	; 0x2c
     a1c:	089b      	lsrs	r3, r3, #2
     a1e:	62fb      	str	r3, [r7, #44]	; 0x2c
     a20:	e004      	b.n	a2c <CLOCK_GetPllFreq+0x294>
     a22:	6afb      	ldr	r3, [r7, #44]	; 0x2c
     a24:	085b      	lsrs	r3, r3, #1
     a26:	62fb      	str	r3, [r7, #44]	; 0x2c
     a28:	e000      	b.n	a2c <CLOCK_GetPllFreq+0x294>
     a2a:	bf00      	nop
     a2c:	e048      	b.n	ac0 <CLOCK_GetPllFreq+0x328>
     a2e:	4b10      	ldr	r3, [pc, #64]	; (a70 <CLOCK_GetPllFreq+0x2d8>)
     a30:	f8d3 30e0 	ldr.w	r3, [r3, #224]	; 0xe0
     a34:	f003 0303 	and.w	r3, r3, #3
     a38:	61fb      	str	r3, [r7, #28]
     a3a:	69fb      	ldr	r3, [r7, #28]
     a3c:	009b      	lsls	r3, r3, #2
     a3e:	f107 0230 	add.w	r2, r7, #48	; 0x30
     a42:	4413      	add	r3, r2
     a44:	f853 3c24 	ldr.w	r3, [r3, #-36]
     a48:	62fb      	str	r3, [r7, #44]	; 0x2c
     a4a:	e039      	b.n	ac0 <CLOCK_GetPllFreq+0x328>
     a4c:	4b08      	ldr	r3, [pc, #32]	; (a70 <CLOCK_GetPllFreq+0x2d8>)
     a4e:	f8d3 30e0 	ldr.w	r3, [r3, #224]	; 0xe0
     a52:	089b      	lsrs	r3, r3, #2
     a54:	f003 0303 	and.w	r3, r3, #3
     a58:	61fb      	str	r3, [r7, #28]
     a5a:	69fb      	ldr	r3, [r7, #28]
     a5c:	009b      	lsls	r3, r3, #2
     a5e:	f107 0230 	add.w	r2, r7, #48	; 0x30
     a62:	4413      	add	r3, r2
     a64:	f853 3c24 	ldr.w	r3, [r3, #-36]
     a68:	62fb      	str	r3, [r7, #44]	; 0x2c
     a6a:	e029      	b.n	ac0 <CLOCK_GetPllFreq+0x328>
     a6c:	00003834 	.word	0x00003834
     a70:	400d8000 	.word	0x400d8000
     a74:	0070000d 	.word	0x0070000d
     a78:	0010000d 	.word	0x0010000d
     a7c:	0020000d 	.word	0x0020000d
     a80:	0030000d 	.word	0x0030000d
     a84:	00e0000d 	.word	0x00e0000d
     a88:	00a0000d 	.word	0x00a0000d
     a8c:	00e00014 	.word	0x00e00014
     a90:	00e00015 	.word	0x00e00015
     a94:	00808000 	.word	0x00808000
     a98:	4b0c      	ldr	r3, [pc, #48]	; (acc <CLOCK_GetPllFreq+0x334>)
     a9a:	62fb      	str	r3, [r7, #44]	; 0x2c
     a9c:	e010      	b.n	ac0 <CLOCK_GetPllFreq+0x328>
     a9e:	4b0c      	ldr	r3, [pc, #48]	; (ad0 <CLOCK_GetPllFreq+0x338>)
     aa0:	6a1b      	ldr	r3, [r3, #32]
     aa2:	f003 0302 	and.w	r3, r3, #2
     aa6:	2b00      	cmp	r3, #0
     aa8:	d001      	beq.n	aae <CLOCK_GetPllFreq+0x316>
     aaa:	2216      	movs	r2, #22
     aac:	e000      	b.n	ab0 <CLOCK_GetPllFreq+0x318>
     aae:	2214      	movs	r2, #20
     ab0:	6afb      	ldr	r3, [r7, #44]	; 0x2c
     ab2:	fb02 f303 	mul.w	r3, r2, r3
     ab6:	62fb      	str	r3, [r7, #44]	; 0x2c
     ab8:	e002      	b.n	ac0 <CLOCK_GetPllFreq+0x328>
     aba:	2300      	movs	r3, #0
     abc:	62fb      	str	r3, [r7, #44]	; 0x2c
     abe:	bf00      	nop
     ac0:	6afb      	ldr	r3, [r7, #44]	; 0x2c
     ac2:	4618      	mov	r0, r3
     ac4:	3734      	adds	r7, #52	; 0x34
     ac6:	46bd      	mov	sp, r7
     ac8:	bd90      	pop	{r4, r7, pc}
     aca:	bf00      	nop
     acc:	017d7840 	.word	0x017d7840
     ad0:	400d8000 	.word	0x400d8000

00000ad4 <CLOCK_InitSysPfd>:
     ad4:	b480      	push	{r7}
     ad6:	b085      	sub	sp, #20
     ad8:	af00      	add	r7, sp, #0
     ada:	4603      	mov	r3, r0
     adc:	460a      	mov	r2, r1
     ade:	71fb      	strb	r3, [r7, #7]
     ae0:	4613      	mov	r3, r2
     ae2:	71bb      	strb	r3, [r7, #6]
     ae4:	79fb      	ldrb	r3, [r7, #7]
     ae6:	60fb      	str	r3, [r7, #12]
     ae8:	4b12      	ldr	r3, [pc, #72]	; (b34 <CLOCK_InitSysPfd+0x60>)
     aea:	f8d3 2100 	ldr.w	r2, [r3, #256]	; 0x100
     aee:	68fb      	ldr	r3, [r7, #12]
     af0:	00db      	lsls	r3, r3, #3
     af2:	21bf      	movs	r1, #191	; 0xbf
     af4:	fa01 f303 	lsl.w	r3, r1, r3
     af8:	43db      	mvns	r3, r3
     afa:	4013      	ands	r3, r2
     afc:	60bb      	str	r3, [r7, #8]
     afe:	68fb      	ldr	r3, [r7, #12]
     b00:	00db      	lsls	r3, r3, #3
     b02:	2280      	movs	r2, #128	; 0x80
     b04:	409a      	lsls	r2, r3
     b06:	490b      	ldr	r1, [pc, #44]	; (b34 <CLOCK_InitSysPfd+0x60>)
     b08:	68bb      	ldr	r3, [r7, #8]
     b0a:	4313      	orrs	r3, r2
     b0c:	f8c1 3100 	str.w	r3, [r1, #256]	; 0x100
     b10:	79bb      	ldrb	r3, [r7, #6]
     b12:	f003 023f 	and.w	r2, r3, #63	; 0x3f
     b16:	68fb      	ldr	r3, [r7, #12]
     b18:	00db      	lsls	r3, r3, #3
     b1a:	409a      	lsls	r2, r3
     b1c:	4905      	ldr	r1, [pc, #20]	; (b34 <CLOCK_InitSysPfd+0x60>)
     b1e:	68bb      	ldr	r3, [r7, #8]
     b20:	4313      	orrs	r3, r2
     b22:	f8c1 3100 	str.w	r3, [r1, #256]	; 0x100
     b26:	bf00      	nop
     b28:	3714      	adds	r7, #20
     b2a:	46bd      	mov	sp, r7
     b2c:	f85d 7b04 	ldr.w	r7, [sp], #4
     b30:	4770      	bx	lr
     b32:	bf00      	nop
     b34:	400d8000 	.word	0x400d8000

00000b38 <CLOCK_ControlGate>:
     b38:	b580      	push	{r7, lr}
     b3a:	b086      	sub	sp, #24
     b3c:	af00      	add	r7, sp, #0
     b3e:	4603      	mov	r3, r0
     b40:	460a      	mov	r2, r1
     b42:	80fb      	strh	r3, [r7, #6]
     b44:	4613      	mov	r3, r2
     b46:	717b      	strb	r3, [r7, #5]
     b48:	f9b7 3006 	ldrsh.w	r3, [r7, #6]
     b4c:	0a1b      	lsrs	r3, r3, #8
     b4e:	617b      	str	r3, [r7, #20]
     b50:	88fb      	ldrh	r3, [r7, #6]
     b52:	f003 031f 	and.w	r3, r3, #31
     b56:	613b      	str	r3, [r7, #16]
     b58:	697b      	ldr	r3, [r7, #20]
     b5a:	2b07      	cmp	r3, #7
     b5c:	d902      	bls.n	b64 <CLOCK_ControlGate+0x2c>
     b5e:	480d      	ldr	r0, [pc, #52]	; (b94 <CLOCK_ControlGate+0x5c>)
     b60:	f001 fc88 	bl	2474 <__assertion_failed>
     b64:	697b      	ldr	r3, [r7, #20]
     b66:	009a      	lsls	r2, r3, #2
     b68:	4b0b      	ldr	r3, [pc, #44]	; (b98 <CLOCK_ControlGate+0x60>)
     b6a:	4413      	add	r3, r2
     b6c:	60fb      	str	r3, [r7, #12]
     b6e:	68fb      	ldr	r3, [r7, #12]
     b70:	681a      	ldr	r2, [r3, #0]
     b72:	2103      	movs	r1, #3
     b74:	693b      	ldr	r3, [r7, #16]
     b76:	fa01 f303 	lsl.w	r3, r1, r3
     b7a:	43db      	mvns	r3, r3
     b7c:	401a      	ands	r2, r3
     b7e:	7979      	ldrb	r1, [r7, #5]
     b80:	693b      	ldr	r3, [r7, #16]
     b82:	fa01 f303 	lsl.w	r3, r1, r3
     b86:	431a      	orrs	r2, r3
     b88:	68fb      	ldr	r3, [r7, #12]
     b8a:	601a      	str	r2, [r3, #0]
     b8c:	bf00      	nop
     b8e:	3718      	adds	r7, #24
     b90:	46bd      	mov	sp, r7
     b92:	bd80      	pop	{r7, pc}
     b94:	000038d0 	.word	0x000038d0
     b98:	400fc068 	.word	0x400fc068

00000b9c <GPIO_GetInstance>:
     b9c:	b580      	push	{r7, lr}
     b9e:	b084      	sub	sp, #16
     ba0:	af00      	add	r7, sp, #0
     ba2:	6078      	str	r0, [r7, #4]
     ba4:	2300      	movs	r3, #0
     ba6:	60fb      	str	r3, [r7, #12]
     ba8:	e009      	b.n	bbe <GPIO_GetInstance+0x22>
     baa:	4a0d      	ldr	r2, [pc, #52]	; (be0 <GPIO_GetInstance+0x44>)
     bac:	68fb      	ldr	r3, [r7, #12]
     bae:	f852 3023 	ldr.w	r3, [r2, r3, lsl #2]
     bb2:	687a      	ldr	r2, [r7, #4]
     bb4:	429a      	cmp	r2, r3
     bb6:	d006      	beq.n	bc6 <GPIO_GetInstance+0x2a>
     bb8:	68fb      	ldr	r3, [r7, #12]
     bba:	3301      	adds	r3, #1
     bbc:	60fb      	str	r3, [r7, #12]
     bbe:	68fb      	ldr	r3, [r7, #12]
     bc0:	2b09      	cmp	r3, #9
     bc2:	d9f2      	bls.n	baa <GPIO_GetInstance+0xe>
     bc4:	e000      	b.n	bc8 <GPIO_GetInstance+0x2c>
     bc6:	bf00      	nop
     bc8:	68fb      	ldr	r3, [r7, #12]
     bca:	2b09      	cmp	r3, #9
     bcc:	d902      	bls.n	bd4 <GPIO_GetInstance+0x38>
     bce:	4805      	ldr	r0, [pc, #20]	; (be4 <GPIO_GetInstance+0x48>)
     bd0:	f001 fc50 	bl	2474 <__assertion_failed>
     bd4:	68fb      	ldr	r3, [r7, #12]
     bd6:	4618      	mov	r0, r3
     bd8:	3710      	adds	r7, #16
     bda:	46bd      	mov	sp, r7
     bdc:	bd80      	pop	{r7, pc}
     bde:	bf00      	nop
     be0:	00003964 	.word	0x00003964
     be4:	000038fc 	.word	0x000038fc

00000be8 <GPIO_PinInit>:
     be8:	b580      	push	{r7, lr}
     bea:	b086      	sub	sp, #24
     bec:	af00      	add	r7, sp, #0
     bee:	60f8      	str	r0, [r7, #12]
     bf0:	60b9      	str	r1, [r7, #8]
     bf2:	607a      	str	r2, [r7, #4]
     bf4:	68f8      	ldr	r0, [r7, #12]
     bf6:	f7ff ffd1 	bl	b9c <GPIO_GetInstance>
     bfa:	6178      	str	r0, [r7, #20]
     bfc:	697b      	ldr	r3, [r7, #20]
     bfe:	2b05      	cmp	r3, #5
     c00:	d80d      	bhi.n	c1e <GPIO_PinInit+0x36>
     c02:	4a21      	ldr	r2, [pc, #132]	; (c88 <GPIO_PinInit+0xa0>)
     c04:	697b      	ldr	r3, [r7, #20]
     c06:	f932 3013 	ldrsh.w	r3, [r2, r3, lsl #1]
     c0a:	f1b3 3fff 	cmp.w	r3, #4294967295
     c0e:	d006      	beq.n	c1e <GPIO_PinInit+0x36>
     c10:	4a1d      	ldr	r2, [pc, #116]	; (c88 <GPIO_PinInit+0xa0>)
     c12:	697b      	ldr	r3, [r7, #20]
     c14:	f932 3013 	ldrsh.w	r3, [r2, r3, lsl #1]
     c18:	4618      	mov	r0, r3
     c1a:	f002 f926 	bl	2e6a <CLOCK_EnableClock>
     c1e:	68fb      	ldr	r3, [r7, #12]
     c20:	695a      	ldr	r2, [r3, #20]
     c22:	2101      	movs	r1, #1
     c24:	68bb      	ldr	r3, [r7, #8]
     c26:	fa01 f303 	lsl.w	r3, r1, r3
     c2a:	43db      	mvns	r3, r3
     c2c:	401a      	ands	r2, r3
     c2e:	68fb      	ldr	r3, [r7, #12]
     c30:	615a      	str	r2, [r3, #20]
     c32:	687b      	ldr	r3, [r7, #4]
     c34:	781b      	ldrb	r3, [r3, #0]
     c36:	2b00      	cmp	r3, #0
     c38:	d10a      	bne.n	c50 <GPIO_PinInit+0x68>
     c3a:	68fb      	ldr	r3, [r7, #12]
     c3c:	685a      	ldr	r2, [r3, #4]
     c3e:	2101      	movs	r1, #1
     c40:	68bb      	ldr	r3, [r7, #8]
     c42:	fa01 f303 	lsl.w	r3, r1, r3
     c46:	43db      	mvns	r3, r3
     c48:	401a      	ands	r2, r3
     c4a:	68fb      	ldr	r3, [r7, #12]
     c4c:	605a      	str	r2, [r3, #4]
     c4e:	e00f      	b.n	c70 <GPIO_PinInit+0x88>
     c50:	687b      	ldr	r3, [r7, #4]
     c52:	785b      	ldrb	r3, [r3, #1]
     c54:	461a      	mov	r2, r3
     c56:	68b9      	ldr	r1, [r7, #8]
     c58:	68f8      	ldr	r0, [r7, #12]
     c5a:	f000 f817 	bl	c8c <GPIO_PinWrite>
     c5e:	68fb      	ldr	r3, [r7, #12]
     c60:	685a      	ldr	r2, [r3, #4]
     c62:	2101      	movs	r1, #1
     c64:	68bb      	ldr	r3, [r7, #8]
     c66:	fa01 f303 	lsl.w	r3, r1, r3
     c6a:	431a      	orrs	r2, r3
     c6c:	68fb      	ldr	r3, [r7, #12]
     c6e:	605a      	str	r2, [r3, #4]
     c70:	687b      	ldr	r3, [r7, #4]
     c72:	789b      	ldrb	r3, [r3, #2]
     c74:	461a      	mov	r2, r3
     c76:	68b9      	ldr	r1, [r7, #8]
     c78:	68f8      	ldr	r0, [r7, #12]
     c7a:	f002 f905 	bl	2e88 <GPIO_SetPinInterruptConfig>
     c7e:	bf00      	nop
     c80:	3718      	adds	r7, #24
     c82:	46bd      	mov	sp, r7
     c84:	bd80      	pop	{r7, pc}
     c86:	bf00      	nop
     c88:	0000398c 	.word	0x0000398c

00000c8c <GPIO_PinWrite>:
     c8c:	b580      	push	{r7, lr}
     c8e:	b084      	sub	sp, #16
     c90:	af00      	add	r7, sp, #0
     c92:	60f8      	str	r0, [r7, #12]
     c94:	60b9      	str	r1, [r7, #8]
     c96:	4613      	mov	r3, r2
     c98:	71fb      	strb	r3, [r7, #7]
     c9a:	68bb      	ldr	r3, [r7, #8]
     c9c:	2b1f      	cmp	r3, #31
     c9e:	d902      	bls.n	ca6 <GPIO_PinWrite+0x1a>
     ca0:	480e      	ldr	r0, [pc, #56]	; (cdc <GPIO_PinWrite+0x50>)
     ca2:	f001 fbe7 	bl	2474 <__assertion_failed>
     ca6:	79fb      	ldrb	r3, [r7, #7]
     ca8:	2b00      	cmp	r3, #0
     caa:	d10a      	bne.n	cc2 <GPIO_PinWrite+0x36>
     cac:	68fb      	ldr	r3, [r7, #12]
     cae:	681a      	ldr	r2, [r3, #0]
     cb0:	2101      	movs	r1, #1
     cb2:	68bb      	ldr	r3, [r7, #8]
     cb4:	fa01 f303 	lsl.w	r3, r1, r3
     cb8:	43db      	mvns	r3, r3
     cba:	401a      	ands	r2, r3
     cbc:	68fb      	ldr	r3, [r7, #12]
     cbe:	601a      	str	r2, [r3, #0]
     cc0:	e008      	b.n	cd4 <GPIO_PinWrite+0x48>
     cc2:	68fb      	ldr	r3, [r7, #12]
     cc4:	681a      	ldr	r2, [r3, #0]
     cc6:	2101      	movs	r1, #1
     cc8:	68bb      	ldr	r3, [r7, #8]
     cca:	fa01 f303 	lsl.w	r3, r1, r3
     cce:	431a      	orrs	r2, r3
     cd0:	68fb      	ldr	r3, [r7, #12]
     cd2:	601a      	str	r2, [r3, #0]
     cd4:	bf00      	nop
     cd6:	3710      	adds	r7, #16
     cd8:	46bd      	mov	sp, r7
     cda:	bd80      	pop	{r7, pc}
     cdc:	0000393c 	.word	0x0000393c

00000ce0 <GPIO_PinSetInterruptConfig>:
     ce0:	b480      	push	{r7}
     ce2:	b087      	sub	sp, #28
     ce4:	af00      	add	r7, sp, #0
     ce6:	60f8      	str	r0, [r7, #12]
     ce8:	60b9      	str	r1, [r7, #8]
     cea:	4613      	mov	r3, r2
     cec:	71fb      	strb	r3, [r7, #7]
     cee:	68bb      	ldr	r3, [r7, #8]
     cf0:	613b      	str	r3, [r7, #16]
     cf2:	68fb      	ldr	r3, [r7, #12]
     cf4:	69da      	ldr	r2, [r3, #28]
     cf6:	2101      	movs	r1, #1
     cf8:	68bb      	ldr	r3, [r7, #8]
     cfa:	fa01 f303 	lsl.w	r3, r1, r3
     cfe:	43db      	mvns	r3, r3
     d00:	401a      	ands	r2, r3
     d02:	68fb      	ldr	r3, [r7, #12]
     d04:	61da      	str	r2, [r3, #28]
     d06:	68bb      	ldr	r3, [r7, #8]
     d08:	2b0f      	cmp	r3, #15
     d0a:	d803      	bhi.n	d14 <GPIO_PinSetInterruptConfig+0x34>
     d0c:	68fb      	ldr	r3, [r7, #12]
     d0e:	330c      	adds	r3, #12
     d10:	617b      	str	r3, [r7, #20]
     d12:	e005      	b.n	d20 <GPIO_PinSetInterruptConfig+0x40>
     d14:	68fb      	ldr	r3, [r7, #12]
     d16:	3310      	adds	r3, #16
     d18:	617b      	str	r3, [r7, #20]
     d1a:	693b      	ldr	r3, [r7, #16]
     d1c:	3b10      	subs	r3, #16
     d1e:	613b      	str	r3, [r7, #16]
     d20:	79fb      	ldrb	r3, [r7, #7]
     d22:	3b01      	subs	r3, #1
     d24:	2b04      	cmp	r3, #4
     d26:	d852      	bhi.n	dce <GPIO_PinSetInterruptConfig+0xee>
     d28:	a201      	add	r2, pc, #4	; (adr r2, d30 <GPIO_PinSetInterruptConfig+0x50>)
     d2a:	f852 f023 	ldr.w	pc, [r2, r3, lsl #2]
     d2e:	bf00      	nop
     d30:	00000d45 	.word	0x00000d45
     d34:	00000d5d 	.word	0x00000d5d
     d38:	00000d81 	.word	0x00000d81
     d3c:	00000da5 	.word	0x00000da5
     d40:	00000dbb 	.word	0x00000dbb
     d44:	697b      	ldr	r3, [r7, #20]
     d46:	681a      	ldr	r2, [r3, #0]
     d48:	693b      	ldr	r3, [r7, #16]
     d4a:	005b      	lsls	r3, r3, #1
     d4c:	2103      	movs	r1, #3
     d4e:	fa01 f303 	lsl.w	r3, r1, r3
     d52:	43db      	mvns	r3, r3
     d54:	401a      	ands	r2, r3
     d56:	697b      	ldr	r3, [r7, #20]
     d58:	601a      	str	r2, [r3, #0]
     d5a:	e039      	b.n	dd0 <GPIO_PinSetInterruptConfig+0xf0>
     d5c:	697b      	ldr	r3, [r7, #20]
     d5e:	681a      	ldr	r2, [r3, #0]
     d60:	693b      	ldr	r3, [r7, #16]
     d62:	005b      	lsls	r3, r3, #1
     d64:	2103      	movs	r1, #3
     d66:	fa01 f303 	lsl.w	r3, r1, r3
     d6a:	43db      	mvns	r3, r3
     d6c:	401a      	ands	r2, r3
     d6e:	693b      	ldr	r3, [r7, #16]
     d70:	005b      	lsls	r3, r3, #1
     d72:	2101      	movs	r1, #1
     d74:	fa01 f303 	lsl.w	r3, r1, r3
     d78:	431a      	orrs	r2, r3
     d7a:	697b      	ldr	r3, [r7, #20]
     d7c:	601a      	str	r2, [r3, #0]
     d7e:	e027      	b.n	dd0 <GPIO_PinSetInterruptConfig+0xf0>
     d80:	697b      	ldr	r3, [r7, #20]
     d82:	681a      	ldr	r2, [r3, #0]
     d84:	693b      	ldr	r3, [r7, #16]
     d86:	005b      	lsls	r3, r3, #1
     d88:	2103      	movs	r1, #3
     d8a:	fa01 f303 	lsl.w	r3, r1, r3
     d8e:	43db      	mvns	r3, r3
     d90:	401a      	ands	r2, r3
     d92:	693b      	ldr	r3, [r7, #16]
     d94:	005b      	lsls	r3, r3, #1
     d96:	2102      	movs	r1, #2
     d98:	fa01 f303 	lsl.w	r3, r1, r3
     d9c:	431a      	orrs	r2, r3
     d9e:	697b      	ldr	r3, [r7, #20]
     da0:	601a      	str	r2, [r3, #0]
     da2:	e015      	b.n	dd0 <GPIO_PinSetInterruptConfig+0xf0>
     da4:	697b      	ldr	r3, [r7, #20]
     da6:	681a      	ldr	r2, [r3, #0]
     da8:	693b      	ldr	r3, [r7, #16]
     daa:	005b      	lsls	r3, r3, #1
     dac:	2103      	movs	r1, #3
     dae:	fa01 f303 	lsl.w	r3, r1, r3
     db2:	431a      	orrs	r2, r3
     db4:	697b      	ldr	r3, [r7, #20]
     db6:	601a      	str	r2, [r3, #0]
     db8:	e00a      	b.n	dd0 <GPIO_PinSetInterruptConfig+0xf0>
     dba:	68fb      	ldr	r3, [r7, #12]
     dbc:	69da      	ldr	r2, [r3, #28]
     dbe:	2101      	movs	r1, #1
     dc0:	68bb      	ldr	r3, [r7, #8]
     dc2:	fa01 f303 	lsl.w	r3, r1, r3
     dc6:	431a      	orrs	r2, r3
     dc8:	68fb      	ldr	r3, [r7, #12]
     dca:	61da      	str	r2, [r3, #28]
     dcc:	e000      	b.n	dd0 <GPIO_PinSetInterruptConfig+0xf0>
     dce:	bf00      	nop
     dd0:	bf00      	nop
     dd2:	371c      	adds	r7, #28
     dd4:	46bd      	mov	sp, r7
     dd6:	f85d 7b04 	ldr.w	r7, [sp], #4
     dda:	4770      	bx	lr

00000ddc <CLOCK_ControlGate>:
     ddc:	b580      	push	{r7, lr}
     dde:	b086      	sub	sp, #24
     de0:	af00      	add	r7, sp, #0
     de2:	4603      	mov	r3, r0
     de4:	460a      	mov	r2, r1
     de6:	80fb      	strh	r3, [r7, #6]
     de8:	4613      	mov	r3, r2
     dea:	717b      	strb	r3, [r7, #5]
     dec:	f9b7 3006 	ldrsh.w	r3, [r7, #6]
     df0:	0a1b      	lsrs	r3, r3, #8
     df2:	617b      	str	r3, [r7, #20]
     df4:	88fb      	ldrh	r3, [r7, #6]
     df6:	f003 031f 	and.w	r3, r3, #31
     dfa:	613b      	str	r3, [r7, #16]
     dfc:	697b      	ldr	r3, [r7, #20]
     dfe:	2b07      	cmp	r3, #7
     e00:	d902      	bls.n	e08 <CLOCK_ControlGate+0x2c>
     e02:	480d      	ldr	r0, [pc, #52]	; (e38 <CLOCK_ControlGate+0x5c>)
     e04:	f001 fb36 	bl	2474 <__assertion_failed>
     e08:	697b      	ldr	r3, [r7, #20]
     e0a:	009a      	lsls	r2, r3, #2
     e0c:	4b0b      	ldr	r3, [pc, #44]	; (e3c <CLOCK_ControlGate+0x60>)
     e0e:	4413      	add	r3, r2
     e10:	60fb      	str	r3, [r7, #12]
     e12:	68fb      	ldr	r3, [r7, #12]
     e14:	681a      	ldr	r2, [r3, #0]
     e16:	2103      	movs	r1, #3
     e18:	693b      	ldr	r3, [r7, #16]
     e1a:	fa01 f303 	lsl.w	r3, r1, r3
     e1e:	43db      	mvns	r3, r3
     e20:	401a      	ands	r2, r3
     e22:	7979      	ldrb	r1, [r7, #5]
     e24:	693b      	ldr	r3, [r7, #16]
     e26:	fa01 f303 	lsl.w	r3, r1, r3
     e2a:	431a      	orrs	r2, r3
     e2c:	68fb      	ldr	r3, [r7, #12]
     e2e:	601a      	str	r2, [r3, #0]
     e30:	bf00      	nop
     e32:	3718      	adds	r7, #24
     e34:	46bd      	mov	sp, r7
     e36:	bd80      	pop	{r7, pc}
     e38:	00003998 	.word	0x00003998
     e3c:	400fc068 	.word	0x400fc068

00000e40 <LPUART_GetInstance>:
     e40:	b580      	push	{r7, lr}
     e42:	b084      	sub	sp, #16
     e44:	af00      	add	r7, sp, #0
     e46:	6078      	str	r0, [r7, #4]
     e48:	2300      	movs	r3, #0
     e4a:	60fb      	str	r3, [r7, #12]
     e4c:	e009      	b.n	e62 <LPUART_GetInstance+0x22>
     e4e:	4a0d      	ldr	r2, [pc, #52]	; (e84 <LPUART_GetInstance+0x44>)
     e50:	68fb      	ldr	r3, [r7, #12]
     e52:	f852 3023 	ldr.w	r3, [r2, r3, lsl #2]
     e56:	687a      	ldr	r2, [r7, #4]
     e58:	429a      	cmp	r2, r3
     e5a:	d006      	beq.n	e6a <LPUART_GetInstance+0x2a>
     e5c:	68fb      	ldr	r3, [r7, #12]
     e5e:	3301      	adds	r3, #1
     e60:	60fb      	str	r3, [r7, #12]
     e62:	68fb      	ldr	r3, [r7, #12]
     e64:	2b08      	cmp	r3, #8
     e66:	d9f2      	bls.n	e4e <LPUART_GetInstance+0xe>
     e68:	e000      	b.n	e6c <LPUART_GetInstance+0x2c>
     e6a:	bf00      	nop
     e6c:	68fb      	ldr	r3, [r7, #12]
     e6e:	2b08      	cmp	r3, #8
     e70:	d902      	bls.n	e78 <LPUART_GetInstance+0x38>
     e72:	4805      	ldr	r0, [pc, #20]	; (e88 <LPUART_GetInstance+0x48>)
     e74:	f001 fafe 	bl	2474 <__assertion_failed>
     e78:	68fb      	ldr	r3, [r7, #12]
     e7a:	4618      	mov	r0, r3
     e7c:	3710      	adds	r7, #16
     e7e:	46bd      	mov	sp, r7
     e80:	bd80      	pop	{r7, pc}
     e82:	bf00      	nop
     e84:	0000404c 	.word	0x0000404c
     e88:	000039c4 	.word	0x000039c4

00000e8c <LPUART_Init>:
     e8c:	b580      	push	{r7, lr}
     e8e:	b08c      	sub	sp, #48	; 0x30
     e90:	af00      	add	r7, sp, #0
     e92:	60f8      	str	r0, [r7, #12]
     e94:	60b9      	str	r1, [r7, #8]
     e96:	607a      	str	r2, [r7, #4]
     e98:	68bb      	ldr	r3, [r7, #8]
     e9a:	2b00      	cmp	r3, #0
     e9c:	d102      	bne.n	ea4 <LPUART_Init+0x18>
     e9e:	489f      	ldr	r0, [pc, #636]	; (111c <_HeapSize+0x11c>)
     ea0:	f001 fae8 	bl	2474 <__assertion_failed>
     ea4:	68bb      	ldr	r3, [r7, #8]
     ea6:	681b      	ldr	r3, [r3, #0]
     ea8:	2b00      	cmp	r3, #0
     eaa:	d102      	bne.n	eb2 <LPUART_Init+0x26>
     eac:	489c      	ldr	r0, [pc, #624]	; (1120 <_HeapSize+0x120>)
     eae:	f001 fae1 	bl	2474 <__assertion_failed>
     eb2:	68bb      	ldr	r3, [r7, #8]
     eb4:	7a1b      	ldrb	r3, [r3, #8]
     eb6:	2b04      	cmp	r3, #4
     eb8:	d902      	bls.n	ec0 <LPUART_Init+0x34>
     eba:	489a      	ldr	r0, [pc, #616]	; (1124 <_HeapSize+0x124>)
     ebc:	f001 fada 	bl	2474 <__assertion_failed>
     ec0:	68bb      	ldr	r3, [r7, #8]
     ec2:	7a5b      	ldrb	r3, [r3, #9]
     ec4:	2b04      	cmp	r3, #4
     ec6:	d902      	bls.n	ece <LPUART_Init+0x42>
     ec8:	4897      	ldr	r0, [pc, #604]	; (1128 <_HeapSize+0x128>)
     eca:	f001 fad3 	bl	2474 <__assertion_failed>
     ece:	68bb      	ldr	r3, [r7, #8]
     ed0:	681b      	ldr	r3, [r3, #0]
     ed2:	61bb      	str	r3, [r7, #24]
     ed4:	2300      	movs	r3, #0
     ed6:	627b      	str	r3, [r7, #36]	; 0x24
     ed8:	2300      	movs	r3, #0
     eda:	857b      	strh	r3, [r7, #42]	; 0x2a
     edc:	2304      	movs	r3, #4
     ede:	623b      	str	r3, [r7, #32]
     ee0:	e044      	b.n	f6c <LPUART_Init+0xe0>
     ee2:	68bb      	ldr	r3, [r7, #8]
     ee4:	681b      	ldr	r3, [r3, #0]
     ee6:	6a3a      	ldr	r2, [r7, #32]
     ee8:	fb02 f303 	mul.w	r3, r2, r3
     eec:	687a      	ldr	r2, [r7, #4]
     eee:	fbb2 f3f3 	udiv	r3, r2, r3
     ef2:	853b      	strh	r3, [r7, #40]	; 0x28
     ef4:	8d3b      	ldrh	r3, [r7, #40]	; 0x28
     ef6:	2b00      	cmp	r3, #0
     ef8:	d101      	bne.n	efe <LPUART_Init+0x72>
     efa:	2301      	movs	r3, #1
     efc:	853b      	strh	r3, [r7, #40]	; 0x28
     efe:	8d3b      	ldrh	r3, [r7, #40]	; 0x28
     f00:	6a3a      	ldr	r2, [r7, #32]
     f02:	fb02 f303 	mul.w	r3, r2, r3
     f06:	687a      	ldr	r2, [r7, #4]
     f08:	fbb2 f3f3 	udiv	r3, r2, r3
     f0c:	617b      	str	r3, [r7, #20]
     f0e:	68bb      	ldr	r3, [r7, #8]
     f10:	681b      	ldr	r3, [r3, #0]
     f12:	697a      	ldr	r2, [r7, #20]
     f14:	1ad3      	subs	r3, r2, r3
     f16:	61fb      	str	r3, [r7, #28]
     f18:	68bb      	ldr	r3, [r7, #8]
     f1a:	681a      	ldr	r2, [r3, #0]
     f1c:	8d3b      	ldrh	r3, [r7, #40]	; 0x28
     f1e:	3301      	adds	r3, #1
     f20:	6a39      	ldr	r1, [r7, #32]
     f22:	fb01 f303 	mul.w	r3, r1, r3
     f26:	6879      	ldr	r1, [r7, #4]
     f28:	fbb1 f3f3 	udiv	r3, r1, r3
     f2c:	1ad3      	subs	r3, r2, r3
     f2e:	69fa      	ldr	r2, [r7, #28]
     f30:	429a      	cmp	r2, r3
     f32:	d90e      	bls.n	f52 <LPUART_Init+0xc6>
     f34:	68bb      	ldr	r3, [r7, #8]
     f36:	681a      	ldr	r2, [r3, #0]
     f38:	8d3b      	ldrh	r3, [r7, #40]	; 0x28
     f3a:	3301      	adds	r3, #1
     f3c:	6a39      	ldr	r1, [r7, #32]
     f3e:	fb01 f303 	mul.w	r3, r1, r3
     f42:	6879      	ldr	r1, [r7, #4]
     f44:	fbb1 f3f3 	udiv	r3, r1, r3
     f48:	1ad3      	subs	r3, r2, r3
     f4a:	61fb      	str	r3, [r7, #28]
     f4c:	8d3b      	ldrh	r3, [r7, #40]	; 0x28
     f4e:	3301      	adds	r3, #1
     f50:	853b      	strh	r3, [r7, #40]	; 0x28
     f52:	69fa      	ldr	r2, [r7, #28]
     f54:	69bb      	ldr	r3, [r7, #24]
     f56:	429a      	cmp	r2, r3
     f58:	d805      	bhi.n	f66 <LPUART_Init+0xda>
     f5a:	69fb      	ldr	r3, [r7, #28]
     f5c:	61bb      	str	r3, [r7, #24]
     f5e:	6a3b      	ldr	r3, [r7, #32]
     f60:	627b      	str	r3, [r7, #36]	; 0x24
     f62:	8d3b      	ldrh	r3, [r7, #40]	; 0x28
     f64:	857b      	strh	r3, [r7, #42]	; 0x2a
     f66:	6a3b      	ldr	r3, [r7, #32]
     f68:	3301      	adds	r3, #1
     f6a:	623b      	str	r3, [r7, #32]
     f6c:	6a3b      	ldr	r3, [r7, #32]
     f6e:	2b20      	cmp	r3, #32
     f70:	d9b7      	bls.n	ee2 <LPUART_Init+0x56>
     f72:	68bb      	ldr	r3, [r7, #8]
     f74:	681b      	ldr	r3, [r3, #0]
     f76:	4a6d      	ldr	r2, [pc, #436]	; (112c <_HeapSize+0x12c>)
     f78:	fba2 2303 	umull	r2, r3, r2, r3
     f7c:	095a      	lsrs	r2, r3, #5
     f7e:	4613      	mov	r3, r2
     f80:	005b      	lsls	r3, r3, #1
     f82:	4413      	add	r3, r2
     f84:	69ba      	ldr	r2, [r7, #24]
     f86:	429a      	cmp	r2, r3
     f88:	d902      	bls.n	f90 <LPUART_Init+0x104>
     f8a:	f240 5321 	movw	r3, #1313	; 0x521
     f8e:	e0f8      	b.n	1182 <_HeapSize+0x182>
     f90:	68f8      	ldr	r0, [r7, #12]
     f92:	f7ff ff55 	bl	e40 <LPUART_GetInstance>
     f96:	6138      	str	r0, [r7, #16]
     f98:	4a65      	ldr	r2, [pc, #404]	; (1130 <_HeapSize+0x130>)
     f9a:	693b      	ldr	r3, [r7, #16]
     f9c:	f932 3013 	ldrsh.w	r3, [r2, r3, lsl #1]
     fa0:	4618      	mov	r0, r3
     fa2:	f001 ff82 	bl	2eaa <CLOCK_EnableClock>
     fa6:	68f8      	ldr	r0, [r7, #12]
     fa8:	f001 ff8e 	bl	2ec8 <LPUART_SoftwareReset>
     fac:	68fb      	ldr	r3, [r7, #12]
     fae:	691b      	ldr	r3, [r3, #16]
     fb0:	62fb      	str	r3, [r7, #44]	; 0x2c
     fb2:	6a7b      	ldr	r3, [r7, #36]	; 0x24
     fb4:	2b03      	cmp	r3, #3
     fb6:	d906      	bls.n	fc6 <LPUART_Init+0x13a>
     fb8:	6a7b      	ldr	r3, [r7, #36]	; 0x24
     fba:	2b07      	cmp	r3, #7
     fbc:	d803      	bhi.n	fc6 <LPUART_Init+0x13a>
     fbe:	6afb      	ldr	r3, [r7, #44]	; 0x2c
     fc0:	f443 3300 	orr.w	r3, r3, #131072	; 0x20000
     fc4:	62fb      	str	r3, [r7, #44]	; 0x2c
     fc6:	6afb      	ldr	r3, [r7, #44]	; 0x2c
     fc8:	f023 53f8 	bic.w	r3, r3, #520093696	; 0x1f000000
     fcc:	62fb      	str	r3, [r7, #44]	; 0x2c
     fce:	6a7b      	ldr	r3, [r7, #36]	; 0x24
     fd0:	3b01      	subs	r3, #1
     fd2:	061b      	lsls	r3, r3, #24
     fd4:	f003 53f8 	and.w	r3, r3, #520093696	; 0x1f000000
     fd8:	6afa      	ldr	r2, [r7, #44]	; 0x2c
     fda:	4313      	orrs	r3, r2
     fdc:	62fb      	str	r3, [r7, #44]	; 0x2c
     fde:	6afa      	ldr	r2, [r7, #44]	; 0x2c
     fe0:	4b54      	ldr	r3, [pc, #336]	; (1134 <_HeapSize+0x134>)
     fe2:	4013      	ands	r3, r2
     fe4:	62fb      	str	r3, [r7, #44]	; 0x2c
     fe6:	8d7b      	ldrh	r3, [r7, #42]	; 0x2a
     fe8:	f3c3 020c 	ubfx	r2, r3, #0, #13
     fec:	6afb      	ldr	r3, [r7, #44]	; 0x2c
     fee:	431a      	orrs	r2, r3
     ff0:	68fb      	ldr	r3, [r7, #12]
     ff2:	611a      	str	r2, [r3, #16]
     ff4:	68fb      	ldr	r3, [r7, #12]
     ff6:	691b      	ldr	r3, [r3, #16]
     ff8:	f023 5200 	bic.w	r2, r3, #536870912	; 0x20000000
     ffc:	68fb      	ldr	r3, [r7, #12]
     ffe:	611a      	str	r2, [r3, #16]
    1000:	68fb      	ldr	r3, [r7, #12]
    1002:	699a      	ldr	r2, [r3, #24]
    1004:	4b4c      	ldr	r3, [pc, #304]	; (1138 <_HeapSize+0x138>)
    1006:	4013      	ands	r3, r2
    1008:	62fb      	str	r3, [r7, #44]	; 0x2c
    100a:	68bb      	ldr	r3, [r7, #8]
    100c:	791b      	ldrb	r3, [r3, #4]
    100e:	461a      	mov	r2, r3
    1010:	68bb      	ldr	r3, [r7, #8]
    1012:	7bdb      	ldrb	r3, [r3, #15]
    1014:	021b      	lsls	r3, r3, #8
    1016:	f403 63e0 	and.w	r3, r3, #1792	; 0x700
    101a:	431a      	orrs	r2, r3
    101c:	68bb      	ldr	r3, [r7, #8]
    101e:	7b9b      	ldrb	r3, [r3, #14]
    1020:	009b      	lsls	r3, r3, #2
    1022:	f003 0304 	and.w	r3, r3, #4
    1026:	4313      	orrs	r3, r2
    1028:	6afa      	ldr	r2, [r7, #44]	; 0x2c
    102a:	4313      	orrs	r3, r2
    102c:	62fb      	str	r3, [r7, #44]	; 0x2c
    102e:	68bb      	ldr	r3, [r7, #8]
    1030:	795b      	ldrb	r3, [r3, #5]
    1032:	2b01      	cmp	r3, #1
    1034:	d10d      	bne.n	1052 <_HeapSize+0x52>
    1036:	68bb      	ldr	r3, [r7, #8]
    1038:	791b      	ldrb	r3, [r3, #4]
    103a:	2b00      	cmp	r3, #0
    103c:	d004      	beq.n	1048 <_HeapSize+0x48>
    103e:	6afb      	ldr	r3, [r7, #44]	; 0x2c
    1040:	f423 6300 	bic.w	r3, r3, #2048	; 0x800
    1044:	62fb      	str	r3, [r7, #44]	; 0x2c
    1046:	e00c      	b.n	1062 <_HeapSize+0x62>
    1048:	6afb      	ldr	r3, [r7, #44]	; 0x2c
    104a:	f443 6300 	orr.w	r3, r3, #2048	; 0x800
    104e:	62fb      	str	r3, [r7, #44]	; 0x2c
    1050:	e007      	b.n	1062 <_HeapSize+0x62>
    1052:	68bb      	ldr	r3, [r7, #8]
    1054:	791b      	ldrb	r3, [r3, #4]
    1056:	2b00      	cmp	r3, #0
    1058:	d003      	beq.n	1062 <_HeapSize+0x62>
    105a:	6afb      	ldr	r3, [r7, #44]	; 0x2c
    105c:	f043 0310 	orr.w	r3, r3, #16
    1060:	62fb      	str	r3, [r7, #44]	; 0x2c
    1062:	68fb      	ldr	r3, [r7, #12]
    1064:	6afa      	ldr	r2, [r7, #44]	; 0x2c
    1066:	619a      	str	r2, [r3, #24]
    1068:	68fb      	ldr	r3, [r7, #12]
    106a:	691b      	ldr	r3, [r3, #16]
    106c:	f423 5300 	bic.w	r3, r3, #8192	; 0x2000
    1070:	62fb      	str	r3, [r7, #44]	; 0x2c
    1072:	68bb      	ldr	r3, [r7, #8]
    1074:	79db      	ldrb	r3, [r3, #7]
    1076:	035b      	lsls	r3, r3, #13
    1078:	f403 5200 	and.w	r2, r3, #8192	; 0x2000
    107c:	6afb      	ldr	r3, [r7, #44]	; 0x2c
    107e:	431a      	orrs	r2, r3
    1080:	68fb      	ldr	r3, [r7, #12]
    1082:	611a      	str	r2, [r3, #16]
    1084:	68bb      	ldr	r3, [r7, #8]
    1086:	7a5b      	ldrb	r3, [r3, #9]
    1088:	041b      	lsls	r3, r3, #16
    108a:	68ba      	ldr	r2, [r7, #8]
    108c:	7a12      	ldrb	r2, [r2, #8]
    108e:	431a      	orrs	r2, r3
    1090:	68fb      	ldr	r3, [r7, #12]
    1092:	62da      	str	r2, [r3, #44]	; 0x2c
    1094:	68fb      	ldr	r3, [r7, #12]
    1096:	6a9b      	ldr	r3, [r3, #40]	; 0x28
    1098:	f043 0288 	orr.w	r2, r3, #136	; 0x88
    109c:	68fb      	ldr	r3, [r7, #12]
    109e:	629a      	str	r2, [r3, #40]	; 0x28
    10a0:	68fb      	ldr	r3, [r7, #12]
    10a2:	6a9b      	ldr	r3, [r3, #40]	; 0x28
    10a4:	f443 4240 	orr.w	r2, r3, #49152	; 0xc000
    10a8:	68fb      	ldr	r3, [r7, #12]
    10aa:	629a      	str	r2, [r3, #40]	; 0x28
    10ac:	4b23      	ldr	r3, [pc, #140]	; (113c <_HeapSize+0x13c>)
    10ae:	62fb      	str	r3, [r7, #44]	; 0x2c
    10b0:	6afb      	ldr	r3, [r7, #44]	; 0x2c
    10b2:	f043 4300 	orr.w	r3, r3, #2147483648	; 0x80000000
    10b6:	62fb      	str	r3, [r7, #44]	; 0x2c
    10b8:	6afb      	ldr	r3, [r7, #44]	; 0x2c
    10ba:	f443 4340 	orr.w	r3, r3, #49152	; 0xc000
    10be:	62fb      	str	r3, [r7, #44]	; 0x2c
    10c0:	68fb      	ldr	r3, [r7, #12]
    10c2:	6a5a      	ldr	r2, [r3, #36]	; 0x24
    10c4:	68bb      	ldr	r3, [r7, #8]
    10c6:	7b5b      	ldrb	r3, [r3, #13]
    10c8:	011b      	lsls	r3, r3, #4
    10ca:	f003 0110 	and.w	r1, r3, #16
    10ce:	68bb      	ldr	r3, [r7, #8]
    10d0:	7b1b      	ldrb	r3, [r3, #12]
    10d2:	015b      	lsls	r3, r3, #5
    10d4:	f003 0320 	and.w	r3, r3, #32
    10d8:	430b      	orrs	r3, r1
    10da:	431a      	orrs	r2, r3
    10dc:	68fb      	ldr	r3, [r7, #12]
    10de:	625a      	str	r2, [r3, #36]	; 0x24
    10e0:	68bb      	ldr	r3, [r7, #8]
    10e2:	7a9b      	ldrb	r3, [r3, #10]
    10e4:	2b00      	cmp	r3, #0
    10e6:	d005      	beq.n	10f4 <_HeapSize+0xf4>
    10e8:	68fb      	ldr	r3, [r7, #12]
    10ea:	6a5b      	ldr	r3, [r3, #36]	; 0x24
    10ec:	f043 0208 	orr.w	r2, r3, #8
    10f0:	68fb      	ldr	r3, [r7, #12]
    10f2:	625a      	str	r2, [r3, #36]	; 0x24
    10f4:	68bb      	ldr	r3, [r7, #8]
    10f6:	7adb      	ldrb	r3, [r3, #11]
    10f8:	2b00      	cmp	r3, #0
    10fa:	d005      	beq.n	1108 <_HeapSize+0x108>
    10fc:	68fb      	ldr	r3, [r7, #12]
    10fe:	6a5b      	ldr	r3, [r3, #36]	; 0x24
    1100:	f043 0201 	orr.w	r2, r3, #1
    1104:	68fb      	ldr	r3, [r7, #12]
    1106:	625a      	str	r2, [r3, #36]	; 0x24
    1108:	68bb      	ldr	r3, [r7, #8]
    110a:	799b      	ldrb	r3, [r3, #6]
    110c:	2b00      	cmp	r3, #0
    110e:	d017      	beq.n	1140 <_HeapSize+0x140>
    1110:	6afb      	ldr	r3, [r7, #44]	; 0x2c
    1112:	f043 5300 	orr.w	r3, r3, #536870912	; 0x20000000
    1116:	62fb      	str	r3, [r7, #44]	; 0x2c
    1118:	e016      	b.n	1148 <_HeapSize+0x148>
    111a:	bf00      	nop
    111c:	00003ac0 	.word	0x00003ac0
    1120:	00003af0 	.word	0x00003af0
    1124:	00003b28 	.word	0x00003b28
    1128:	00003b90 	.word	0x00003b90
    112c:	51eb851f 	.word	0x51eb851f
    1130:	00004070 	.word	0x00004070
    1134:	ffffe000 	.word	0xffffe000
    1138:	fffff8e8 	.word	0xfffff8e8
    113c:	401f0000 	.word	0x401f0000
    1140:	6afb      	ldr	r3, [r7, #44]	; 0x2c
    1142:	f023 5300 	bic.w	r3, r3, #536870912	; 0x20000000
    1146:	62fb      	str	r3, [r7, #44]	; 0x2c
    1148:	68fb      	ldr	r3, [r7, #12]
    114a:	695a      	ldr	r2, [r3, #20]
    114c:	6afb      	ldr	r3, [r7, #44]	; 0x2c
    114e:	431a      	orrs	r2, r3
    1150:	68fb      	ldr	r3, [r7, #12]
    1152:	615a      	str	r2, [r3, #20]
    1154:	68fb      	ldr	r3, [r7, #12]
    1156:	699b      	ldr	r3, [r3, #24]
    1158:	62fb      	str	r3, [r7, #44]	; 0x2c
    115a:	68bb      	ldr	r3, [r7, #8]
    115c:	7c1b      	ldrb	r3, [r3, #16]
    115e:	2b00      	cmp	r3, #0
    1160:	d003      	beq.n	116a <_HeapSize+0x16a>
    1162:	6afb      	ldr	r3, [r7, #44]	; 0x2c
    1164:	f443 2300 	orr.w	r3, r3, #524288	; 0x80000
    1168:	62fb      	str	r3, [r7, #44]	; 0x2c
    116a:	68bb      	ldr	r3, [r7, #8]
    116c:	7c5b      	ldrb	r3, [r3, #17]
    116e:	2b00      	cmp	r3, #0
    1170:	d003      	beq.n	117a <_HeapSize+0x17a>
    1172:	6afb      	ldr	r3, [r7, #44]	; 0x2c
    1174:	f443 2380 	orr.w	r3, r3, #262144	; 0x40000
    1178:	62fb      	str	r3, [r7, #44]	; 0x2c
    117a:	68fb      	ldr	r3, [r7, #12]
    117c:	6afa      	ldr	r2, [r7, #44]	; 0x2c
    117e:	619a      	str	r2, [r3, #24]
    1180:	2300      	movs	r3, #0
    1182:	4618      	mov	r0, r3
    1184:	3730      	adds	r7, #48	; 0x30
    1186:	46bd      	mov	sp, r7
    1188:	bd80      	pop	{r7, pc}
    118a:	bf00      	nop

0000118c <LPUART_GetDefaultConfig>:
    118c:	b580      	push	{r7, lr}
    118e:	b082      	sub	sp, #8
    1190:	af00      	add	r7, sp, #0
    1192:	6078      	str	r0, [r7, #4]
    1194:	687b      	ldr	r3, [r7, #4]
    1196:	2b00      	cmp	r3, #0
    1198:	d102      	bne.n	11a0 <LPUART_GetDefaultConfig+0x14>
    119a:	481d      	ldr	r0, [pc, #116]	; (1210 <LPUART_GetDefaultConfig+0x84>)
    119c:	f001 f96a 	bl	2474 <__assertion_failed>
    11a0:	2214      	movs	r2, #20
    11a2:	2100      	movs	r1, #0
    11a4:	6878      	ldr	r0, [r7, #4]
    11a6:	f001 ff6e 	bl	3086 <memset>
    11aa:	687b      	ldr	r3, [r7, #4]
    11ac:	f44f 32e1 	mov.w	r2, #115200	; 0x1c200
    11b0:	601a      	str	r2, [r3, #0]
    11b2:	687b      	ldr	r3, [r7, #4]
    11b4:	2200      	movs	r2, #0
    11b6:	711a      	strb	r2, [r3, #4]
    11b8:	687b      	ldr	r3, [r7, #4]
    11ba:	2200      	movs	r2, #0
    11bc:	715a      	strb	r2, [r3, #5]
    11be:	687b      	ldr	r3, [r7, #4]
    11c0:	2200      	movs	r2, #0
    11c2:	719a      	strb	r2, [r3, #6]
    11c4:	687b      	ldr	r3, [r7, #4]
    11c6:	2200      	movs	r2, #0
    11c8:	71da      	strb	r2, [r3, #7]
    11ca:	687b      	ldr	r3, [r7, #4]
    11cc:	2200      	movs	r2, #0
    11ce:	721a      	strb	r2, [r3, #8]
    11d0:	687b      	ldr	r3, [r7, #4]
    11d2:	2200      	movs	r2, #0
    11d4:	725a      	strb	r2, [r3, #9]
    11d6:	687b      	ldr	r3, [r7, #4]
    11d8:	2200      	movs	r2, #0
    11da:	729a      	strb	r2, [r3, #10]
    11dc:	687b      	ldr	r3, [r7, #4]
    11de:	2200      	movs	r2, #0
    11e0:	72da      	strb	r2, [r3, #11]
    11e2:	687b      	ldr	r3, [r7, #4]
    11e4:	2200      	movs	r2, #0
    11e6:	735a      	strb	r2, [r3, #13]
    11e8:	687b      	ldr	r3, [r7, #4]
    11ea:	2200      	movs	r2, #0
    11ec:	731a      	strb	r2, [r3, #12]
    11ee:	687b      	ldr	r3, [r7, #4]
    11f0:	2200      	movs	r2, #0
    11f2:	739a      	strb	r2, [r3, #14]
    11f4:	687b      	ldr	r3, [r7, #4]
    11f6:	2200      	movs	r2, #0
    11f8:	73da      	strb	r2, [r3, #15]
    11fa:	687b      	ldr	r3, [r7, #4]
    11fc:	2200      	movs	r2, #0
    11fe:	741a      	strb	r2, [r3, #16]
    1200:	687b      	ldr	r3, [r7, #4]
    1202:	2200      	movs	r2, #0
    1204:	745a      	strb	r2, [r3, #17]
    1206:	bf00      	nop
    1208:	3708      	adds	r7, #8
    120a:	46bd      	mov	sp, r7
    120c:	bd80      	pop	{r7, pc}
    120e:	bf00      	nop
    1210:	00003bf8 	.word	0x00003bf8

00001214 <LPUART1_DriverIRQHandler>:
    1214:	b580      	push	{r7, lr}
    1216:	af00      	add	r7, sp, #0
    1218:	4b04      	ldr	r3, [pc, #16]	; (122c <LPUART1_DriverIRQHandler+0x18>)
    121a:	681b      	ldr	r3, [r3, #0]
    121c:	4a04      	ldr	r2, [pc, #16]	; (1230 <LPUART1_DriverIRQHandler+0x1c>)
    121e:	6852      	ldr	r2, [r2, #4]
    1220:	4611      	mov	r1, r2
    1222:	4804      	ldr	r0, [pc, #16]	; (1234 <LPUART1_DriverIRQHandler+0x20>)
    1224:	4798      	blx	r3
    1226:	bf00      	nop
    1228:	bd80      	pop	{r7, pc}
    122a:	bf00      	nop
    122c:	20000050 	.word	0x20000050
    1230:	2000002c 	.word	0x2000002c
    1234:	40184000 	.word	0x40184000

00001238 <LPUART2_DriverIRQHandler>:
    1238:	b580      	push	{r7, lr}
    123a:	af00      	add	r7, sp, #0
    123c:	4b04      	ldr	r3, [pc, #16]	; (1250 <LPUART2_DriverIRQHandler+0x18>)
    123e:	681b      	ldr	r3, [r3, #0]
    1240:	4a04      	ldr	r2, [pc, #16]	; (1254 <LPUART2_DriverIRQHandler+0x1c>)
    1242:	6892      	ldr	r2, [r2, #8]
    1244:	4611      	mov	r1, r2
    1246:	4804      	ldr	r0, [pc, #16]	; (1258 <LPUART2_DriverIRQHandler+0x20>)
    1248:	4798      	blx	r3
    124a:	bf00      	nop
    124c:	bd80      	pop	{r7, pc}
    124e:	bf00      	nop
    1250:	20000050 	.word	0x20000050
    1254:	2000002c 	.word	0x2000002c
    1258:	40188000 	.word	0x40188000

0000125c <LPUART3_DriverIRQHandler>:
    125c:	b580      	push	{r7, lr}
    125e:	af00      	add	r7, sp, #0
    1260:	4b04      	ldr	r3, [pc, #16]	; (1274 <LPUART3_DriverIRQHandler+0x18>)
    1262:	681b      	ldr	r3, [r3, #0]
    1264:	4a04      	ldr	r2, [pc, #16]	; (1278 <LPUART3_DriverIRQHandler+0x1c>)
    1266:	68d2      	ldr	r2, [r2, #12]
    1268:	4611      	mov	r1, r2
    126a:	4804      	ldr	r0, [pc, #16]	; (127c <LPUART3_DriverIRQHandler+0x20>)
    126c:	4798      	blx	r3
    126e:	bf00      	nop
    1270:	bd80      	pop	{r7, pc}
    1272:	bf00      	nop
    1274:	20000050 	.word	0x20000050
    1278:	2000002c 	.word	0x2000002c
    127c:	4018c000 	.word	0x4018c000

00001280 <LPUART4_DriverIRQHandler>:
    1280:	b580      	push	{r7, lr}
    1282:	af00      	add	r7, sp, #0
    1284:	4b04      	ldr	r3, [pc, #16]	; (1298 <LPUART4_DriverIRQHandler+0x18>)
    1286:	681b      	ldr	r3, [r3, #0]
    1288:	4a04      	ldr	r2, [pc, #16]	; (129c <LPUART4_DriverIRQHandler+0x1c>)
    128a:	6912      	ldr	r2, [r2, #16]
    128c:	4611      	mov	r1, r2
    128e:	4804      	ldr	r0, [pc, #16]	; (12a0 <LPUART4_DriverIRQHandler+0x20>)
    1290:	4798      	blx	r3
    1292:	bf00      	nop
    1294:	bd80      	pop	{r7, pc}
    1296:	bf00      	nop
    1298:	20000050 	.word	0x20000050
    129c:	2000002c 	.word	0x2000002c
    12a0:	40190000 	.word	0x40190000

000012a4 <LPUART5_DriverIRQHandler>:
    12a4:	b580      	push	{r7, lr}
    12a6:	af00      	add	r7, sp, #0
    12a8:	4b04      	ldr	r3, [pc, #16]	; (12bc <LPUART5_DriverIRQHandler+0x18>)
    12aa:	681b      	ldr	r3, [r3, #0]
    12ac:	4a04      	ldr	r2, [pc, #16]	; (12c0 <LPUART5_DriverIRQHandler+0x1c>)
    12ae:	6952      	ldr	r2, [r2, #20]
    12b0:	4611      	mov	r1, r2
    12b2:	4804      	ldr	r0, [pc, #16]	; (12c4 <LPUART5_DriverIRQHandler+0x20>)
    12b4:	4798      	blx	r3
    12b6:	bf00      	nop
    12b8:	bd80      	pop	{r7, pc}
    12ba:	bf00      	nop
    12bc:	20000050 	.word	0x20000050
    12c0:	2000002c 	.word	0x2000002c
    12c4:	40194000 	.word	0x40194000

000012c8 <LPUART6_DriverIRQHandler>:
    12c8:	b580      	push	{r7, lr}
    12ca:	af00      	add	r7, sp, #0
    12cc:	4b04      	ldr	r3, [pc, #16]	; (12e0 <LPUART6_DriverIRQHandler+0x18>)
    12ce:	681b      	ldr	r3, [r3, #0]
    12d0:	4a04      	ldr	r2, [pc, #16]	; (12e4 <LPUART6_DriverIRQHandler+0x1c>)
    12d2:	6992      	ldr	r2, [r2, #24]
    12d4:	4611      	mov	r1, r2
    12d6:	4804      	ldr	r0, [pc, #16]	; (12e8 <LPUART6_DriverIRQHandler+0x20>)
    12d8:	4798      	blx	r3
    12da:	bf00      	nop
    12dc:	bd80      	pop	{r7, pc}
    12de:	bf00      	nop
    12e0:	20000050 	.word	0x20000050
    12e4:	2000002c 	.word	0x2000002c
    12e8:	40198000 	.word	0x40198000

000012ec <LPUART7_DriverIRQHandler>:
    12ec:	b580      	push	{r7, lr}
    12ee:	af00      	add	r7, sp, #0
    12f0:	4b04      	ldr	r3, [pc, #16]	; (1304 <LPUART7_DriverIRQHandler+0x18>)
    12f2:	681b      	ldr	r3, [r3, #0]
    12f4:	4a04      	ldr	r2, [pc, #16]	; (1308 <LPUART7_DriverIRQHandler+0x1c>)
    12f6:	69d2      	ldr	r2, [r2, #28]
    12f8:	4611      	mov	r1, r2
    12fa:	4804      	ldr	r0, [pc, #16]	; (130c <LPUART7_DriverIRQHandler+0x20>)
    12fc:	4798      	blx	r3
    12fe:	bf00      	nop
    1300:	bd80      	pop	{r7, pc}
    1302:	bf00      	nop
    1304:	20000050 	.word	0x20000050
    1308:	2000002c 	.word	0x2000002c
    130c:	4019c000 	.word	0x4019c000

00001310 <LPUART8_DriverIRQHandler>:
    1310:	b580      	push	{r7, lr}
    1312:	af00      	add	r7, sp, #0
    1314:	4b04      	ldr	r3, [pc, #16]	; (1328 <LPUART8_DriverIRQHandler+0x18>)
    1316:	681b      	ldr	r3, [r3, #0]
    1318:	4a04      	ldr	r2, [pc, #16]	; (132c <LPUART8_DriverIRQHandler+0x1c>)
    131a:	6a12      	ldr	r2, [r2, #32]
    131c:	4611      	mov	r1, r2
    131e:	4804      	ldr	r0, [pc, #16]	; (1330 <LPUART8_DriverIRQHandler+0x20>)
    1320:	4798      	blx	r3
    1322:	bf00      	nop
    1324:	bd80      	pop	{r7, pc}
    1326:	bf00      	nop
    1328:	20000050 	.word	0x20000050
    132c:	2000002c 	.word	0x2000002c
    1330:	401a0000 	.word	0x401a0000

00001334 <SCB_EnableICache>:
    1334:	b480      	push	{r7}
    1336:	af00      	add	r7, sp, #0
    1338:	f3bf 8f4f 	dsb	sy
    133c:	f3bf 8f6f 	isb	sy
    1340:	4b0b      	ldr	r3, [pc, #44]	; (1370 <SCB_EnableICache+0x3c>)
    1342:	2200      	movs	r2, #0
    1344:	f8c3 2250 	str.w	r2, [r3, #592]	; 0x250
    1348:	f3bf 8f4f 	dsb	sy
    134c:	f3bf 8f6f 	isb	sy
    1350:	4b07      	ldr	r3, [pc, #28]	; (1370 <SCB_EnableICache+0x3c>)
    1352:	695b      	ldr	r3, [r3, #20]
    1354:	4a06      	ldr	r2, [pc, #24]	; (1370 <SCB_EnableICache+0x3c>)
    1356:	f443 3300 	orr.w	r3, r3, #131072	; 0x20000
    135a:	6153      	str	r3, [r2, #20]
    135c:	f3bf 8f4f 	dsb	sy
    1360:	f3bf 8f6f 	isb	sy
    1364:	bf00      	nop
    1366:	46bd      	mov	sp, r7
    1368:	f85d 7b04 	ldr.w	r7, [sp], #4
    136c:	4770      	bx	lr
    136e:	bf00      	nop
    1370:	e000ed00 	.word	0xe000ed00

00001374 <SCB_EnableDCache>:
    1374:	b480      	push	{r7}
    1376:	b085      	sub	sp, #20
    1378:	af00      	add	r7, sp, #0
    137a:	4b1d      	ldr	r3, [pc, #116]	; (13f0 <SCB_EnableDCache+0x7c>)
    137c:	2200      	movs	r2, #0
    137e:	f8c3 2084 	str.w	r2, [r3, #132]	; 0x84
    1382:	f3bf 8f4f 	dsb	sy
    1386:	4b1a      	ldr	r3, [pc, #104]	; (13f0 <SCB_EnableDCache+0x7c>)
    1388:	f8d3 3080 	ldr.w	r3, [r3, #128]	; 0x80
    138c:	607b      	str	r3, [r7, #4]
    138e:	687b      	ldr	r3, [r7, #4]
    1390:	0b5b      	lsrs	r3, r3, #13
    1392:	f3c3 030e 	ubfx	r3, r3, #0, #15
    1396:	60fb      	str	r3, [r7, #12]
    1398:	687b      	ldr	r3, [r7, #4]
    139a:	08db      	lsrs	r3, r3, #3
    139c:	f3c3 0309 	ubfx	r3, r3, #0, #10
    13a0:	60bb      	str	r3, [r7, #8]
    13a2:	68fb      	ldr	r3, [r7, #12]
    13a4:	015a      	lsls	r2, r3, #5
    13a6:	f643 73e0 	movw	r3, #16352	; 0x3fe0
    13aa:	4013      	ands	r3, r2
    13ac:	68ba      	ldr	r2, [r7, #8]
    13ae:	0792      	lsls	r2, r2, #30
    13b0:	490f      	ldr	r1, [pc, #60]	; (13f0 <SCB_EnableDCache+0x7c>)
    13b2:	4313      	orrs	r3, r2
    13b4:	f8c1 3260 	str.w	r3, [r1, #608]	; 0x260
    13b8:	68bb      	ldr	r3, [r7, #8]
    13ba:	1e5a      	subs	r2, r3, #1
    13bc:	60ba      	str	r2, [r7, #8]
    13be:	2b00      	cmp	r3, #0
    13c0:	d1ef      	bne.n	13a2 <SCB_EnableDCache+0x2e>
    13c2:	68fb      	ldr	r3, [r7, #12]
    13c4:	1e5a      	subs	r2, r3, #1
    13c6:	60fa      	str	r2, [r7, #12]
    13c8:	2b00      	cmp	r3, #0
    13ca:	d1e5      	bne.n	1398 <SCB_EnableDCache+0x24>
    13cc:	f3bf 8f4f 	dsb	sy
    13d0:	4b07      	ldr	r3, [pc, #28]	; (13f0 <SCB_EnableDCache+0x7c>)
    13d2:	695b      	ldr	r3, [r3, #20]
    13d4:	4a06      	ldr	r2, [pc, #24]	; (13f0 <SCB_EnableDCache+0x7c>)
    13d6:	f443 3380 	orr.w	r3, r3, #65536	; 0x10000
    13da:	6153      	str	r3, [r2, #20]
    13dc:	f3bf 8f4f 	dsb	sy
    13e0:	f3bf 8f6f 	isb	sy
    13e4:	bf00      	nop
    13e6:	3714      	adds	r7, #20
    13e8:	46bd      	mov	sp, r7
    13ea:	f85d 7b04 	ldr.w	r7, [sp], #4
    13ee:	4770      	bx	lr
    13f0:	e000ed00 	.word	0xe000ed00

000013f4 <SystemInit>:
    13f4:	b580      	push	{r7, lr}
    13f6:	af00      	add	r7, sp, #0
    13f8:	4b34      	ldr	r3, [pc, #208]	; (14cc <SystemInit+0xd8>)
    13fa:	f8d3 3088 	ldr.w	r3, [r3, #136]	; 0x88
    13fe:	4a33      	ldr	r2, [pc, #204]	; (14cc <SystemInit+0xd8>)
    1400:	f443 0370 	orr.w	r3, r3, #15728640	; 0xf00000
    1404:	f8c2 3088 	str.w	r3, [r2, #136]	; 0x88
    1408:	4b30      	ldr	r3, [pc, #192]	; (14cc <SystemInit+0xd8>)
    140a:	4a31      	ldr	r2, [pc, #196]	; (14d0 <SystemInit+0xdc>)
    140c:	609a      	str	r2, [r3, #8]
    140e:	4b31      	ldr	r3, [pc, #196]	; (14d4 <SystemInit+0xe0>)
    1410:	891b      	ldrh	r3, [r3, #8]
    1412:	b29b      	uxth	r3, r3
    1414:	4a2f      	ldr	r2, [pc, #188]	; (14d4 <SystemInit+0xe0>)
    1416:	f023 0301 	bic.w	r3, r3, #1
    141a:	b29b      	uxth	r3, r3
    141c:	8113      	strh	r3, [r2, #8]
    141e:	4b2e      	ldr	r3, [pc, #184]	; (14d8 <SystemInit+0xe4>)
    1420:	891b      	ldrh	r3, [r3, #8]
    1422:	b29b      	uxth	r3, r3
    1424:	4a2c      	ldr	r2, [pc, #176]	; (14d8 <SystemInit+0xe4>)
    1426:	f023 0301 	bic.w	r3, r3, #1
    142a:	b29b      	uxth	r3, r3
    142c:	8113      	strh	r3, [r2, #8]
    142e:	4b29      	ldr	r3, [pc, #164]	; (14d4 <SystemInit+0xe0>)
    1430:	881b      	ldrh	r3, [r3, #0]
    1432:	b29b      	uxth	r3, r3
    1434:	f003 0304 	and.w	r3, r3, #4
    1438:	2b00      	cmp	r3, #0
    143a:	d007      	beq.n	144c <SystemInit+0x58>
    143c:	4b25      	ldr	r3, [pc, #148]	; (14d4 <SystemInit+0xe0>)
    143e:	881b      	ldrh	r3, [r3, #0]
    1440:	b29b      	uxth	r3, r3
    1442:	4a24      	ldr	r2, [pc, #144]	; (14d4 <SystemInit+0xe0>)
    1444:	f023 0304 	bic.w	r3, r3, #4
    1448:	b29b      	uxth	r3, r3
    144a:	8013      	strh	r3, [r2, #0]
    144c:	4b22      	ldr	r3, [pc, #136]	; (14d8 <SystemInit+0xe4>)
    144e:	881b      	ldrh	r3, [r3, #0]
    1450:	b29b      	uxth	r3, r3
    1452:	f003 0304 	and.w	r3, r3, #4
    1456:	2b00      	cmp	r3, #0
    1458:	d007      	beq.n	146a <SystemInit+0x76>
    145a:	4b1f      	ldr	r3, [pc, #124]	; (14d8 <SystemInit+0xe4>)
    145c:	881b      	ldrh	r3, [r3, #0]
    145e:	b29b      	uxth	r3, r3
    1460:	4a1d      	ldr	r2, [pc, #116]	; (14d8 <SystemInit+0xe4>)
    1462:	f023 0304 	bic.w	r3, r3, #4
    1466:	b29b      	uxth	r3, r3
    1468:	8013      	strh	r3, [r2, #0]
    146a:	4b1c      	ldr	r3, [pc, #112]	; (14dc <SystemInit+0xe8>)
    146c:	4a1c      	ldr	r2, [pc, #112]	; (14e0 <SystemInit+0xec>)
    146e:	605a      	str	r2, [r3, #4]
    1470:	4b1a      	ldr	r3, [pc, #104]	; (14dc <SystemInit+0xe8>)
    1472:	f64f 72ff 	movw	r2, #65535	; 0xffff
    1476:	609a      	str	r2, [r3, #8]
    1478:	4b18      	ldr	r3, [pc, #96]	; (14dc <SystemInit+0xe8>)
    147a:	681b      	ldr	r3, [r3, #0]
    147c:	f023 03a0 	bic.w	r3, r3, #160	; 0xa0
    1480:	4a16      	ldr	r2, [pc, #88]	; (14dc <SystemInit+0xe8>)
    1482:	f043 0320 	orr.w	r3, r3, #32
    1486:	6013      	str	r3, [r2, #0]
    1488:	4b16      	ldr	r3, [pc, #88]	; (14e4 <SystemInit+0xf0>)
    148a:	681b      	ldr	r3, [r3, #0]
    148c:	f003 0301 	and.w	r3, r3, #1
    1490:	2b00      	cmp	r3, #0
    1492:	d005      	beq.n	14a0 <SystemInit+0xac>
    1494:	4b13      	ldr	r3, [pc, #76]	; (14e4 <SystemInit+0xf0>)
    1496:	681b      	ldr	r3, [r3, #0]
    1498:	4a12      	ldr	r2, [pc, #72]	; (14e4 <SystemInit+0xf0>)
    149a:	f023 0301 	bic.w	r3, r3, #1
    149e:	6013      	str	r3, [r2, #0]
    14a0:	4b0a      	ldr	r3, [pc, #40]	; (14cc <SystemInit+0xd8>)
    14a2:	695b      	ldr	r3, [r3, #20]
    14a4:	f403 3300 	and.w	r3, r3, #131072	; 0x20000
    14a8:	f5b3 3f00 	cmp.w	r3, #131072	; 0x20000
    14ac:	d001      	beq.n	14b2 <SystemInit+0xbe>
    14ae:	f7ff ff41 	bl	1334 <SCB_EnableICache>
    14b2:	4b06      	ldr	r3, [pc, #24]	; (14cc <SystemInit+0xd8>)
    14b4:	695b      	ldr	r3, [r3, #20]
    14b6:	f403 3380 	and.w	r3, r3, #65536	; 0x10000
    14ba:	f5b3 3f80 	cmp.w	r3, #65536	; 0x10000
    14be:	d001      	beq.n	14c4 <SystemInit+0xd0>
    14c0:	f7ff ff58 	bl	1374 <SCB_EnableDCache>
    14c4:	f001 fd16 	bl	2ef4 <SystemInitHook>
    14c8:	bf00      	nop
    14ca:	bd80      	pop	{r7, pc}
    14cc:	e000ed00 	.word	0xe000ed00
    14d0:	00000000 	.word	0x00000000
    14d4:	400b8000 	.word	0x400b8000
    14d8:	400d0000 	.word	0x400d0000
    14dc:	400bc000 	.word	0x400bc000
    14e0:	d928c520 	.word	0xd928c520
    14e4:	e000e010 	.word	0xe000e010

000014e8 <SystemCoreClockUpdate>:
    14e8:	b590      	push	{r4, r7, lr}
    14ea:	b085      	sub	sp, #20
    14ec:	af00      	add	r7, sp, #0
    14ee:	4b78      	ldr	r3, [pc, #480]	; (16d0 <SystemCoreClockUpdate+0x1e8>)
    14f0:	695b      	ldr	r3, [r3, #20]
    14f2:	f003 7300 	and.w	r3, r3, #33554432	; 0x2000000
    14f6:	2b00      	cmp	r3, #0
    14f8:	d045      	beq.n	1586 <SystemCoreClockUpdate+0x9e>
    14fa:	4b75      	ldr	r3, [pc, #468]	; (16d0 <SystemCoreClockUpdate+0x1e8>)
    14fc:	699b      	ldr	r3, [r3, #24]
    14fe:	f403 5340 	and.w	r3, r3, #12288	; 0x3000
    1502:	f5b3 5f80 	cmp.w	r3, #4096	; 0x1000
    1506:	d021      	beq.n	154c <SystemCoreClockUpdate+0x64>
    1508:	f5b3 5f00 	cmp.w	r3, #8192	; 0x2000
    150c:	d021      	beq.n	1552 <SystemCoreClockUpdate+0x6a>
    150e:	2b00      	cmp	r3, #0
    1510:	d12b      	bne.n	156a <SystemCoreClockUpdate+0x82>
    1512:	4b70      	ldr	r3, [pc, #448]	; (16d4 <SystemCoreClockUpdate+0x1ec>)
    1514:	691b      	ldr	r3, [r3, #16]
    1516:	f403 3380 	and.w	r3, r3, #65536	; 0x10000
    151a:	2b00      	cmp	r3, #0
    151c:	d00b      	beq.n	1536 <SystemCoreClockUpdate+0x4e>
    151e:	4b6d      	ldr	r3, [pc, #436]	; (16d4 <SystemCoreClockUpdate+0x1ec>)
    1520:	691b      	ldr	r3, [r3, #16]
    1522:	0b9b      	lsrs	r3, r3, #14
    1524:	f003 0303 	and.w	r3, r3, #3
    1528:	2b00      	cmp	r3, #0
    152a:	d101      	bne.n	1530 <SystemCoreClockUpdate+0x48>
    152c:	4b6a      	ldr	r3, [pc, #424]	; (16d8 <SystemCoreClockUpdate+0x1f0>)
    152e:	e000      	b.n	1532 <SystemCoreClockUpdate+0x4a>
    1530:	2300      	movs	r3, #0
    1532:	60fb      	str	r3, [r7, #12]
    1534:	e01c      	b.n	1570 <SystemCoreClockUpdate+0x88>
    1536:	4b67      	ldr	r3, [pc, #412]	; (16d4 <SystemCoreClockUpdate+0x1ec>)
    1538:	691b      	ldr	r3, [r3, #16]
    153a:	f003 0302 	and.w	r3, r3, #2
    153e:	2b00      	cmp	r3, #0
    1540:	d001      	beq.n	1546 <SystemCoreClockUpdate+0x5e>
    1542:	4b66      	ldr	r3, [pc, #408]	; (16dc <SystemCoreClockUpdate+0x1f4>)
    1544:	e000      	b.n	1548 <SystemCoreClockUpdate+0x60>
    1546:	4b66      	ldr	r3, [pc, #408]	; (16e0 <SystemCoreClockUpdate+0x1f8>)
    1548:	60fb      	str	r3, [r7, #12]
    154a:	e011      	b.n	1570 <SystemCoreClockUpdate+0x88>
    154c:	4b62      	ldr	r3, [pc, #392]	; (16d8 <SystemCoreClockUpdate+0x1f0>)
    154e:	60fb      	str	r3, [r7, #12]
    1550:	e00e      	b.n	1570 <SystemCoreClockUpdate+0x88>
    1552:	4b60      	ldr	r3, [pc, #384]	; (16d4 <SystemCoreClockUpdate+0x1ec>)
    1554:	6b1b      	ldr	r3, [r3, #48]	; 0x30
    1556:	0b9b      	lsrs	r3, r3, #14
    1558:	f003 0303 	and.w	r3, r3, #3
    155c:	2b00      	cmp	r3, #0
    155e:	d101      	bne.n	1564 <SystemCoreClockUpdate+0x7c>
    1560:	4b5d      	ldr	r3, [pc, #372]	; (16d8 <SystemCoreClockUpdate+0x1f0>)
    1562:	e000      	b.n	1566 <SystemCoreClockUpdate+0x7e>
    1564:	2300      	movs	r3, #0
    1566:	60fb      	str	r3, [r7, #12]
    1568:	e002      	b.n	1570 <SystemCoreClockUpdate+0x88>
    156a:	2300      	movs	r3, #0
    156c:	60fb      	str	r3, [r7, #12]
    156e:	bf00      	nop
    1570:	4b57      	ldr	r3, [pc, #348]	; (16d0 <SystemCoreClockUpdate+0x1e8>)
    1572:	695b      	ldr	r3, [r3, #20]
    1574:	0edb      	lsrs	r3, r3, #27
    1576:	f003 0307 	and.w	r3, r3, #7
    157a:	3301      	adds	r3, #1
    157c:	68fa      	ldr	r2, [r7, #12]
    157e:	fbb2 f3f3 	udiv	r3, r2, r3
    1582:	60fb      	str	r3, [r7, #12]
    1584:	e095      	b.n	16b2 <SystemCoreClockUpdate+0x1ca>
    1586:	4b53      	ldr	r3, [pc, #332]	; (16d4 <SystemCoreClockUpdate+0x1ec>)
    1588:	681b      	ldr	r3, [r3, #0]
    158a:	f403 3380 	and.w	r3, r3, #65536	; 0x10000
    158e:	2b00      	cmp	r3, #0
    1590:	d00b      	beq.n	15aa <SystemCoreClockUpdate+0xc2>
    1592:	4b50      	ldr	r3, [pc, #320]	; (16d4 <SystemCoreClockUpdate+0x1ec>)
    1594:	681b      	ldr	r3, [r3, #0]
    1596:	0b9b      	lsrs	r3, r3, #14
    1598:	f003 0303 	and.w	r3, r3, #3
    159c:	2b00      	cmp	r3, #0
    159e:	d101      	bne.n	15a4 <SystemCoreClockUpdate+0xbc>
    15a0:	4b4d      	ldr	r3, [pc, #308]	; (16d8 <SystemCoreClockUpdate+0x1f0>)
    15a2:	e000      	b.n	15a6 <SystemCoreClockUpdate+0xbe>
    15a4:	2300      	movs	r3, #0
    15a6:	60bb      	str	r3, [r7, #8]
    15a8:	e008      	b.n	15bc <SystemCoreClockUpdate+0xd4>
    15aa:	4b4a      	ldr	r3, [pc, #296]	; (16d4 <SystemCoreClockUpdate+0x1ec>)
    15ac:	681b      	ldr	r3, [r3, #0]
    15ae:	f003 037f 	and.w	r3, r3, #127	; 0x7f
    15b2:	4a49      	ldr	r2, [pc, #292]	; (16d8 <SystemCoreClockUpdate+0x1f0>)
    15b4:	fb02 f303 	mul.w	r3, r2, r3
    15b8:	085b      	lsrs	r3, r3, #1
    15ba:	60bb      	str	r3, [r7, #8]
    15bc:	4b45      	ldr	r3, [pc, #276]	; (16d4 <SystemCoreClockUpdate+0x1ec>)
    15be:	6b1b      	ldr	r3, [r3, #48]	; 0x30
    15c0:	f403 3380 	and.w	r3, r3, #65536	; 0x10000
    15c4:	2b00      	cmp	r3, #0
    15c6:	d00b      	beq.n	15e0 <SystemCoreClockUpdate+0xf8>
    15c8:	4b42      	ldr	r3, [pc, #264]	; (16d4 <SystemCoreClockUpdate+0x1ec>)
    15ca:	6b1b      	ldr	r3, [r3, #48]	; 0x30
    15cc:	0b9b      	lsrs	r3, r3, #14
    15ce:	f003 0303 	and.w	r3, r3, #3
    15d2:	2b00      	cmp	r3, #0
    15d4:	d101      	bne.n	15da <SystemCoreClockUpdate+0xf2>
    15d6:	4b40      	ldr	r3, [pc, #256]	; (16d8 <SystemCoreClockUpdate+0x1f0>)
    15d8:	e000      	b.n	15dc <SystemCoreClockUpdate+0xf4>
    15da:	2300      	movs	r3, #0
    15dc:	607b      	str	r3, [r7, #4]
    15de:	e009      	b.n	15f4 <SystemCoreClockUpdate+0x10c>
    15e0:	4b3c      	ldr	r3, [pc, #240]	; (16d4 <SystemCoreClockUpdate+0x1ec>)
    15e2:	6b1b      	ldr	r3, [r3, #48]	; 0x30
    15e4:	f003 0301 	and.w	r3, r3, #1
    15e8:	2b00      	cmp	r3, #0
    15ea:	d001      	beq.n	15f0 <SystemCoreClockUpdate+0x108>
    15ec:	4b3b      	ldr	r3, [pc, #236]	; (16dc <SystemCoreClockUpdate+0x1f4>)
    15ee:	e000      	b.n	15f2 <SystemCoreClockUpdate+0x10a>
    15f0:	4b3b      	ldr	r3, [pc, #236]	; (16e0 <SystemCoreClockUpdate+0x1f8>)
    15f2:	607b      	str	r3, [r7, #4]
    15f4:	4b37      	ldr	r3, [pc, #220]	; (16d4 <SystemCoreClockUpdate+0x1ec>)
    15f6:	6d1b      	ldr	r3, [r3, #80]	; 0x50
    15f8:	f04f 0400 	mov.w	r4, #0
    15fc:	4a36      	ldr	r2, [pc, #216]	; (16d8 <SystemCoreClockUpdate+0x1f0>)
    15fe:	fb02 f104 	mul.w	r1, r2, r4
    1602:	2200      	movs	r2, #0
    1604:	fb02 f203 	mul.w	r2, r2, r3
    1608:	440a      	add	r2, r1
    160a:	4933      	ldr	r1, [pc, #204]	; (16d8 <SystemCoreClockUpdate+0x1f0>)
    160c:	fba3 0101 	umull	r0, r1, r3, r1
    1610:	1853      	adds	r3, r2, r1
    1612:	4619      	mov	r1, r3
    1614:	4b2f      	ldr	r3, [pc, #188]	; (16d4 <SystemCoreClockUpdate+0x1ec>)
    1616:	6e1b      	ldr	r3, [r3, #96]	; 0x60
    1618:	f04f 0400 	mov.w	r4, #0
    161c:	461a      	mov	r2, r3
    161e:	4623      	mov	r3, r4
    1620:	f001 fefa 	bl	3418 <__aeabi_uldivmod>
    1624:	4603      	mov	r3, r0
    1626:	460c      	mov	r4, r1
    1628:	461a      	mov	r2, r3
    162a:	687b      	ldr	r3, [r7, #4]
    162c:	4413      	add	r3, r2
    162e:	607b      	str	r3, [r7, #4]
    1630:	4b27      	ldr	r3, [pc, #156]	; (16d0 <SystemCoreClockUpdate+0x1e8>)
    1632:	699b      	ldr	r3, [r3, #24]
    1634:	f403 2340 	and.w	r3, r3, #786432	; 0xc0000
    1638:	f5b3 2f80 	cmp.w	r3, #262144	; 0x40000
    163c:	d00f      	beq.n	165e <SystemCoreClockUpdate+0x176>
    163e:	f5b3 2f80 	cmp.w	r3, #262144	; 0x40000
    1642:	d802      	bhi.n	164a <SystemCoreClockUpdate+0x162>
    1644:	2b00      	cmp	r3, #0
    1646:	d007      	beq.n	1658 <SystemCoreClockUpdate+0x170>
    1648:	e030      	b.n	16ac <SystemCoreClockUpdate+0x1c4>
    164a:	f5b3 2f00 	cmp.w	r3, #524288	; 0x80000
    164e:	d015      	beq.n	167c <SystemCoreClockUpdate+0x194>
    1650:	f5b3 2f40 	cmp.w	r3, #786432	; 0xc0000
    1654:	d020      	beq.n	1698 <SystemCoreClockUpdate+0x1b0>
    1656:	e029      	b.n	16ac <SystemCoreClockUpdate+0x1c4>
    1658:	687b      	ldr	r3, [r7, #4]
    165a:	60fb      	str	r3, [r7, #12]
    165c:	e029      	b.n	16b2 <SystemCoreClockUpdate+0x1ca>
    165e:	4b1d      	ldr	r3, [pc, #116]	; (16d4 <SystemCoreClockUpdate+0x1ec>)
    1660:	f8d3 3100 	ldr.w	r3, [r3, #256]	; 0x100
    1664:	0c1b      	lsrs	r3, r3, #16
    1666:	f003 033f 	and.w	r3, r3, #63	; 0x3f
    166a:	687a      	ldr	r2, [r7, #4]
    166c:	fbb2 f2f3 	udiv	r2, r2, r3
    1670:	4613      	mov	r3, r2
    1672:	00db      	lsls	r3, r3, #3
    1674:	4413      	add	r3, r2
    1676:	005b      	lsls	r3, r3, #1
    1678:	60fb      	str	r3, [r7, #12]
    167a:	e01a      	b.n	16b2 <SystemCoreClockUpdate+0x1ca>
    167c:	4b15      	ldr	r3, [pc, #84]	; (16d4 <SystemCoreClockUpdate+0x1ec>)
    167e:	f8d3 3100 	ldr.w	r3, [r3, #256]	; 0x100
    1682:	f003 033f 	and.w	r3, r3, #63	; 0x3f
    1686:	687a      	ldr	r2, [r7, #4]
    1688:	fbb2 f2f3 	udiv	r2, r2, r3
    168c:	4613      	mov	r3, r2
    168e:	00db      	lsls	r3, r3, #3
    1690:	4413      	add	r3, r2
    1692:	005b      	lsls	r3, r3, #1
    1694:	60fb      	str	r3, [r7, #12]
    1696:	e00c      	b.n	16b2 <SystemCoreClockUpdate+0x1ca>
    1698:	4b0d      	ldr	r3, [pc, #52]	; (16d0 <SystemCoreClockUpdate+0x1e8>)
    169a:	691b      	ldr	r3, [r3, #16]
    169c:	f003 0307 	and.w	r3, r3, #7
    16a0:	3301      	adds	r3, #1
    16a2:	68ba      	ldr	r2, [r7, #8]
    16a4:	fbb2 f3f3 	udiv	r3, r2, r3
    16a8:	60fb      	str	r3, [r7, #12]
    16aa:	e002      	b.n	16b2 <SystemCoreClockUpdate+0x1ca>
    16ac:	2300      	movs	r3, #0
    16ae:	60fb      	str	r3, [r7, #12]
    16b0:	bf00      	nop
    16b2:	4b07      	ldr	r3, [pc, #28]	; (16d0 <SystemCoreClockUpdate+0x1e8>)
    16b4:	695b      	ldr	r3, [r3, #20]
    16b6:	0a9b      	lsrs	r3, r3, #10
    16b8:	f003 0307 	and.w	r3, r3, #7
    16bc:	3301      	adds	r3, #1
    16be:	68fa      	ldr	r2, [r7, #12]
    16c0:	fbb2 f3f3 	udiv	r3, r2, r3
    16c4:	4a07      	ldr	r2, [pc, #28]	; (16e4 <SystemCoreClockUpdate+0x1fc>)
    16c6:	6013      	str	r3, [r2, #0]
    16c8:	bf00      	nop
    16ca:	3714      	adds	r7, #20
    16cc:	46bd      	mov	sp, r7
    16ce:	bd90      	pop	{r4, r7, pc}
    16d0:	400fc000 	.word	0x400fc000
    16d4:	400d8000 	.word	0x400d8000
    16d8:	016e3600 	.word	0x016e3600
    16dc:	1f78a400 	.word	0x1f78a400
    16e0:	1c9c3800 	.word	0x1c9c3800
    16e4:	20000000 	.word	0x20000000

000016e8 <HAL_UartInit>:
    16e8:	b580      	push	{r7, lr}
    16ea:	b08a      	sub	sp, #40	; 0x28
    16ec:	af00      	add	r7, sp, #0
    16ee:	6078      	str	r0, [r7, #4]
    16f0:	6039      	str	r1, [r7, #0]
    16f2:	687b      	ldr	r3, [r7, #4]
    16f4:	2b00      	cmp	r3, #0
    16f6:	d102      	bne.n	16fe <HAL_UartInit+0x16>
    16f8:	4836      	ldr	r0, [pc, #216]	; (17d4 <HAL_UartInit+0xec>)
    16fa:	f000 febb 	bl	2474 <__assertion_failed>
    16fe:	683b      	ldr	r3, [r7, #0]
    1700:	2b00      	cmp	r3, #0
    1702:	d102      	bne.n	170a <HAL_UartInit+0x22>
    1704:	4834      	ldr	r0, [pc, #208]	; (17d8 <HAL_UartInit+0xf0>)
    1706:	f000 feb5 	bl	2474 <__assertion_failed>
    170a:	683b      	ldr	r3, [r7, #0]
    170c:	7b1b      	ldrb	r3, [r3, #12]
    170e:	2b08      	cmp	r3, #8
    1710:	d902      	bls.n	1718 <HAL_UartInit+0x30>
    1712:	4832      	ldr	r0, [pc, #200]	; (17dc <HAL_UartInit+0xf4>)
    1714:	f000 feae 	bl	2474 <__assertion_failed>
    1718:	683b      	ldr	r3, [r7, #0]
    171a:	7b1b      	ldrb	r3, [r3, #12]
    171c:	461a      	mov	r2, r3
    171e:	4b30      	ldr	r3, [pc, #192]	; (17e0 <HAL_UartInit+0xf8>)
    1720:	f853 3022 	ldr.w	r3, [r3, r2, lsl #2]
    1724:	2b00      	cmp	r3, #0
    1726:	d102      	bne.n	172e <HAL_UartInit+0x46>
    1728:	482e      	ldr	r0, [pc, #184]	; (17e4 <HAL_UartInit+0xfc>)
    172a:	f000 fea3 	bl	2474 <__assertion_failed>
    172e:	f107 030c 	add.w	r3, r7, #12
    1732:	4618      	mov	r0, r3
    1734:	f7ff fd2a 	bl	118c <LPUART_GetDefaultConfig>
    1738:	683b      	ldr	r3, [r7, #0]
    173a:	685b      	ldr	r3, [r3, #4]
    173c:	60fb      	str	r3, [r7, #12]
    173e:	683b      	ldr	r3, [r7, #0]
    1740:	7a1b      	ldrb	r3, [r3, #8]
    1742:	2b01      	cmp	r3, #1
    1744:	d102      	bne.n	174c <HAL_UartInit+0x64>
    1746:	2302      	movs	r3, #2
    1748:	743b      	strb	r3, [r7, #16]
    174a:	e008      	b.n	175e <HAL_UartInit+0x76>
    174c:	683b      	ldr	r3, [r7, #0]
    174e:	7a1b      	ldrb	r3, [r3, #8]
    1750:	2b02      	cmp	r3, #2
    1752:	d102      	bne.n	175a <HAL_UartInit+0x72>
    1754:	2303      	movs	r3, #3
    1756:	743b      	strb	r3, [r7, #16]
    1758:	e001      	b.n	175e <HAL_UartInit+0x76>
    175a:	2300      	movs	r3, #0
    175c:	743b      	strb	r3, [r7, #16]
    175e:	683b      	ldr	r3, [r7, #0]
    1760:	7a5b      	ldrb	r3, [r3, #9]
    1762:	2b01      	cmp	r3, #1
    1764:	d102      	bne.n	176c <HAL_UartInit+0x84>
    1766:	2301      	movs	r3, #1
    1768:	74fb      	strb	r3, [r7, #19]
    176a:	e001      	b.n	1770 <HAL_UartInit+0x88>
    176c:	2300      	movs	r3, #0
    176e:	74fb      	strb	r3, [r7, #19]
    1770:	683b      	ldr	r3, [r7, #0]
    1772:	7a9b      	ldrb	r3, [r3, #10]
    1774:	2b00      	cmp	r3, #0
    1776:	bf14      	ite	ne
    1778:	2301      	movne	r3, #1
    177a:	2300      	moveq	r3, #0
    177c:	b2db      	uxtb	r3, r3
    177e:	777b      	strb	r3, [r7, #29]
    1780:	683b      	ldr	r3, [r7, #0]
    1782:	7adb      	ldrb	r3, [r3, #11]
    1784:	2b00      	cmp	r3, #0
    1786:	bf14      	ite	ne
    1788:	2301      	movne	r3, #1
    178a:	2300      	moveq	r3, #0
    178c:	b2db      	uxtb	r3, r3
    178e:	773b      	strb	r3, [r7, #28]
    1790:	683b      	ldr	r3, [r7, #0]
    1792:	7b1b      	ldrb	r3, [r3, #12]
    1794:	461a      	mov	r2, r3
    1796:	4b12      	ldr	r3, [pc, #72]	; (17e0 <HAL_UartInit+0xf8>)
    1798:	f853 0022 	ldr.w	r0, [r3, r2, lsl #2]
    179c:	683b      	ldr	r3, [r7, #0]
    179e:	681a      	ldr	r2, [r3, #0]
    17a0:	f107 030c 	add.w	r3, r7, #12
    17a4:	4619      	mov	r1, r3
    17a6:	f7ff fb71 	bl	e8c <LPUART_Init>
    17aa:	6278      	str	r0, [r7, #36]	; 0x24
    17ac:	6a7b      	ldr	r3, [r7, #36]	; 0x24
    17ae:	2b00      	cmp	r3, #0
    17b0:	d004      	beq.n	17bc <HAL_UartInit+0xd4>
    17b2:	6a78      	ldr	r0, [r7, #36]	; 0x24
    17b4:	f001 fba5 	bl	2f02 <HAL_UartGetStatus>
    17b8:	4603      	mov	r3, r0
    17ba:	e006      	b.n	17ca <HAL_UartInit+0xe2>
    17bc:	687b      	ldr	r3, [r7, #4]
    17be:	623b      	str	r3, [r7, #32]
    17c0:	683b      	ldr	r3, [r7, #0]
    17c2:	7b1a      	ldrb	r2, [r3, #12]
    17c4:	6a3b      	ldr	r3, [r7, #32]
    17c6:	701a      	strb	r2, [r3, #0]
    17c8:	2300      	movs	r3, #0
    17ca:	4618      	mov	r0, r3
    17cc:	3728      	adds	r7, #40	; 0x28
    17ce:	46bd      	mov	sp, r7
    17d0:	bd80      	pop	{r7, pc}
    17d2:	bf00      	nop
    17d4:	000040a8 	.word	0x000040a8
    17d8:	000040d8 	.word	0x000040d8
    17dc:	00004108 	.word	0x00004108
    17e0:	00004084 	.word	0x00004084
    17e4:	0000417c 	.word	0x0000417c

000017e8 <SerialManager_Init>:
    17e8:	b580      	push	{r7, lr}
    17ea:	b084      	sub	sp, #16
    17ec:	af00      	add	r7, sp, #0
    17ee:	6078      	str	r0, [r7, #4]
    17f0:	6039      	str	r1, [r7, #0]
    17f2:	f243 5321 	movw	r3, #13601	; 0x3521
    17f6:	81fb      	strh	r3, [r7, #14]
    17f8:	683b      	ldr	r3, [r7, #0]
    17fa:	2b00      	cmp	r3, #0
    17fc:	d102      	bne.n	1804 <SerialManager_Init+0x1c>
    17fe:	4815      	ldr	r0, [pc, #84]	; (1854 <SerialManager_Init+0x6c>)
    1800:	f000 fe38 	bl	2474 <__assertion_failed>
    1804:	687b      	ldr	r3, [r7, #4]
    1806:	2b00      	cmp	r3, #0
    1808:	d102      	bne.n	1810 <SerialManager_Init+0x28>
    180a:	4813      	ldr	r0, [pc, #76]	; (1858 <SerialManager_Init+0x70>)
    180c:	f000 fe32 	bl	2474 <__assertion_failed>
    1810:	687b      	ldr	r3, [r7, #4]
    1812:	60bb      	str	r3, [r7, #8]
    1814:	2210      	movs	r2, #16
    1816:	2100      	movs	r1, #0
    1818:	68b8      	ldr	r0, [r7, #8]
    181a:	f001 fc34 	bl	3086 <memset>
    181e:	683b      	ldr	r3, [r7, #0]
    1820:	7a1a      	ldrb	r2, [r3, #8]
    1822:	68bb      	ldr	r3, [r7, #8]
    1824:	731a      	strb	r2, [r3, #12]
    1826:	683b      	ldr	r3, [r7, #0]
    1828:	7a1b      	ldrb	r3, [r3, #8]
    182a:	2b01      	cmp	r3, #1
    182c:	d10b      	bne.n	1846 <SerialManager_Init+0x5e>
    182e:	68bb      	ldr	r3, [r7, #8]
    1830:	f103 0208 	add.w	r2, r3, #8
    1834:	683b      	ldr	r3, [r7, #0]
    1836:	68db      	ldr	r3, [r3, #12]
    1838:	4619      	mov	r1, r3
    183a:	4610      	mov	r0, r2
    183c:	f000 f86a 	bl	1914 <Serial_UartInit>
    1840:	4603      	mov	r3, r0
    1842:	81fb      	strh	r3, [r7, #14]
    1844:	e000      	b.n	1848 <SerialManager_Init+0x60>
    1846:	bf00      	nop
    1848:	89fb      	ldrh	r3, [r7, #14]
    184a:	4618      	mov	r0, r3
    184c:	3710      	adds	r7, #16
    184e:	46bd      	mov	sp, r7
    1850:	bd80      	pop	{r7, pc}
    1852:	bf00      	nop
    1854:	00004504 	.word	0x00004504
    1858:	00004540 	.word	0x00004540

0000185c <SerialManager_OpenWriteHandle>:
    185c:	b580      	push	{r7, lr}
    185e:	b084      	sub	sp, #16
    1860:	af00      	add	r7, sp, #0
    1862:	6078      	str	r0, [r7, #4]
    1864:	6039      	str	r1, [r7, #0]
    1866:	687b      	ldr	r3, [r7, #4]
    1868:	2b00      	cmp	r3, #0
    186a:	d102      	bne.n	1872 <SerialManager_OpenWriteHandle+0x16>
    186c:	480f      	ldr	r0, [pc, #60]	; (18ac <SerialManager_OpenWriteHandle+0x50>)
    186e:	f000 fe01 	bl	2474 <__assertion_failed>
    1872:	683b      	ldr	r3, [r7, #0]
    1874:	2b00      	cmp	r3, #0
    1876:	d102      	bne.n	187e <SerialManager_OpenWriteHandle+0x22>
    1878:	480d      	ldr	r0, [pc, #52]	; (18b0 <SerialManager_OpenWriteHandle+0x54>)
    187a:	f000 fdfb 	bl	2474 <__assertion_failed>
    187e:	687b      	ldr	r3, [r7, #4]
    1880:	60fb      	str	r3, [r7, #12]
    1882:	683b      	ldr	r3, [r7, #0]
    1884:	60bb      	str	r3, [r7, #8]
    1886:	2204      	movs	r2, #4
    1888:	2100      	movs	r1, #0
    188a:	6838      	ldr	r0, [r7, #0]
    188c:	f001 fbfb 	bl	3086 <memset>
    1890:	68fb      	ldr	r3, [r7, #12]
    1892:	685b      	ldr	r3, [r3, #4]
    1894:	1c5a      	adds	r2, r3, #1
    1896:	68fb      	ldr	r3, [r7, #12]
    1898:	605a      	str	r2, [r3, #4]
    189a:	68bb      	ldr	r3, [r7, #8]
    189c:	68fa      	ldr	r2, [r7, #12]
    189e:	601a      	str	r2, [r3, #0]
    18a0:	2300      	movs	r3, #0
    18a2:	4618      	mov	r0, r3
    18a4:	3710      	adds	r7, #16
    18a6:	46bd      	mov	sp, r7
    18a8:	bd80      	pop	{r7, pc}
    18aa:	bf00      	nop
    18ac:	000045c0 	.word	0x000045c0
    18b0:	00004600 	.word	0x00004600

000018b4 <SerialManager_OpenReadHandle>:
    18b4:	b580      	push	{r7, lr}
    18b6:	b084      	sub	sp, #16
    18b8:	af00      	add	r7, sp, #0
    18ba:	6078      	str	r0, [r7, #4]
    18bc:	6039      	str	r1, [r7, #0]
    18be:	687b      	ldr	r3, [r7, #4]
    18c0:	2b00      	cmp	r3, #0
    18c2:	d102      	bne.n	18ca <SerialManager_OpenReadHandle+0x16>
    18c4:	4811      	ldr	r0, [pc, #68]	; (190c <SerialManager_OpenReadHandle+0x58>)
    18c6:	f000 fdd5 	bl	2474 <__assertion_failed>
    18ca:	683b      	ldr	r3, [r7, #0]
    18cc:	2b00      	cmp	r3, #0
    18ce:	d102      	bne.n	18d6 <SerialManager_OpenReadHandle+0x22>
    18d0:	480f      	ldr	r0, [pc, #60]	; (1910 <SerialManager_OpenReadHandle+0x5c>)
    18d2:	f000 fdcf 	bl	2474 <__assertion_failed>
    18d6:	687b      	ldr	r3, [r7, #4]
    18d8:	60fb      	str	r3, [r7, #12]
    18da:	683b      	ldr	r3, [r7, #0]
    18dc:	60bb      	str	r3, [r7, #8]
    18de:	68fb      	ldr	r3, [r7, #12]
    18e0:	681b      	ldr	r3, [r3, #0]
    18e2:	2b00      	cmp	r3, #0
    18e4:	d002      	beq.n	18ec <SerialManager_OpenReadHandle+0x38>
    18e6:	f243 5322 	movw	r3, #13602	; 0x3522
    18ea:	e00b      	b.n	1904 <SerialManager_OpenReadHandle+0x50>
    18ec:	2204      	movs	r2, #4
    18ee:	2100      	movs	r1, #0
    18f0:	6838      	ldr	r0, [r7, #0]
    18f2:	f001 fbc8 	bl	3086 <memset>
    18f6:	68fb      	ldr	r3, [r7, #12]
    18f8:	68ba      	ldr	r2, [r7, #8]
    18fa:	601a      	str	r2, [r3, #0]
    18fc:	68bb      	ldr	r3, [r7, #8]
    18fe:	68fa      	ldr	r2, [r7, #12]
    1900:	601a      	str	r2, [r3, #0]
    1902:	2300      	movs	r3, #0
    1904:	4618      	mov	r0, r3
    1906:	3710      	adds	r7, #16
    1908:	46bd      	mov	sp, r7
    190a:	bd80      	pop	{r7, pc}
    190c:	000046bc 	.word	0x000046bc
    1910:	00004700 	.word	0x00004700

00001914 <Serial_UartInit>:
    1914:	b580      	push	{r7, lr}
    1916:	b088      	sub	sp, #32
    1918:	af00      	add	r7, sp, #0
    191a:	6078      	str	r0, [r7, #4]
    191c:	6039      	str	r1, [r7, #0]
    191e:	683b      	ldr	r3, [r7, #0]
    1920:	2b00      	cmp	r3, #0
    1922:	d102      	bne.n	192a <Serial_UartInit+0x16>
    1924:	4819      	ldr	r0, [pc, #100]	; (198c <Serial_UartInit+0x78>)
    1926:	f000 fda5 	bl	2474 <__assertion_failed>
    192a:	687b      	ldr	r3, [r7, #4]
    192c:	2b00      	cmp	r3, #0
    192e:	d102      	bne.n	1936 <Serial_UartInit+0x22>
    1930:	4817      	ldr	r0, [pc, #92]	; (1990 <Serial_UartInit+0x7c>)
    1932:	f000 fd9f 	bl	2474 <__assertion_failed>
    1936:	683b      	ldr	r3, [r7, #0]
    1938:	61fb      	str	r3, [r7, #28]
    193a:	687b      	ldr	r3, [r7, #4]
    193c:	61bb      	str	r3, [r7, #24]
    193e:	69fb      	ldr	r3, [r7, #28]
    1940:	685b      	ldr	r3, [r3, #4]
    1942:	60fb      	str	r3, [r7, #12]
    1944:	69fb      	ldr	r3, [r7, #28]
    1946:	7a1b      	ldrb	r3, [r3, #8]
    1948:	743b      	strb	r3, [r7, #16]
    194a:	69fb      	ldr	r3, [r7, #28]
    194c:	7a5b      	ldrb	r3, [r3, #9]
    194e:	747b      	strb	r3, [r7, #17]
    1950:	69fb      	ldr	r3, [r7, #28]
    1952:	7adb      	ldrb	r3, [r3, #11]
    1954:	74bb      	strb	r3, [r7, #18]
    1956:	69fb      	ldr	r3, [r7, #28]
    1958:	7b1b      	ldrb	r3, [r3, #12]
    195a:	74fb      	strb	r3, [r7, #19]
    195c:	69fb      	ldr	r3, [r7, #28]
    195e:	681b      	ldr	r3, [r3, #0]
    1960:	60bb      	str	r3, [r7, #8]
    1962:	69fb      	ldr	r3, [r7, #28]
    1964:	7a9b      	ldrb	r3, [r3, #10]
    1966:	753b      	strb	r3, [r7, #20]
    1968:	69bb      	ldr	r3, [r7, #24]
    196a:	f107 0208 	add.w	r2, r7, #8
    196e:	4611      	mov	r1, r2
    1970:	4618      	mov	r0, r3
    1972:	f7ff feb9 	bl	16e8 <HAL_UartInit>
    1976:	4603      	mov	r3, r0
    1978:	2b00      	cmp	r3, #0
    197a:	d002      	beq.n	1982 <Serial_UartInit+0x6e>
    197c:	f243 5321 	movw	r3, #13601	; 0x3521
    1980:	e000      	b.n	1984 <Serial_UartInit+0x70>
    1982:	2300      	movs	r3, #0
    1984:	4618      	mov	r0, r3
    1986:	3720      	adds	r7, #32
    1988:	46bd      	mov	sp, r7
    198a:	bd80      	pop	{r7, pc}
    198c:	00004844 	.word	0x00004844
    1990:	00004888 	.word	0x00004888

00001994 <CLOCK_GetMux>:
    1994:	b480      	push	{r7}
    1996:	b083      	sub	sp, #12
    1998:	af00      	add	r7, sp, #0
    199a:	6078      	str	r0, [r7, #4]
    199c:	687b      	ldr	r3, [r7, #4]
    199e:	b2da      	uxtb	r2, r3
    19a0:	4b0c      	ldr	r3, [pc, #48]	; (19d4 <CLOCK_GetMux+0x40>)
    19a2:	4413      	add	r3, r2
    19a4:	681a      	ldr	r2, [r3, #0]
    19a6:	687b      	ldr	r3, [r7, #4]
    19a8:	135b      	asrs	r3, r3, #13
    19aa:	f3c3 010c 	ubfx	r1, r3, #0, #13
    19ae:	687b      	ldr	r3, [r7, #4]
    19b0:	121b      	asrs	r3, r3, #8
    19b2:	f003 031f 	and.w	r3, r3, #31
    19b6:	fa01 f303 	lsl.w	r3, r1, r3
    19ba:	401a      	ands	r2, r3
    19bc:	687b      	ldr	r3, [r7, #4]
    19be:	121b      	asrs	r3, r3, #8
    19c0:	f003 031f 	and.w	r3, r3, #31
    19c4:	fa22 f303 	lsr.w	r3, r2, r3
    19c8:	4618      	mov	r0, r3
    19ca:	370c      	adds	r7, #12
    19cc:	46bd      	mov	sp, r7
    19ce:	f85d 7b04 	ldr.w	r7, [sp], #4
    19d2:	4770      	bx	lr
    19d4:	400fc000 	.word	0x400fc000

000019d8 <CLOCK_GetDiv>:
    19d8:	b480      	push	{r7}
    19da:	b083      	sub	sp, #12
    19dc:	af00      	add	r7, sp, #0
    19de:	6078      	str	r0, [r7, #4]
    19e0:	687b      	ldr	r3, [r7, #4]
    19e2:	b2da      	uxtb	r2, r3
    19e4:	4b0c      	ldr	r3, [pc, #48]	; (1a18 <CLOCK_GetDiv+0x40>)
    19e6:	4413      	add	r3, r2
    19e8:	681a      	ldr	r2, [r3, #0]
    19ea:	687b      	ldr	r3, [r7, #4]
    19ec:	135b      	asrs	r3, r3, #13
    19ee:	f3c3 010c 	ubfx	r1, r3, #0, #13
    19f2:	687b      	ldr	r3, [r7, #4]
    19f4:	121b      	asrs	r3, r3, #8
    19f6:	f003 031f 	and.w	r3, r3, #31
    19fa:	fa01 f303 	lsl.w	r3, r1, r3
    19fe:	401a      	ands	r2, r3
    1a00:	687b      	ldr	r3, [r7, #4]
    1a02:	121b      	asrs	r3, r3, #8
    1a04:	f003 031f 	and.w	r3, r3, #31
    1a08:	fa22 f303 	lsr.w	r3, r2, r3
    1a0c:	4618      	mov	r0, r3
    1a0e:	370c      	adds	r7, #12
    1a10:	46bd      	mov	sp, r7
    1a12:	f85d 7b04 	ldr.w	r7, [sp], #4
    1a16:	4770      	bx	lr
    1a18:	400fc000 	.word	0x400fc000

00001a1c <CLOCK_GetOscFreq>:
    1a1c:	b480      	push	{r7}
    1a1e:	af00      	add	r7, sp, #0
    1a20:	4b07      	ldr	r3, [pc, #28]	; (1a40 <CLOCK_GetOscFreq+0x24>)
    1a22:	f8d3 3270 	ldr.w	r3, [r3, #624]	; 0x270
    1a26:	f003 0310 	and.w	r3, r3, #16
    1a2a:	2b00      	cmp	r3, #0
    1a2c:	d102      	bne.n	1a34 <CLOCK_GetOscFreq+0x18>
    1a2e:	4b05      	ldr	r3, [pc, #20]	; (1a44 <CLOCK_GetOscFreq+0x28>)
    1a30:	681b      	ldr	r3, [r3, #0]
    1a32:	e000      	b.n	1a36 <CLOCK_GetOscFreq+0x1a>
    1a34:	4b04      	ldr	r3, [pc, #16]	; (1a48 <CLOCK_GetOscFreq+0x2c>)
    1a36:	4618      	mov	r0, r3
    1a38:	46bd      	mov	sp, r7
    1a3a:	f85d 7b04 	ldr.w	r7, [sp], #4
    1a3e:	4770      	bx	lr
    1a40:	400d8000 	.word	0x400d8000
    1a44:	20000024 	.word	0x20000024
    1a48:	016e3600 	.word	0x016e3600

00001a4c <BOARD_DebugConsoleSrcFreq>:
    1a4c:	b590      	push	{r4, r7, lr}
    1a4e:	b083      	sub	sp, #12
    1a50:	af00      	add	r7, sp, #0
    1a52:	4813      	ldr	r0, [pc, #76]	; (1aa0 <BOARD_DebugConsoleSrcFreq+0x54>)
    1a54:	f7ff ff9e 	bl	1994 <CLOCK_GetMux>
    1a58:	4603      	mov	r3, r0
    1a5a:	2b00      	cmp	r3, #0
    1a5c:	d110      	bne.n	1a80 <BOARD_DebugConsoleSrcFreq+0x34>
    1a5e:	4811      	ldr	r0, [pc, #68]	; (1aa4 <BOARD_DebugConsoleSrcFreq+0x58>)
    1a60:	f7fe fe9a 	bl	798 <CLOCK_GetPllFreq>
    1a64:	4602      	mov	r2, r0
    1a66:	4b10      	ldr	r3, [pc, #64]	; (1aa8 <BOARD_DebugConsoleSrcFreq+0x5c>)
    1a68:	fba3 2302 	umull	r2, r3, r3, r2
    1a6c:	089c      	lsrs	r4, r3, #2
    1a6e:	480f      	ldr	r0, [pc, #60]	; (1aac <BOARD_DebugConsoleSrcFreq+0x60>)
    1a70:	f7ff ffb2 	bl	19d8 <CLOCK_GetDiv>
    1a74:	4603      	mov	r3, r0
    1a76:	3301      	adds	r3, #1
    1a78:	fbb4 f3f3 	udiv	r3, r4, r3
    1a7c:	607b      	str	r3, [r7, #4]
    1a7e:	e00a      	b.n	1a96 <BOARD_DebugConsoleSrcFreq+0x4a>
    1a80:	f7ff ffcc 	bl	1a1c <CLOCK_GetOscFreq>
    1a84:	4604      	mov	r4, r0
    1a86:	4809      	ldr	r0, [pc, #36]	; (1aac <BOARD_DebugConsoleSrcFreq+0x60>)
    1a88:	f7ff ffa6 	bl	19d8 <CLOCK_GetDiv>
    1a8c:	4603      	mov	r3, r0
    1a8e:	3301      	adds	r3, #1
    1a90:	fbb4 f3f3 	udiv	r3, r4, r3
    1a94:	607b      	str	r3, [r7, #4]
    1a96:	687b      	ldr	r3, [r7, #4]
    1a98:	4618      	mov	r0, r3
    1a9a:	370c      	adds	r7, #12
    1a9c:	46bd      	mov	sp, r7
    1a9e:	bd90      	pop	{r4, r7, pc}
    1aa0:	80002624 	.word	0x80002624
    1aa4:	0010000d 	.word	0x0010000d
    1aa8:	aaaaaaab 	.word	0xaaaaaaab
    1aac:	8007e024 	.word	0x8007e024

00001ab0 <CLOCK_SetMux>:
    1ab0:	b580      	push	{r7, lr}
    1ab2:	b084      	sub	sp, #16
    1ab4:	af00      	add	r7, sp, #0
    1ab6:	6078      	str	r0, [r7, #4]
    1ab8:	6039      	str	r1, [r7, #0]
    1aba:	687b      	ldr	r3, [r7, #4]
    1abc:	0e9b      	lsrs	r3, r3, #26
    1abe:	60fb      	str	r3, [r7, #12]
    1ac0:	687b      	ldr	r3, [r7, #4]
    1ac2:	b2da      	uxtb	r2, r3
    1ac4:	4b1f      	ldr	r3, [pc, #124]	; (1b44 <CLOCK_SetMux+0x94>)
    1ac6:	4413      	add	r3, r2
    1ac8:	681a      	ldr	r2, [r3, #0]
    1aca:	687b      	ldr	r3, [r7, #4]
    1acc:	135b      	asrs	r3, r3, #13
    1ace:	f3c3 010c 	ubfx	r1, r3, #0, #13
    1ad2:	687b      	ldr	r3, [r7, #4]
    1ad4:	121b      	asrs	r3, r3, #8
    1ad6:	f003 031f 	and.w	r3, r3, #31
    1ada:	fa01 f303 	lsl.w	r3, r1, r3
    1ade:	43db      	mvns	r3, r3
    1ae0:	ea02 0103 	and.w	r1, r2, r3
    1ae4:	687b      	ldr	r3, [r7, #4]
    1ae6:	121b      	asrs	r3, r3, #8
    1ae8:	f003 031f 	and.w	r3, r3, #31
    1aec:	683a      	ldr	r2, [r7, #0]
    1aee:	409a      	lsls	r2, r3
    1af0:	687b      	ldr	r3, [r7, #4]
    1af2:	135b      	asrs	r3, r3, #13
    1af4:	f3c3 000c 	ubfx	r0, r3, #0, #13
    1af8:	687b      	ldr	r3, [r7, #4]
    1afa:	121b      	asrs	r3, r3, #8
    1afc:	f003 031f 	and.w	r3, r3, #31
    1b00:	fa00 f303 	lsl.w	r3, r0, r3
    1b04:	401a      	ands	r2, r3
    1b06:	687b      	ldr	r3, [r7, #4]
    1b08:	b2d8      	uxtb	r0, r3
    1b0a:	4b0e      	ldr	r3, [pc, #56]	; (1b44 <CLOCK_SetMux+0x94>)
    1b0c:	4403      	add	r3, r0
    1b0e:	4618      	mov	r0, r3
    1b10:	ea41 0302 	orr.w	r3, r1, r2
    1b14:	6003      	str	r3, [r0, #0]
    1b16:	68fb      	ldr	r3, [r7, #12]
    1b18:	2b20      	cmp	r3, #32
    1b1a:	d902      	bls.n	1b22 <CLOCK_SetMux+0x72>
    1b1c:	480a      	ldr	r0, [pc, #40]	; (1b48 <CLOCK_SetMux+0x98>)
    1b1e:	f000 fca9 	bl	2474 <__assertion_failed>
    1b22:	68fb      	ldr	r3, [r7, #12]
    1b24:	2b20      	cmp	r3, #32
    1b26:	d009      	beq.n	1b3c <CLOCK_SetMux+0x8c>
    1b28:	bf00      	nop
    1b2a:	4b06      	ldr	r3, [pc, #24]	; (1b44 <CLOCK_SetMux+0x94>)
    1b2c:	6c9a      	ldr	r2, [r3, #72]	; 0x48
    1b2e:	68fb      	ldr	r3, [r7, #12]
    1b30:	fa22 f303 	lsr.w	r3, r2, r3
    1b34:	f003 0301 	and.w	r3, r3, #1
    1b38:	2b00      	cmp	r3, #0
    1b3a:	d1f6      	bne.n	1b2a <CLOCK_SetMux+0x7a>
    1b3c:	bf00      	nop
    1b3e:	3710      	adds	r7, #16
    1b40:	46bd      	mov	sp, r7
    1b42:	bd80      	pop	{r7, pc}
    1b44:	400fc000 	.word	0x400fc000
    1b48:	00004a88 	.word	0x00004a88

00001b4c <CLOCK_SetDiv>:
    1b4c:	b580      	push	{r7, lr}
    1b4e:	b084      	sub	sp, #16
    1b50:	af00      	add	r7, sp, #0
    1b52:	6078      	str	r0, [r7, #4]
    1b54:	6039      	str	r1, [r7, #0]
    1b56:	687b      	ldr	r3, [r7, #4]
    1b58:	0e9b      	lsrs	r3, r3, #26
    1b5a:	60fb      	str	r3, [r7, #12]
    1b5c:	687b      	ldr	r3, [r7, #4]
    1b5e:	b2da      	uxtb	r2, r3
    1b60:	4b1f      	ldr	r3, [pc, #124]	; (1be0 <CLOCK_SetDiv+0x94>)
    1b62:	4413      	add	r3, r2
    1b64:	681a      	ldr	r2, [r3, #0]
    1b66:	687b      	ldr	r3, [r7, #4]
    1b68:	135b      	asrs	r3, r3, #13
    1b6a:	f3c3 010c 	ubfx	r1, r3, #0, #13
    1b6e:	687b      	ldr	r3, [r7, #4]
    1b70:	121b      	asrs	r3, r3, #8
    1b72:	f003 031f 	and.w	r3, r3, #31
    1b76:	fa01 f303 	lsl.w	r3, r1, r3
    1b7a:	43db      	mvns	r3, r3
    1b7c:	ea02 0103 	and.w	r1, r2, r3
    1b80:	687b      	ldr	r3, [r7, #4]
    1b82:	121b      	asrs	r3, r3, #8
    1b84:	f003 031f 	and.w	r3, r3, #31
    1b88:	683a      	ldr	r2, [r7, #0]
    1b8a:	409a      	lsls	r2, r3
    1b8c:	687b      	ldr	r3, [r7, #4]
    1b8e:	135b      	asrs	r3, r3, #13
    1b90:	f3c3 000c 	ubfx	r0, r3, #0, #13
    1b94:	687b      	ldr	r3, [r7, #4]
    1b96:	121b      	asrs	r3, r3, #8
    1b98:	f003 031f 	and.w	r3, r3, #31
    1b9c:	fa00 f303 	lsl.w	r3, r0, r3
    1ba0:	401a      	ands	r2, r3
    1ba2:	687b      	ldr	r3, [r7, #4]
    1ba4:	b2d8      	uxtb	r0, r3
    1ba6:	4b0e      	ldr	r3, [pc, #56]	; (1be0 <CLOCK_SetDiv+0x94>)
    1ba8:	4403      	add	r3, r0
    1baa:	4618      	mov	r0, r3
    1bac:	ea41 0302 	orr.w	r3, r1, r2
    1bb0:	6003      	str	r3, [r0, #0]
    1bb2:	68fb      	ldr	r3, [r7, #12]
    1bb4:	2b20      	cmp	r3, #32
    1bb6:	d902      	bls.n	1bbe <CLOCK_SetDiv+0x72>
    1bb8:	480a      	ldr	r0, [pc, #40]	; (1be4 <CLOCK_SetDiv+0x98>)
    1bba:	f000 fc5b 	bl	2474 <__assertion_failed>
    1bbe:	68fb      	ldr	r3, [r7, #12]
    1bc0:	2b20      	cmp	r3, #32
    1bc2:	d009      	beq.n	1bd8 <CLOCK_SetDiv+0x8c>
    1bc4:	bf00      	nop
    1bc6:	4b06      	ldr	r3, [pc, #24]	; (1be0 <CLOCK_SetDiv+0x94>)
    1bc8:	6c9a      	ldr	r2, [r3, #72]	; 0x48
    1bca:	68fb      	ldr	r3, [r7, #12]
    1bcc:	fa22 f303 	lsr.w	r3, r2, r3
    1bd0:	f003 0301 	and.w	r3, r3, #1
    1bd4:	2b00      	cmp	r3, #0
    1bd6:	d1f6      	bne.n	1bc6 <CLOCK_SetDiv+0x7a>
    1bd8:	bf00      	nop
    1bda:	3710      	adds	r7, #16
    1bdc:	46bd      	mov	sp, r7
    1bde:	bd80      	pop	{r7, pc}
    1be0:	400fc000 	.word	0x400fc000
    1be4:	00004ac4 	.word	0x00004ac4

00001be8 <CLOCK_ControlGate>:
    1be8:	b580      	push	{r7, lr}
    1bea:	b086      	sub	sp, #24
    1bec:	af00      	add	r7, sp, #0
    1bee:	4603      	mov	r3, r0
    1bf0:	460a      	mov	r2, r1
    1bf2:	80fb      	strh	r3, [r7, #6]
    1bf4:	4613      	mov	r3, r2
    1bf6:	717b      	strb	r3, [r7, #5]
    1bf8:	f9b7 3006 	ldrsh.w	r3, [r7, #6]
    1bfc:	0a1b      	lsrs	r3, r3, #8
    1bfe:	617b      	str	r3, [r7, #20]
    1c00:	88fb      	ldrh	r3, [r7, #6]
    1c02:	f003 031f 	and.w	r3, r3, #31
    1c06:	613b      	str	r3, [r7, #16]
    1c08:	697b      	ldr	r3, [r7, #20]
    1c0a:	2b07      	cmp	r3, #7
    1c0c:	d902      	bls.n	1c14 <CLOCK_ControlGate+0x2c>
    1c0e:	480d      	ldr	r0, [pc, #52]	; (1c44 <CLOCK_ControlGate+0x5c>)
    1c10:	f000 fc30 	bl	2474 <__assertion_failed>
    1c14:	697b      	ldr	r3, [r7, #20]
    1c16:	009a      	lsls	r2, r3, #2
    1c18:	4b0b      	ldr	r3, [pc, #44]	; (1c48 <CLOCK_ControlGate+0x60>)
    1c1a:	4413      	add	r3, r2
    1c1c:	60fb      	str	r3, [r7, #12]
    1c1e:	68fb      	ldr	r3, [r7, #12]
    1c20:	681a      	ldr	r2, [r3, #0]
    1c22:	2103      	movs	r1, #3
    1c24:	693b      	ldr	r3, [r7, #16]
    1c26:	fa01 f303 	lsl.w	r3, r1, r3
    1c2a:	43db      	mvns	r3, r3
    1c2c:	401a      	ands	r2, r3
    1c2e:	7979      	ldrb	r1, [r7, #5]
    1c30:	693b      	ldr	r3, [r7, #16]
    1c32:	fa01 f303 	lsl.w	r3, r1, r3
    1c36:	431a      	orrs	r2, r3
    1c38:	68fb      	ldr	r3, [r7, #12]
    1c3a:	601a      	str	r2, [r3, #0]
    1c3c:	bf00      	nop
    1c3e:	3718      	adds	r7, #24
    1c40:	46bd      	mov	sp, r7
    1c42:	bd80      	pop	{r7, pc}
    1c44:	00004b00 	.word	0x00004b00
    1c48:	400fc068 	.word	0x400fc068

00001c4c <CLOCK_SetXtalFreq>:
    1c4c:	b480      	push	{r7}
    1c4e:	b083      	sub	sp, #12
    1c50:	af00      	add	r7, sp, #0
    1c52:	6078      	str	r0, [r7, #4]
    1c54:	4a04      	ldr	r2, [pc, #16]	; (1c68 <CLOCK_SetXtalFreq+0x1c>)
    1c56:	687b      	ldr	r3, [r7, #4]
    1c58:	6013      	str	r3, [r2, #0]
    1c5a:	bf00      	nop
    1c5c:	370c      	adds	r7, #12
    1c5e:	46bd      	mov	sp, r7
    1c60:	f85d 7b04 	ldr.w	r7, [sp], #4
    1c64:	4770      	bx	lr
    1c66:	bf00      	nop
    1c68:	20000024 	.word	0x20000024

00001c6c <CLOCK_SetRtcXtalFreq>:
    1c6c:	b480      	push	{r7}
    1c6e:	b083      	sub	sp, #12
    1c70:	af00      	add	r7, sp, #0
    1c72:	6078      	str	r0, [r7, #4]
    1c74:	4a04      	ldr	r2, [pc, #16]	; (1c88 <CLOCK_SetRtcXtalFreq+0x1c>)
    1c76:	687b      	ldr	r3, [r7, #4]
    1c78:	6013      	str	r3, [r2, #0]
    1c7a:	bf00      	nop
    1c7c:	370c      	adds	r7, #12
    1c7e:	46bd      	mov	sp, r7
    1c80:	f85d 7b04 	ldr.w	r7, [sp], #4
    1c84:	4770      	bx	lr
    1c86:	bf00      	nop
    1c88:	20000028 	.word	0x20000028

00001c8c <IOMUXC_EnableMode>:
    1c8c:	b480      	push	{r7}
    1c8e:	b085      	sub	sp, #20
    1c90:	af00      	add	r7, sp, #0
    1c92:	60f8      	str	r0, [r7, #12]
    1c94:	60b9      	str	r1, [r7, #8]
    1c96:	4613      	mov	r3, r2
    1c98:	71fb      	strb	r3, [r7, #7]
    1c9a:	68ba      	ldr	r2, [r7, #8]
    1c9c:	4b0c      	ldr	r3, [pc, #48]	; (1cd0 <IOMUXC_EnableMode+0x44>)
    1c9e:	4013      	ands	r3, r2
    1ca0:	60bb      	str	r3, [r7, #8]
    1ca2:	79fb      	ldrb	r3, [r7, #7]
    1ca4:	2b00      	cmp	r3, #0
    1ca6:	d006      	beq.n	1cb6 <IOMUXC_EnableMode+0x2a>
    1ca8:	68fb      	ldr	r3, [r7, #12]
    1caa:	685a      	ldr	r2, [r3, #4]
    1cac:	68bb      	ldr	r3, [r7, #8]
    1cae:	431a      	orrs	r2, r3
    1cb0:	68fb      	ldr	r3, [r7, #12]
    1cb2:	605a      	str	r2, [r3, #4]
    1cb4:	e006      	b.n	1cc4 <IOMUXC_EnableMode+0x38>
    1cb6:	68fb      	ldr	r3, [r7, #12]
    1cb8:	685a      	ldr	r2, [r3, #4]
    1cba:	68bb      	ldr	r3, [r7, #8]
    1cbc:	43db      	mvns	r3, r3
    1cbe:	401a      	ands	r2, r3
    1cc0:	68fb      	ldr	r3, [r7, #12]
    1cc2:	605a      	str	r2, [r3, #4]
    1cc4:	bf00      	nop
    1cc6:	3714      	adds	r7, #20
    1cc8:	46bd      	mov	sp, r7
    1cca:	f85d 7b04 	ldr.w	r7, [sp], #4
    1cce:	4770      	bx	lr
    1cd0:	fffff000 	.word	0xfffff000

00001cd4 <IOMUXC_MQSConfig>:
    1cd4:	b480      	push	{r7}
    1cd6:	b085      	sub	sp, #20
    1cd8:	af00      	add	r7, sp, #0
    1cda:	6078      	str	r0, [r7, #4]
    1cdc:	460b      	mov	r3, r1
    1cde:	70fb      	strb	r3, [r7, #3]
    1ce0:	4613      	mov	r3, r2
    1ce2:	70bb      	strb	r3, [r7, #2]
    1ce4:	687b      	ldr	r3, [r7, #4]
    1ce6:	689a      	ldr	r2, [r3, #8]
    1ce8:	4b0a      	ldr	r3, [pc, #40]	; (1d14 <IOMUXC_MQSConfig+0x40>)
    1cea:	4013      	ands	r3, r2
    1cec:	60fb      	str	r3, [r7, #12]
    1cee:	78fb      	ldrb	r3, [r7, #3]
    1cf0:	069b      	lsls	r3, r3, #26
    1cf2:	f003 6280 	and.w	r2, r3, #67108864	; 0x4000000
    1cf6:	68fb      	ldr	r3, [r7, #12]
    1cf8:	431a      	orrs	r2, r3
    1cfa:	78bb      	ldrb	r3, [r7, #2]
    1cfc:	041b      	lsls	r3, r3, #16
    1cfe:	f403 037f 	and.w	r3, r3, #16711680	; 0xff0000
    1d02:	431a      	orrs	r2, r3
    1d04:	687b      	ldr	r3, [r7, #4]
    1d06:	609a      	str	r2, [r3, #8]
    1d08:	bf00      	nop
    1d0a:	3714      	adds	r7, #20
    1d0c:	46bd      	mov	sp, r7
    1d0e:	f85d 7b04 	ldr.w	r7, [sp], #4
    1d12:	4770      	bx	lr
    1d14:	fb00ffff 	.word	0xfb00ffff

00001d18 <BOARD_BootClockRUN>:
    1d18:	b580      	push	{r7, lr}
    1d1a:	af00      	add	r7, sp, #0
    1d1c:	f44f 4000 	mov.w	r0, #32768	; 0x8000
    1d20:	f7ff ffa4 	bl	1c6c <CLOCK_SetRtcXtalFreq>
    1d24:	4bdc      	ldr	r3, [pc, #880]	; (2098 <BOARD_BootClockRUN+0x380>)
    1d26:	f8d3 32c0 	ldr.w	r3, [r3, #704]	; 0x2c0
    1d2a:	4adb      	ldr	r2, [pc, #876]	; (2098 <BOARD_BootClockRUN+0x380>)
    1d2c:	f443 3380 	orr.w	r3, r3, #65536	; 0x10000
    1d30:	f8c2 32c0 	str.w	r3, [r2, #704]	; 0x2c0
    1d34:	4bd8      	ldr	r3, [pc, #864]	; (2098 <BOARD_BootClockRUN+0x380>)
    1d36:	f8d3 32c0 	ldr.w	r3, [r3, #704]	; 0x2c0
    1d3a:	4ad7      	ldr	r2, [pc, #860]	; (2098 <BOARD_BootClockRUN+0x380>)
    1d3c:	f423 3300 	bic.w	r3, r3, #131072	; 0x20000
    1d40:	f8c2 32c0 	str.w	r3, [r2, #704]	; 0x2c0
    1d44:	48d5      	ldr	r0, [pc, #852]	; (209c <BOARD_BootClockRUN+0x384>)
    1d46:	f7ff ff81 	bl	1c4c <CLOCK_SetXtalFreq>
    1d4a:	2000      	movs	r0, #0
    1d4c:	f7fe fc0a 	bl	564 <CLOCK_InitExternalClk>
    1d50:	f7fe fc58 	bl	604 <CLOCK_InitRcOsc24M>
    1d54:	2001      	movs	r0, #1
    1d56:	f7fe fc3b 	bl	5d0 <CLOCK_SwitchOsc>
    1d5a:	4bd1      	ldr	r3, [pc, #836]	; (20a0 <BOARD_BootClockRUN+0x388>)
    1d5c:	681b      	ldr	r3, [r3, #0]
    1d5e:	f023 03ff 	bic.w	r3, r3, #255	; 0xff
    1d62:	4acf      	ldr	r2, [pc, #828]	; (20a0 <BOARD_BootClockRUN+0x388>)
    1d64:	f043 037f 	orr.w	r3, r3, #127	; 0x7f
    1d68:	6013      	str	r3, [r2, #0]
    1d6a:	2101      	movs	r1, #1
    1d6c:	48cd      	ldr	r0, [pc, #820]	; (20a4 <BOARD_BootClockRUN+0x38c>)
    1d6e:	f7ff fe9f 	bl	1ab0 <CLOCK_SetMux>
    1d72:	2101      	movs	r1, #1
    1d74:	48cc      	ldr	r0, [pc, #816]	; (20a8 <BOARD_BootClockRUN+0x390>)
    1d76:	f7ff fe9b 	bl	1ab0 <CLOCK_SetMux>
    1d7a:	4bcc      	ldr	r3, [pc, #816]	; (20ac <BOARD_BootClockRUN+0x394>)
    1d7c:	68db      	ldr	r3, [r3, #12]
    1d7e:	f023 031f 	bic.w	r3, r3, #31
    1d82:	4aca      	ldr	r2, [pc, #808]	; (20ac <BOARD_BootClockRUN+0x394>)
    1d84:	f043 0313 	orr.w	r3, r3, #19
    1d88:	60d3      	str	r3, [r2, #12]
    1d8a:	bf00      	nop
    1d8c:	4bc7      	ldr	r3, [pc, #796]	; (20ac <BOARD_BootClockRUN+0x394>)
    1d8e:	681b      	ldr	r3, [r3, #0]
    1d90:	f003 4300 	and.w	r3, r3, #2147483648	; 0x80000000
    1d94:	f1b3 4f00 	cmp.w	r3, #2147483648	; 0x80000000
    1d98:	d1f8      	bne.n	1d8c <BOARD_BootClockRUN+0x74>
    1d9a:	2100      	movs	r1, #0
    1d9c:	48c4      	ldr	r0, [pc, #784]	; (20b0 <BOARD_BootClockRUN+0x398>)
    1d9e:	f7ff fed5 	bl	1b4c <CLOCK_SetDiv>
    1da2:	f44f 7088 	mov.w	r0, #272	; 0x110
    1da6:	f001 f8ce 	bl	2f46 <CLOCK_DisableClock>
    1daa:	f44f 7084 	mov.w	r0, #264	; 0x108
    1dae:	f001 f8ca 	bl	2f46 <CLOCK_DisableClock>
    1db2:	f240 2016 	movw	r0, #534	; 0x216
    1db6:	f001 f8c6 	bl	2f46 <CLOCK_DisableClock>
    1dba:	f44f 7006 	mov.w	r0, #536	; 0x218
    1dbe:	f001 f8c2 	bl	2f46 <CLOCK_DisableClock>
    1dc2:	f240 200e 	movw	r0, #526	; 0x20e
    1dc6:	f001 f8be 	bl	2f46 <CLOCK_DisableClock>
    1dca:	2103      	movs	r1, #3
    1dcc:	48b9      	ldr	r0, [pc, #740]	; (20b4 <BOARD_BootClockRUN+0x39c>)
    1dce:	f7ff febd 	bl	1b4c <CLOCK_SetDiv>
    1dd2:	2101      	movs	r1, #1
    1dd4:	48b8      	ldr	r0, [pc, #736]	; (20b8 <BOARD_BootClockRUN+0x3a0>)
    1dd6:	f7ff feb9 	bl	1b4c <CLOCK_SetDiv>
    1dda:	2100      	movs	r1, #0
    1ddc:	48b7      	ldr	r0, [pc, #732]	; (20bc <BOARD_BootClockRUN+0x3a4>)
    1dde:	f7ff feb5 	bl	1b4c <CLOCK_SetDiv>
    1de2:	f44f 708a 	mov.w	r0, #276	; 0x114
    1de6:	f001 f8ae 	bl	2f46 <CLOCK_DisableClock>
    1dea:	f44f 708b 	mov.w	r0, #278	; 0x116
    1dee:	f001 f8aa 	bl	2f46 <CLOCK_DisableClock>
    1df2:	2018      	movs	r0, #24
    1df4:	f001 f8a7 	bl	2f46 <CLOCK_DisableClock>
    1df8:	201a      	movs	r0, #26
    1dfa:	f001 f8a4 	bl	2f46 <CLOCK_DisableClock>
    1dfe:	f44f 7086 	mov.w	r0, #268	; 0x10c
    1e02:	f001 f8a0 	bl	2f46 <CLOCK_DisableClock>
    1e06:	2101      	movs	r1, #1
    1e08:	48ad      	ldr	r0, [pc, #692]	; (20c0 <BOARD_BootClockRUN+0x3a8>)
    1e0a:	f7ff fe9f 	bl	1b4c <CLOCK_SetDiv>
    1e0e:	f240 6002 	movw	r0, #1538	; 0x602
    1e12:	f001 f898 	bl	2f46 <CLOCK_DisableClock>
    1e16:	2101      	movs	r1, #1
    1e18:	48aa      	ldr	r0, [pc, #680]	; (20c4 <BOARD_BootClockRUN+0x3ac>)
    1e1a:	f7ff fe97 	bl	1b4c <CLOCK_SetDiv>
    1e1e:	2100      	movs	r1, #0
    1e20:	48a9      	ldr	r0, [pc, #676]	; (20c8 <BOARD_BootClockRUN+0x3b0>)
    1e22:	f7ff fe45 	bl	1ab0 <CLOCK_SetMux>
    1e26:	f240 6004 	movw	r0, #1540	; 0x604
    1e2a:	f001 f88c 	bl	2f46 <CLOCK_DisableClock>
    1e2e:	2101      	movs	r1, #1
    1e30:	48a6      	ldr	r0, [pc, #664]	; (20cc <BOARD_BootClockRUN+0x3b4>)
    1e32:	f7ff fe8b 	bl	1b4c <CLOCK_SetDiv>
    1e36:	2100      	movs	r1, #0
    1e38:	48a5      	ldr	r0, [pc, #660]	; (20d0 <BOARD_BootClockRUN+0x3b8>)
    1e3a:	f7ff fe39 	bl	1ab0 <CLOCK_SetMux>
    1e3e:	f44f 7041 	mov.w	r0, #772	; 0x304
    1e42:	f001 f880 	bl	2f46 <CLOCK_DisableClock>
    1e46:	2107      	movs	r1, #7
    1e48:	f24f 0014 	movw	r0, #61460	; 0xf014
    1e4c:	f7ff fe7e 	bl	1b4c <CLOCK_SetDiv>
    1e50:	2100      	movs	r1, #0
    1e52:	48a0      	ldr	r0, [pc, #640]	; (20d4 <BOARD_BootClockRUN+0x3bc>)
    1e54:	f7ff fe2c 	bl	1ab0 <CLOCK_SetMux>
    1e58:	2100      	movs	r1, #0
    1e5a:	489f      	ldr	r0, [pc, #636]	; (20d8 <BOARD_BootClockRUN+0x3c0>)
    1e5c:	f7ff fe28 	bl	1ab0 <CLOCK_SetMux>
    1e60:	f240 7002 	movw	r0, #1794	; 0x702
    1e64:	f001 f86f 	bl	2f46 <CLOCK_DisableClock>
    1e68:	2100      	movs	r1, #0
    1e6a:	489c      	ldr	r0, [pc, #624]	; (20dc <BOARD_BootClockRUN+0x3c4>)
    1e6c:	f7ff fe6e 	bl	1b4c <CLOCK_SetDiv>
    1e70:	2101      	movs	r1, #1
    1e72:	489b      	ldr	r0, [pc, #620]	; (20e0 <BOARD_BootClockRUN+0x3c8>)
    1e74:	f7ff fe1c 	bl	1ab0 <CLOCK_SetMux>
    1e78:	f240 2002 	movw	r0, #514	; 0x202
    1e7c:	f001 f863 	bl	2f46 <CLOCK_DisableClock>
    1e80:	2101      	movs	r1, #1
    1e82:	4898      	ldr	r0, [pc, #608]	; (20e4 <BOARD_BootClockRUN+0x3cc>)
    1e84:	f7ff fe62 	bl	1b4c <CLOCK_SetDiv>
    1e88:	2100      	movs	r1, #0
    1e8a:	4897      	ldr	r0, [pc, #604]	; (20e8 <BOARD_BootClockRUN+0x3d0>)
    1e8c:	f7ff fe10 	bl	1ab0 <CLOCK_SetMux>
    1e90:	f44f 7080 	mov.w	r0, #256	; 0x100
    1e94:	f001 f857 	bl	2f46 <CLOCK_DisableClock>
    1e98:	f44f 7081 	mov.w	r0, #258	; 0x102
    1e9c:	f001 f853 	bl	2f46 <CLOCK_DisableClock>
    1ea0:	f44f 7082 	mov.w	r0, #260	; 0x104
    1ea4:	f001 f84f 	bl	2f46 <CLOCK_DisableClock>
    1ea8:	f44f 7083 	mov.w	r0, #262	; 0x106
    1eac:	f001 f84b 	bl	2f46 <CLOCK_DisableClock>
    1eb0:	2104      	movs	r1, #4
    1eb2:	488e      	ldr	r0, [pc, #568]	; (20ec <BOARD_BootClockRUN+0x3d4>)
    1eb4:	f7ff fe4a 	bl	1b4c <CLOCK_SetDiv>
    1eb8:	2102      	movs	r1, #2
    1eba:	488d      	ldr	r0, [pc, #564]	; (20f0 <BOARD_BootClockRUN+0x3d8>)
    1ebc:	f7ff fdf8 	bl	1ab0 <CLOCK_SetMux>
    1ec0:	2016      	movs	r0, #22
    1ec2:	f001 f840 	bl	2f46 <CLOCK_DisableClock>
    1ec6:	2102      	movs	r1, #2
    1ec8:	488a      	ldr	r0, [pc, #552]	; (20f4 <BOARD_BootClockRUN+0x3dc>)
    1eca:	f7ff fe3f 	bl	1b4c <CLOCK_SetDiv>
    1ece:	2102      	movs	r1, #2
    1ed0:	4889      	ldr	r0, [pc, #548]	; (20f8 <BOARD_BootClockRUN+0x3e0>)
    1ed2:	f7ff fded 	bl	1ab0 <CLOCK_SetMux>
    1ed6:	f240 5012 	movw	r0, #1298	; 0x512
    1eda:	f001 f834 	bl	2f46 <CLOCK_DisableClock>
    1ede:	2103      	movs	r1, #3
    1ee0:	4886      	ldr	r0, [pc, #536]	; (20fc <BOARD_BootClockRUN+0x3e4>)
    1ee2:	f7ff fe33 	bl	1b4c <CLOCK_SetDiv>
    1ee6:	2101      	movs	r1, #1
    1ee8:	4885      	ldr	r0, [pc, #532]	; (2100 <BOARD_BootClockRUN+0x3e8>)
    1eea:	f7ff fe2f 	bl	1b4c <CLOCK_SetDiv>
    1eee:	2100      	movs	r1, #0
    1ef0:	4884      	ldr	r0, [pc, #528]	; (2104 <BOARD_BootClockRUN+0x3ec>)
    1ef2:	f7ff fddd 	bl	1ab0 <CLOCK_SetMux>
    1ef6:	f240 5014 	movw	r0, #1300	; 0x514
    1efa:	f001 f824 	bl	2f46 <CLOCK_DisableClock>
    1efe:	2103      	movs	r1, #3
    1f00:	4881      	ldr	r0, [pc, #516]	; (2108 <BOARD_BootClockRUN+0x3f0>)
    1f02:	f7ff fe23 	bl	1b4c <CLOCK_SetDiv>
    1f06:	2101      	movs	r1, #1
    1f08:	4880      	ldr	r0, [pc, #512]	; (210c <BOARD_BootClockRUN+0x3f4>)
    1f0a:	f7ff fe1f 	bl	1b4c <CLOCK_SetDiv>
    1f0e:	2100      	movs	r1, #0
    1f10:	487f      	ldr	r0, [pc, #508]	; (2110 <BOARD_BootClockRUN+0x3f8>)
    1f12:	f7ff fdcd 	bl	1ab0 <CLOCK_SetMux>
    1f16:	f240 5016 	movw	r0, #1302	; 0x516
    1f1a:	f001 f814 	bl	2f46 <CLOCK_DisableClock>
    1f1e:	2103      	movs	r1, #3
    1f20:	487c      	ldr	r0, [pc, #496]	; (2114 <BOARD_BootClockRUN+0x3fc>)
    1f22:	f7ff fe13 	bl	1b4c <CLOCK_SetDiv>
    1f26:	2101      	movs	r1, #1
    1f28:	487b      	ldr	r0, [pc, #492]	; (2118 <BOARD_BootClockRUN+0x400>)
    1f2a:	f7ff fe0f 	bl	1b4c <CLOCK_SetDiv>
    1f2e:	2100      	movs	r1, #0
    1f30:	487a      	ldr	r0, [pc, #488]	; (211c <BOARD_BootClockRUN+0x404>)
    1f32:	f7ff fdbd 	bl	1ab0 <CLOCK_SetMux>
    1f36:	f240 2006 	movw	r0, #518	; 0x206
    1f3a:	f001 f804 	bl	2f46 <CLOCK_DisableClock>
    1f3e:	f44f 7002 	mov.w	r0, #520	; 0x208
    1f42:	f001 f800 	bl	2f46 <CLOCK_DisableClock>
    1f46:	f240 200a 	movw	r0, #522	; 0x20a
    1f4a:	f000 fffc 	bl	2f46 <CLOCK_DisableClock>
    1f4e:	2100      	movs	r1, #0
    1f50:	4873      	ldr	r0, [pc, #460]	; (2120 <BOARD_BootClockRUN+0x408>)
    1f52:	f7ff fdfb 	bl	1b4c <CLOCK_SetDiv>
    1f56:	2100      	movs	r1, #0
    1f58:	4872      	ldr	r0, [pc, #456]	; (2124 <BOARD_BootClockRUN+0x40c>)
    1f5a:	f7ff fda9 	bl	1ab0 <CLOCK_SetMux>
    1f5e:	200e      	movs	r0, #14
    1f60:	f000 fff1 	bl	2f46 <CLOCK_DisableClock>
    1f64:	2012      	movs	r0, #18
    1f66:	f000 ffee 	bl	2f46 <CLOCK_DisableClock>
    1f6a:	f240 7006 	movw	r0, #1798	; 0x706
    1f6e:	f000 ffea 	bl	2f46 <CLOCK_DisableClock>
    1f72:	2010      	movs	r0, #16
    1f74:	f000 ffe7 	bl	2f46 <CLOCK_DisableClock>
    1f78:	2014      	movs	r0, #20
    1f7a:	f000 ffe4 	bl	2f46 <CLOCK_DisableClock>
    1f7e:	f44f 60e1 	mov.w	r0, #1800	; 0x708
    1f82:	f000 ffe0 	bl	2f46 <CLOCK_DisableClock>
    1f86:	2101      	movs	r1, #1
    1f88:	4867      	ldr	r0, [pc, #412]	; (2128 <BOARD_BootClockRUN+0x410>)
    1f8a:	f7ff fddf 	bl	1b4c <CLOCK_SetDiv>
    1f8e:	2102      	movs	r1, #2
    1f90:	4866      	ldr	r0, [pc, #408]	; (212c <BOARD_BootClockRUN+0x414>)
    1f92:	f7ff fd8d 	bl	1ab0 <CLOCK_SetMux>
    1f96:	f44f 60a3 	mov.w	r0, #1304	; 0x518
    1f9a:	f000 ffd4 	bl	2f46 <CLOCK_DisableClock>
    1f9e:	201c      	movs	r0, #28
    1fa0:	f000 ffd1 	bl	2f46 <CLOCK_DisableClock>
    1fa4:	200c      	movs	r0, #12
    1fa6:	f000 ffce 	bl	2f46 <CLOCK_DisableClock>
    1faa:	f44f 708c 	mov.w	r0, #280	; 0x118
    1fae:	f000 ffca 	bl	2f46 <CLOCK_DisableClock>
    1fb2:	f240 3002 	movw	r0, #770	; 0x302
    1fb6:	f000 ffc6 	bl	2f46 <CLOCK_DisableClock>
    1fba:	f240 3006 	movw	r0, #774	; 0x306
    1fbe:	f000 ffc2 	bl	2f46 <CLOCK_DisableClock>
    1fc2:	f240 501a 	movw	r0, #1306	; 0x51a
    1fc6:	f000 ffbe 	bl	2f46 <CLOCK_DisableClock>
    1fca:	f240 600e 	movw	r0, #1550	; 0x60e
    1fce:	f000 ffba 	bl	2f46 <CLOCK_DisableClock>
    1fd2:	2100      	movs	r1, #0
    1fd4:	4856      	ldr	r0, [pc, #344]	; (2130 <BOARD_BootClockRUN+0x418>)
    1fd6:	f7ff fdb9 	bl	1b4c <CLOCK_SetDiv>
    1fda:	2100      	movs	r1, #0
    1fdc:	4855      	ldr	r0, [pc, #340]	; (2134 <BOARD_BootClockRUN+0x41c>)
    1fde:	f7ff fd67 	bl	1ab0 <CLOCK_SetMux>
    1fe2:	f240 300a 	movw	r0, #778	; 0x30a
    1fe6:	f000 ffae 	bl	2f46 <CLOCK_DisableClock>
    1fea:	2107      	movs	r1, #7
    1fec:	4852      	ldr	r0, [pc, #328]	; (2138 <BOARD_BootClockRUN+0x420>)
    1fee:	f7ff fdad 	bl	1b4c <CLOCK_SetDiv>
    1ff2:	2106      	movs	r1, #6
    1ff4:	4851      	ldr	r0, [pc, #324]	; (213c <BOARD_BootClockRUN+0x424>)
    1ff6:	f7ff fda9 	bl	1b4c <CLOCK_SetDiv>
    1ffa:	2105      	movs	r1, #5
    1ffc:	4850      	ldr	r0, [pc, #320]	; (2140 <BOARD_BootClockRUN+0x428>)
    1ffe:	f7ff fd57 	bl	1ab0 <CLOCK_SetMux>
    2002:	f240 500e 	movw	r0, #1294	; 0x50e
    2006:	f000 ff9e 	bl	2f46 <CLOCK_DisableClock>
    200a:	2101      	movs	r1, #1
    200c:	484d      	ldr	r0, [pc, #308]	; (2144 <BOARD_BootClockRUN+0x42c>)
    200e:	f7ff fd9d 	bl	1b4c <CLOCK_SetDiv>
    2012:	2107      	movs	r1, #7
    2014:	484c      	ldr	r0, [pc, #304]	; (2148 <BOARD_BootClockRUN+0x430>)
    2016:	f7ff fd99 	bl	1b4c <CLOCK_SetDiv>
    201a:	2103      	movs	r1, #3
    201c:	484b      	ldr	r0, [pc, #300]	; (214c <BOARD_BootClockRUN+0x434>)
    201e:	f7ff fd47 	bl	1ab0 <CLOCK_SetMux>
    2022:	f240 5002 	movw	r0, #1282	; 0x502
    2026:	f000 ff8e 	bl	2f46 <CLOCK_DisableClock>
    202a:	2101      	movs	r1, #1
    202c:	4848      	ldr	r0, [pc, #288]	; (2150 <BOARD_BootClockRUN+0x438>)
    202e:	f7ff fd8d 	bl	1b4c <CLOCK_SetDiv>
    2032:	2107      	movs	r1, #7
    2034:	4847      	ldr	r0, [pc, #284]	; (2154 <BOARD_BootClockRUN+0x43c>)
    2036:	f7ff fd89 	bl	1b4c <CLOCK_SetDiv>
    203a:	2103      	movs	r1, #3
    203c:	4846      	ldr	r0, [pc, #280]	; (2158 <BOARD_BootClockRUN+0x440>)
    203e:	f7ff fd37 	bl	1ab0 <CLOCK_SetMux>
    2042:	f44f 7040 	mov.w	r0, #768	; 0x300
    2046:	f000 ff7e 	bl	2f46 <CLOCK_DisableClock>
    204a:	2101      	movs	r1, #1
    204c:	4843      	ldr	r0, [pc, #268]	; (215c <BOARD_BootClockRUN+0x444>)
    204e:	f7ff fd7d 	bl	1b4c <CLOCK_SetDiv>
    2052:	2107      	movs	r1, #7
    2054:	4842      	ldr	r0, [pc, #264]	; (2160 <BOARD_BootClockRUN+0x448>)
    2056:	f7ff fd79 	bl	1b4c <CLOCK_SetDiv>
    205a:	2103      	movs	r1, #3
    205c:	4841      	ldr	r0, [pc, #260]	; (2164 <BOARD_BootClockRUN+0x44c>)
    205e:	f7ff fd27 	bl	1ab0 <CLOCK_SetMux>
    2062:	2100      	movs	r1, #0
    2064:	4840      	ldr	r0, [pc, #256]	; (2168 <BOARD_BootClockRUN+0x450>)
    2066:	f7ff fd23 	bl	1ab0 <CLOCK_SetMux>
    206a:	4840      	ldr	r0, [pc, #256]	; (216c <BOARD_BootClockRUN+0x454>)
    206c:	f7fe fadc 	bl	628 <CLOCK_InitArmPll>
    2070:	483f      	ldr	r0, [pc, #252]	; (2170 <BOARD_BootClockRUN+0x458>)
    2072:	f7fe fb0d 	bl	690 <CLOCK_InitSysPll>
    2076:	211b      	movs	r1, #27
    2078:	2000      	movs	r0, #0
    207a:	f7fe fd2b 	bl	ad4 <CLOCK_InitSysPfd>
    207e:	2110      	movs	r1, #16
    2080:	2001      	movs	r0, #1
    2082:	f7fe fd27 	bl	ad4 <CLOCK_InitSysPfd>
    2086:	2118      	movs	r1, #24
    2088:	2002      	movs	r0, #2
    208a:	f7fe fd23 	bl	ad4 <CLOCK_InitSysPfd>
    208e:	2110      	movs	r1, #16
    2090:	2003      	movs	r0, #3
    2092:	f7fe fd1f 	bl	ad4 <CLOCK_InitSysPfd>
    2096:	e06d      	b.n	2174 <BOARD_BootClockRUN+0x45c>
    2098:	400d8000 	.word	0x400d8000
    209c:	016e3600 	.word	0x016e3600
    20a0:	400fc000 	.word	0x400fc000
    20a4:	80006c18 	.word	0x80006c18
    20a8:	14003914 	.word	0x14003914
    20ac:	40080000 	.word	0x40080000
    20b0:	0400ea14 	.word	0x0400ea14
    20b4:	80006814 	.word	0x80006814
    20b8:	4000e010 	.word	0x4000e010
    20bc:	8000fb14 	.word	0x8000fb14
    20c0:	8007e01c 	.word	0x8007e01c
    20c4:	8000eb24 	.word	0x8000eb24
    20c8:	8000301c 	.word	0x8000301c
    20cc:	8000f024 	.word	0x8000f024
    20d0:	8000311c 	.word	0x8000311c
    20d4:	80002714 	.word	0x80002714
    20d8:	80002614 	.word	0x80002614
    20dc:	8000fd18 	.word	0x8000fd18
    20e0:	80006818 	.word	0x80006818
    20e4:	8000eb3c 	.word	0x8000eb3c
    20e8:	8000693c 	.word	0x8000693c
    20ec:	8000fa18 	.word	0x8000fa18
    20f0:	80006418 	.word	0x80006418
    20f4:	80007924 	.word	0x80007924
    20f8:	80006e18 	.word	0x80006e18
    20fc:	8000e628 	.word	0x8000e628
    2100:	8007e028 	.word	0x8007e028
    2104:	80006a1c 	.word	0x80006a1c
    2108:	8000e62c 	.word	0x8000e62c
    210c:	8007e02c 	.word	0x8007e02c
    2110:	80006c1c 	.word	0x80006c1c
    2114:	8000f628 	.word	0x8000f628
    2118:	8007f028 	.word	0x8007f028
    211c:	80006e1c 	.word	0x80006e1c
    2120:	8007f338 	.word	0x8007f338
    2124:	80003238 	.word	0x80003238
    2128:	8007e220 	.word	0x8007e220
    212c:	80006820 	.word	0x80006820
    2130:	8007e024 	.word	0x8007e024
    2134:	80002624 	.word	0x80002624
    2138:	8000ec38 	.word	0x8000ec38
    213c:	8000f718 	.word	0x8000f718
    2140:	8000ef38 	.word	0x8000ef38
    2144:	8000f930 	.word	0x8000f930
    2148:	8000f630 	.word	0x8000f630
    214c:	80007430 	.word	0x80007430
    2150:	8000ec30 	.word	0x8000ec30
    2154:	8000e930 	.word	0x8000e930
    2158:	80006730 	.word	0x80006730
    215c:	8000e928 	.word	0x8000e928
    2160:	8000f928 	.word	0x8000f928
    2164:	80007320 	.word	0x80007320
    2168:	8000200c 	.word	0x8000200c
    216c:	00004b2c 	.word	0x00004b2c
    2170:	00004b34 	.word	0x00004b34
    2174:	f7fe fae6 	bl	744 <CLOCK_DeinitAudioPll>
    2178:	2201      	movs	r2, #1
    217a:	4979      	ldr	r1, [pc, #484]	; (2360 <BOARD_BootClockRUN+0x648>)
    217c:	4879      	ldr	r0, [pc, #484]	; (2364 <BOARD_BootClockRUN+0x64c>)
    217e:	f000 fef1 	bl	2f64 <CLOCK_SetPllBypass>
    2182:	4b78      	ldr	r3, [pc, #480]	; (2364 <BOARD_BootClockRUN+0x64c>)
    2184:	f8d3 3170 	ldr.w	r3, [r3, #368]	; 0x170
    2188:	4a76      	ldr	r2, [pc, #472]	; (2364 <BOARD_BootClockRUN+0x64c>)
    218a:	f423 4300 	bic.w	r3, r3, #32768	; 0x8000
    218e:	f8c2 3170 	str.w	r3, [r2, #368]	; 0x170
    2192:	4b74      	ldr	r3, [pc, #464]	; (2364 <BOARD_BootClockRUN+0x64c>)
    2194:	f8d3 3170 	ldr.w	r3, [r3, #368]	; 0x170
    2198:	4a72      	ldr	r2, [pc, #456]	; (2364 <BOARD_BootClockRUN+0x64c>)
    219a:	f423 0300 	bic.w	r3, r3, #8388608	; 0x800000
    219e:	f8c2 3170 	str.w	r3, [r2, #368]	; 0x170
    21a2:	4b70      	ldr	r3, [pc, #448]	; (2364 <BOARD_BootClockRUN+0x64c>)
    21a4:	6f1b      	ldr	r3, [r3, #112]	; 0x70
    21a6:	4a6f      	ldr	r2, [pc, #444]	; (2364 <BOARD_BootClockRUN+0x64c>)
    21a8:	f443 5300 	orr.w	r3, r3, #8192	; 0x2000
    21ac:	6713      	str	r3, [r2, #112]	; 0x70
    21ae:	f7fe fad7 	bl	760 <CLOCK_DeinitVideoPll>
    21b2:	4b6c      	ldr	r3, [pc, #432]	; (2364 <BOARD_BootClockRUN+0x64c>)
    21b4:	f8d3 30a0 	ldr.w	r3, [r3, #160]	; 0xa0
    21b8:	4a6a      	ldr	r2, [pc, #424]	; (2364 <BOARD_BootClockRUN+0x64c>)
    21ba:	f443 3380 	orr.w	r3, r3, #65536	; 0x10000
    21be:	f8c2 30a0 	str.w	r3, [r2, #160]	; 0xa0
    21c2:	4b68      	ldr	r3, [pc, #416]	; (2364 <BOARD_BootClockRUN+0x64c>)
    21c4:	f8d3 3170 	ldr.w	r3, [r3, #368]	; 0x170
    21c8:	4a66      	ldr	r2, [pc, #408]	; (2364 <BOARD_BootClockRUN+0x64c>)
    21ca:	f023 4340 	bic.w	r3, r3, #3221225472	; 0xc0000000
    21ce:	f8c2 3170 	str.w	r3, [r2, #368]	; 0x170
    21d2:	4b64      	ldr	r3, [pc, #400]	; (2364 <BOARD_BootClockRUN+0x64c>)
    21d4:	f8d3 30a0 	ldr.w	r3, [r3, #160]	; 0xa0
    21d8:	4a62      	ldr	r2, [pc, #392]	; (2364 <BOARD_BootClockRUN+0x64c>)
    21da:	f443 5300 	orr.w	r3, r3, #8192	; 0x2000
    21de:	f8c2 30a0 	str.w	r3, [r2, #160]	; 0xa0
    21e2:	f7fe facb 	bl	77c <CLOCK_DeinitEnetPll>
    21e6:	2201      	movs	r2, #1
    21e8:	495f      	ldr	r1, [pc, #380]	; (2368 <BOARD_BootClockRUN+0x650>)
    21ea:	485e      	ldr	r0, [pc, #376]	; (2364 <BOARD_BootClockRUN+0x64c>)
    21ec:	f000 feba 	bl	2f64 <CLOCK_SetPllBypass>
    21f0:	4b5c      	ldr	r3, [pc, #368]	; (2364 <BOARD_BootClockRUN+0x64c>)
    21f2:	f8d3 30e0 	ldr.w	r3, [r3, #224]	; 0xe0
    21f6:	f023 0303 	bic.w	r3, r3, #3
    21fa:	4a5a      	ldr	r2, [pc, #360]	; (2364 <BOARD_BootClockRUN+0x64c>)
    21fc:	f043 0301 	orr.w	r3, r3, #1
    2200:	f8c2 30e0 	str.w	r3, [r2, #224]	; 0xe0
    2204:	4b57      	ldr	r3, [pc, #348]	; (2364 <BOARD_BootClockRUN+0x64c>)
    2206:	f8d3 30e0 	ldr.w	r3, [r3, #224]	; 0xe0
    220a:	4a56      	ldr	r2, [pc, #344]	; (2364 <BOARD_BootClockRUN+0x64c>)
    220c:	f443 5300 	orr.w	r3, r3, #8192	; 0x2000
    2210:	f8c2 30e0 	str.w	r3, [r2, #224]	; 0xe0
    2214:	4b53      	ldr	r3, [pc, #332]	; (2364 <BOARD_BootClockRUN+0x64c>)
    2216:	f8d3 30e0 	ldr.w	r3, [r3, #224]	; 0xe0
    221a:	4a52      	ldr	r2, [pc, #328]	; (2364 <BOARD_BootClockRUN+0x64c>)
    221c:	f023 030c 	bic.w	r3, r3, #12
    2220:	f8c2 30e0 	str.w	r3, [r2, #224]	; 0xe0
    2224:	4b4f      	ldr	r3, [pc, #316]	; (2364 <BOARD_BootClockRUN+0x64c>)
    2226:	f8d3 30e0 	ldr.w	r3, [r3, #224]	; 0xe0
    222a:	4a4e      	ldr	r2, [pc, #312]	; (2364 <BOARD_BootClockRUN+0x64c>)
    222c:	f443 1380 	orr.w	r3, r3, #1048576	; 0x100000
    2230:	f8c2 30e0 	str.w	r3, [r2, #224]	; 0xe0
    2234:	4b4b      	ldr	r3, [pc, #300]	; (2364 <BOARD_BootClockRUN+0x64c>)
    2236:	f8d3 30e0 	ldr.w	r3, [r3, #224]	; 0xe0
    223a:	4a4a      	ldr	r2, [pc, #296]	; (2364 <BOARD_BootClockRUN+0x64c>)
    223c:	f443 1300 	orr.w	r3, r3, #2097152	; 0x200000
    2240:	f8c2 30e0 	str.w	r3, [r2, #224]	; 0xe0
    2244:	f7fe fa72 	bl	72c <CLOCK_DeinitUsb2Pll>
    2248:	2201      	movs	r2, #1
    224a:	4948      	ldr	r1, [pc, #288]	; (236c <BOARD_BootClockRUN+0x654>)
    224c:	4845      	ldr	r0, [pc, #276]	; (2364 <BOARD_BootClockRUN+0x64c>)
    224e:	f000 fe89 	bl	2f64 <CLOCK_SetPllBypass>
    2252:	4b44      	ldr	r3, [pc, #272]	; (2364 <BOARD_BootClockRUN+0x64c>)
    2254:	6a1b      	ldr	r3, [r3, #32]
    2256:	4a43      	ldr	r2, [pc, #268]	; (2364 <BOARD_BootClockRUN+0x64c>)
    2258:	f443 5300 	orr.w	r3, r3, #8192	; 0x2000
    225c:	6213      	str	r3, [r2, #32]
    225e:	2103      	movs	r1, #3
    2260:	4843      	ldr	r0, [pc, #268]	; (2370 <BOARD_BootClockRUN+0x658>)
    2262:	f7ff fc25 	bl	1ab0 <CLOCK_SetMux>
    2266:	2100      	movs	r1, #0
    2268:	4842      	ldr	r0, [pc, #264]	; (2374 <BOARD_BootClockRUN+0x65c>)
    226a:	f7ff fc21 	bl	1ab0 <CLOCK_SetMux>
    226e:	2100      	movs	r1, #0
    2270:	4841      	ldr	r0, [pc, #260]	; (2378 <BOARD_BootClockRUN+0x660>)
    2272:	f7ff fc1d 	bl	1ab0 <CLOCK_SetMux>
    2276:	2100      	movs	r1, #0
    2278:	4840      	ldr	r0, [pc, #256]	; (237c <BOARD_BootClockRUN+0x664>)
    227a:	f7ff fc19 	bl	1ab0 <CLOCK_SetMux>
    227e:	4b39      	ldr	r3, [pc, #228]	; (2364 <BOARD_BootClockRUN+0x64c>)
    2280:	f8d3 3160 	ldr.w	r3, [r3, #352]	; 0x160
    2284:	4a37      	ldr	r2, [pc, #220]	; (2364 <BOARD_BootClockRUN+0x64c>)
    2286:	f023 031f 	bic.w	r3, r3, #31
    228a:	f8c2 3160 	str.w	r3, [r2, #352]	; 0x160
    228e:	4b3c      	ldr	r3, [pc, #240]	; (2380 <BOARD_BootClockRUN+0x668>)
    2290:	6e1b      	ldr	r3, [r3, #96]	; 0x60
    2292:	4a3b      	ldr	r2, [pc, #236]	; (2380 <BOARD_BootClockRUN+0x668>)
    2294:	f023 0370 	bic.w	r3, r3, #112	; 0x70
    2298:	6613      	str	r3, [r2, #96]	; 0x60
    229a:	4b39      	ldr	r3, [pc, #228]	; (2380 <BOARD_BootClockRUN+0x668>)
    229c:	6e1b      	ldr	r3, [r3, #96]	; 0x60
    229e:	f023 030f 	bic.w	r3, r3, #15
    22a2:	4a37      	ldr	r2, [pc, #220]	; (2380 <BOARD_BootClockRUN+0x668>)
    22a4:	f043 0301 	orr.w	r3, r3, #1
    22a8:	6613      	str	r3, [r2, #96]	; 0x60
    22aa:	4b35      	ldr	r3, [pc, #212]	; (2380 <BOARD_BootClockRUN+0x668>)
    22ac:	6e1b      	ldr	r3, [r3, #96]	; 0x60
    22ae:	4a34      	ldr	r2, [pc, #208]	; (2380 <BOARD_BootClockRUN+0x668>)
    22b0:	f423 0360 	bic.w	r3, r3, #14680064	; 0xe00000
    22b4:	6613      	str	r3, [r2, #96]	; 0x60
    22b6:	4b32      	ldr	r3, [pc, #200]	; (2380 <BOARD_BootClockRUN+0x668>)
    22b8:	6e1b      	ldr	r3, [r3, #96]	; 0x60
    22ba:	f423 13f8 	bic.w	r3, r3, #2031616	; 0x1f0000
    22be:	4a30      	ldr	r2, [pc, #192]	; (2380 <BOARD_BootClockRUN+0x668>)
    22c0:	f443 1390 	orr.w	r3, r3, #1179648	; 0x120000
    22c4:	6613      	str	r3, [r2, #96]	; 0x60
    22c6:	4b2e      	ldr	r3, [pc, #184]	; (2380 <BOARD_BootClockRUN+0x668>)
    22c8:	6e1b      	ldr	r3, [r3, #96]	; 0x60
    22ca:	4a2d      	ldr	r2, [pc, #180]	; (2380 <BOARD_BootClockRUN+0x668>)
    22cc:	f423 7380 	bic.w	r3, r3, #256	; 0x100
    22d0:	6613      	str	r3, [r2, #96]	; 0x60
    22d2:	4b2b      	ldr	r3, [pc, #172]	; (2380 <BOARD_BootClockRUN+0x668>)
    22d4:	6e1b      	ldr	r3, [r3, #96]	; 0x60
    22d6:	4a2a      	ldr	r2, [pc, #168]	; (2380 <BOARD_BootClockRUN+0x668>)
    22d8:	f023 0380 	bic.w	r3, r3, #128	; 0x80
    22dc:	6613      	str	r3, [r2, #96]	; 0x60
    22de:	4b28      	ldr	r3, [pc, #160]	; (2380 <BOARD_BootClockRUN+0x668>)
    22e0:	6e1b      	ldr	r3, [r3, #96]	; 0x60
    22e2:	4a27      	ldr	r2, [pc, #156]	; (2380 <BOARD_BootClockRUN+0x668>)
    22e4:	f023 7380 	bic.w	r3, r3, #16777216	; 0x1000000
    22e8:	6613      	str	r3, [r2, #96]	; 0x60
    22ea:	2200      	movs	r2, #0
    22ec:	2100      	movs	r1, #0
    22ee:	4825      	ldr	r0, [pc, #148]	; (2384 <BOARD_BootClockRUN+0x66c>)
    22f0:	f000 fe5f 	bl	2fb2 <IOMUXC_SetSaiMClkClockSource>
    22f4:	2200      	movs	r2, #0
    22f6:	2103      	movs	r1, #3
    22f8:	4822      	ldr	r0, [pc, #136]	; (2384 <BOARD_BootClockRUN+0x66c>)
    22fa:	f000 fe5a 	bl	2fb2 <IOMUXC_SetSaiMClkClockSource>
    22fe:	2200      	movs	r2, #0
    2300:	2106      	movs	r1, #6
    2302:	4820      	ldr	r0, [pc, #128]	; (2384 <BOARD_BootClockRUN+0x66c>)
    2304:	f000 fe55 	bl	2fb2 <IOMUXC_SetSaiMClkClockSource>
    2308:	2200      	movs	r2, #0
    230a:	2108      	movs	r1, #8
    230c:	481d      	ldr	r0, [pc, #116]	; (2384 <BOARD_BootClockRUN+0x66c>)
    230e:	f000 fe50 	bl	2fb2 <IOMUXC_SetSaiMClkClockSource>
    2312:	2200      	movs	r2, #0
    2314:	210a      	movs	r1, #10
    2316:	481b      	ldr	r0, [pc, #108]	; (2384 <BOARD_BootClockRUN+0x66c>)
    2318:	f000 fe4b 	bl	2fb2 <IOMUXC_SetSaiMClkClockSource>
    231c:	2200      	movs	r2, #0
    231e:	2100      	movs	r1, #0
    2320:	4818      	ldr	r0, [pc, #96]	; (2384 <BOARD_BootClockRUN+0x66c>)
    2322:	f7ff fcd7 	bl	1cd4 <IOMUXC_MQSConfig>
    2326:	2200      	movs	r2, #0
    2328:	f44f 5100 	mov.w	r1, #8192	; 0x2000
    232c:	4815      	ldr	r0, [pc, #84]	; (2384 <BOARD_BootClockRUN+0x66c>)
    232e:	f7ff fcad 	bl	1c8c <IOMUXC_EnableMode>
    2332:	2200      	movs	r2, #0
    2334:	f44f 4180 	mov.w	r1, #16384	; 0x4000
    2338:	4812      	ldr	r0, [pc, #72]	; (2384 <BOARD_BootClockRUN+0x66c>)
    233a:	f7ff fca7 	bl	1c8c <IOMUXC_EnableMode>
    233e:	4b11      	ldr	r3, [pc, #68]	; (2384 <BOARD_BootClockRUN+0x66c>)
    2340:	695b      	ldr	r3, [r3, #20]
    2342:	4a10      	ldr	r2, [pc, #64]	; (2384 <BOARD_BootClockRUN+0x66c>)
    2344:	f023 5380 	bic.w	r3, r3, #268435456	; 0x10000000
    2348:	6153      	str	r3, [r2, #20]
    234a:	4b0e      	ldr	r3, [pc, #56]	; (2384 <BOARD_BootClockRUN+0x66c>)
    234c:	695b      	ldr	r3, [r3, #20]
    234e:	4a0d      	ldr	r2, [pc, #52]	; (2384 <BOARD_BootClockRUN+0x66c>)
    2350:	f023 5300 	bic.w	r3, r3, #536870912	; 0x20000000
    2354:	6153      	str	r3, [r2, #20]
    2356:	4b0c      	ldr	r3, [pc, #48]	; (2388 <BOARD_BootClockRUN+0x670>)
    2358:	4a0c      	ldr	r2, [pc, #48]	; (238c <BOARD_BootClockRUN+0x674>)
    235a:	601a      	str	r2, [r3, #0]
    235c:	bf00      	nop
    235e:	bd80      	pop	{r7, pc}
    2360:	0070000d 	.word	0x0070000d
    2364:	400d8000 	.word	0x400d8000
    2368:	00e0000d 	.word	0x00e0000d
    236c:	0020000d 	.word	0x0020000d
    2370:	80007218 	.word	0x80007218
    2374:	14003914 	.word	0x14003914
    2378:	80006c18 	.word	0x80006c18
    237c:	8000261c 	.word	0x8000261c
    2380:	400fc000 	.word	0x400fc000
    2384:	400ac000 	.word	0x400ac000
    2388:	20000000 	.word	0x20000000
    238c:	23c34600 	.word	0x23c34600

00002390 <CLOCK_ControlGate>:
    2390:	b580      	push	{r7, lr}
    2392:	b086      	sub	sp, #24
    2394:	af00      	add	r7, sp, #0
    2396:	4603      	mov	r3, r0
    2398:	460a      	mov	r2, r1
    239a:	80fb      	strh	r3, [r7, #6]
    239c:	4613      	mov	r3, r2
    239e:	717b      	strb	r3, [r7, #5]
    23a0:	f9b7 3006 	ldrsh.w	r3, [r7, #6]
    23a4:	0a1b      	lsrs	r3, r3, #8
    23a6:	617b      	str	r3, [r7, #20]
    23a8:	88fb      	ldrh	r3, [r7, #6]
    23aa:	f003 031f 	and.w	r3, r3, #31
    23ae:	613b      	str	r3, [r7, #16]
    23b0:	697b      	ldr	r3, [r7, #20]
    23b2:	2b07      	cmp	r3, #7
    23b4:	d902      	bls.n	23bc <CLOCK_ControlGate+0x2c>
    23b6:	480d      	ldr	r0, [pc, #52]	; (23ec <CLOCK_ControlGate+0x5c>)
    23b8:	f000 f85c 	bl	2474 <__assertion_failed>
    23bc:	697b      	ldr	r3, [r7, #20]
    23be:	009a      	lsls	r2, r3, #2
    23c0:	4b0b      	ldr	r3, [pc, #44]	; (23f0 <CLOCK_ControlGate+0x60>)
    23c2:	4413      	add	r3, r2
    23c4:	60fb      	str	r3, [r7, #12]
    23c6:	68fb      	ldr	r3, [r7, #12]
    23c8:	681a      	ldr	r2, [r3, #0]
    23ca:	2103      	movs	r1, #3
    23cc:	693b      	ldr	r3, [r7, #16]
    23ce:	fa01 f303 	lsl.w	r3, r1, r3
    23d2:	43db      	mvns	r3, r3
    23d4:	401a      	ands	r2, r3
    23d6:	7979      	ldrb	r1, [r7, #5]
    23d8:	693b      	ldr	r3, [r7, #16]
    23da:	fa01 f303 	lsl.w	r3, r1, r3
    23de:	431a      	orrs	r2, r3
    23e0:	68fb      	ldr	r3, [r7, #12]
    23e2:	601a      	str	r2, [r3, #0]
    23e4:	bf00      	nop
    23e6:	3718      	adds	r7, #24
    23e8:	46bd      	mov	sp, r7
    23ea:	bd80      	pop	{r7, pc}
    23ec:	00004b48 	.word	0x00004b48
    23f0:	400fc068 	.word	0x400fc068

000023f4 <BOARD_InitPins>:
    23f4:	b580      	push	{r7, lr}
    23f6:	b084      	sub	sp, #16
    23f8:	af02      	add	r7, sp, #8
    23fa:	f240 4002 	movw	r0, #1026	; 0x402
    23fe:	f000 fe0e 	bl	301e <CLOCK_EnableClock>
    2402:	4a15      	ldr	r2, [pc, #84]	; (2458 <BOARD_InitPins+0x64>)
    2404:	1d3b      	adds	r3, r7, #4
    2406:	6812      	ldr	r2, [r2, #0]
    2408:	4611      	mov	r1, r2
    240a:	8019      	strh	r1, [r3, #0]
    240c:	3302      	adds	r3, #2
    240e:	0c12      	lsrs	r2, r2, #16
    2410:	701a      	strb	r2, [r3, #0]
    2412:	1d3b      	adds	r3, r7, #4
    2414:	461a      	mov	r2, r3
    2416:	2103      	movs	r1, #3
    2418:	4810      	ldr	r0, [pc, #64]	; (245c <BOARD_InitPins+0x68>)
    241a:	f7fe fbe5 	bl	be8 <GPIO_PinInit>
    241e:	2300      	movs	r3, #0
    2420:	9301      	str	r3, [sp, #4]
    2422:	4b0f      	ldr	r3, [pc, #60]	; (2460 <BOARD_InitPins+0x6c>)
    2424:	9300      	str	r3, [sp, #0]
    2426:	2300      	movs	r3, #0
    2428:	2200      	movs	r2, #0
    242a:	2100      	movs	r1, #0
    242c:	480d      	ldr	r0, [pc, #52]	; (2464 <BOARD_InitPins+0x70>)
    242e:	f000 fe05 	bl	303c <IOMUXC_SetPinMux>
    2432:	2300      	movs	r3, #0
    2434:	9301      	str	r3, [sp, #4]
    2436:	4b0c      	ldr	r3, [pc, #48]	; (2468 <BOARD_InitPins+0x74>)
    2438:	9300      	str	r3, [sp, #0]
    243a:	2300      	movs	r3, #0
    243c:	2200      	movs	r2, #0
    243e:	2105      	movs	r1, #5
    2440:	480a      	ldr	r0, [pc, #40]	; (246c <BOARD_InitPins+0x78>)
    2442:	f000 fdfb 	bl	303c <IOMUXC_SetPinMux>
    2446:	4b0a      	ldr	r3, [pc, #40]	; (2470 <BOARD_InitPins+0x7c>)
    2448:	6edb      	ldr	r3, [r3, #108]	; 0x6c
    244a:	4b09      	ldr	r3, [pc, #36]	; (2470 <BOARD_InitPins+0x7c>)
    244c:	2200      	movs	r2, #0
    244e:	66da      	str	r2, [r3, #108]	; 0x6c
    2450:	bf00      	nop
    2452:	3708      	adds	r7, #8
    2454:	46bd      	mov	sp, r7
    2456:	bd80      	pop	{r7, pc}
    2458:	00004b74 	.word	0x00004b74
    245c:	401bc000 	.word	0x401bc000
    2460:	401f82d0 	.word	0x401f82d0
    2464:	401f80e0 	.word	0x401f80e0
    2468:	401f8338 	.word	0x401f8338
    246c:	401f8148 	.word	0x401f8148
    2470:	400ac000 	.word	0x400ac000

00002474 <__assertion_failed>:
    2474:	b510      	push	{r4, lr}
    2476:	4604      	mov	r4, r0
    2478:	490e      	ldr	r1, [pc, #56]	; (24b4 <__assertion_failed+0x40>)
    247a:	480f      	ldr	r0, [pc, #60]	; (24b8 <__assertion_failed+0x44>)
    247c:	f000 ff06 	bl	328c <fputs>
    2480:	490c      	ldr	r1, [pc, #48]	; (24b4 <__assertion_failed+0x40>)
    2482:	4620      	mov	r0, r4
    2484:	f000 ff02 	bl	328c <fputs>
    2488:	490c      	ldr	r1, [pc, #48]	; (24bc <__assertion_failed+0x48>)
    248a:	f8d1 3080 	ldr.w	r3, [r1, #128]	; 0x80
    248e:	3b01      	subs	r3, #1
    2490:	2b00      	cmp	r3, #0
    2492:	f8c1 3080 	str.w	r3, [r1, #128]	; 0x80
    2496:	db08      	blt.n	24aa <__assertion_failed+0x36>
    2498:	6f8b      	ldr	r3, [r1, #120]	; 0x78
    249a:	1c5a      	adds	r2, r3, #1
    249c:	678a      	str	r2, [r1, #120]	; 0x78
    249e:	220a      	movs	r2, #10
    24a0:	701a      	strb	r2, [r3, #0]
    24a2:	e8bd 4010 	ldmia.w	sp!, {r4, lr}
    24a6:	f000 bded 	b.w	3084 <__sys_appexit>
    24aa:	3178      	adds	r1, #120	; 0x78
    24ac:	200a      	movs	r0, #10
    24ae:	f000 fe0c 	bl	30ca <__flsbuf>
    24b2:	e7f6      	b.n	24a2 <__assertion_failed+0x2e>
    24b4:	200000cc 	.word	0x200000cc
    24b8:	00004b7c 	.word	0x00004b7c
    24bc:	20000054 	.word	0x20000054

000024c0 <_Cwritebuf>:
    24c0:	e92d 41f0 	stmdb	sp!, {r4, r5, r6, r7, r8, lr}
    24c4:	68d5      	ldr	r5, [r2, #12]
    24c6:	4680      	mov	r8, r0
    24c8:	460e      	mov	r6, r1
    24ca:	4614      	mov	r4, r2
    24cc:	02eb      	lsls	r3, r5, #11
    24ce:	6957      	ldr	r7, [r2, #20]
    24d0:	d505      	bpl.n	24de <_Cwritebuf+0x1e>
    24d2:	f045 0510 	orr.w	r5, r5, #16
    24d6:	4638      	mov	r0, r7
    24d8:	f001 f875 	bl	35c6 <__sys_flen>
    24dc:	61a0      	str	r0, [r4, #24]
    24de:	4b12      	ldr	r3, [pc, #72]	; (2528 <_Cwritebuf+0x68>)
    24e0:	402b      	ands	r3, r5
    24e2:	b18b      	cbz	r3, 2508 <_Cwritebuf+0x48>
    24e4:	69a1      	ldr	r1, [r4, #24]
    24e6:	4638      	mov	r0, r7
    24e8:	f001 f876 	bl	35d8 <__sys_seek>
    24ec:	2800      	cmp	r0, #0
    24ee:	da06      	bge.n	24fe <_Cwritebuf+0x3e>
    24f0:	68e3      	ldr	r3, [r4, #12]
    24f2:	f04f 30ff 	mov.w	r0, #4294967295
    24f6:	f043 0380 	orr.w	r3, r3, #128	; 0x80
    24fa:	60e3      	str	r3, [r4, #12]
    24fc:	e011      	b.n	2522 <_Cwritebuf+0x62>
    24fe:	f425 3500 	bic.w	r5, r5, #131072	; 0x20000
    2502:	f025 0510 	bic.w	r5, r5, #16
    2506:	60e5      	str	r5, [r4, #12]
    2508:	4632      	mov	r2, r6
    250a:	4641      	mov	r1, r8
    250c:	4638      	mov	r0, r7
    250e:	f001 f869 	bl	35e4 <__sys_write>
    2512:	f020 4300 	bic.w	r3, r0, #2147483648	; 0x80000000
    2516:	1af6      	subs	r6, r6, r3
    2518:	69a3      	ldr	r3, [r4, #24]
    251a:	441e      	add	r6, r3
    251c:	61a6      	str	r6, [r4, #24]
    251e:	2800      	cmp	r0, #0
    2520:	d1e6      	bne.n	24f0 <_Cwritebuf+0x30>
    2522:	e8bd 81f0 	ldmia.w	sp!, {r4, r5, r6, r7, r8, pc}
    2526:	bf00      	nop
    2528:	00020010 	.word	0x00020010

0000252c <malloc>:
    252c:	b5f8      	push	{r3, r4, r5, r6, r7, lr}
    252e:	4f30      	ldr	r7, [pc, #192]	; (25f0 <malloc+0xc4>)
    2530:	683c      	ldr	r4, [r7, #0]
    2532:	2800      	cmp	r0, #0
    2534:	d151      	bne.n	25da <malloc+0xae>
    2536:	2000      	movs	r0, #0
    2538:	bdf8      	pop	{r3, r4, r5, r6, r7, pc}
    253a:	6823      	ldr	r3, [r4, #0]
    253c:	f1b3 5f80 	cmp.w	r3, #268435456	; 0x10000000
    2540:	d139      	bne.n	25b6 <malloc+0x8a>
    2542:	e9d4 3201 	ldrd	r3, r2, [r4, #4]
    2546:	b152      	cbz	r2, 255e <malloc+0x32>
    2548:	6811      	ldr	r1, [r2, #0]
    254a:	f1b1 5f80 	cmp.w	r1, #268435456	; 0x10000000
    254e:	d106      	bne.n	255e <malloc+0x32>
    2550:	6851      	ldr	r1, [r2, #4]
    2552:	3303      	adds	r3, #3
    2554:	440b      	add	r3, r1
    2556:	6063      	str	r3, [r4, #4]
    2558:	6893      	ldr	r3, [r2, #8]
    255a:	60a3      	str	r3, [r4, #8]
    255c:	e7f1      	b.n	2542 <malloc+0x16>
    255e:	42ab      	cmp	r3, r5
    2560:	db07      	blt.n	2572 <malloc+0x46>
    2562:	4573      	cmp	r3, lr
    2564:	dc05      	bgt.n	2572 <malloc+0x46>
    2566:	4620      	mov	r0, r4
    2568:	f04f 5300 	mov.w	r3, #536870912	; 0x20000000
    256c:	f840 3b0c 	str.w	r3, [r0], #12
    2570:	e7e2      	b.n	2538 <malloc+0xc>
    2572:	4563      	cmp	r3, ip
    2574:	d911      	bls.n	259a <malloc+0x6e>
    2576:	4620      	mov	r0, r4
    2578:	f04f 5100 	mov.w	r1, #536870912	; 0x20000000
    257c:	6065      	str	r5, [r4, #4]
    257e:	1b5b      	subs	r3, r3, r5
    2580:	f840 1b0c 	str.w	r1, [r0], #12
    2584:	eb00 0185 	add.w	r1, r0, r5, lsl #2
    2588:	3b03      	subs	r3, #3
    258a:	60a1      	str	r1, [r4, #8]
    258c:	f04f 5480 	mov.w	r4, #268435456	; 0x10000000
    2590:	f840 4025 	str.w	r4, [r0, r5, lsl #2]
    2594:	e9c1 3201 	strd	r3, r2, [r1, #4]
    2598:	e7ce      	b.n	2538 <malloc+0xc>
    259a:	b962      	cbnz	r2, 25b6 <malloc+0x8a>
    259c:	eba0 0083 	sub.w	r0, r0, r3, lsl #2
    25a0:	f000 f938 	bl	2814 <_sbrk>
    25a4:	3001      	adds	r0, #1
    25a6:	d0c6      	beq.n	2536 <malloc+0xa>
    25a8:	f04f 5300 	mov.w	r3, #536870912	; 0x20000000
    25ac:	f104 000c 	add.w	r0, r4, #12
    25b0:	e9c4 3500 	strd	r3, r5, [r4]
    25b4:	e7c0      	b.n	2538 <malloc+0xc>
    25b6:	4626      	mov	r6, r4
    25b8:	68a4      	ldr	r4, [r4, #8]
    25ba:	2c00      	cmp	r4, #0
    25bc:	d1bd      	bne.n	253a <malloc+0xe>
    25be:	300c      	adds	r0, #12
    25c0:	f000 f928 	bl	2814 <_sbrk>
    25c4:	1c43      	adds	r3, r0, #1
    25c6:	d0b6      	beq.n	2536 <malloc+0xa>
    25c8:	f04f 5300 	mov.w	r3, #536870912	; 0x20000000
    25cc:	6084      	str	r4, [r0, #8]
    25ce:	e9c0 3500 	strd	r3, r5, [r0]
    25d2:	b956      	cbnz	r6, 25ea <malloc+0xbe>
    25d4:	6038      	str	r0, [r7, #0]
    25d6:	300c      	adds	r0, #12
    25d8:	e7ae      	b.n	2538 <malloc+0xc>
    25da:	1cc3      	adds	r3, r0, #3
    25dc:	2600      	movs	r6, #0
    25de:	089d      	lsrs	r5, r3, #2
    25e0:	f105 0c0a 	add.w	ip, r5, #10
    25e4:	f105 0e03 	add.w	lr, r5, #3
    25e8:	e7e7      	b.n	25ba <malloc+0x8e>
    25ea:	60b0      	str	r0, [r6, #8]
    25ec:	e7f3      	b.n	25d6 <malloc+0xaa>
    25ee:	bf00      	nop
    25f0:	2000010c 	.word	0x2000010c

000025f4 <_Csys_alloc>:
    25f4:	b510      	push	{r4, lr}
    25f6:	f7ff ff99 	bl	252c <malloc>
    25fa:	4604      	mov	r4, r0
    25fc:	b928      	cbnz	r0, 260a <_Csys_alloc+0x16>
    25fe:	2217      	movs	r2, #23
    2600:	4903      	ldr	r1, [pc, #12]	; (2610 <_Csys_alloc+0x1c>)
    2602:	f000 ffef 	bl	35e4 <__sys_write>
    2606:	f000 fd3d 	bl	3084 <__sys_appexit>
    260a:	4620      	mov	r0, r4
    260c:	bd10      	pop	{r4, pc}
    260e:	bf00      	nop
    2610:	00004b91 	.word	0x00004b91

00002614 <fseek>:
    2614:	e92d 43f8 	stmdb	sp!, {r3, r4, r5, r6, r7, r8, r9, lr}
    2618:	68c6      	ldr	r6, [r0, #12]
    261a:	4604      	mov	r4, r0
    261c:	4b3c      	ldr	r3, [pc, #240]	; (2710 <fseek+0xfc>)
    261e:	460d      	mov	r5, r1
    2620:	4690      	mov	r8, r2
    2622:	4033      	ands	r3, r6
    2624:	b91b      	cbnz	r3, 262e <fseek+0x1a>
    2626:	2702      	movs	r7, #2
    2628:	4638      	mov	r0, r7
    262a:	e8bd 83f8 	ldmia.w	sp!, {r3, r4, r5, r6, r7, r8, r9, pc}
    262e:	f8d0 9014 	ldr.w	r9, [r0, #20]
    2632:	4648      	mov	r0, r9
    2634:	f000 ffca 	bl	35cc <__sys_istty>
    2638:	4607      	mov	r7, r0
    263a:	2800      	cmp	r0, #0
    263c:	d1f3      	bne.n	2626 <fseek+0x12>
    263e:	f1b8 0f01 	cmp.w	r8, #1
    2642:	d02c      	beq.n	269e <fseek+0x8a>
    2644:	f1b8 0f02 	cmp.w	r8, #2
    2648:	d02e      	beq.n	26a8 <fseek+0x94>
    264a:	f1b8 0f00 	cmp.w	r8, #0
    264e:	d1ea      	bne.n	2626 <fseek+0x12>
    2650:	2d00      	cmp	r5, #0
    2652:	dbe8      	blt.n	2626 <fseek+0x12>
    2654:	04b0      	lsls	r0, r6, #18
    2656:	d504      	bpl.n	2662 <fseek+0x4e>
    2658:	6823      	ldr	r3, [r4, #0]
    265a:	6ae2      	ldr	r2, [r4, #44]	; 0x2c
    265c:	429a      	cmp	r2, r3
    265e:	bf38      	it	cc
    2660:	62e3      	strcc	r3, [r4, #44]	; 0x2c
    2662:	69a1      	ldr	r1, [r4, #24]
    2664:	42a9      	cmp	r1, r5
    2666:	dc0e      	bgt.n	2686 <fseek+0x72>
    2668:	6823      	ldr	r3, [r4, #0]
    266a:	6ae2      	ldr	r2, [r4, #44]	; 0x2c
    266c:	4293      	cmp	r3, r2
    266e:	bf38      	it	cc
    2670:	4613      	movcc	r3, r2
    2672:	6922      	ldr	r2, [r4, #16]
    2674:	1858      	adds	r0, r3, r1
    2676:	1a80      	subs	r0, r0, r2
    2678:	42a8      	cmp	r0, r5
    267a:	db04      	blt.n	2686 <fseek+0x72>
    267c:	6b20      	ldr	r0, [r4, #48]	; 0x30
    267e:	eb01 0c00 	add.w	ip, r1, r0
    2682:	45ac      	cmp	ip, r5
    2684:	dc34      	bgt.n	26f0 <fseek+0xdc>
    2686:	2300      	movs	r3, #0
    2688:	f046 0620 	orr.w	r6, r6, #32
    268c:	62a5      	str	r5, [r4, #40]	; 0x28
    268e:	e9c4 3301 	strd	r3, r3, [r4, #4]
    2692:	f426 2603 	bic.w	r6, r6, #536576	; 0x83000
    2696:	f026 0640 	bic.w	r6, r6, #64	; 0x40
    269a:	60e6      	str	r6, [r4, #12]
    269c:	e7c4      	b.n	2628 <fseek+0x14>
    269e:	4620      	mov	r0, r4
    26a0:	f000 f838 	bl	2714 <ftell>
    26a4:	4405      	add	r5, r0
    26a6:	e7d3      	b.n	2650 <fseek+0x3c>
    26a8:	4648      	mov	r0, r9
    26aa:	f000 ff8c 	bl	35c6 <__sys_flen>
    26ae:	f1b0 0c00 	subs.w	ip, r0, #0
    26b2:	68e2      	ldr	r2, [r4, #12]
    26b4:	da04      	bge.n	26c0 <fseek+0xac>
    26b6:	f042 0280 	orr.w	r2, r2, #128	; 0x80
    26ba:	2701      	movs	r7, #1
    26bc:	60e2      	str	r2, [r4, #12]
    26be:	e7b3      	b.n	2628 <fseek+0x14>
    26c0:	6ae3      	ldr	r3, [r4, #44]	; 0x2c
    26c2:	4618      	mov	r0, r3
    26c4:	69a3      	ldr	r3, [r4, #24]
    26c6:	4619      	mov	r1, r3
    26c8:	6823      	ldr	r3, [r4, #0]
    26ca:	4283      	cmp	r3, r0
    26cc:	bf2c      	ite	cs
    26ce:	18c9      	addcs	r1, r1, r3
    26d0:	1809      	addcc	r1, r1, r0
    26d2:	0692      	lsls	r2, r2, #26
    26d4:	460b      	mov	r3, r1
    26d6:	6921      	ldr	r1, [r4, #16]
    26d8:	eba3 0301 	sub.w	r3, r3, r1
    26dc:	d503      	bpl.n	26e6 <fseek+0xd2>
    26de:	6aa2      	ldr	r2, [r4, #40]	; 0x28
    26e0:	4293      	cmp	r3, r2
    26e2:	bfb8      	it	lt
    26e4:	4613      	movlt	r3, r2
    26e6:	4563      	cmp	r3, ip
    26e8:	bfac      	ite	ge
    26ea:	18ed      	addge	r5, r5, r3
    26ec:	4465      	addlt	r5, ip
    26ee:	e7af      	b.n	2650 <fseek+0x3c>
    26f0:	1a6d      	subs	r5, r5, r1
    26f2:	07b1      	lsls	r1, r6, #30
    26f4:	bf44      	itt	mi
    26f6:	1a28      	submi	r0, r5, r0
    26f8:	60a0      	strmi	r0, [r4, #8]
    26fa:	07f1      	lsls	r1, r6, #31
    26fc:	f026 0620 	bic.w	r6, r6, #32
    2700:	bf44      	itt	mi
    2702:	1a9b      	submi	r3, r3, r2
    2704:	1aeb      	submi	r3, r5, r3
    2706:	4415      	add	r5, r2
    2708:	bf48      	it	mi
    270a:	6063      	strmi	r3, [r4, #4]
    270c:	6025      	str	r5, [r4, #0]
    270e:	e7c0      	b.n	2692 <fseek+0x7e>
    2710:	00100003 	.word	0x00100003

00002714 <ftell>:
    2714:	68c3      	ldr	r3, [r0, #12]
    2716:	079a      	lsls	r2, r3, #30
    2718:	d105      	bne.n	2726 <ftell+0x12>
    271a:	4b0f      	ldr	r3, [pc, #60]	; (2758 <ftell+0x44>)
    271c:	2221      	movs	r2, #33	; 0x21
    271e:	f04f 30ff 	mov.w	r0, #4294967295
    2722:	601a      	str	r2, [r3, #0]
    2724:	4770      	bx	lr
    2726:	f003 0220 	and.w	r2, r3, #32
    272a:	031b      	lsls	r3, r3, #12
    272c:	d50a      	bpl.n	2744 <ftell+0x30>
    272e:	b112      	cbz	r2, 2736 <ftell+0x22>
    2730:	6a80      	ldr	r0, [r0, #40]	; 0x28
    2732:	3801      	subs	r0, #1
    2734:	4770      	bx	lr
    2736:	6803      	ldr	r3, [r0, #0]
    2738:	6982      	ldr	r2, [r0, #24]
    273a:	6900      	ldr	r0, [r0, #16]
    273c:	4413      	add	r3, r2
    273e:	1a1b      	subs	r3, r3, r0
    2740:	1e58      	subs	r0, r3, #1
    2742:	4770      	bx	lr
    2744:	b10a      	cbz	r2, 274a <ftell+0x36>
    2746:	6a80      	ldr	r0, [r0, #40]	; 0x28
    2748:	4770      	bx	lr
    274a:	6803      	ldr	r3, [r0, #0]
    274c:	6982      	ldr	r2, [r0, #24]
    274e:	6900      	ldr	r0, [r0, #16]
    2750:	4413      	add	r3, r2
    2752:	1a18      	subs	r0, r3, r0
    2754:	4770      	bx	lr
    2756:	bf00      	nop
    2758:	20000110 	.word	0x20000110

0000275c <_initio>:
    275c:	b510      	push	{r4, lr}
    275e:	4a17      	ldr	r2, [pc, #92]	; (27bc <_initio+0x60>)
    2760:	2000      	movs	r0, #0
    2762:	4917      	ldr	r1, [pc, #92]	; (27c0 <_initio+0x64>)
    2764:	f000 fdce 	bl	3304 <_fdopen>
    2768:	f44f 7380 	mov.w	r3, #256	; 0x100
    276c:	f44f 6280 	mov.w	r2, #1024	; 0x400
    2770:	2100      	movs	r1, #0
    2772:	4812      	ldr	r0, [pc, #72]	; (27bc <_initio+0x60>)
    2774:	f000 f82e 	bl	27d4 <setvbuf>
    2778:	4a12      	ldr	r2, [pc, #72]	; (27c4 <_initio+0x68>)
    277a:	4913      	ldr	r1, [pc, #76]	; (27c8 <_initio+0x6c>)
    277c:	2001      	movs	r0, #1
    277e:	f000 fdc1 	bl	3304 <_fdopen>
    2782:	f44f 7380 	mov.w	r3, #256	; 0x100
    2786:	f44f 6280 	mov.w	r2, #1024	; 0x400
    278a:	2100      	movs	r1, #0
    278c:	480d      	ldr	r0, [pc, #52]	; (27c4 <_initio+0x68>)
    278e:	f000 f821 	bl	27d4 <setvbuf>
    2792:	4b0e      	ldr	r3, [pc, #56]	; (27cc <_initio+0x70>)
    2794:	681b      	ldr	r3, [r3, #0]
    2796:	2b02      	cmp	r3, #2
    2798:	dd0e      	ble.n	27b8 <_initio+0x5c>
    279a:	4a0d      	ldr	r2, [pc, #52]	; (27d0 <_initio+0x74>)
    279c:	2002      	movs	r0, #2
    279e:	490a      	ldr	r1, [pc, #40]	; (27c8 <_initio+0x6c>)
    27a0:	f000 fdb0 	bl	3304 <_fdopen>
    27a4:	f44f 7380 	mov.w	r3, #256	; 0x100
    27a8:	f44f 6280 	mov.w	r2, #1024	; 0x400
    27ac:	2100      	movs	r1, #0
    27ae:	4808      	ldr	r0, [pc, #32]	; (27d0 <_initio+0x74>)
    27b0:	e8bd 4010 	ldmia.w	sp!, {r4, lr}
    27b4:	f000 b80e 	b.w	27d4 <setvbuf>
    27b8:	bd10      	pop	{r4, pc}
    27ba:	bf00      	nop
    27bc:	20000054 	.word	0x20000054
    27c0:	00004ba9 	.word	0x00004ba9
    27c4:	20000090 	.word	0x20000090
    27c8:	00004bab 	.word	0x00004bab
    27cc:	00004b78 	.word	0x00004b78
    27d0:	200000cc 	.word	0x200000cc

000027d4 <setvbuf>:
    27d4:	b570      	push	{r4, r5, r6, lr}
    27d6:	68c4      	ldr	r4, [r0, #12]
    27d8:	07a5      	lsls	r5, r4, #30
    27da:	d008      	beq.n	27ee <setvbuf+0x1a>
    27dc:	f5b2 7f00 	cmp.w	r2, #512	; 0x200
    27e0:	d011      	beq.n	2806 <setvbuf+0x32>
    27e2:	f5b2 6f80 	cmp.w	r2, #1024	; 0x400
    27e6:	d004      	beq.n	27f2 <setvbuf+0x1e>
    27e8:	f5b2 7f80 	cmp.w	r2, #256	; 0x100
    27ec:	d00b      	beq.n	2806 <setvbuf+0x32>
    27ee:	2001      	movs	r0, #1
    27f0:	e008      	b.n	2804 <setvbuf+0x30>
    27f2:	f100 0124 	add.w	r1, r0, #36	; 0x24
    27f6:	2301      	movs	r3, #1
    27f8:	4314      	orrs	r4, r2
    27fa:	6101      	str	r1, [r0, #16]
    27fc:	6001      	str	r1, [r0, #0]
    27fe:	61c3      	str	r3, [r0, #28]
    2800:	60c4      	str	r4, [r0, #12]
    2802:	2000      	movs	r0, #0
    2804:	bd70      	pop	{r4, r5, r6, pc}
    2806:	1e5e      	subs	r6, r3, #1
    2808:	4d01      	ldr	r5, [pc, #4]	; (2810 <setvbuf+0x3c>)
    280a:	42ae      	cmp	r6, r5
    280c:	d9f4      	bls.n	27f8 <setvbuf+0x24>
    280e:	e7ee      	b.n	27ee <setvbuf+0x1a>
    2810:	00fffffe 	.word	0x00fffffe

00002814 <_sbrk>:
    2814:	b570      	push	{r4, r5, r6, lr}
    2816:	4d0b      	ldr	r5, [pc, #44]	; (2844 <_sbrk+0x30>)
    2818:	682b      	ldr	r3, [r5, #0]
    281a:	b90b      	cbnz	r3, 2820 <_sbrk+0xc>
    281c:	4b0a      	ldr	r3, [pc, #40]	; (2848 <_sbrk+0x34>)
    281e:	602b      	str	r3, [r5, #0]
    2820:	1cc4      	adds	r4, r0, #3
    2822:	682e      	ldr	r6, [r5, #0]
    2824:	f024 0403 	bic.w	r4, r4, #3
    2828:	4434      	add	r4, r6
    282a:	4620      	mov	r0, r4
    282c:	f000 f832 	bl	2894 <__check_heap_overflow>
    2830:	b910      	cbnz	r0, 2838 <_sbrk+0x24>
    2832:	602c      	str	r4, [r5, #0]
    2834:	4630      	mov	r0, r6
    2836:	bd70      	pop	{r4, r5, r6, pc}
    2838:	4b04      	ldr	r3, [pc, #16]	; (284c <_sbrk+0x38>)
    283a:	220c      	movs	r2, #12
    283c:	f04f 36ff 	mov.w	r6, #4294967295
    2840:	601a      	str	r2, [r3, #0]
    2842:	e7f7      	b.n	2834 <_sbrk+0x20>
    2844:	20000108 	.word	0x20000108
    2848:	20000118 	.word	0x20000118
    284c:	20000110 	.word	0x20000110

00002850 <fflush>:
    2850:	b5f7      	push	{r0, r1, r2, r4, r5, r6, r7, lr}
    2852:	4604      	mov	r4, r0
    2854:	b198      	cbz	r0, 287e <fflush+0x2e>
    2856:	b003      	add	sp, #12
    2858:	e8bd 40f0 	ldmia.w	sp!, {r4, r5, r6, r7, lr}
    285c:	f000 bdbc 	b.w	33d8 <_do_fflush>
    2860:	fb07 6004 	mla	r0, r7, r4, r6
    2864:	3401      	adds	r4, #1
    2866:	f000 fdb7 	bl	33d8 <_do_fflush>
    286a:	2800      	cmp	r0, #0
    286c:	bf18      	it	ne
    286e:	f04f 35ff 	movne.w	r5, #4294967295
    2872:	9b01      	ldr	r3, [sp, #4]
    2874:	42a3      	cmp	r3, r4
    2876:	dcf3      	bgt.n	2860 <fflush+0x10>
    2878:	4628      	mov	r0, r5
    287a:	b003      	add	sp, #12
    287c:	bdf0      	pop	{r4, r5, r6, r7, pc}
    287e:	4b03      	ldr	r3, [pc, #12]	; (288c <fflush+0x3c>)
    2880:	4605      	mov	r5, r0
    2882:	273c      	movs	r7, #60	; 0x3c
    2884:	4e02      	ldr	r6, [pc, #8]	; (2890 <fflush+0x40>)
    2886:	681b      	ldr	r3, [r3, #0]
    2888:	9301      	str	r3, [sp, #4]
    288a:	e7f2      	b.n	2872 <fflush+0x22>
    288c:	00004b78 	.word	0x00004b78
    2890:	20000054 	.word	0x20000054

00002894 <__check_heap_overflow>:
    2894:	4b04      	ldr	r3, [pc, #16]	; (28a8 <__check_heap_overflow+0x14>)
    2896:	b123      	cbz	r3, 28a2 <__check_heap_overflow+0xe>
    2898:	4298      	cmp	r0, r3
    289a:	bf34      	ite	cc
    289c:	2000      	movcc	r0, #0
    289e:	2001      	movcs	r0, #1
    28a0:	4770      	bx	lr
    28a2:	4618      	mov	r0, r3
    28a4:	4770      	bx	lr
    28a6:	bf00      	nop
    28a8:	20001118 	.word	0x20001118

000028ac <DMA0_DMA16_IRQHandler>:
    28ac:	b508      	push	{r3, lr}
    28ae:	f7fd fd64 	bl	37a <ACMP1_DriverIRQHandler>
    28b2:	bd08      	pop	{r3, pc}

000028b4 <DMA1_DMA17_IRQHandler>:
    28b4:	b508      	push	{r3, lr}
    28b6:	f7fd fd60 	bl	37a <ACMP1_DriverIRQHandler>
    28ba:	bd08      	pop	{r3, pc}

000028bc <DMA2_DMA18_IRQHandler>:
    28bc:	b508      	push	{r3, lr}
    28be:	f7fd fd5c 	bl	37a <ACMP1_DriverIRQHandler>
    28c2:	bd08      	pop	{r3, pc}

000028c4 <DMA3_DMA19_IRQHandler>:
    28c4:	b508      	push	{r3, lr}
    28c6:	f7fd fd58 	bl	37a <ACMP1_DriverIRQHandler>
    28ca:	bd08      	pop	{r3, pc}

000028cc <DMA4_DMA20_IRQHandler>:
    28cc:	b508      	push	{r3, lr}
    28ce:	f7fd fd54 	bl	37a <ACMP1_DriverIRQHandler>
    28d2:	bd08      	pop	{r3, pc}

000028d4 <DMA5_DMA21_IRQHandler>:
    28d4:	b508      	push	{r3, lr}
    28d6:	f7fd fd50 	bl	37a <ACMP1_DriverIRQHandler>
    28da:	bd08      	pop	{r3, pc}

000028dc <DMA6_DMA22_IRQHandler>:
    28dc:	b508      	push	{r3, lr}
    28de:	f7fd fd4c 	bl	37a <ACMP1_DriverIRQHandler>
    28e2:	bd08      	pop	{r3, pc}

000028e4 <DMA7_DMA23_IRQHandler>:
    28e4:	b508      	push	{r3, lr}
    28e6:	f7fd fd48 	bl	37a <ACMP1_DriverIRQHandler>
    28ea:	bd08      	pop	{r3, pc}

000028ec <DMA8_DMA24_IRQHandler>:
    28ec:	b508      	push	{r3, lr}
    28ee:	f7fd fd44 	bl	37a <ACMP1_DriverIRQHandler>
    28f2:	bd08      	pop	{r3, pc}

000028f4 <DMA9_DMA25_IRQHandler>:
    28f4:	b508      	push	{r3, lr}
    28f6:	f7fd fd40 	bl	37a <ACMP1_DriverIRQHandler>
    28fa:	bd08      	pop	{r3, pc}

000028fc <DMA10_DMA26_IRQHandler>:
    28fc:	b508      	push	{r3, lr}
    28fe:	f7fd fd3c 	bl	37a <ACMP1_DriverIRQHandler>
    2902:	bd08      	pop	{r3, pc}

00002904 <DMA11_DMA27_IRQHandler>:
    2904:	b508      	push	{r3, lr}
    2906:	f7fd fd38 	bl	37a <ACMP1_DriverIRQHandler>
    290a:	bd08      	pop	{r3, pc}

0000290c <DMA12_DMA28_IRQHandler>:
    290c:	b508      	push	{r3, lr}
    290e:	f7fd fd34 	bl	37a <ACMP1_DriverIRQHandler>
    2912:	bd08      	pop	{r3, pc}

00002914 <DMA13_DMA29_IRQHandler>:
    2914:	b508      	push	{r3, lr}
    2916:	f7fd fd30 	bl	37a <ACMP1_DriverIRQHandler>
    291a:	bd08      	pop	{r3, pc}

0000291c <DMA14_DMA30_IRQHandler>:
    291c:	b508      	push	{r3, lr}
    291e:	f7fd fd2c 	bl	37a <ACMP1_DriverIRQHandler>
    2922:	bd08      	pop	{r3, pc}

00002924 <DMA15_DMA31_IRQHandler>:
    2924:	b508      	push	{r3, lr}
    2926:	f7fd fd28 	bl	37a <ACMP1_DriverIRQHandler>
    292a:	bd08      	pop	{r3, pc}

0000292c <DMA_ERROR_IRQHandler>:
    292c:	b508      	push	{r3, lr}
    292e:	f7fd fd24 	bl	37a <ACMP1_DriverIRQHandler>
    2932:	bd08      	pop	{r3, pc}

00002934 <CTI0_ERROR_IRQHandler>:
    2934:	b508      	push	{r3, lr}
    2936:	f7fd fd20 	bl	37a <ACMP1_DriverIRQHandler>
    293a:	bd08      	pop	{r3, pc}

0000293c <CTI1_ERROR_IRQHandler>:
    293c:	b508      	push	{r3, lr}
    293e:	f7fd fd1c 	bl	37a <ACMP1_DriverIRQHandler>
    2942:	bd08      	pop	{r3, pc}

00002944 <CORE_IRQHandler>:
    2944:	b508      	push	{r3, lr}
    2946:	f7fd fd18 	bl	37a <ACMP1_DriverIRQHandler>
    294a:	bd08      	pop	{r3, pc}

0000294c <LPUART1_IRQHandler>:
    294c:	b508      	push	{r3, lr}
    294e:	f7fe fc61 	bl	1214 <LPUART1_DriverIRQHandler>
    2952:	bd08      	pop	{r3, pc}

00002954 <LPUART2_IRQHandler>:
    2954:	b508      	push	{r3, lr}
    2956:	f7fe fc6f 	bl	1238 <LPUART2_DriverIRQHandler>
    295a:	bd08      	pop	{r3, pc}

0000295c <LPUART3_IRQHandler>:
    295c:	b508      	push	{r3, lr}
    295e:	f7fe fc7d 	bl	125c <LPUART3_DriverIRQHandler>
    2962:	bd08      	pop	{r3, pc}

00002964 <LPUART4_IRQHandler>:
    2964:	b508      	push	{r3, lr}
    2966:	f7fe fc8b 	bl	1280 <LPUART4_DriverIRQHandler>
    296a:	bd08      	pop	{r3, pc}

0000296c <LPUART5_IRQHandler>:
    296c:	b508      	push	{r3, lr}
    296e:	f7fe fc99 	bl	12a4 <LPUART5_DriverIRQHandler>
    2972:	bd08      	pop	{r3, pc}

00002974 <LPUART6_IRQHandler>:
    2974:	b508      	push	{r3, lr}
    2976:	f7fe fca7 	bl	12c8 <LPUART6_DriverIRQHandler>
    297a:	bd08      	pop	{r3, pc}

0000297c <LPUART7_IRQHandler>:
    297c:	b508      	push	{r3, lr}
    297e:	f7fe fcb5 	bl	12ec <LPUART7_DriverIRQHandler>
    2982:	bd08      	pop	{r3, pc}

00002984 <LPUART8_IRQHandler>:
    2984:	b508      	push	{r3, lr}
    2986:	f7fe fcc3 	bl	1310 <LPUART8_DriverIRQHandler>
    298a:	bd08      	pop	{r3, pc}

0000298c <LPI2C1_IRQHandler>:
    298c:	b508      	push	{r3, lr}
    298e:	f7fd fcf4 	bl	37a <ACMP1_DriverIRQHandler>
    2992:	bd08      	pop	{r3, pc}

00002994 <LPI2C2_IRQHandler>:
    2994:	b508      	push	{r3, lr}
    2996:	f7fd fcf0 	bl	37a <ACMP1_DriverIRQHandler>
    299a:	bd08      	pop	{r3, pc}

0000299c <LPI2C3_IRQHandler>:
    299c:	b508      	push	{r3, lr}
    299e:	f7fd fcec 	bl	37a <ACMP1_DriverIRQHandler>
    29a2:	bd08      	pop	{r3, pc}

000029a4 <LPI2C4_IRQHandler>:
    29a4:	b508      	push	{r3, lr}
    29a6:	f7fd fce8 	bl	37a <ACMP1_DriverIRQHandler>
    29aa:	bd08      	pop	{r3, pc}

000029ac <LPSPI1_IRQHandler>:
    29ac:	b508      	push	{r3, lr}
    29ae:	f7fd fce4 	bl	37a <ACMP1_DriverIRQHandler>
    29b2:	bd08      	pop	{r3, pc}

000029b4 <LPSPI2_IRQHandler>:
    29b4:	b508      	push	{r3, lr}
    29b6:	f7fd fce0 	bl	37a <ACMP1_DriverIRQHandler>
    29ba:	bd08      	pop	{r3, pc}

000029bc <LPSPI3_IRQHandler>:
    29bc:	b508      	push	{r3, lr}
    29be:	f7fd fcdc 	bl	37a <ACMP1_DriverIRQHandler>
    29c2:	bd08      	pop	{r3, pc}

000029c4 <LPSPI4_IRQHandler>:
    29c4:	b508      	push	{r3, lr}
    29c6:	f7fd fcd8 	bl	37a <ACMP1_DriverIRQHandler>
    29ca:	bd08      	pop	{r3, pc}

000029cc <CAN1_IRQHandler>:
    29cc:	b508      	push	{r3, lr}
    29ce:	f7fd fcd4 	bl	37a <ACMP1_DriverIRQHandler>
    29d2:	bd08      	pop	{r3, pc}

000029d4 <CAN2_IRQHandler>:
    29d4:	b508      	push	{r3, lr}
    29d6:	f7fd fcd0 	bl	37a <ACMP1_DriverIRQHandler>
    29da:	bd08      	pop	{r3, pc}

000029dc <FLEXRAM_IRQHandler>:
    29dc:	b508      	push	{r3, lr}
    29de:	f7fd fccc 	bl	37a <ACMP1_DriverIRQHandler>
    29e2:	bd08      	pop	{r3, pc}

000029e4 <KPP_IRQHandler>:
    29e4:	b508      	push	{r3, lr}
    29e6:	f7fd fcc8 	bl	37a <ACMP1_DriverIRQHandler>
    29ea:	bd08      	pop	{r3, pc}

000029ec <TSC_DIG_IRQHandler>:
    29ec:	b508      	push	{r3, lr}
    29ee:	f7fd fcc4 	bl	37a <ACMP1_DriverIRQHandler>
    29f2:	bd08      	pop	{r3, pc}

000029f4 <GPR_IRQ_IRQHandler>:
    29f4:	b508      	push	{r3, lr}
    29f6:	f7fd fcc0 	bl	37a <ACMP1_DriverIRQHandler>
    29fa:	bd08      	pop	{r3, pc}

000029fc <LCDIF_IRQHandler>:
    29fc:	b508      	push	{r3, lr}
    29fe:	f7fd fcbc 	bl	37a <ACMP1_DriverIRQHandler>
    2a02:	bd08      	pop	{r3, pc}

00002a04 <CSI_IRQHandler>:
    2a04:	b508      	push	{r3, lr}
    2a06:	f7fd fcb8 	bl	37a <ACMP1_DriverIRQHandler>
    2a0a:	bd08      	pop	{r3, pc}

00002a0c <PXP_IRQHandler>:
    2a0c:	b508      	push	{r3, lr}
    2a0e:	f7fd fcb4 	bl	37a <ACMP1_DriverIRQHandler>
    2a12:	bd08      	pop	{r3, pc}

00002a14 <WDOG2_IRQHandler>:
    2a14:	b508      	push	{r3, lr}
    2a16:	f7fd fcb0 	bl	37a <ACMP1_DriverIRQHandler>
    2a1a:	bd08      	pop	{r3, pc}

00002a1c <SNVS_HP_WRAPPER_IRQHandler>:
    2a1c:	b508      	push	{r3, lr}
    2a1e:	f7fd fcac 	bl	37a <ACMP1_DriverIRQHandler>
    2a22:	bd08      	pop	{r3, pc}

00002a24 <SNVS_HP_WRAPPER_TZ_IRQHandler>:
    2a24:	b508      	push	{r3, lr}
    2a26:	f7fd fca8 	bl	37a <ACMP1_DriverIRQHandler>
    2a2a:	bd08      	pop	{r3, pc}

00002a2c <SNVS_LP_WRAPPER_IRQHandler>:
    2a2c:	b508      	push	{r3, lr}
    2a2e:	f7fd fca4 	bl	37a <ACMP1_DriverIRQHandler>
    2a32:	bd08      	pop	{r3, pc}

00002a34 <CSU_IRQHandler>:
    2a34:	b508      	push	{r3, lr}
    2a36:	f7fd fca0 	bl	37a <ACMP1_DriverIRQHandler>
    2a3a:	bd08      	pop	{r3, pc}

00002a3c <DCP_IRQHandler>:
    2a3c:	b508      	push	{r3, lr}
    2a3e:	f7fd fc9c 	bl	37a <ACMP1_DriverIRQHandler>
    2a42:	bd08      	pop	{r3, pc}

00002a44 <DCP_VMI_IRQHandler>:
    2a44:	b508      	push	{r3, lr}
    2a46:	f7fd fc98 	bl	37a <ACMP1_DriverIRQHandler>
    2a4a:	bd08      	pop	{r3, pc}

00002a4c <Reserved68_IRQHandler>:
    2a4c:	b508      	push	{r3, lr}
    2a4e:	f7fd fc94 	bl	37a <ACMP1_DriverIRQHandler>
    2a52:	bd08      	pop	{r3, pc}

00002a54 <TRNG_IRQHandler>:
    2a54:	b508      	push	{r3, lr}
    2a56:	f7fd fc90 	bl	37a <ACMP1_DriverIRQHandler>
    2a5a:	bd08      	pop	{r3, pc}

00002a5c <SJC_IRQHandler>:
    2a5c:	b508      	push	{r3, lr}
    2a5e:	f7fd fc8c 	bl	37a <ACMP1_DriverIRQHandler>
    2a62:	bd08      	pop	{r3, pc}

00002a64 <BEE_IRQHandler>:
    2a64:	b508      	push	{r3, lr}
    2a66:	f7fd fc88 	bl	37a <ACMP1_DriverIRQHandler>
    2a6a:	bd08      	pop	{r3, pc}

00002a6c <SAI1_IRQHandler>:
    2a6c:	b508      	push	{r3, lr}
    2a6e:	f7fd fc84 	bl	37a <ACMP1_DriverIRQHandler>
    2a72:	bd08      	pop	{r3, pc}

00002a74 <SAI2_IRQHandler>:
    2a74:	b508      	push	{r3, lr}
    2a76:	f7fd fc80 	bl	37a <ACMP1_DriverIRQHandler>
    2a7a:	bd08      	pop	{r3, pc}

00002a7c <SAI3_RX_IRQHandler>:
    2a7c:	b508      	push	{r3, lr}
    2a7e:	f7fd fc7c 	bl	37a <ACMP1_DriverIRQHandler>
    2a82:	bd08      	pop	{r3, pc}

00002a84 <SAI3_TX_IRQHandler>:
    2a84:	b508      	push	{r3, lr}
    2a86:	f7fd fc78 	bl	37a <ACMP1_DriverIRQHandler>
    2a8a:	bd08      	pop	{r3, pc}

00002a8c <SPDIF_IRQHandler>:
    2a8c:	b508      	push	{r3, lr}
    2a8e:	f7fd fc74 	bl	37a <ACMP1_DriverIRQHandler>
    2a92:	bd08      	pop	{r3, pc}

00002a94 <PMU_EVENT_IRQHandler>:
    2a94:	b508      	push	{r3, lr}
    2a96:	f7fd fc70 	bl	37a <ACMP1_DriverIRQHandler>
    2a9a:	bd08      	pop	{r3, pc}

00002a9c <Reserved78_IRQHandler>:
    2a9c:	b508      	push	{r3, lr}
    2a9e:	f7fd fc6c 	bl	37a <ACMP1_DriverIRQHandler>
    2aa2:	bd08      	pop	{r3, pc}

00002aa4 <TEMP_LOW_HIGH_IRQHandler>:
    2aa4:	b508      	push	{r3, lr}
    2aa6:	f7fd fc68 	bl	37a <ACMP1_DriverIRQHandler>
    2aaa:	bd08      	pop	{r3, pc}

00002aac <TEMP_PANIC_IRQHandler>:
    2aac:	b508      	push	{r3, lr}
    2aae:	f7fd fc64 	bl	37a <ACMP1_DriverIRQHandler>
    2ab2:	bd08      	pop	{r3, pc}

00002ab4 <USB_PHY1_IRQHandler>:
    2ab4:	b508      	push	{r3, lr}
    2ab6:	f7fd fc60 	bl	37a <ACMP1_DriverIRQHandler>
    2aba:	bd08      	pop	{r3, pc}

00002abc <USB_PHY2_IRQHandler>:
    2abc:	b508      	push	{r3, lr}
    2abe:	f7fd fc5c 	bl	37a <ACMP1_DriverIRQHandler>
    2ac2:	bd08      	pop	{r3, pc}

00002ac4 <ADC1_IRQHandler>:
    2ac4:	b508      	push	{r3, lr}
    2ac6:	f7fd fc58 	bl	37a <ACMP1_DriverIRQHandler>
    2aca:	bd08      	pop	{r3, pc}

00002acc <ADC2_IRQHandler>:
    2acc:	b508      	push	{r3, lr}
    2ace:	f7fd fc54 	bl	37a <ACMP1_DriverIRQHandler>
    2ad2:	bd08      	pop	{r3, pc}

00002ad4 <DCDC_IRQHandler>:
    2ad4:	b508      	push	{r3, lr}
    2ad6:	f7fd fc50 	bl	37a <ACMP1_DriverIRQHandler>
    2ada:	bd08      	pop	{r3, pc}

00002adc <Reserved86_IRQHandler>:
    2adc:	b508      	push	{r3, lr}
    2ade:	f7fd fc4c 	bl	37a <ACMP1_DriverIRQHandler>
    2ae2:	bd08      	pop	{r3, pc}

00002ae4 <Reserved87_IRQHandler>:
    2ae4:	b508      	push	{r3, lr}
    2ae6:	f7fd fc48 	bl	37a <ACMP1_DriverIRQHandler>
    2aea:	bd08      	pop	{r3, pc}

00002aec <GPIO1_INT0_IRQHandler>:
    2aec:	b508      	push	{r3, lr}
    2aee:	f7fd fc44 	bl	37a <ACMP1_DriverIRQHandler>
    2af2:	bd08      	pop	{r3, pc}

00002af4 <GPIO1_INT1_IRQHandler>:
    2af4:	b508      	push	{r3, lr}
    2af6:	f7fd fc40 	bl	37a <ACMP1_DriverIRQHandler>
    2afa:	bd08      	pop	{r3, pc}

00002afc <GPIO1_INT2_IRQHandler>:
    2afc:	b508      	push	{r3, lr}
    2afe:	f7fd fc3c 	bl	37a <ACMP1_DriverIRQHandler>
    2b02:	bd08      	pop	{r3, pc}

00002b04 <GPIO1_INT3_IRQHandler>:
    2b04:	b508      	push	{r3, lr}
    2b06:	f7fd fc38 	bl	37a <ACMP1_DriverIRQHandler>
    2b0a:	bd08      	pop	{r3, pc}

00002b0c <GPIO1_INT4_IRQHandler>:
    2b0c:	b508      	push	{r3, lr}
    2b0e:	f7fd fc34 	bl	37a <ACMP1_DriverIRQHandler>
    2b12:	bd08      	pop	{r3, pc}

00002b14 <GPIO1_INT5_IRQHandler>:
    2b14:	b508      	push	{r3, lr}
    2b16:	f7fd fc30 	bl	37a <ACMP1_DriverIRQHandler>
    2b1a:	bd08      	pop	{r3, pc}

00002b1c <GPIO1_INT6_IRQHandler>:
    2b1c:	b508      	push	{r3, lr}
    2b1e:	f7fd fc2c 	bl	37a <ACMP1_DriverIRQHandler>
    2b22:	bd08      	pop	{r3, pc}

00002b24 <GPIO1_INT7_IRQHandler>:
    2b24:	b508      	push	{r3, lr}
    2b26:	f7fd fc28 	bl	37a <ACMP1_DriverIRQHandler>
    2b2a:	bd08      	pop	{r3, pc}

00002b2c <GPIO1_Combined_0_15_IRQHandler>:
    2b2c:	b508      	push	{r3, lr}
    2b2e:	f7fd fc24 	bl	37a <ACMP1_DriverIRQHandler>
    2b32:	bd08      	pop	{r3, pc}

00002b34 <GPIO1_Combined_16_31_IRQHandler>:
    2b34:	b508      	push	{r3, lr}
    2b36:	f7fd fc20 	bl	37a <ACMP1_DriverIRQHandler>
    2b3a:	bd08      	pop	{r3, pc}

00002b3c <GPIO2_Combined_0_15_IRQHandler>:
    2b3c:	b508      	push	{r3, lr}
    2b3e:	f7fd fc1c 	bl	37a <ACMP1_DriverIRQHandler>
    2b42:	bd08      	pop	{r3, pc}

00002b44 <GPIO2_Combined_16_31_IRQHandler>:
    2b44:	b508      	push	{r3, lr}
    2b46:	f7fd fc18 	bl	37a <ACMP1_DriverIRQHandler>
    2b4a:	bd08      	pop	{r3, pc}

00002b4c <GPIO3_Combined_0_15_IRQHandler>:
    2b4c:	b508      	push	{r3, lr}
    2b4e:	f7fd fc14 	bl	37a <ACMP1_DriverIRQHandler>
    2b52:	bd08      	pop	{r3, pc}

00002b54 <GPIO3_Combined_16_31_IRQHandler>:
    2b54:	b508      	push	{r3, lr}
    2b56:	f7fd fc10 	bl	37a <ACMP1_DriverIRQHandler>
    2b5a:	bd08      	pop	{r3, pc}

00002b5c <GPIO4_Combined_0_15_IRQHandler>:
    2b5c:	b508      	push	{r3, lr}
    2b5e:	f7fd fc0c 	bl	37a <ACMP1_DriverIRQHandler>
    2b62:	bd08      	pop	{r3, pc}

00002b64 <GPIO4_Combined_16_31_IRQHandler>:
    2b64:	b508      	push	{r3, lr}
    2b66:	f7fd fc08 	bl	37a <ACMP1_DriverIRQHandler>
    2b6a:	bd08      	pop	{r3, pc}

00002b6c <GPIO5_Combined_0_15_IRQHandler>:
    2b6c:	b508      	push	{r3, lr}
    2b6e:	f7fd fc04 	bl	37a <ACMP1_DriverIRQHandler>
    2b72:	bd08      	pop	{r3, pc}

00002b74 <GPIO5_Combined_16_31_IRQHandler>:
    2b74:	b508      	push	{r3, lr}
    2b76:	f7fd fc00 	bl	37a <ACMP1_DriverIRQHandler>
    2b7a:	bd08      	pop	{r3, pc}

00002b7c <FLEXIO1_IRQHandler>:
    2b7c:	b508      	push	{r3, lr}
    2b7e:	f7fd fbfc 	bl	37a <ACMP1_DriverIRQHandler>
    2b82:	bd08      	pop	{r3, pc}

00002b84 <FLEXIO2_IRQHandler>:
    2b84:	b508      	push	{r3, lr}
    2b86:	f7fd fbf8 	bl	37a <ACMP1_DriverIRQHandler>
    2b8a:	bd08      	pop	{r3, pc}

00002b8c <WDOG1_IRQHandler>:
    2b8c:	b508      	push	{r3, lr}
    2b8e:	f7fd fbf4 	bl	37a <ACMP1_DriverIRQHandler>
    2b92:	bd08      	pop	{r3, pc}

00002b94 <RTWDOG_IRQHandler>:
    2b94:	b508      	push	{r3, lr}
    2b96:	f7fd fbf0 	bl	37a <ACMP1_DriverIRQHandler>
    2b9a:	bd08      	pop	{r3, pc}

00002b9c <EWM_IRQHandler>:
    2b9c:	b508      	push	{r3, lr}
    2b9e:	f7fd fbec 	bl	37a <ACMP1_DriverIRQHandler>
    2ba2:	bd08      	pop	{r3, pc}

00002ba4 <CCM_1_IRQHandler>:
    2ba4:	b508      	push	{r3, lr}
    2ba6:	f7fd fbe8 	bl	37a <ACMP1_DriverIRQHandler>
    2baa:	bd08      	pop	{r3, pc}

00002bac <CCM_2_IRQHandler>:
    2bac:	b508      	push	{r3, lr}
    2bae:	f7fd fbe4 	bl	37a <ACMP1_DriverIRQHandler>
    2bb2:	bd08      	pop	{r3, pc}

00002bb4 <GPC_IRQHandler>:
    2bb4:	b508      	push	{r3, lr}
    2bb6:	f7fd fbe0 	bl	37a <ACMP1_DriverIRQHandler>
    2bba:	bd08      	pop	{r3, pc}

00002bbc <SRC_IRQHandler>:
    2bbc:	b508      	push	{r3, lr}
    2bbe:	f7fd fbdc 	bl	37a <ACMP1_DriverIRQHandler>
    2bc2:	bd08      	pop	{r3, pc}

00002bc4 <Reserved115_IRQHandler>:
    2bc4:	b508      	push	{r3, lr}
    2bc6:	f7fd fbd8 	bl	37a <ACMP1_DriverIRQHandler>
    2bca:	bd08      	pop	{r3, pc}

00002bcc <GPT1_IRQHandler>:
    2bcc:	b508      	push	{r3, lr}
    2bce:	f7fd fbd4 	bl	37a <ACMP1_DriverIRQHandler>
    2bd2:	bd08      	pop	{r3, pc}

00002bd4 <GPT2_IRQHandler>:
    2bd4:	b508      	push	{r3, lr}
    2bd6:	f7fd fbd0 	bl	37a <ACMP1_DriverIRQHandler>
    2bda:	bd08      	pop	{r3, pc}

00002bdc <PWM1_0_IRQHandler>:
    2bdc:	b508      	push	{r3, lr}
    2bde:	f7fd fbcc 	bl	37a <ACMP1_DriverIRQHandler>
    2be2:	bd08      	pop	{r3, pc}

00002be4 <PWM1_1_IRQHandler>:
    2be4:	b508      	push	{r3, lr}
    2be6:	f7fd fbc8 	bl	37a <ACMP1_DriverIRQHandler>
    2bea:	bd08      	pop	{r3, pc}

00002bec <PWM1_2_IRQHandler>:
    2bec:	b508      	push	{r3, lr}
    2bee:	f7fd fbc4 	bl	37a <ACMP1_DriverIRQHandler>
    2bf2:	bd08      	pop	{r3, pc}

00002bf4 <PWM1_3_IRQHandler>:
    2bf4:	b508      	push	{r3, lr}
    2bf6:	f7fd fbc0 	bl	37a <ACMP1_DriverIRQHandler>
    2bfa:	bd08      	pop	{r3, pc}

00002bfc <PWM1_FAULT_IRQHandler>:
    2bfc:	b508      	push	{r3, lr}
    2bfe:	f7fd fbbc 	bl	37a <ACMP1_DriverIRQHandler>
    2c02:	bd08      	pop	{r3, pc}

00002c04 <FLEXSPI2_IRQHandler>:
    2c04:	b508      	push	{r3, lr}
    2c06:	f7fd fbb8 	bl	37a <ACMP1_DriverIRQHandler>
    2c0a:	bd08      	pop	{r3, pc}

00002c0c <FLEXSPI_IRQHandler>:
    2c0c:	b508      	push	{r3, lr}
    2c0e:	f7fd fbb4 	bl	37a <ACMP1_DriverIRQHandler>
    2c12:	bd08      	pop	{r3, pc}

00002c14 <SEMC_IRQHandler>:
    2c14:	b508      	push	{r3, lr}
    2c16:	f7fd fbb0 	bl	37a <ACMP1_DriverIRQHandler>
    2c1a:	bd08      	pop	{r3, pc}

00002c1c <USDHC1_IRQHandler>:
    2c1c:	b508      	push	{r3, lr}
    2c1e:	f7fd fbac 	bl	37a <ACMP1_DriverIRQHandler>
    2c22:	bd08      	pop	{r3, pc}

00002c24 <USDHC2_IRQHandler>:
    2c24:	b508      	push	{r3, lr}
    2c26:	f7fd fba8 	bl	37a <ACMP1_DriverIRQHandler>
    2c2a:	bd08      	pop	{r3, pc}

00002c2c <USB_OTG2_IRQHandler>:
    2c2c:	b508      	push	{r3, lr}
    2c2e:	f7fd fba4 	bl	37a <ACMP1_DriverIRQHandler>
    2c32:	bd08      	pop	{r3, pc}

00002c34 <USB_OTG1_IRQHandler>:
    2c34:	b508      	push	{r3, lr}
    2c36:	f7fd fba0 	bl	37a <ACMP1_DriverIRQHandler>
    2c3a:	bd08      	pop	{r3, pc}

00002c3c <ENET_IRQHandler>:
    2c3c:	b508      	push	{r3, lr}
    2c3e:	f7fd fb9c 	bl	37a <ACMP1_DriverIRQHandler>
    2c42:	bd08      	pop	{r3, pc}

00002c44 <ENET_1588_Timer_IRQHandler>:
    2c44:	b508      	push	{r3, lr}
    2c46:	f7fd fb98 	bl	37a <ACMP1_DriverIRQHandler>
    2c4a:	bd08      	pop	{r3, pc}

00002c4c <XBAR1_IRQ_0_1_IRQHandler>:
    2c4c:	b508      	push	{r3, lr}
    2c4e:	f7fd fb94 	bl	37a <ACMP1_DriverIRQHandler>
    2c52:	bd08      	pop	{r3, pc}

00002c54 <XBAR1_IRQ_2_3_IRQHandler>:
    2c54:	b508      	push	{r3, lr}
    2c56:	f7fd fb90 	bl	37a <ACMP1_DriverIRQHandler>
    2c5a:	bd08      	pop	{r3, pc}

00002c5c <ADC_ETC_IRQ0_IRQHandler>:
    2c5c:	b508      	push	{r3, lr}
    2c5e:	f7fd fb8c 	bl	37a <ACMP1_DriverIRQHandler>
    2c62:	bd08      	pop	{r3, pc}

00002c64 <ADC_ETC_IRQ1_IRQHandler>:
    2c64:	b508      	push	{r3, lr}
    2c66:	f7fd fb88 	bl	37a <ACMP1_DriverIRQHandler>
    2c6a:	bd08      	pop	{r3, pc}

00002c6c <ADC_ETC_IRQ2_IRQHandler>:
    2c6c:	b508      	push	{r3, lr}
    2c6e:	f7fd fb84 	bl	37a <ACMP1_DriverIRQHandler>
    2c72:	bd08      	pop	{r3, pc}

00002c74 <ADC_ETC_ERROR_IRQ_IRQHandler>:
    2c74:	b508      	push	{r3, lr}
    2c76:	f7fd fb80 	bl	37a <ACMP1_DriverIRQHandler>
    2c7a:	bd08      	pop	{r3, pc}

00002c7c <PIT_IRQHandler>:
    2c7c:	b508      	push	{r3, lr}
    2c7e:	f7fd fb7c 	bl	37a <ACMP1_DriverIRQHandler>
    2c82:	bd08      	pop	{r3, pc}

00002c84 <ACMP1_IRQHandler>:
    2c84:	b508      	push	{r3, lr}
    2c86:	f7fd fb78 	bl	37a <ACMP1_DriverIRQHandler>
    2c8a:	bd08      	pop	{r3, pc}

00002c8c <ACMP2_IRQHandler>:
    2c8c:	b508      	push	{r3, lr}
    2c8e:	f7fd fb74 	bl	37a <ACMP1_DriverIRQHandler>
    2c92:	bd08      	pop	{r3, pc}

00002c94 <ACMP3_IRQHandler>:
    2c94:	b508      	push	{r3, lr}
    2c96:	f7fd fb70 	bl	37a <ACMP1_DriverIRQHandler>
    2c9a:	bd08      	pop	{r3, pc}

00002c9c <ACMP4_IRQHandler>:
    2c9c:	b508      	push	{r3, lr}
    2c9e:	f7fd fb6c 	bl	37a <ACMP1_DriverIRQHandler>
    2ca2:	bd08      	pop	{r3, pc}

00002ca4 <Reserved143_IRQHandler>:
    2ca4:	b508      	push	{r3, lr}
    2ca6:	f7fd fb68 	bl	37a <ACMP1_DriverIRQHandler>
    2caa:	bd08      	pop	{r3, pc}

00002cac <Reserved144_IRQHandler>:
    2cac:	b508      	push	{r3, lr}
    2cae:	f7fd fb64 	bl	37a <ACMP1_DriverIRQHandler>
    2cb2:	bd08      	pop	{r3, pc}

00002cb4 <ENC1_IRQHandler>:
    2cb4:	b508      	push	{r3, lr}
    2cb6:	f7fd fb60 	bl	37a <ACMP1_DriverIRQHandler>
    2cba:	bd08      	pop	{r3, pc}

00002cbc <ENC2_IRQHandler>:
    2cbc:	b508      	push	{r3, lr}
    2cbe:	f7fd fb5c 	bl	37a <ACMP1_DriverIRQHandler>
    2cc2:	bd08      	pop	{r3, pc}

00002cc4 <ENC3_IRQHandler>:
    2cc4:	b508      	push	{r3, lr}
    2cc6:	f7fd fb58 	bl	37a <ACMP1_DriverIRQHandler>
    2cca:	bd08      	pop	{r3, pc}

00002ccc <ENC4_IRQHandler>:
    2ccc:	b508      	push	{r3, lr}
    2cce:	f7fd fb54 	bl	37a <ACMP1_DriverIRQHandler>
    2cd2:	bd08      	pop	{r3, pc}

00002cd4 <TMR1_IRQHandler>:
    2cd4:	b508      	push	{r3, lr}
    2cd6:	f7fd fb50 	bl	37a <ACMP1_DriverIRQHandler>
    2cda:	bd08      	pop	{r3, pc}

00002cdc <TMR2_IRQHandler>:
    2cdc:	b508      	push	{r3, lr}
    2cde:	f7fd fb4c 	bl	37a <ACMP1_DriverIRQHandler>
    2ce2:	bd08      	pop	{r3, pc}

00002ce4 <TMR3_IRQHandler>:
    2ce4:	b508      	push	{r3, lr}
    2ce6:	f7fd fb48 	bl	37a <ACMP1_DriverIRQHandler>
    2cea:	bd08      	pop	{r3, pc}

00002cec <TMR4_IRQHandler>:
    2cec:	b508      	push	{r3, lr}
    2cee:	f7fd fb44 	bl	37a <ACMP1_DriverIRQHandler>
    2cf2:	bd08      	pop	{r3, pc}

00002cf4 <PWM2_0_IRQHandler>:
    2cf4:	b508      	push	{r3, lr}
    2cf6:	f7fd fb40 	bl	37a <ACMP1_DriverIRQHandler>
    2cfa:	bd08      	pop	{r3, pc}

00002cfc <PWM2_1_IRQHandler>:
    2cfc:	b508      	push	{r3, lr}
    2cfe:	f7fd fb3c 	bl	37a <ACMP1_DriverIRQHandler>
    2d02:	bd08      	pop	{r3, pc}

00002d04 <PWM2_2_IRQHandler>:
    2d04:	b508      	push	{r3, lr}
    2d06:	f7fd fb38 	bl	37a <ACMP1_DriverIRQHandler>
    2d0a:	bd08      	pop	{r3, pc}

00002d0c <PWM2_3_IRQHandler>:
    2d0c:	b508      	push	{r3, lr}
    2d0e:	f7fd fb34 	bl	37a <ACMP1_DriverIRQHandler>
    2d12:	bd08      	pop	{r3, pc}

00002d14 <PWM2_FAULT_IRQHandler>:
    2d14:	b508      	push	{r3, lr}
    2d16:	f7fd fb30 	bl	37a <ACMP1_DriverIRQHandler>
    2d1a:	bd08      	pop	{r3, pc}

00002d1c <PWM3_0_IRQHandler>:
    2d1c:	b508      	push	{r3, lr}
    2d1e:	f7fd fb2c 	bl	37a <ACMP1_DriverIRQHandler>
    2d22:	bd08      	pop	{r3, pc}

00002d24 <PWM3_1_IRQHandler>:
    2d24:	b508      	push	{r3, lr}
    2d26:	f7fd fb28 	bl	37a <ACMP1_DriverIRQHandler>
    2d2a:	bd08      	pop	{r3, pc}

00002d2c <PWM3_2_IRQHandler>:
    2d2c:	b508      	push	{r3, lr}
    2d2e:	f7fd fb24 	bl	37a <ACMP1_DriverIRQHandler>
    2d32:	bd08      	pop	{r3, pc}

00002d34 <PWM3_3_IRQHandler>:
    2d34:	b508      	push	{r3, lr}
    2d36:	f7fd fb20 	bl	37a <ACMP1_DriverIRQHandler>
    2d3a:	bd08      	pop	{r3, pc}

00002d3c <PWM3_FAULT_IRQHandler>:
    2d3c:	b508      	push	{r3, lr}
    2d3e:	f7fd fb1c 	bl	37a <ACMP1_DriverIRQHandler>
    2d42:	bd08      	pop	{r3, pc}

00002d44 <PWM4_0_IRQHandler>:
    2d44:	b508      	push	{r3, lr}
    2d46:	f7fd fb18 	bl	37a <ACMP1_DriverIRQHandler>
    2d4a:	bd08      	pop	{r3, pc}

00002d4c <PWM4_1_IRQHandler>:
    2d4c:	b508      	push	{r3, lr}
    2d4e:	f7fd fb14 	bl	37a <ACMP1_DriverIRQHandler>
    2d52:	bd08      	pop	{r3, pc}

00002d54 <PWM4_2_IRQHandler>:
    2d54:	b508      	push	{r3, lr}
    2d56:	f7fd fb10 	bl	37a <ACMP1_DriverIRQHandler>
    2d5a:	bd08      	pop	{r3, pc}

00002d5c <PWM4_3_IRQHandler>:
    2d5c:	b508      	push	{r3, lr}
    2d5e:	f7fd fb0c 	bl	37a <ACMP1_DriverIRQHandler>
    2d62:	bd08      	pop	{r3, pc}

00002d64 <PWM4_FAULT_IRQHandler>:
    2d64:	b508      	push	{r3, lr}
    2d66:	f7fd fb08 	bl	37a <ACMP1_DriverIRQHandler>
    2d6a:	bd08      	pop	{r3, pc}

00002d6c <ENET2_IRQHandler>:
    2d6c:	b508      	push	{r3, lr}
    2d6e:	f7fd fb04 	bl	37a <ACMP1_DriverIRQHandler>
    2d72:	bd08      	pop	{r3, pc}

00002d74 <ENET2_1588_Timer_IRQHandler>:
    2d74:	b508      	push	{r3, lr}
    2d76:	f7fd fb00 	bl	37a <ACMP1_DriverIRQHandler>
    2d7a:	bd08      	pop	{r3, pc}

00002d7c <CAN3_IRQHandler>:
    2d7c:	b508      	push	{r3, lr}
    2d7e:	f7fd fafc 	bl	37a <ACMP1_DriverIRQHandler>
    2d82:	bd08      	pop	{r3, pc}

00002d84 <Reserved171_IRQHandler>:
    2d84:	b508      	push	{r3, lr}
    2d86:	f7fd faf8 	bl	37a <ACMP1_DriverIRQHandler>
    2d8a:	bd08      	pop	{r3, pc}

00002d8c <FLEXIO3_IRQHandler>:
    2d8c:	b508      	push	{r3, lr}
    2d8e:	f7fd faf4 	bl	37a <ACMP1_DriverIRQHandler>
    2d92:	bd08      	pop	{r3, pc}

00002d94 <GPIO6_7_8_9_IRQHandler>:
    2d94:	b508      	push	{r3, lr}
    2d96:	f7fd faf0 	bl	37a <ACMP1_DriverIRQHandler>
    2d9a:	bd08      	pop	{r3, pc}

00002d9c <HardFault_Handler>:
    2d9c:	2004      	movs	r0, #4
    2d9e:	4671      	mov	r1, lr
    2da0:	4208      	tst	r0, r1
    2da2:	d002      	beq.n	2daa <_MSP>
    2da4:	f3ef 8009 	mrs	r0, PSP
    2da8:	e001      	b.n	2dae <_process>

00002daa <_MSP>:
    2daa:	f3ef 8008 	mrs	r0, MSP

00002dae <_process>:
    2dae:	6981      	ldr	r1, [r0, #24]
    2db0:	880a      	ldrh	r2, [r1, #0]
    2db2:	f64b 63ab 	movw	r3, #48811	; 0xbeab
    2db6:	429a      	cmp	r2, r3
    2db8:	d000      	beq.n	2dbc <_semihost_return>
    2dba:	e7fe      	b.n	2dba <_process+0xc>

00002dbc <_semihost_return>:
    2dbc:	3102      	adds	r1, #2
    2dbe:	6181      	str	r1, [r0, #24]
    2dc0:	2120      	movs	r1, #32
    2dc2:	6001      	str	r1, [r0, #0]
    2dc4:	4770      	bx	lr
    2dc6:	bf00      	nop

00002dc8 <CLOCK_IsPllBypassed>:
    2dc8:	b480      	push	{r7}
    2dca:	b083      	sub	sp, #12
    2dcc:	af00      	add	r7, sp, #0
    2dce:	6078      	str	r0, [r7, #4]
    2dd0:	6039      	str	r1, [r7, #0]
    2dd2:	683b      	ldr	r3, [r7, #0]
    2dd4:	0c1b      	lsrs	r3, r3, #16
    2dd6:	f3c3 020b 	ubfx	r2, r3, #0, #12
    2dda:	687b      	ldr	r3, [r7, #4]
    2ddc:	4413      	add	r3, r2
    2dde:	681b      	ldr	r3, [r3, #0]
    2de0:	f403 3380 	and.w	r3, r3, #65536	; 0x10000
    2de4:	2b00      	cmp	r3, #0
    2de6:	bf14      	ite	ne
    2de8:	2301      	movne	r3, #1
    2dea:	2300      	moveq	r3, #0
    2dec:	b2db      	uxtb	r3, r3
    2dee:	4618      	mov	r0, r3
    2df0:	370c      	adds	r7, #12
    2df2:	46bd      	mov	sp, r7
    2df4:	f85d 7b04 	ldr.w	r7, [sp], #4
    2df8:	4770      	bx	lr

00002dfa <CLOCK_IsPllEnabled>:
    2dfa:	b480      	push	{r7}
    2dfc:	b083      	sub	sp, #12
    2dfe:	af00      	add	r7, sp, #0
    2e00:	6078      	str	r0, [r7, #4]
    2e02:	6039      	str	r1, [r7, #0]
    2e04:	683b      	ldr	r3, [r7, #0]
    2e06:	0c1b      	lsrs	r3, r3, #16
    2e08:	f3c3 020b 	ubfx	r2, r3, #0, #12
    2e0c:	687b      	ldr	r3, [r7, #4]
    2e0e:	4413      	add	r3, r2
    2e10:	681a      	ldr	r2, [r3, #0]
    2e12:	683b      	ldr	r3, [r7, #0]
    2e14:	f003 031f 	and.w	r3, r3, #31
    2e18:	fa22 f303 	lsr.w	r3, r2, r3
    2e1c:	f003 0301 	and.w	r3, r3, #1
    2e20:	2b00      	cmp	r3, #0
    2e22:	bf14      	ite	ne
    2e24:	2301      	movne	r3, #1
    2e26:	2300      	moveq	r3, #0
    2e28:	b2db      	uxtb	r3, r3
    2e2a:	4618      	mov	r0, r3
    2e2c:	370c      	adds	r7, #12
    2e2e:	46bd      	mov	sp, r7
    2e30:	f85d 7b04 	ldr.w	r7, [sp], #4
    2e34:	4770      	bx	lr

00002e36 <CLOCK_GetPllBypassRefClk>:
    2e36:	b580      	push	{r7, lr}
    2e38:	b082      	sub	sp, #8
    2e3a:	af00      	add	r7, sp, #0
    2e3c:	6078      	str	r0, [r7, #4]
    2e3e:	6039      	str	r1, [r7, #0]
    2e40:	683b      	ldr	r3, [r7, #0]
    2e42:	0c1b      	lsrs	r3, r3, #16
    2e44:	f3c3 020b 	ubfx	r2, r3, #0, #12
    2e48:	687b      	ldr	r3, [r7, #4]
    2e4a:	4413      	add	r3, r2
    2e4c:	681b      	ldr	r3, [r3, #0]
    2e4e:	0b9b      	lsrs	r3, r3, #14
    2e50:	f003 0303 	and.w	r3, r3, #3
    2e54:	2b00      	cmp	r3, #0
    2e56:	d103      	bne.n	2e60 <CLOCK_GetPllBypassRefClk+0x2a>
    2e58:	f7fd fb6c 	bl	534 <CLOCK_GetOscFreq>
    2e5c:	4603      	mov	r3, r0
    2e5e:	e000      	b.n	2e62 <CLOCK_GetPllBypassRefClk+0x2c>
    2e60:	2300      	movs	r3, #0
    2e62:	4618      	mov	r0, r3
    2e64:	3708      	adds	r7, #8
    2e66:	46bd      	mov	sp, r7
    2e68:	bd80      	pop	{r7, pc}

00002e6a <CLOCK_EnableClock>:
    2e6a:	b580      	push	{r7, lr}
    2e6c:	b082      	sub	sp, #8
    2e6e:	af00      	add	r7, sp, #0
    2e70:	4603      	mov	r3, r0
    2e72:	80fb      	strh	r3, [r7, #6]
    2e74:	f9b7 3006 	ldrsh.w	r3, [r7, #6]
    2e78:	2103      	movs	r1, #3
    2e7a:	4618      	mov	r0, r3
    2e7c:	f7fd fe5c 	bl	b38 <CLOCK_ControlGate>
    2e80:	bf00      	nop
    2e82:	3708      	adds	r7, #8
    2e84:	46bd      	mov	sp, r7
    2e86:	bd80      	pop	{r7, pc}

00002e88 <GPIO_SetPinInterruptConfig>:
    2e88:	b580      	push	{r7, lr}
    2e8a:	b084      	sub	sp, #16
    2e8c:	af00      	add	r7, sp, #0
    2e8e:	60f8      	str	r0, [r7, #12]
    2e90:	60b9      	str	r1, [r7, #8]
    2e92:	4613      	mov	r3, r2
    2e94:	71fb      	strb	r3, [r7, #7]
    2e96:	79fb      	ldrb	r3, [r7, #7]
    2e98:	461a      	mov	r2, r3
    2e9a:	68b9      	ldr	r1, [r7, #8]
    2e9c:	68f8      	ldr	r0, [r7, #12]
    2e9e:	f7fd ff1f 	bl	ce0 <GPIO_PinSetInterruptConfig>
    2ea2:	bf00      	nop
    2ea4:	3710      	adds	r7, #16
    2ea6:	46bd      	mov	sp, r7
    2ea8:	bd80      	pop	{r7, pc}

00002eaa <CLOCK_EnableClock>:
    2eaa:	b580      	push	{r7, lr}
    2eac:	b082      	sub	sp, #8
    2eae:	af00      	add	r7, sp, #0
    2eb0:	4603      	mov	r3, r0
    2eb2:	80fb      	strh	r3, [r7, #6]
    2eb4:	f9b7 3006 	ldrsh.w	r3, [r7, #6]
    2eb8:	2103      	movs	r1, #3
    2eba:	4618      	mov	r0, r3
    2ebc:	f7fd ff8e 	bl	ddc <CLOCK_ControlGate>
    2ec0:	bf00      	nop
    2ec2:	3708      	adds	r7, #8
    2ec4:	46bd      	mov	sp, r7
    2ec6:	bd80      	pop	{r7, pc}

00002ec8 <LPUART_SoftwareReset>:
    2ec8:	b480      	push	{r7}
    2eca:	b083      	sub	sp, #12
    2ecc:	af00      	add	r7, sp, #0
    2ece:	6078      	str	r0, [r7, #4]
    2ed0:	687b      	ldr	r3, [r7, #4]
    2ed2:	689b      	ldr	r3, [r3, #8]
    2ed4:	f043 0202 	orr.w	r2, r3, #2
    2ed8:	687b      	ldr	r3, [r7, #4]
    2eda:	609a      	str	r2, [r3, #8]
    2edc:	687b      	ldr	r3, [r7, #4]
    2ede:	689b      	ldr	r3, [r3, #8]
    2ee0:	f023 0202 	bic.w	r2, r3, #2
    2ee4:	687b      	ldr	r3, [r7, #4]
    2ee6:	609a      	str	r2, [r3, #8]
    2ee8:	bf00      	nop
    2eea:	370c      	adds	r7, #12
    2eec:	46bd      	mov	sp, r7
    2eee:	f85d 7b04 	ldr.w	r7, [sp], #4
    2ef2:	4770      	bx	lr

00002ef4 <SystemInitHook>:
    2ef4:	b480      	push	{r7}
    2ef6:	af00      	add	r7, sp, #0
    2ef8:	bf00      	nop
    2efa:	46bd      	mov	sp, r7
    2efc:	f85d 7b04 	ldr.w	r7, [sp], #4
    2f00:	4770      	bx	lr

00002f02 <HAL_UartGetStatus>:
    2f02:	b480      	push	{r7}
    2f04:	b083      	sub	sp, #12
    2f06:	af00      	add	r7, sp, #0
    2f08:	6078      	str	r0, [r7, #4]
    2f0a:	687b      	ldr	r3, [r7, #4]
    2f0c:	2b00      	cmp	r3, #0
    2f0e:	d101      	bne.n	2f14 <HAL_UartGetStatus+0x12>
    2f10:	2300      	movs	r3, #0
    2f12:	e001      	b.n	2f18 <HAL_UartGetStatus+0x16>
    2f14:	f642 73af 	movw	r3, #12207	; 0x2faf
    2f18:	4618      	mov	r0, r3
    2f1a:	370c      	adds	r7, #12
    2f1c:	46bd      	mov	sp, r7
    2f1e:	f85d 7b04 	ldr.w	r7, [sp], #4
    2f22:	4770      	bx	lr

00002f24 <BOARD_InitDebugConsole>:
    2f24:	b580      	push	{r7, lr}
    2f26:	b082      	sub	sp, #8
    2f28:	af00      	add	r7, sp, #0
    2f2a:	f7fe fd8f 	bl	1a4c <BOARD_DebugConsoleSrcFreq>
    2f2e:	6078      	str	r0, [r7, #4]
    2f30:	687b      	ldr	r3, [r7, #4]
    2f32:	2201      	movs	r2, #1
    2f34:	f44f 31e1 	mov.w	r1, #115200	; 0x1c200
    2f38:	2001      	movs	r0, #1
    2f3a:	f7fd fa1f 	bl	37c <DbgConsole_Init>
    2f3e:	bf00      	nop
    2f40:	3708      	adds	r7, #8
    2f42:	46bd      	mov	sp, r7
    2f44:	bd80      	pop	{r7, pc}

00002f46 <CLOCK_DisableClock>:
    2f46:	b580      	push	{r7, lr}
    2f48:	b082      	sub	sp, #8
    2f4a:	af00      	add	r7, sp, #0
    2f4c:	4603      	mov	r3, r0
    2f4e:	80fb      	strh	r3, [r7, #6]
    2f50:	f9b7 3006 	ldrsh.w	r3, [r7, #6]
    2f54:	2100      	movs	r1, #0
    2f56:	4618      	mov	r0, r3
    2f58:	f7fe fe46 	bl	1be8 <CLOCK_ControlGate>
    2f5c:	bf00      	nop
    2f5e:	3708      	adds	r7, #8
    2f60:	46bd      	mov	sp, r7
    2f62:	bd80      	pop	{r7, pc}

00002f64 <CLOCK_SetPllBypass>:
    2f64:	b480      	push	{r7}
    2f66:	b085      	sub	sp, #20
    2f68:	af00      	add	r7, sp, #0
    2f6a:	60f8      	str	r0, [r7, #12]
    2f6c:	60b9      	str	r1, [r7, #8]
    2f6e:	4613      	mov	r3, r2
    2f70:	71fb      	strb	r3, [r7, #7]
    2f72:	79fb      	ldrb	r3, [r7, #7]
    2f74:	2b00      	cmp	r3, #0
    2f76:	d00b      	beq.n	2f90 <CLOCK_SetPllBypass+0x2c>
    2f78:	68bb      	ldr	r3, [r7, #8]
    2f7a:	0c1b      	lsrs	r3, r3, #16
    2f7c:	f3c3 020b 	ubfx	r2, r3, #0, #12
    2f80:	68fb      	ldr	r3, [r7, #12]
    2f82:	4413      	add	r3, r2
    2f84:	3304      	adds	r3, #4
    2f86:	461a      	mov	r2, r3
    2f88:	f44f 3380 	mov.w	r3, #65536	; 0x10000
    2f8c:	6013      	str	r3, [r2, #0]
    2f8e:	e00a      	b.n	2fa6 <CLOCK_SetPllBypass+0x42>
    2f90:	68bb      	ldr	r3, [r7, #8]
    2f92:	0c1b      	lsrs	r3, r3, #16
    2f94:	f3c3 020b 	ubfx	r2, r3, #0, #12
    2f98:	68fb      	ldr	r3, [r7, #12]
    2f9a:	4413      	add	r3, r2
    2f9c:	3308      	adds	r3, #8
    2f9e:	461a      	mov	r2, r3
    2fa0:	f44f 3380 	mov.w	r3, #65536	; 0x10000
    2fa4:	6013      	str	r3, [r2, #0]
    2fa6:	bf00      	nop
    2fa8:	3714      	adds	r7, #20
    2faa:	46bd      	mov	sp, r7
    2fac:	f85d 7b04 	ldr.w	r7, [sp], #4
    2fb0:	4770      	bx	lr

00002fb2 <IOMUXC_SetSaiMClkClockSource>:
    2fb2:	b480      	push	{r7}
    2fb4:	b085      	sub	sp, #20
    2fb6:	af00      	add	r7, sp, #0
    2fb8:	6078      	str	r0, [r7, #4]
    2fba:	460b      	mov	r3, r1
    2fbc:	70fb      	strb	r3, [r7, #3]
    2fbe:	4613      	mov	r3, r2
    2fc0:	70bb      	strb	r3, [r7, #2]
    2fc2:	78fb      	ldrb	r3, [r7, #3]
    2fc4:	2b03      	cmp	r3, #3
    2fc6:	d912      	bls.n	2fee <IOMUXC_SetSaiMClkClockSource+0x3c>
    2fc8:	687b      	ldr	r3, [r7, #4]
    2fca:	685a      	ldr	r2, [r3, #4]
    2fcc:	78fb      	ldrb	r3, [r7, #3]
    2fce:	2103      	movs	r1, #3
    2fd0:	fa01 f303 	lsl.w	r3, r1, r3
    2fd4:	43db      	mvns	r3, r3
    2fd6:	4013      	ands	r3, r2
    2fd8:	60fb      	str	r3, [r7, #12]
    2fda:	78bb      	ldrb	r3, [r7, #2]
    2fdc:	f003 0203 	and.w	r2, r3, #3
    2fe0:	78fb      	ldrb	r3, [r7, #3]
    2fe2:	409a      	lsls	r2, r3
    2fe4:	68fb      	ldr	r3, [r7, #12]
    2fe6:	431a      	orrs	r2, r3
    2fe8:	687b      	ldr	r3, [r7, #4]
    2fea:	605a      	str	r2, [r3, #4]
    2fec:	e011      	b.n	3012 <IOMUXC_SetSaiMClkClockSource+0x60>
    2fee:	687b      	ldr	r3, [r7, #4]
    2ff0:	685a      	ldr	r2, [r3, #4]
    2ff2:	78fb      	ldrb	r3, [r7, #3]
    2ff4:	2107      	movs	r1, #7
    2ff6:	fa01 f303 	lsl.w	r3, r1, r3
    2ffa:	43db      	mvns	r3, r3
    2ffc:	4013      	ands	r3, r2
    2ffe:	60fb      	str	r3, [r7, #12]
    3000:	78bb      	ldrb	r3, [r7, #2]
    3002:	f003 0207 	and.w	r2, r3, #7
    3006:	78fb      	ldrb	r3, [r7, #3]
    3008:	409a      	lsls	r2, r3
    300a:	68fb      	ldr	r3, [r7, #12]
    300c:	431a      	orrs	r2, r3
    300e:	687b      	ldr	r3, [r7, #4]
    3010:	605a      	str	r2, [r3, #4]
    3012:	bf00      	nop
    3014:	3714      	adds	r7, #20
    3016:	46bd      	mov	sp, r7
    3018:	f85d 7b04 	ldr.w	r7, [sp], #4
    301c:	4770      	bx	lr

0000301e <CLOCK_EnableClock>:
    301e:	b580      	push	{r7, lr}
    3020:	b082      	sub	sp, #8
    3022:	af00      	add	r7, sp, #0
    3024:	4603      	mov	r3, r0
    3026:	80fb      	strh	r3, [r7, #6]
    3028:	f9b7 3006 	ldrsh.w	r3, [r7, #6]
    302c:	2103      	movs	r1, #3
    302e:	4618      	mov	r0, r3
    3030:	f7ff f9ae 	bl	2390 <CLOCK_ControlGate>
    3034:	bf00      	nop
    3036:	3708      	adds	r7, #8
    3038:	46bd      	mov	sp, r7
    303a:	bd80      	pop	{r7, pc}

0000303c <IOMUXC_SetPinMux>:
    303c:	b480      	push	{r7}
    303e:	b085      	sub	sp, #20
    3040:	af00      	add	r7, sp, #0
    3042:	60f8      	str	r0, [r7, #12]
    3044:	60b9      	str	r1, [r7, #8]
    3046:	607a      	str	r2, [r7, #4]
    3048:	603b      	str	r3, [r7, #0]
    304a:	68bb      	ldr	r3, [r7, #8]
    304c:	f003 010f 	and.w	r1, r3, #15
    3050:	69fb      	ldr	r3, [r7, #28]
    3052:	011b      	lsls	r3, r3, #4
    3054:	f003 0210 	and.w	r2, r3, #16
    3058:	68fb      	ldr	r3, [r7, #12]
    305a:	430a      	orrs	r2, r1
    305c:	601a      	str	r2, [r3, #0]
    305e:	687b      	ldr	r3, [r7, #4]
    3060:	2b00      	cmp	r3, #0
    3062:	d002      	beq.n	306a <IOMUXC_SetPinMux+0x2e>
    3064:	687b      	ldr	r3, [r7, #4]
    3066:	683a      	ldr	r2, [r7, #0]
    3068:	601a      	str	r2, [r3, #0]
    306a:	bf00      	nop
    306c:	3714      	adds	r7, #20
    306e:	46bd      	mov	sp, r7
    3070:	f85d 7b04 	ldr.w	r7, [sp], #4
    3074:	4770      	bx	lr

00003076 <__main>:
    3076:	b508      	push	{r3, lr}
    3078:	f7ff fb70 	bl	275c <_initio>
    307c:	e8bd 4008 	ldmia.w	sp!, {r3, lr}
    3080:	f7fd ba1a 	b.w	4b8 <main>

00003084 <__sys_appexit>:
    3084:	e7fe      	b.n	3084 <__sys_appexit>

00003086 <memset>:
    3086:	f000 ba82 	b.w	358e <__aeabi_lowlevel_memset>

0000308a <_deferredlazyseek>:
    308a:	68c3      	ldr	r3, [r0, #12]
    308c:	6982      	ldr	r2, [r0, #24]
    308e:	f023 0320 	bic.w	r3, r3, #32
    3092:	b510      	push	{r4, lr}
    3094:	60c3      	str	r3, [r0, #12]
    3096:	4604      	mov	r4, r0
    3098:	6a83      	ldr	r3, [r0, #40]	; 0x28
    309a:	429a      	cmp	r2, r3
    309c:	d00e      	beq.n	30bc <_deferredlazyseek+0x32>
    309e:	f000 f8b4 	bl	320a <_fflush>
    30a2:	68e3      	ldr	r3, [r4, #12]
    30a4:	f423 5340 	bic.w	r3, r3, #12288	; 0x3000
    30a8:	f023 0310 	bic.w	r3, r3, #16
    30ac:	f043 0310 	orr.w	r3, r3, #16
    30b0:	60e3      	str	r3, [r4, #12]
    30b2:	6aa3      	ldr	r3, [r4, #40]	; 0x28
    30b4:	61a3      	str	r3, [r4, #24]
    30b6:	6923      	ldr	r3, [r4, #16]
    30b8:	62e3      	str	r3, [r4, #44]	; 0x2c
    30ba:	6023      	str	r3, [r4, #0]
    30bc:	68e3      	ldr	r3, [r4, #12]
    30be:	f423 4380 	bic.w	r3, r3, #16384	; 0x4000
    30c2:	f023 0340 	bic.w	r3, r3, #64	; 0x40
    30c6:	60e3      	str	r3, [r4, #12]
    30c8:	bd10      	pop	{r4, pc}

000030ca <__flsbuf>:
    30ca:	68cb      	ldr	r3, [r1, #12]
    30cc:	f423 2200 	bic.w	r2, r3, #524288	; 0x80000
    30d0:	b570      	push	{r4, r5, r6, lr}
    30d2:	460c      	mov	r4, r1
    30d4:	60ca      	str	r2, [r1, #12]
    30d6:	0699      	lsls	r1, r3, #26
    30d8:	4605      	mov	r5, r0
    30da:	d502      	bpl.n	30e2 <__flsbuf+0x18>
    30dc:	4620      	mov	r0, r4
    30de:	f7ff ffd4 	bl	308a <_deferredlazyseek>
    30e2:	e9d4 3602 	ldrd	r3, r6, [r4, #8]
    30e6:	1c5a      	adds	r2, r3, #1
    30e8:	da10      	bge.n	310c <__flsbuf+0x42>
    30ea:	05b0      	lsls	r0, r6, #22
    30ec:	d40e      	bmi.n	310c <__flsbuf+0x42>
    30ee:	f1c3 23ff 	rsb	r3, r3, #4278255360	; 0xff00ff00
    30f2:	f446 3690 	orr.w	r6, r6, #73728	; 0x12000
    30f6:	f503 037f 	add.w	r3, r3, #16711680	; 0xff0000
    30fa:	60e6      	str	r6, [r4, #12]
    30fc:	33fe      	adds	r3, #254	; 0xfe
    30fe:	60a3      	str	r3, [r4, #8]
    3100:	6823      	ldr	r3, [r4, #0]
    3102:	1c5a      	adds	r2, r3, #1
    3104:	6022      	str	r2, [r4, #0]
    3106:	701d      	strb	r5, [r3, #0]
    3108:	b2e8      	uxtb	r0, r5
    310a:	bd70      	pop	{r4, r5, r6, pc}
    310c:	f241 028a 	movw	r2, #4234	; 0x108a
    3110:	4032      	ands	r2, r6
    3112:	2a02      	cmp	r2, #2
    3114:	d007      	beq.n	3126 <__flsbuf+0x5c>
    3116:	2300      	movs	r3, #0
    3118:	f046 0680 	orr.w	r6, r6, #128	; 0x80
    311c:	60a3      	str	r3, [r4, #8]
    311e:	60e6      	str	r6, [r4, #12]
    3120:	f04f 30ff 	mov.w	r0, #4294967295
    3124:	e7f1      	b.n	310a <__flsbuf+0x40>
    3126:	f24a 0310 	movw	r3, #40976	; 0xa010
    312a:	4033      	ands	r3, r6
    312c:	f5b3 4f00 	cmp.w	r3, #32768	; 0x8000
    3130:	d10a      	bne.n	3148 <__flsbuf+0x7e>
    3132:	2100      	movs	r1, #0
    3134:	4620      	mov	r0, r4
    3136:	f7ff fa6d 	bl	2614 <fseek>
    313a:	68e3      	ldr	r3, [r4, #12]
    313c:	0699      	lsls	r1, r3, #26
    313e:	d502      	bpl.n	3146 <__flsbuf+0x7c>
    3140:	4620      	mov	r0, r4
    3142:	f7ff ffa2 	bl	308a <_deferredlazyseek>
    3146:	68e6      	ldr	r6, [r4, #12]
    3148:	f446 3390 	orr.w	r3, r6, #73728	; 0x12000
    314c:	f416 6f70 	tst.w	r6, #3840	; 0xf00
    3150:	60e3      	str	r3, [r4, #12]
    3152:	d10e      	bne.n	3172 <__flsbuf+0xa8>
    3154:	6960      	ldr	r0, [r4, #20]
    3156:	f000 fa39 	bl	35cc <__sys_istty>
    315a:	b300      	cbz	r0, 319e <__flsbuf+0xd4>
    315c:	0572      	lsls	r2, r6, #21
    315e:	d51e      	bpl.n	319e <__flsbuf+0xd4>
    3160:	f104 0324 	add.w	r3, r4, #36	; 0x24
    3164:	6123      	str	r3, [r4, #16]
    3166:	6023      	str	r3, [r4, #0]
    3168:	2301      	movs	r3, #1
    316a:	61e3      	str	r3, [r4, #28]
    316c:	f446 3392 	orr.w	r3, r6, #74752	; 0x12400
    3170:	60e3      	str	r3, [r4, #12]
    3172:	f413 6f10 	tst.w	r3, #2304	; 0x900
    3176:	6821      	ldr	r1, [r4, #0]
    3178:	6926      	ldr	r6, [r4, #16]
    317a:	d026      	beq.n	31ca <__flsbuf+0x100>
    317c:	6ae3      	ldr	r3, [r4, #44]	; 0x2c
    317e:	4299      	cmp	r1, r3
    3180:	bf2c      	ite	cs
    3182:	ebc6 0101 	rsbcs	r1, r6, r1
    3186:	ebc6 0103 	rsbcc	r1, r6, r3
    318a:	b9b9      	cbnz	r1, 31bc <__flsbuf+0xf2>
    318c:	1c73      	adds	r3, r6, #1
    318e:	62e3      	str	r3, [r4, #44]	; 0x2c
    3190:	6023      	str	r3, [r4, #0]
    3192:	69e3      	ldr	r3, [r4, #28]
    3194:	1e5a      	subs	r2, r3, #1
    3196:	6323      	str	r3, [r4, #48]	; 0x30
    3198:	60a2      	str	r2, [r4, #8]
    319a:	7035      	strb	r5, [r6, #0]
    319c:	e7b4      	b.n	3108 <__flsbuf+0x3e>
    319e:	f44f 7080 	mov.w	r0, #256	; 0x100
    31a2:	f7ff fa27 	bl	25f4 <_Csys_alloc>
    31a6:	f44f 7380 	mov.w	r3, #256	; 0x100
    31aa:	68e2      	ldr	r2, [r4, #12]
    31ac:	61e3      	str	r3, [r4, #28]
    31ae:	f446 3394 	orr.w	r3, r6, #75776	; 0x12800
    31b2:	6120      	str	r0, [r4, #16]
    31b4:	431a      	orrs	r2, r3
    31b6:	6020      	str	r0, [r4, #0]
    31b8:	60e2      	str	r2, [r4, #12]
    31ba:	e7da      	b.n	3172 <__flsbuf+0xa8>
    31bc:	4622      	mov	r2, r4
    31be:	4630      	mov	r0, r6
    31c0:	f7ff f97e 	bl	24c0 <_Cwritebuf>
    31c4:	2800      	cmp	r0, #0
    31c6:	d0e1      	beq.n	318c <__flsbuf+0xc2>
    31c8:	e7aa      	b.n	3120 <__flsbuf+0x56>
    31ca:	1c4a      	adds	r2, r1, #1
    31cc:	b2ed      	uxtb	r5, r5
    31ce:	6022      	str	r2, [r4, #0]
    31d0:	700d      	strb	r5, [r1, #0]
    31d2:	6ae2      	ldr	r2, [r4, #44]	; 0x2c
    31d4:	6821      	ldr	r1, [r4, #0]
    31d6:	4291      	cmp	r1, r2
    31d8:	bf2c      	ite	cs
    31da:	ebc6 0101 	rsbcs	r1, r6, r1
    31de:	ebc6 0102 	rsbcc	r1, r6, r2
    31e2:	69e2      	ldr	r2, [r4, #28]
    31e4:	055b      	lsls	r3, r3, #21
    31e6:	6322      	str	r2, [r4, #48]	; 0x30
    31e8:	d403      	bmi.n	31f2 <__flsbuf+0x128>
    31ea:	2d0a      	cmp	r5, #10
    31ec:	d001      	beq.n	31f2 <__flsbuf+0x128>
    31ee:	428a      	cmp	r2, r1
    31f0:	dc09      	bgt.n	3206 <__flsbuf+0x13c>
    31f2:	2300      	movs	r3, #0
    31f4:	62e6      	str	r6, [r4, #44]	; 0x2c
