
evkmimxrt1060_cmsis_lpspi_ethernet_library.axf:     file format elf32-littlearm
evkmimxrt1060_cmsis_lpspi_ethernet_library.axf
architecture: armv7e-m, flags 0x00000112:
EXEC_P, HAS_SYMS, D_PAGED
start address 0x60001000

Program Header:
    LOAD off    0x00010018 vaddr 0x20000018 paddr 0x20000018 align 2**16
         filesz 0x00000000 memsz 0x000021f4 flags rw-
    LOAD off    0x00010000 vaddr 0x60000000 paddr 0x60000000 align 2**16
         filesz 0x00002060 memsz 0x00002060 flags rwx
    LOAD off    0x00020000 vaddr 0x00000000 paddr 0x60002060 align 2**16
         filesz 0x0000a1c4 memsz 0x0000a1c4 flags r-x
    LOAD off    0x00030000 vaddr 0x20000000 paddr 0x6000c224 align 2**16
         filesz 0x00000018 memsz 0x00000018 flags rw-
private flags = 5000400: [Version5 EABI] [hard-float ABI]

Sections:
Idx Name          Size      VMA       LMA       File off  Algn
  0 .boot_hdr     00002000  60000000  60000000  00010000  2**2
                  CONTENTS, ALLOC, LOAD, DATA
  1 .teensy_boot  00000060  60002000  60002000  00012000  2**3
                  CONTENTS, ALLOC, LOAD, READONLY, CODE
  2 .text         0000a1c4  00000000  60002060  00020000  2**3
                  CONTENTS, ALLOC, LOAD, READONLY, CODE
  3 .data_RAM     00000000  0000a1c4  0000a1c4  00030018  2**0
                  CONTENTS
  4 .data         00000018  20000000  6000c224  00030000  2**2
                  CONTENTS, ALLOC, LOAD, DATA
  5 .data_RAM3    00000000  20200000  20200000  00030018  2**2
                  CONTENTS
  6 .bss_RAM      00000000  0000a1c4  0000a1c4  00030018  2**0
                  CONTENTS
  7 .bss          000001f4  20000018  20000018  00010018  2**2
                  ALLOC
  8 .bss_RAM3     00000000  20200000  20200000  00030018  2**0
                  CONTENTS
  9 .uninit_RESERVED 00000000  20000000  20000000  00030018  2**0
                  CONTENTS
 10 .noinit_RAM   00000000  0000a1c4  0000a1c4  00030018  2**0
                  CONTENTS
 11 .noinit_RAM3  00000000  20200000  20200000  00030018  2**0
                  CONTENTS
 12 .noinit       00000000  2000020c  2000020c  00030018  2**0
                  CONTENTS
 13 .heap         00001000  2000020c  2000020c  00010018  2**2
                  ALLOC
 14 .stack        00001000  2000120c  2000120c  00010018  2**2
                  ALLOC
 15 .debug_info   000153d4  00000000  00000000  00030018  2**0
                  CONTENTS, READONLY, DEBUGGING
 16 .debug_abbrev 00002aca  00000000  00000000  000453ec  2**0
                  CONTENTS, READONLY, DEBUGGING
 17 .debug_aranges 00001110  00000000  00000000  00047eb6  2**0
                  CONTENTS, READONLY, DEBUGGING
 18 .debug_ranges 00000fe0  00000000  00000000  00048fc6  2**0
                  CONTENTS, READONLY, DEBUGGING
 19 .debug_macro  00003a0f  00000000  00000000  00049fa6  2**0
                  CONTENTS, READONLY, DEBUGGING
 20 .debug_line   0000a824  00000000  00000000  0004d9b5  2**0
                  CONTENTS, READONLY, DEBUGGING
 21 .debug_str    0016f42f  00000000  00000000  000581d9  2**0
                  CONTENTS, READONLY, DEBUGGING
 22 .comment      00000075  00000000  00000000  001c7608  2**0
                  CONTENTS, READONLY
 23 .ARM.attributes 00000035  00000000  00000000  001c767d  2**0
                  CONTENTS, READONLY
 24 .debug_frame  00003dd4  00000000  00000000  001c76b4  2**2
                  CONTENTS, READONLY, DEBUGGING
SYMBOL TABLE:
60000000 l    d  .boot_hdr	00000000 .boot_hdr
60002000 l    d  .teensy_boot	00000000 .teensy_boot
00000000 l    d  .text	00000000 .text
0000a1c4 l    d  .data_RAM	00000000 .data_RAM
20000000 l    d  .data	00000000 .data
20200000 l    d  .data_RAM3	00000000 .data_RAM3
0000a1c4 l    d  .bss_RAM	00000000 .bss_RAM
20000018 l    d  .bss	00000000 .bss
20200000 l    d  .bss_RAM3	00000000 .bss_RAM3
20000000 l    d  .uninit_RESERVED	00000000 .uninit_RESERVED
0000a1c4 l    d  .noinit_RAM	00000000 .noinit_RAM
20200000 l    d  .noinit_RAM3	00000000 .noinit_RAM3
2000020c l    d  .noinit	00000000 .noinit
2000020c l    d  .heap	00000000 .heap
2000120c l    d  .stack	00000000 .stack
00000000 l    d  .debug_info	00000000 .debug_info
00000000 l    d  .debug_abbrev	00000000 .debug_abbrev
00000000 l    d  .debug_aranges	00000000 .debug_aranges
00000000 l    d  .debug_ranges	00000000 .debug_ranges
00000000 l    d  .debug_macro	00000000 .debug_macro
00000000 l    d  .debug_line	00000000 .debug_line
00000000 l    d  .debug_str	00000000 .debug_str
00000000 l    d  .comment	00000000 .comment
00000000 l    d  .ARM.attributes	00000000 .ARM.attributes
00000000 l    d  .debug_frame	00000000 .debug_frame
00000000 l    df *ABS*	00000000 startup_mimxrt1062.c
6000203c l     F .teensy_boot	00000016 memory_copy
00000000 l    df *ABS*	00000000 fsl_lpspi.c
00001bb4 l     F .text	0000003c __NVIC_EnableIRQ
00001bf0 l     F .text	00000064 CLOCK_ControlGate
000061ba l     F .text	0000001e CLOCK_EnableClock
000061d8 l     F .text	0000001e CLOCK_DisableClock
000061f6 l     F .text	0000002c EnableIRQ
00006222 l     F .text	00000038 LPSPI_Enable
0000625a l     F .text	00000018 LPSPI_GetStatusFlags
00006272 l     F .text	00000022 LPSPI_GetRxFifoSize
00006294 l     F .text	0000001c LPSPI_GetTxFifoCount
000062b0 l     F .text	0000001e LPSPI_GetRxFifoCount
000062ce l     F .text	0000001c LPSPI_ClearStatusFlags
000062ea l     F .text	00000022 LPSPI_EnableInterrupts
0000630c l     F .text	00000024 LPSPI_DisableInterrupts
00006330 l     F .text	0000002c LPSPI_SetMasterSlaveMode
0000635c l     F .text	00000026 LPSPI_IsMaster
00006382 l     F .text	00000030 LPSPI_FlushFifo
000063b2 l     F .text	0000002c LPSPI_SetFifoWatermarks
000063de l     F .text	0000001c LPSPI_WriteData
000063fa l     F .text	00000018 LPSPI_ReadData
00008f04 l     O .text	00000008 s_baudratePrescaler
00008f0c l     O .text	00000014 s_lpspiBases
00008f20 l     O .text	0000000a s_lpspiIRQ
00008f2c l     O .text	0000000a s_lpspiClocks
200000c8 l     O .bss	00000014 s_lpspiHandle
200000dc l     O .bss	00000004 s_lpspiMasterIsr
200000e0 l     O .bss	00000004 s_lpspiSlaveIsr
00006444 l     F .text	00000044 LPSPI_SetOnePcsPolarity
00002f18 l     F .text	000001bc LPSPI_CombineWriteData
000030d4 l     F .text	000001a8 LPSPI_SeparateReadData
00002508 l     F .text	00000110 LPSPI_MasterTransferFillUpTxFifo
00002618 l     F .text	0000004c LPSPI_MasterTransferComplete
00002b7c l     F .text	000000a0 LPSPI_SlaveTransferFillUpTxFifo
00002c1c l     F .text	00000068 LPSPI_SlaveTransferComplete
0000327c l     F .text	0000003c LPSPI_CommonIRQHandler
00000000 l    df *ABS*	00000000 fsl_debug_console.c
20000018 l     O .bss	0000001c s_debugConsoleState
00005708 l     F .text	00000064 DbgConsole_PrintCallback
00000000 l    df *ABS*	00000000 cmsis_lpspi_int_b2b_transfer_master.c
00000000 l    df *ABS*	00000000 ethernet_lib.c
00000000 l    df *ABS*	00000000 fsl_clock.c
00000cb8 l     F .text	00000030 CLOCK_GetOscFreq
000060d8 l     F .text	00000032 CLOCK_IsPllBypassed
0000610a l     F .text	0000003c CLOCK_IsPllEnabled
00006146 l     F .text	00000034 CLOCK_GetPllBypassRefClk
00000000 l    df *ABS*	00000000 fsl_edma.c
20000048 l     O .bss	00000080 s_EDMAHandle
00000000 l    df *ABS*	00000000 fsl_gpio.c
00001910 l     F .text	00000064 CLOCK_ControlGate
0000617a l     F .text	0000001e CLOCK_EnableClock
00006198 l     F .text	00000022 GPIO_SetPinInterruptConfig
0000893c l     O .text	00000028 s_gpioBases
00008964 l     O .text	0000000c s_gpioClock
00001974 l     F .text	0000004c GPIO_GetInstance
00000000 l    df *ABS*	00000000 fsl_lpspi_cmsis.c
00003378 l     F .text	00000064 CLOCK_ControlGate
00006488 l     F .text	0000001e CLOCK_EnableClock
000064a6 l     F .text	00000038 LPSPI_Enable
000064de l     F .text	0000002c LPSPI_SetMasterSlaveMode
0000650a l     F .text	00000026 LPSPI_IsMaster
00008f64 l     O .text	0000000a s_lpspiClock
00008f70 l     O .text	00000004 s_lpspiDriverVersion
00006530 l     F .text	000002ea LPSPI_CommonControl
0000681a l     F .text	000000a2 LPSPI_SetTransferConfigFlags
000033dc l     F .text	0000002c LPSPIx_GetVersion
000068bc l     F .text	00000014 LPSPIx_GetCapabilities
00006962 l     F .text	00000030 LPSPI_InterruptInitialize
00006992 l     F .text	0000001c LPSPI_InterruptUninitialize
00003408 l     F .text	00000098 LPSPI_InterruptPowerControl
000069ae l     F .text	000000c6 LPSPI_InterruptSend
00006a74 l     F .text	000000c6 LPSPI_InterruptReceive
00006b3a l     F .text	000000c8 LPSPI_InterruptTransfer
00006c02 l     F .text	00000040 LPSPI_InterruptGetCount
000034a0 l     F .text	00000264 LPSPI_InterruptControl
00003704 l     F .text	00000024 LPSPI4_InterruptInitialize
00003728 l     F .text	00000018 LPSPI4_InterruptUninitialize
00003740 l     F .text	00000024 LPSPI4_InterruptPowerControl
00003764 l     F .text	00000024 LPSPI4_InterruptSend
00003788 l     F .text	00000024 LPSPI4_InterruptReceive
000037ac l     F .text	00000028 LPSPI4_InterruptTransfer
000037d4 l     F .text	00000014 LPSPI4_InterruptGetCount
000037e8 l     F .text	00000024 LPSPI4_InterruptControl
0000380c l     F .text	00000014 LPSPI4_InterruptGetStatus
00000000 l    df *ABS*	00000000 fsl_lpuart.c
00003820 l     F .text	00000064 CLOCK_ControlGate
00006cf4 l     F .text	0000001e CLOCK_EnableClock
00006d12 l     F .text	0000002c LPUART_SoftwareReset
00009660 l     O .text	00000024 s_lpuartBases
20000120 l     O .bss	00000024 s_lpuartHandle
00009684 l     O .text	00000012 s_lpuartClock
20000144 l     O .bss	00000004 s_lpuartIsr
00000000 l    df *ABS*	00000000 system_MIMXRT1062.c
00003dd0 l     F .text	00000040 SCB_EnableICache
00003e10 l     F .text	00000080 SCB_EnableDCache
00000000 l    df *ABS*	00000000 lpuart_adapter.c
00009698 l     O .text	00000024 s_LpuartAdapterBase
00006d4c l     F .text	00000022 HAL_UartGetStatus
00000000 l    df *ABS*	00000000 serial_manager.c
00006d6e l     F .text	0000004a SerialManager_StartWriting
000040e8 l     F .text	0000006c SerialManager_Write
00000000 l    df *ABS*	00000000 serial_port_uart.c
00000000 l    df *ABS*	00000000 board.c
00004358 l     F .text	0000003c ARM_MPU_Enable
00004394 l     F .text	00000038 ARM_MPU_Disable
000043cc l     F .text	00000040 SCB_EnableICache
0000440c l     F .text	00000038 SCB_DisableICache
00004444 l     F .text	00000080 SCB_EnableDCache
000044c4 l     F .text	00000068 SCB_DisableDCache
0000452c l     F .text	00000044 CLOCK_GetMux
00004570 l     F .text	00000044 CLOCK_GetDiv
000045b4 l     F .text	00000030 CLOCK_GetOscFreq
00000000 l    df *ABS*	00000000 clock_config.c
00004748 l     F .text	0000009c CLOCK_SetMux
000047e4 l     F .text	0000009c CLOCK_SetDiv
00004880 l     F .text	00000064 CLOCK_ControlGate
00006dfa l     F .text	0000001e CLOCK_DisableClock
000048e4 l     F .text	00000020 CLOCK_SetXtalFreq
00004904 l     F .text	00000020 CLOCK_SetRtcXtalFreq
00006e18 l     F .text	0000004e CLOCK_SetPllBypass
00004924 l     F .text	00000048 IOMUXC_EnableMode
00006e66 l     F .text	0000006c IOMUXC_SetSaiMClkClockSource
0000496c l     F .text	00000044 IOMUXC_MQSConfig
00000000 l    df *ABS*	00000000 pin_mux.c
00005038 l     F .text	00000064 CLOCK_ControlGate
00006ed2 l     F .text	0000001e CLOCK_EnableClock
00006ef0 l     F .text	0000003a IOMUXC_SetPinMux
00006f2a l     F .text	00000026 IOMUXC_SetPinConfig
00000000 l    df *ABS*	00000000 _cr_assert.c
00000000 l    df *ABS*	00000000 _writebuf.c
00000000 l    df *ABS*	00000000 alloc.c
00000000 l    df *ABS*	00000000 fseek.c
00000000 l    df *ABS*	00000000 ftell.c
00000000 l    df *ABS*	00000000 initio.c
00000000 l    df *ABS*	00000000 setvbuf.c
00000000 l    df *ABS*	00000000 _cr_sbrk.c
00000000 l    df *ABS*	00000000 fflush.c
00000000 l    df *ABS*	00000000 _cr_check_heap.c
00000000 l    df *ABS*	00000000 fsl_str.c
0000576c l     F .text	00000114 ConvertRadixNumToString
00000000 l    df *ABS*	00000000 semihost_hardfault.c
0000608a l       .text	00000000 _MSP
0000608e l       .text	00000000 _process
0000609c l       .text	00000000 _semihost_return
00000000 l    df *ABS*	00000000 _cr__main.c
00000000 l    df *ABS*	00000000 __sys_appexit.c
00000000 l    df *ABS*	00000000 memset.c
00000000 l    df *ABS*	00000000 _deferredlazyseek.c
00000000 l    df *ABS*	00000000 _fflush.c
00000000 l    df *ABS*	00000000 fputs.c
00000000 l    df *ABS*	00000000 strlen.c
00000000 l    df *ABS*	00000000 _fdopen.c
00000000 l    df *ABS*	00000000 fclose.c
00000000 l    df *ABS*	00000000 remove.c
00000000 l    df *ABS*	00000000 _do_fflush.c
00000000 l    df *ABS*	00000000 division_64.o
0000735e l       .text	00000000 ldiv64
000073fc l       .text	00000000 ldiv_divzero
0000732e l       .text	00000000 ldiv32
00007408 l       .text	00000000 udiv6432
00007336 l       .text	00000000 ldiv_return
0000734c l       .text	00000000 ldiv_sign
000073e6 l       .text	00000000 ldiv_res01
00007424 l       .text	00000000 udiv6432_entry
00007410 l       .text	00000000 udiv6432_loop1
00007426 l       .text	00000000 udiv6432_loop
00000000 l    df *ABS*	00000000 division_idiv0.o
00000000 l    df *ABS*	00000000 memcpy.o
000074aa l       .text	00000000 memset1a
00007498 l       .text	00000000 __bhs_memset4
0000749a l       .text	00000000 memset4
000074a6 l       .text	00000000 memset1
00000000 l    df *ABS*	00000000 __sys_close.c
00000000 l    df *ABS*	00000000 __sys_flen.c
00000000 l    df *ABS*	00000000 __sys_istty.c
00000000 l    df *ABS*	00000000 __sys_remove.c
00000000 l    df *ABS*	00000000 __sys_seek.c
00000000 l    df *ABS*	00000000 __sys_tmpnam.c
00000000 l    df *ABS*	00000000 __sys_write.c
00000000 l    df *ABS*	00000000 __ciob.c
60002058 l     F .teensy_boot	00000008 __ResetISR_veneer
0000037a  w    F .text	00000002 ACMP4_DriverIRQHandler
00005d94  w    F .text	00000008 USB_PHY1_IRQHandler
00000380 g     F .text	0000020c LPSPI_MasterSetDelayTimes
0000037a  w    F .text	00000002 Reserved87_DriverIRQHandler
00003dac g     F .text	00000024 LPUART8_DriverIRQHandler
00001ca4 g     F .text	0000002c LPSPI_SetDummyData
60000000 g       *ABS*	00000000 __boot_hdr_start__
00005b9c  w    F .text	00000008 DMA2_DMA18_IRQHandler
0000037a  w    F .text	00000002 KPP_DriverIRQHandler
00006f6c g     F .text	0000000e __main
0000037a  w    F .text	00000002 FLEXSPI2_DriverIRQHandler
000032e8 g     F .text	00000030 LPSPI2_DriverIRQHandler
000038d0 g     F .text	000002fe LPUART_Init
00005d3c  w    F .text	00000008 SJC_IRQHandler
00005f3c  w    F .text	00000008 ADC_ETC_IRQ0_IRQHandler
00000000 g     O .text	000002b8 __Vectors
00006f80 g     F .text	00000040 _deferredlazyseek
0000037a  w    F .text	00000002 LCDIF_DriverIRQHandler
0000037a  w    F .text	00000002 SAI3_RX_DriverIRQHandler
0000037a  w    F .text	00000002 CCM_2_DriverIRQHandler
0000037a  w    F .text	00000002 PIT_DriverIRQHandler
000002b8 g       .text	00000000 __section_table_start
00006f7a  w    F .text	00000002 __exit
0000037a  w    F .text	00000002 PMU_EVENT_DriverIRQHandler
00005cec  w    F .text	00000008 PXP_IRQHandler
0000037a  w    F .text	00000002 PWM4_FAULT_DriverIRQHandler
00001838 g     F .text	00000048 DMA13_DMA29_DriverIRQHandler
0000a148 g     O .text	00000014 sysPllConfig_BOARD_BootClockRUN
000074d4 g     F .text	00000006 __sys_tmpnam
00001fd0 g     F .text	000000f0 LPSPI_MasterSetBaudRate
00006dd8 g     F .text	00000022 BOARD_InitDebugConsole
0000037a  w    F .text	00000002 FLEXRAM_DriverIRQHandler
0000607c g     F .text	0000002c HardFault_Handler
00005dbc  w    F .text	00000008 Reserved86_IRQHandler
00000000 g       *ABS*	00000000 __vectors_start__
00005e9c  w    F .text	00000008 SRC_IRQHandler
00003348 g     F .text	00000030 LPSPI4_DriverIRQHandler
00001000 g       *ABS*	00000000 _HeapSize
000060a8 g     F .text	00000030 _delay_ms
00001dec g     F .text	00000098 LPSPI_MasterGetDefaultConfig
0000037a  w    F .text	00000002 SEMC_DriverIRQHandler
00005ba4  w    F .text	00000008 DMA3_DMA19_IRQHandler
00005e1c  w    F .text	00000008 GPIO2_Combined_0_15_IRQHandler
0000037a  w    F .text	00000002 SPDIF_DriverIRQHandler
00005ddc  w    F .text	00000008 GPIO1_INT2_IRQHandler
00005ce4  w    F .text	00000008 CSI_IRQHandler
00000378  w    F .text	00000002 SysTick_Handler
0000037a  w    F .text	00000002 PWM4_3_DriverIRQHandler
0000037a  w    F .text	00000002 ENET2_DriverIRQHandler
601f0000 g       *ABS*	00000000 __top_Flash_00
00003c58 g     F .text	00000058 LPUART_WriteBlocking
20200000 g       *ABS*	00000000 __base_SRAM_OC
00005d0c  w    F .text	00000008 SNVS_LP_WRAPPER_IRQHandler
00005f9c  w    F .text	00000008 ENC2_IRQHandler
60002060 g       *ABS*	00000000 _itcm_loadstart
00005fe4  w    F .text	00000008 PWM2_2_IRQHandler
20000000 g       *ABS*	00000000 __base_RAM2
00000376  w    F .text	00000002 PendSV_Handler
00000370  w    F .text	00000002 NMI_Handler
0000a1c4 g       .text	00000000 __exidx_end
000002dc g       .text	00000000 __data_section_table_end
00000e14 g     F .text	0000009c CLOCK_InitSysPll
00000eb0 g     F .text	00000018 CLOCK_DeinitUsb2Pll
00006044  w    F .text	00000008 PWM4_FAULT_IRQHandler
00005bfc  w    F .text	00000008 DMA14_DMA30_IRQHandler
00005e04  w    F .text	00000008 GPIO1_INT7_IRQHandler
00006fc0 g     F .text	00000140 __flsbuf
0000037a  w    F .text	00000002 USB_PHY1_DriverIRQHandler
60001000 g     O .boot_hdr	00000020 ImageVectorTable
00005e84  w    F .text	00000008 CCM_1_IRQHandler
00005cac  w    F .text	00000008 CAN1_IRQHandler
0000037a  w    F .text	00000002 GPIO3_Combined_0_15_DriverIRQHandler
0000037a  w    F .text	00000002 CAN3_DriverIRQHandler
200000e4 g     O .bss	00000005 g_lpspiDummyData
00005f44  w    F .text	00000008 ADC_ETC_IRQ1_IRQHandler
0000037a  w    F .text	00000002 Reserved171_DriverIRQHandler
00005bac  w    F .text	00000008 DMA4_DMA20_IRQHandler
00005e64  w    F .text	00000008 FLEXIO2_IRQHandler
00005e5c  w    F .text	00000008 FLEXIO1_IRQHandler
00005c9c  w    F .text	00000008 LPSPI3_IRQHandler
20000204 g     O .bss	00000004 errno
00001688 g     F .text	00000048 DMA7_DMA23_DriverIRQHandler
0000a1c4 g       .text	00000000 _etext
00005c14  w    F .text	00000008 CTI0_ERROR_IRQHandler
0000037a  w    F .text	00000002 BEE_DriverIRQHandler
00005e4c  w    F .text	00000008 GPIO5_Combined_0_15_IRQHandler
00005ebc  w    F .text	00000008 PWM1_0_IRQHandler
00005d2c  w    F .text	00000008 Reserved68_IRQHandler
00000ce8 g     F .text	0000006c CLOCK_InitExternalClk
0000037a  w    F .text	00000002 LPI2C3_DriverIRQHandler
00001330 g     F .text	00000160 EDMA_HandleIRQ
0000037a  w    F .text	00000002 GPR_IRQ_DriverIRQHandler
00005c54  w    F .text	00000008 LPUART6_IRQHandler
00002cc8 g     F .text	00000250 LPSPI_SlaveTransferHandleIRQ
00005d9c  w    F .text	00000008 USB_PHY2_IRQHandler
00005bbc  w    F .text	00000008 DMA6_DMA22_IRQHandler
00004280 g     F .text	00000080 Serial_UartInit
200000ec g     O .bss	00000034 LPSPI4_Handle
00005ccc  w    F .text	00000008 TSC_DIG_IRQHandler
00005bd4  w    F .text	00000008 DMA9_DMA25_IRQHandler
00000d54 g     F .text	00000034 CLOCK_SwitchOsc
00001000 g       *ABS*	00000000 _StackSize
0000037a  w    F .text	00000002 PWM2_FAULT_DriverIRQHandler
0000035e g     F .text	00000012 bss_init
00005e3c  w    F .text	00000008 GPIO4_Combined_0_15_IRQHandler
0000037a  w    F .text	00000002 PWM3_1_DriverIRQHandler
00005c44  w    F .text	00000008 LPUART4_IRQHandler
00005f24  w    F .text	00000008 ENET_1588_Timer_IRQHandler
000041c8 g     F .text	00000058 SerialManager_OpenWriteHandle
20000038 g     O .bss	00000004 masterRxData
00005630 g     F .text	00000040 setvbuf
00008f80 g     O .text	0000002c Driver_SPI4
00005fd4  w    F .text	00000008 PWM2_0_IRQHandler
00005d24  w    F .text	00000008 DCP_VMI_IRQHandler
00005d5c  w    F .text	00000008 SAI3_RX_IRQHandler
00001880 g     F .text	00000048 DMA14_DMA30_DriverIRQHandler
00005ee4  w    F .text	00000008 FLEXSPI2_IRQHandler
0000037a  w    F .text	00000002 TMR1_DriverIRQHandler
0000037a  w    F .text	00000002 TRNG_DriverIRQHandler
0000730e g     F .text	00000174 __aeabi_uldivmod
2000020c g       .noinit	00000000 _noinit
0000037a  w    F .text	00000002 PWM3_2_DriverIRQHandler
60000000 g     O .boot_hdr	00000200 FlexSPI_NOR_Config
0000037a  w    F .text	00000002 ENET_1588_Timer_DriverIRQHandler
00005efc  w    F .text	00000008 USDHC1_IRQHandler
00005fdc  w    F .text	00000008 PWM2_1_IRQHandler
20000014 g     O .data	00000004 SystemCoreClock
00002c84 g     F .text	00000044 LPSPI_SlaveTransferAbort
00005bcc  w    F .text	00000008 DMA8_DMA24_IRQHandler
20000040 g     O .bss	00000004 g_xtalFreq
00005388 g     F .text	000000c8 malloc
000072ba g     F .text	00000014 remove
00005ff4  w    F .text	00000008 PWM2_FAULT_IRQHandler
0000037a  w    F .text	00000002 FLEXIO2_DriverIRQHandler
0000037a  w    F .text	00000002 GPIO2_Combined_16_31_DriverIRQHandler
0000605c  w    F .text	00000008 CAN3_IRQHandler
0000037a  w    F .text	00000002 Reserved143_DriverIRQHandler
00080000 g       *ABS*	00000000 __top_RAM
00006f50 g     F .text	0000000e LPSPI4_InitPins
00005e6c  w    F .text	00000008 WDOG1_IRQHandler
000045e4 g     F .text	00000064 BOARD_DebugConsoleSrcFreq
0000037a  w    F .text	00000002 PWM4_1_DriverIRQHandler
00005ca4  w    F .text	00000008 LPSPI4_IRQHandler
00005d74  w    F .text	00000008 PMU_EVENT_IRQHandler
00003d40 g     F .text	00000024 LPUART5_DriverIRQHandler
00005eac  w    F .text	00000008 GPT1_IRQHandler
aaaaaaaf g       *ABS*	00000000 _flexram_bank_config
00005c34  w    F .text	00000008 LPUART2_IRQHandler
0000602c  w    F .text	00000008 PWM4_1_IRQHandler
00001c54 g     F .text	00000050 LPSPI_GetInstance
000074bc g     F .text	00000006 __sys_flen
00005f0c  w    F .text	00000008 USB_OTG2_IRQHandler
00005f7c  w    F .text	00000008 ACMP4_IRQHandler
00005ef4  w    F .text	00000008 SEMC_IRQHandler
0000037a  w    F .text	00000002 PWM3_3_DriverIRQHandler
00001490 g     F .text	00000048 DMA0_DMA16_DriverIRQHandler
0000037a  w    F .text	00000002 IntDefaultHandler
20080000 g       *ABS*	00000000 __top_RAM2
00000f00 g     F .text	0000001c CLOCK_DeinitEnetPll
2000120c g       .heap	00000000 _pvHeapLimit
00005ec4  w    F .text	00000008 PWM1_1_IRQHandler
00005c3c  w    F .text	00000008 LPUART3_IRQHandler
00001520 g     F .text	00000048 DMA2_DMA18_DriverIRQHandler
000056ac g     F .text	00000044 fflush
00003f84 g     F .text	00000100 HAL_UartInit
00001258 g     F .text	00000064 CLOCK_InitSysPfd
0000037a  w    F .text	00000002 SRC_DriverIRQHandler
00005ffc  w    F .text	00000008 PWM3_0_IRQHandler
20000000 g     O .data	00000014 LPSPI4_InterruptDriverState
0000037a  w    F .text	00000002 GPIO1_INT4_DriverIRQHandler
0000037a  w    F .text	00000002 Reserved144_DriverIRQHandler
0000a1c4 g       .text	00000000 __exidx_start
000052d0 g     F .text	0000004c __assertion_failed
0000037a  w    F .text	00000002 USDHC1_DriverIRQHandler
00006014  w    F .text	00000008 PWM3_3_IRQHandler
00005dcc  w    F .text	00000008 GPIO1_INT0_IRQHandler
0000037a  w    F .text	00000002 ENC3_DriverIRQHandler
00003cd4 g     F .text	00000024 LPUART2_DriverIRQHandler
00008f74 g     O .text	0000000c LPSPI4_Resource
00005c4c  w    F .text	00000008 LPUART5_IRQHandler
0000037a  w    F .text	00000002 PWM3_FAULT_DriverIRQHandler
00005d14  w    F .text	00000008 CSU_IRQHandler
000071fa g     F .text	00000068 _fdopen
00007484 g     F .text	00000032 __aeabi_lowlevel_memset
00005d54  w    F .text	00000008 SAI2_IRQHandler
00005da4  w    F .text	00000008 ADC1_IRQHandler
00005670 g     F .text	0000003c _sbrk
00080000 g       *ABS*	00000000 __top_SRAM_ITC
0000037a  w    F .text	00000002 EWM_DriverIRQHandler
00000dac g     F .text	00000068 CLOCK_InitArmPll
0000037a  w    F .text	00000002 TSC_DIG_DriverIRQHandler
0000037a  w    F .text	00000002 WDOG1_DriverIRQHandler
0000037a  w    F .text	00000002 FLEXIO1_DriverIRQHandler
000002b8 g       .text	00000000 __data_section_table
0000037a  w    F .text	00000002 ENET_DriverIRQHandler
0000037a  w    F .text	00000002 Reserved78_DriverIRQHandler
0000604c  w    F .text	00000008 ENET2_IRQHandler
0000a18c g     O .text	00000004 __num_Ciob_streams
0000037a  w    F .text	00000002 TMR4_DriverIRQHandler
0000037a  w    F .text	00000002 ENC2_DriverIRQHandler
20080000 g       *ABS*	00000000 __top_SRAM_DTC
0000037a  w    F .text	00000002 ADC_ETC_IRQ2_DriverIRQHandler
00003884 g     F .text	0000004c LPUART_GetInstance
2000020c g       .bss	00000000 _ebss
00002664 g     F .text	00000048 LPSPI_MasterTransferAbort
00005e14  w    F .text	00000008 GPIO1_Combined_16_31_IRQHandler
00005c5c  w    F .text	00000008 LPUART7_IRQHandler
00005e74  w    F .text	00000008 RTWDOG_IRQHandler
0000037a  w    F .text	00000002 GPIO1_Combined_16_31_DriverIRQHandler
0000a1dc g       *ABS*	00000000 _image_size
0000037a  w    F .text	00000002 GPIO1_INT7_DriverIRQHandler
00005d7c  w    F .text	00000008 Reserved78_IRQHandler
0000037a  w    F .text	00000002 SAI1_DriverIRQHandler
0000037a  w    F .text	00000002 DCDC_DriverIRQHandler
000017f0 g     F .text	00000048 DMA12_DMA28_DriverIRQHandler
2000003c g     O .bss	00000004 masterTxData
0000037a  w    F .text	00000002 PWM4_0_DriverIRQHandler
00005fa4  w    F .text	00000008 ENC3_IRQHandler
20200000 g       *ABS*	00000000 __base_RAM3
0000037a  w    F .text	00000002 ADC_ETC_ERROR_IRQ_DriverIRQHandler
0000691a g     F .text	00000048 KSDK_LPSPI_SlaveInterruptCallback
0000037a  w    F .text	00000002 ACMP2_DriverIRQHandler
00005e34  w    F .text	00000008 GPIO3_Combined_16_31_IRQHandler
00005e7c  w    F .text	00000008 EWM_IRQHandler
0000037a  w    F .text	00000002 GPIO5_Combined_0_15_DriverIRQHandler
00005d84  w    F .text	00000008 TEMP_LOW_HIGH_IRQHandler
0000037a  w    F .text	00000002 GPIO1_INT0_DriverIRQHandler
0000037a  w    F .text	00000002 GPIO1_INT2_DriverIRQHandler
00000002 g       *ABS*	00000000 _itcm_block_count
00005cf4  w    F .text	00000008 WDOG2_IRQHandler
0000037a  w    F .text	00000002 RTWDOG_DriverIRQHandler
00005df4  w    F .text	00000008 GPIO1_INT5_IRQHandler
0000037a  w    F .text	00000002 FLEXSPI_DriverIRQHandler
00000340 g     F .text	0000001e data_init
00005c8c  w    F .text	00000008 LPSPI1_IRQHandler
0000037a  w    F .text	00000002 GPT2_DriverIRQHandler
00006004  w    F .text	00000008 PWM3_1_IRQHandler
00005fec  w    F .text	00000008 PWM2_3_IRQHandler
60002000 g     O .teensy_boot	00000008 vector_table
00000ec8 g     F .text	0000001c CLOCK_DeinitAudioPll
00005bb4  w    F .text	00000008 DMA5_DMA21_IRQHandler
00005c24  w    F .text	00000008 CORE_IRQHandler
00005be4  w    F .text	00000008 DMA11_DMA27_IRQHandler
60002000 g       *ABS*	00000000 __teensy_vectors_start__
000049b0 g     F .text	00000688 BOARD_BootClockRUN
00005c74  w    F .text	00000008 LPI2C2_IRQHandler
0000037a  w    F .text	00000002 USB_PHY2_DriverIRQHandler
00001760 g     F .text	00000048 DMA10_DMA26_DriverIRQHandler
0000037a  w    F .text	00000002 PWM2_1_DriverIRQHandler
00005d8c  w    F .text	00000008 TEMP_PANIC_IRQHandler
00005dfc  w    F .text	00000008 GPIO1_INT6_IRQHandler
00005ecc  w    F .text	00000008 PWM1_2_IRQHandler
00005470 g     F .text	00000100 fseek
00005f8c  w    F .text	00000008 Reserved144_IRQHandler
0000037a  w    F .text	00000002 PWM1_1_DriverIRQHandler
20000208 g     O .bss	00000001 i
0000081c g     F .text	00000014 LPSPI4_GetFreq
00005cd4  w    F .text	00000008 GPR_IRQ_IRQHandler
20000000 g       *ABS*	00000000 __base_SRAM_DTC
0000037a  w    F .text	00000002 PXP_DriverIRQHandler
60000000 g       *ABS*	00000000 __base_Flash
0000509c g     F .text	00000234 BOARD_InitPins
00005e94  w    F .text	00000008 GPC_IRQHandler
00003cb0 g     F .text	00000024 LPUART1_DriverIRQHandler
00007100 g     F .text	00000052 _fflush
00005db4  w    F .text	00000008 DCDC_IRQHandler
0000037a  w    F .text	00000002 ADC1_DriverIRQHandler
00005e2c  w    F .text	00000008 GPIO3_Combined_0_15_IRQHandler
0000603c  w    F .text	00000008 PWM4_3_IRQHandler
0000037a  w    F .text	00000002 PWM1_0_DriverIRQHandler
00005f04  w    F .text	00000008 USDHC2_IRQHandler
20000018 g       .bss	00000000 _bss
0000037a  w    F .text	00000002 SJC_DriverIRQHandler
00004220 g     F .text	00000060 SerialManager_OpenReadHandle
000014d8 g     F .text	00000048 DMA1_DMA17_DriverIRQHandler
00001ab8 g     F .text	000000fc GPIO_PinSetInterruptConfig
0000037a  w    F .text	00000002 ENC1_DriverIRQHandler
60002060 g       *ABS*	00000000 _image_start
00005f14  w    F .text	00000008 USB_OTG1_IRQHandler
601f0000 g       *ABS*	00000000 __top_Flash
0000037a  w    F .text	00000002 ENC4_DriverIRQHandler
00003d1c g     F .text	00000024 LPUART4_DriverIRQHandler
0000037a  w    F .text	00000002 CAN2_DriverIRQHandler
0000037a  w    F .text	00000002 DCP_DriverIRQHandler
2000020c g       .noinit	00000000 _end_noinit
2000220c g       .stack	00000000 _vStackTop
00005bec  w    F .text	00000008 DMA12_DMA28_IRQHandler
00005e54  w    F .text	00000008 GPIO5_Combined_16_31_IRQHandler
00005fbc  w    F .text	00000008 TMR2_IRQHandler
0000037a  w    F .text	00000002 CTI0_ERROR_DriverIRQHandler
00005f54  w    F .text	00000008 ADC_ETC_ERROR_IRQ_IRQHandler
000016d0 g     F .text	00000048 DMA8_DMA24_DriverIRQHandler
0000037a  w    F .text	00000002 GPT1_DriverIRQHandler
00006034  w    F .text	00000008 PWM4_2_IRQHandler
000002f4 g       .text	00000000 __bss_section_table_end
000056f0 g     F .text	00000018 __check_heap_overflow
0000037a  w    F .text	00000002 ACMP3_DriverIRQHandler
00001640 g     F .text	00000048 DMA6_DMA22_DriverIRQHandler
000012bc g     F .text	00000074 EDMA_GetChannelStatusFlags
0000037a  w    F .text	00000002 CSU_DriverIRQHandler
00005d44  w    F .text	00000008 BEE_IRQHandler
00006f5e g     F .text	0000000e LPSPI4_DeinitPins
00005dd4  w    F .text	00000008 GPIO1_INT1_IRQHandler
00005d6c  w    F .text	00000008 SPDIF_IRQHandler
0000037a  w    F .text	00000002 GPIO1_INT5_DriverIRQHandler
00001f44 g     F .text	0000005c LPSPI_SlaveGetDefaultConfig
60000000 g       *ABS*	00000000 __base_Flash_00
0000037a  w    F .text	00000002 TMR3_DriverIRQHandler
0000a3d0 g       *ABS*	00000000 _itcm_end
0000037a  w    F .text	00000002 TMR2_DriverIRQHandler
00005f4c  w    F .text	00000008 ADC_ETC_IRQ2_IRQHandler
00005dec  w    F .text	00000008 GPIO1_INT4_IRQHandler
00003d64 g     F .text	00000024 LPUART6_DriverIRQHandler
0000037a  w    F .text	00000002 CTI1_ERROR_DriverIRQHandler
00005e8c  w    F .text	00000008 CCM_2_IRQHandler
0000a140 g     O .text	00000008 armPllConfig_BOARD_BootClockRUN
00005cc4  w    F .text	00000008 KPP_IRQHandler
00005eec  w    F .text	00000008 FLEXSPI_IRQHandler
00005dac  w    F .text	00000008 ADC2_IRQHandler
00002130 g     F .text	00000060 LPSPI_MasterTransferCreateHandle
00006db8 g     F .text	00000020 SerialManager_WriteBlocking
0000037a  w    F .text	00000002 GPIO1_Combined_0_15_DriverIRQHandler
0000037a  w    F .text	00000002 USDHC2_DriverIRQHandler
00000ee4 g     F .text	0000001c CLOCK_DeinitVideoPll
000074da g     F .text	00000004 __sys_write
00006f7c g     F .text	00000004 memset
0000037a  w    F .text	00000002 PWM4_2_DriverIRQHandler
0000037a  w    F .text	00000002 SAI2_DriverIRQHandler
0000075c g     F .text	000000c0 main
0000037a  w    F .text	00000002 CORE_DriverIRQHandler
00005d64  w    F .text	00000008 SAI3_TX_IRQHandler
00004084 g     F .text	00000064 HAL_UartSendBlocking
000072ce g     F .text	00000040 _do_fflush
00005570 g     F .text	00000048 ftell
00005f5c  w    F .text	00000008 PIT_IRQHandler
00005ea4  w    F .text	00000008 Reserved115_IRQHandler
00005cfc  w    F .text	00000008 SNVS_HP_WRAPPER_IRQHandler
00000374  w    F .text	00000002 SVC_Handler
00007262 g     F .text	00000058 fclose
000017a8 g     F .text	00000048 DMA11_DMA27_DriverIRQHandler
00004300 g     F .text	00000058 Serial_UartWrite
0000037a  w    F .text	00000002 CSI_DriverIRQHandler
00005c84  w    F .text	00000008 LPI2C4_IRQHandler
0000037a  w    F .text	00000002 PWM2_3_DriverIRQHandler
0000037a  w    F .text	00000002 XBAR1_IRQ_2_3_DriverIRQHandler
00005f34  w    F .text	00000008 XBAR1_IRQ_2_3_IRQHandler
0000600c  w    F .text	00000008 PWM3_2_IRQHandler
0000037a  w    F .text	00000002 SNVS_HP_WRAPPER_TZ_DriverIRQHandler
0000037a  w    F .text	00000002 GPIO3_Combined_16_31_DriverIRQHandler
000074ce g     F .text	00000006 __sys_seek
00006054  w    F .text	00000008 ENET2_1588_Timer_IRQHandler
0000037a  w    F .text	00000002 PWM1_FAULT_DriverIRQHandler
0000037a  w    F .text	00000002 LPI2C1_DriverIRQHandler
00007312 g     F .text	00000000 __bhs_ldivmod1
00005d1c  w    F .text	00000008 DCP_IRQHandler
0000037a  w    F .text	00000002 ENET2_1588_Timer_DriverIRQHandler
000009ec g     F .text	000002cc W5100_Init
00006064  w    F .text	00000008 Reserved171_IRQHandler
00000d88 g     F .text	00000024 CLOCK_InitRcOsc24M
00003d88 g     F .text	00000024 LPUART7_DriverIRQHandler
00005c64  w    F .text	00000008 LPUART8_IRQHandler
0000037a  w    F .text	00000002 PWM2_2_DriverIRQHandler
00002190 g     F .text	00000098 LPSPI_CheckTransferArgument
00001cd0 g     F .text	0000011c LPSPI_MasterInit
000015b0 g     F .text	00000048 DMA4_DMA20_DriverIRQHandler
00005de4  w    F .text	00000008 GPIO1_INT3_IRQHandler
00001718 g     F .text	00000048 DMA9_DMA25_DriverIRQHandler
60002008 g     F .teensy_boot	00000034 ResetISR_pre
00003e90 g     F .text	000000f4 SystemInit
000068d0 g     F .text	0000004a KSDK_LPSPI_MasterInterruptCallback
0000037a  w    F .text	00000002 SNVS_HP_WRAPPER_DriverIRQHandler
00005e0c  w    F .text	00000008 GPIO1_Combined_0_15_IRQHandler
000002dc g       .text	00000000 __bss_section_table
00001e84 g     F .text	000000c0 LPSPI_SlaveInit
0000284c g     F .text	00000060 LPSPI_SlaveTransferCreateHandle
60001020 g     O .boot_hdr	0000000c BootData
0000037a  w    F .text	00000002 XBAR1_IRQ_0_1_DriverIRQHandler
0000037a  w    F .text	00000002 ADC_ETC_IRQ1_DriverIRQHandler
000032b8 g     F .text	00000030 LPSPI1_DriverIRQHandler
00000878 g     F .text	000000b8 SPI_Write
000074b6 g     F .text	00000006 __sys_close
00005bf4  w    F .text	00000008 DMA13_DMA29_IRQHandler
00001568 g     F .text	00000048 DMA3_DMA19_DriverIRQHandler
00005fcc  w    F .text	00000008 TMR4_IRQHandler
00005f74  w    F .text	00000008 ACMP3_IRQHandler
00005c0c  w    F .text	00000008 DMA_ERROR_IRQHandler
00006c42 g     F .text	000000b2 LPSPI_InterruptGetStatus
00005f94  w    F .text	00000008 ENC1_IRQHandler
00005edc  w    F .text	00000008 PWM1_FAULT_IRQHandler
00000000 g       .stack	00000000 _itcm_start
00005f84  w    F .text	00000008 Reserved143_IRQHandler
20000000 g       .uninit_RESERVED	00000000 _end_uninit_RESERVED
000028ac g     F .text	000002d0 LPSPI_SlaveTransferNonBlocking
0000531c g     F .text	0000006c _Cwritebuf
0000037a  w    F .text	00000002 GPIO1_INT3_DriverIRQHandler
0000037a  w    F .text	00000002 DCP_VMI_DriverIRQHandler
00006074  w    F .text	00000008 GPIO6_7_8_9_IRQHandler
0000a3d0 g       *ABS*	00000000 _itcm_size
20000000 g       .data	00000000 _data
20000044 g     O .bss	00000004 g_rtcXtalFreq
0000606c  w    F .text	00000008 FLEXIO3_IRQHandler
00005e24  w    F .text	00000008 GPIO2_Combined_16_31_IRQHandler
0000037a  w    F .text	00000002 LPI2C4_DriverIRQHandler
2000020c g       .heap	00000000 _pvHeapStart
0000037a  w    F .text	00000002 GPC_DriverIRQHandler
00005c2c  w    F .text	00000008 LPUART1_IRQHandler
00005fc4  w    F .text	00000008 TMR3_IRQHandler
00005c6c  w    F .text	00000008 LPI2C1_IRQHandler
000002f4 g       .text	00000000 __section_table_end
00005880 g     F .text	0000030c StrFormatPrintf
0000037a  w    F .text	00000002 GPIO2_Combined_0_15_DriverIRQHandler
0000058c g     F .text	00000058 DbgConsole_SendDataReliable
00003bd0 g     F .text	00000088 LPUART_GetDefaultConfig
00005f2c  w    F .text	00000008 XBAR1_IRQ_0_1_IRQHandler
00000000 g       *ABS*	00000000 __base_SRAM_ITC
00005bc4  w    F .text	00000008 DMA7_DMA23_IRQHandler
00005c7c  w    F .text	00000008 LPI2C3_IRQHandler
000005e4 g     F .text	00000104 DbgConsole_Init
0000037a  w    F .text	00000002 PWM1_2_DriverIRQHandler
0000037a  w    F .text	00000002 USB_OTG1_DriverIRQHandler
000074c8 g     F .text	00000006 __sys_remove
0000037a  w    F .text	00000002 TEMP_LOW_HIGH_DriverIRQHandler
00005d04  w    F .text	00000008 SNVS_HP_WRAPPER_TZ_IRQHandler
0000037a  w    F .text	00000002 SAI3_TX_DriverIRQHandler
0000037a  w    F .text	00000002 FLEXIO3_DriverIRQHandler
20000018 g       .data	00000000 _edata
0000037a  w    F .text	00000002 WDOG2_DriverIRQHandler
000019c0 g     F .text	000000a4 GPIO_PinInit
0000037a  w    F .text	00000002 Reserved68_DriverIRQHandler
00006d3e  w    F .text	0000000e SystemInitHook
2000020a g     O .bss	00000001 isMasterOnTransmit
0000037a  w    F .text	00000002 PWM3_0_DriverIRQHandler
20000200 g     O .bss	00000004 __heaps
0000037a  w    F .text	00000002 GPIO4_Combined_0_15_DriverIRQHandler
00006f7a g     F .text	00000002 __sys_appexit
00005c94  w    F .text	00000008 LPSPI2_IRQHandler
00005f6c  w    F .text	00000008 ACMP2_IRQHandler
0000037a  w    F .text	00000002 GPIO4_Combined_16_31_DriverIRQHandler
00000000 g       *ABS*	00000000 __base_RAM
00000000 g     O .text	000002b8 g_pfnVectors
000002f4 g     F .text	0000004c ResetISR
6000c23c g       *ABS*	00000000 _image_end
0000037a  w    F .text	00000002 GPIO6_7_8_9_DriverIRQHandler
200001fc g     O .bss	00000004 __end_of_heap
00005eb4  w    F .text	00000008 GPT2_IRQHandler
0000037a  w    F .text	00000002 GPIO5_Combined_16_31_DriverIRQHandler
00005450 g     F .text	00000020 _Csys_alloc
00005cbc  w    F .text	00000008 FLEXRAM_IRQHandler
00005cb4  w    F .text	00000008 CAN2_IRQHandler
20280000 g       *ABS*	00000000 __top_SRAM_OC
000015f8 g     F .text	00000048 DMA5_DMA21_DriverIRQHandler
00007482 g     F .text	00000002 __aeabi_idiv0
00005c04  w    F .text	00000008 DMA15_DMA31_IRQHandler
0000037a  w    F .text	00000002 CCM_1_DriverIRQHandler
60001030 g       *ABS*	00000000 __boot_hdr_end__
0000037a  w    F .text	00000002 ADC2_DriverIRQHandler
000026ac g     F .text	000001a0 LPSPI_MasterTransferHandleIRQ
20280000 g       *ABS*	00000000 __top_RAM3
00005f64  w    F .text	00000008 ACMP1_IRQHandler
0000037a  w    F .text	00000002 Reserved115_DriverIRQHandler
0000037a  w    F .text	00000002 TEMP_PANIC_DriverIRQHandler
00005dc4  w    F .text	00000008 Reserved87_IRQHandler
000018c8 g     F .text	00000048 DMA15_DMA31_DriverIRQHandler
00005e44  w    F .text	00000008 GPIO4_Combined_16_31_IRQHandler
000071ae g     F .text	0000004c strlen
00004154 g     F .text	00000074 SerialManager_Init
00003318 g     F .text	00000030 LPSPI3_DriverIRQHandler
00005fac  w    F .text	00000008 ENC4_IRQHandler
0000037a  w    F .text	00000002 PWM1_3_DriverIRQHandler
0000037a  w    F .text	00000002 ACMP1_DriverIRQHandler
0000037a  w    F .text	00000002 LPI2C2_DriverIRQHandler
00005bdc  w    F .text	00000008 DMA10_DMA26_IRQHandler
00007182 g     F .text	0000002c fputs
0000037a  w    F .text	00000002 Reserved86_DriverIRQHandler
00001a64 g     F .text	00000054 GPIO_PinWrite
00000f1c g     F .text	0000033c CLOCK_GetPllFreq
0000037a  w    F .text	00000002 DMA_ERROR_DriverIRQHandler
2000120c g       .stack	00000000 _vStackBase
2000020b g     O .bss	00000001 isMasterOnReceive
0000037a  w    F .text	00000002 ADC_ETC_IRQ0_DriverIRQHandler
20000034 g     O .bss	00000004 g_serialHandle
00006024  w    F .text	00000008 PWM4_0_IRQHandler
0000037a  w    F .text	00000002 CAN1_DriverIRQHandler
000055b8 g     F .text	00000078 _initio
00005fb4  w    F .text	00000008 TMR1_IRQHandler
00005b8c  w    F .text	00000008 DMA0_DMA16_IRQHandler
0000037a  w    F .text	00000002 GPIO1_INT6_DriverIRQHandler
0000037a  w    F .text	00000002 GPIO1_INT1_DriverIRQHandler
00000930 g     F .text	000000bc SPI_Read
00005d34  w    F .text	00000008 TRNG_IRQHandler
00005cdc  w    F .text	00000008 LCDIF_IRQHandler
20000148 g     O .bss	000000b4 __Ciob
00001fa0 g     F .text	00000030 LPSPI_Deinit
0000601c  w    F .text	00000008 PWM3_FAULT_IRQHandler
00005f1c  w    F .text	00000008 ENET_IRQHandler
000074c2 g     F .text	00000006 __sys_istty
000020c0 g     F .text	00000070 LPSPI_MasterSetDelayScaler
00005c1c  w    F .text	00000008 CTI1_ERROR_IRQHandler
00004648 g     F .text	00000100 BOARD_ConfigMPU
00000830 g     F .text	00000048 LPSPI_MasterSignalEvent_t
0000037a  w    F .text	00000002 PWM2_0_DriverIRQHandler
00005ed4  w    F .text	00000008 PWM1_3_IRQHandler
00005b94  w    F .text	00000008 DMA1_DMA17_IRQHandler
00006412 g     F .text	00000032 LPSPI_Reset
00005d4c  w    F .text	00000008 SAI1_IRQHandler
20000209 g     O .bss	00000001 isTransferCompleted
00003cf8 g     F .text	00000024 LPUART3_DriverIRQHandler
000006e8 g     F .text	00000074 DbgConsole_Printf
00007152 g     F .text	00000030 free
00002228 g     F .text	000002e0 LPSPI_MasterTransferNonBlocking
0000037a  w    F .text	00000002 SNVS_LP_WRAPPER_DriverIRQHandler
0000037a  w    F .text	00000002 USB_OTG2_DriverIRQHandler



Disassembly of section .teensy_boot:

60002000 <vector_table>:
60002000:	00 00 01 20 09 20 00 60                             ... . .`

60002008 <ResetISR_pre>:
60002008:	4b07      	ldr	r3, [pc, #28]	; (60002028 <ResetISR_pre+0x20>)
6000200a:	4a08      	ldr	r2, [pc, #32]	; (6000202c <ResetISR_pre+0x24>)
6000200c:	645a      	str	r2, [r3, #68]	; 0x44
6000200e:	2207      	movs	r2, #7
60002010:	641a      	str	r2, [r3, #64]	; 0x40
60002012:	f44f 022a 	mov.w	r2, #11141120	; 0xaa0000
60002016:	639a      	str	r2, [r3, #56]	; 0x38
60002018:	4a05      	ldr	r2, [pc, #20]	; (60002030 <ResetISR_pre+0x28>)
6000201a:	4906      	ldr	r1, [pc, #24]	; (60002034 <ResetISR_pre+0x2c>)
6000201c:	4806      	ldr	r0, [pc, #24]	; (60002038 <ResetISR_pre+0x30>)
6000201e:	f000 f80d 	bl	6000203c <memory_copy>
60002022:	f000 f819 	bl	60002058 <__ResetISR_veneer>
60002026:	bf00      	nop
60002028:	400ac000 	.word	0x400ac000
6000202c:	aaaaaaaf 	.word	0xaaaaaaaf
60002030:	0000a3d0 	.word	0x0000a3d0
60002034:	60002060 	.word	0x60002060
60002038:	00000000 	.word	0x00000000

6000203c <memory_copy>:
6000203c:	4288      	cmp	r0, r1
6000203e:	d006      	beq.n	6000204e <memory_copy+0x12>
60002040:	4290      	cmp	r0, r2
60002042:	d205      	bcs.n	60002050 <memory_copy+0x14>
60002044:	f851 3b04 	ldr.w	r3, [r1], #4
60002048:	f840 3b04 	str.w	r3, [r0], #4
6000204c:	e7f8      	b.n	60002040 <memory_copy+0x4>
6000204e:	4770      	bx	lr
60002050:	4770      	bx	lr
60002052:	ffff ffff 			; <UNDEFINED> instruction: 0xffffffff
60002056:	Address 0x60002056 is out of bounds.


60002058 <__ResetISR_veneer>:
60002058:	f85f f000 	ldr.w	pc, [pc]	; 6000205c <__ResetISR_veneer+0x4>
6000205c:	000002f5 	.word	0x000002f5

Disassembly of section .text:

00000000 <__Vectors>:
       0:	2000220c 000002f5 00000371 0000607d     .". ....q...}`..
	...
      2c:	00000375 00000000 00000000 00000377     u...........w...
      3c:	00000379 00005b8d 00005b95 00005b9d     y....[...[...[..
      4c:	00005ba5 00005bad 00005bb5 00005bbd     .[...[...[...[..
      5c:	00005bc5 00005bcd 00005bd5 00005bdd     .[...[...[...[..
      6c:	00005be5 00005bed 00005bf5 00005bfd     .[...[...[...[..
      7c:	00005c05 00005c0d 00005c15 00005c1d     .\...\...\...\..
      8c:	00005c25 00005c2d 00005c35 00005c3d     %\..-\..5\..=\..
      9c:	00005c45 00005c4d 00005c55 00005c5d     E\..M\..U\..]\..
      ac:	00005c65 00005c6d 00005c75 00005c7d     e\..m\..u\..}\..
      bc:	00005c85 00005c8d 00005c95 00005c9d     .\...\...\...\..
      cc:	00005ca5 00005cad 00005cb5 00005cbd     .\...\...\...\..
      dc:	00005cc5 00005ccd 00005cd5 00005cdd     .\...\...\...\..
      ec:	00005ce5 00005ced 00005cf5 00005cfd     .\...\...\...\..
      fc:	00005d05 00005d0d 00005d15 00005d1d     .]...]...]...]..
     10c:	00005d25 00005d2d 00005d35 00005d3d     %]..-]..5]..=]..
     11c:	00005d45 00005d4d 00005d55 00005d5d     E]..M]..U]..]]..
     12c:	00005d65 00005d6d 00005d75 00005d7d     e]..m]..u]..}]..
     13c:	00005d85 00005d8d 00005d95 00005d9d     .]...]...]...]..
     14c:	00005da5 00005dad 00005db5 00005dbd     .]...]...]...]..
     15c:	00005dc5 00005dcd 00005dd5 00005ddd     .]...]...]...]..
     16c:	00005de5 00005ded 00005df5 00005dfd     .]...]...]...]..
     17c:	00005e05 00005e0d 00005e15 00005e1d     .^...^...^...^..
     18c:	00005e25 00005e2d 00005e35 00005e3d     %^..-^..5^..=^..
     19c:	00005e45 00005e4d 00005e55 00005e5d     E^..M^..U^..]^..
     1ac:	00005e65 00005e6d 00005e75 00005e7d     e^..m^..u^..}^..
     1bc:	00005e85 00005e8d 00005e95 00005e9d     .^...^...^...^..
     1cc:	00005ea5 00005ead 00005eb5 00005ebd     .^...^...^...^..
     1dc:	00005ec5 00005ecd 00005ed5 00005edd     .^...^...^...^..
     1ec:	00005ee5 00005eed 00005ef5 00005efd     .^...^...^...^..
     1fc:	00005f05 00005f0d 00005f15 00005f1d     ._..._..._..._..
     20c:	00005f25 00005f2d 00005f35 00005f3d     %_..-_..5_..=_..
     21c:	00005f45 00005f4d 00005f55 00005f5d     E_..M_..U_..]_..
     22c:	00005f65 00005f6d 00005f75 00005f7d     e_..m_..u_..}_..
     23c:	00005f85 00005f8d 00005f95 00005f9d     ._..._..._..._..
     24c:	00005fa5 00005fad 00005fb5 00005fbd     ._..._..._..._..
     25c:	00005fc5 00005fcd 00005fd5 00005fdd     ._..._..._..._..
     26c:	00005fe5 00005fed 00005ff5 00005ffd     ._..._..._..._..
     27c:	00006005 0000600d 00006015 0000601d     .`...`...`...`..
     28c:	00006025 0000602d 00006035 0000603d     %`..-`..5`..=`..
     29c:	00006045 0000604d 00006055 0000605d     E`..M`..U`..]`..
     2ac:	00006065 0000606d 00006075              e`..m`..u`..

000002b8 <__data_section_table>:
     2b8:	6000c224 	.word	0x6000c224
     2bc:	0000a1c4 	.word	0x0000a1c4
     2c0:	00000000 	.word	0x00000000
     2c4:	6000c224 	.word	0x6000c224
     2c8:	20000000 	.word	0x20000000
     2cc:	00000018 	.word	0x00000018
     2d0:	6000c224 	.word	0x6000c224
     2d4:	20200000 	.word	0x20200000
     2d8:	00000000 	.word	0x00000000

000002dc <__bss_section_table>:
     2dc:	0000a1c4 	.word	0x0000a1c4
     2e0:	00000000 	.word	0x00000000
     2e4:	20000018 	.word	0x20000018
     2e8:	000001f4 	.word	0x000001f4
     2ec:	20200000 	.word	0x20200000
     2f0:	00000000 	.word	0x00000000

000002f4 <ResetISR>:
     2f4:	b672b510 	.word	0xb672b510
     2f8:	fdcaf003 	.word	0xfdcaf003
     2fc:	e0074b0d 	.word	0xe0074b0d
     300:	040cf103 	.word	0x040cf103
     304:	6859689a 	.word	0x6859689a
     308:	f0006818 	.word	0xf0006818
     30c:	4623f819 	.word	0x4623f819
     310:	42934a09 	.word	0x42934a09
     314:	e006d3f4 	.word	0xe006d3f4
     318:	6859461c 	.word	0x6859461c
     31c:	0b08f854 	.word	0x0b08f854
     320:	f81df000 	.word	0xf81df000
     324:	4a054623 	.word	0x4a054623
     328:	d3f54293 	.word	0xd3f54293
     32c:	f006b662 	.word	0xf006b662
     330:	e7fefe1d 	.word	0xe7fefe1d
     334:	000002b8 	.word	0x000002b8
     338:	000002dc 	.word	0x000002dc
     33c:	02f4      	lsls	r4, r6, #11
	...

00000340 <data_init>:
     340:	2300      	movs	r3, #0
     342:	4293      	cmp	r3, r2
     344:	d20a      	bcs.n	35c <data_init+0x1c>
     346:	b410      	push	{r4}
     348:	f850 4b04 	ldr.w	r4, [r0], #4
     34c:	f841 4b04 	str.w	r4, [r1], #4
     350:	3304      	adds	r3, #4
     352:	4293      	cmp	r3, r2
     354:	d3f8      	bcc.n	348 <data_init+0x8>
     356:	f85d 4b04 	ldr.w	r4, [sp], #4
     35a:	4770      	bx	lr
     35c:	4770      	bx	lr

0000035e <bss_init>:
     35e:	2300      	movs	r3, #0
     360:	428b      	cmp	r3, r1
     362:	d204      	bcs.n	36e <bss_init+0x10>
     364:	2200      	movs	r2, #0
     366:	f840 2b04 	str.w	r2, [r0], #4
     36a:	3304      	adds	r3, #4
     36c:	e7f8      	b.n	360 <bss_init+0x2>
     36e:	4770      	bx	lr

00000370 <NMI_Handler>:
     370:	e7fe      	b.n	370 <NMI_Handler>
     372:	e7fe      	b.n	372 <NMI_Handler+0x2>

00000374 <SVC_Handler>:
     374:	e7fe      	b.n	374 <SVC_Handler>

00000376 <PendSV_Handler>:
     376:	e7fe      	b.n	376 <PendSV_Handler>

00000378 <SysTick_Handler>:
     378:	e7fe      	b.n	378 <SysTick_Handler>

0000037a <ACMP1_DriverIRQHandler>:
     37a:	e7fe      	b.n	37a <ACMP1_DriverIRQHandler>
     37c:	ffff ffff 			; <UNDEFINED> instruction: 0xffffffff

00000380 <LPSPI_MasterSetDelayTimes>:
     380:	e92d 43f0 	stmdb	sp!, {r4, r5, r6, r7, r8, r9, lr}
     384:	b093      	sub	sp, #76	; 0x4c
     386:	af00      	add	r7, sp, #0
     388:	60f8      	str	r0, [r7, #12]
     38a:	60b9      	str	r1, [r7, #8]
     38c:	603b      	str	r3, [r7, #0]
     38e:	4613      	mov	r3, r2
     390:	71fb      	strb	r3, [r7, #7]
     392:	2300      	movs	r3, #0
     394:	627b      	str	r3, [r7, #36]	; 0x24
     396:	68fb      	ldr	r3, [r7, #12]
     398:	6e1b      	ldr	r3, [r3, #96]	; 0x60
     39a:	0edb      	lsrs	r3, r3, #27
     39c:	f003 0307 	and.w	r3, r3, #7
     3a0:	4a79      	ldr	r2, [pc, #484]	; (588 <LPSPI_MasterSetDelayTimes+0x208>)
     3a2:	5cd3      	ldrb	r3, [r2, r3]
     3a4:	461a      	mov	r2, r3
     3a6:	683b      	ldr	r3, [r7, #0]
     3a8:	fbb3 f3f2 	udiv	r3, r3, r2
     3ac:	623b      	str	r3, [r7, #32]
     3ae:	f04f 33ff 	mov.w	r3, #4294967295
     3b2:	637b      	str	r3, [r7, #52]	; 0x34
     3b4:	23ff      	movs	r3, #255	; 0xff
     3b6:	63bb      	str	r3, [r7, #56]	; 0x38
     3b8:	79fb      	ldrb	r3, [r7, #7]
     3ba:	2b03      	cmp	r3, #3
     3bc:	d141      	bne.n	442 <LPSPI_MasterSetDelayTimes+0xc2>
     3be:	a470      	add	r4, pc, #448	; (adr r4, 580 <LPSPI_MasterSetDelayTimes+0x200>)
     3c0:	e9d4 3400 	ldrd	r3, r4, [r4]
     3c4:	e9c7 340a 	strd	r3, r4, [r7, #40]	; 0x28
     3c8:	e9d7 340a 	ldrd	r3, r4, [r7, #40]	; 0x28
     3cc:	18dd      	adds	r5, r3, r3
     3ce:	eb44 0604 	adc.w	r6, r4, r4
     3d2:	e9c7 560a 	strd	r5, r6, [r7, #40]	; 0x28
     3d6:	6a3b      	ldr	r3, [r7, #32]
     3d8:	f04f 0400 	mov.w	r4, #0
     3dc:	461a      	mov	r2, r3
     3de:	4623      	mov	r3, r4
     3e0:	e9d7 010a 	ldrd	r0, r1, [r7, #40]	; 0x28
     3e4:	f006 ff93 	bl	730e <__aeabi_uldivmod>
     3e8:	4603      	mov	r3, r0
     3ea:	460c      	mov	r4, r1
     3ec:	e9c7 340a 	strd	r3, r4, [r7, #40]	; 0x28
     3f0:	a463      	add	r4, pc, #396	; (adr r4, 580 <LPSPI_MasterSetDelayTimes+0x200>)
     3f2:	e9d4 3400 	ldrd	r3, r4, [r4]
     3f6:	e9c7 3410 	strd	r3, r4, [r7, #64]	; 0x40
     3fa:	e9d7 5610 	ldrd	r5, r6, [r7, #64]	; 0x40
     3fe:	462b      	mov	r3, r5
     400:	4634      	mov	r4, r6
     402:	f04f 0100 	mov.w	r1, #0
     406:	f04f 0200 	mov.w	r2, #0
     40a:	0222      	lsls	r2, r4, #8
     40c:	ea42 6213 	orr.w	r2, r2, r3, lsr #24
     410:	0219      	lsls	r1, r3, #8
     412:	460b      	mov	r3, r1
     414:	4614      	mov	r4, r2
     416:	eb13 0805 	adds.w	r8, r3, r5
     41a:	eb44 0906 	adc.w	r9, r4, r6
     41e:	e9c7 8910 	strd	r8, r9, [r7, #64]	; 0x40
     422:	6a3b      	ldr	r3, [r7, #32]
     424:	f04f 0400 	mov.w	r4, #0
     428:	461a      	mov	r2, r3
     42a:	4623      	mov	r3, r4
     42c:	e9d7 0110 	ldrd	r0, r1, [r7, #64]	; 0x40
     430:	f006 ff6d 	bl	730e <__aeabi_uldivmod>
     434:	4603      	mov	r3, r0
     436:	460c      	mov	r4, r1
     438:	e9c7 3410 	strd	r3, r4, [r7, #64]	; 0x40
     43c:	2301      	movs	r3, #1
     43e:	627b      	str	r3, [r7, #36]	; 0x24
     440:	e031      	b.n	4a6 <LPSPI_MasterSetDelayTimes+0x126>
     442:	a44f      	add	r4, pc, #316	; (adr r4, 580 <LPSPI_MasterSetDelayTimes+0x200>)
     444:	e9d4 3400 	ldrd	r3, r4, [r4]
     448:	e9c7 340a 	strd	r3, r4, [r7, #40]	; 0x28
     44c:	6a3b      	ldr	r3, [r7, #32]
     44e:	f04f 0400 	mov.w	r4, #0
     452:	461a      	mov	r2, r3
     454:	4623      	mov	r3, r4
     456:	e9d7 010a 	ldrd	r0, r1, [r7, #40]	; 0x28
     45a:	f006 ff58 	bl	730e <__aeabi_uldivmod>
     45e:	4603      	mov	r3, r0
     460:	460c      	mov	r4, r1
     462:	e9c7 340a 	strd	r3, r4, [r7, #40]	; 0x28
     466:	a446      	add	r4, pc, #280	; (adr r4, 580 <LPSPI_MasterSetDelayTimes+0x200>)
     468:	e9d4 3400 	ldrd	r3, r4, [r4]
     46c:	e9c7 3410 	strd	r3, r4, [r7, #64]	; 0x40
     470:	e9d7 1210 	ldrd	r1, r2, [r7, #64]	; 0x40
     474:	f04f 0300 	mov.w	r3, #0
     478:	f04f 0400 	mov.w	r4, #0
     47c:	0214      	lsls	r4, r2, #8
     47e:	ea44 6411 	orr.w	r4, r4, r1, lsr #24
     482:	020b      	lsls	r3, r1, #8
     484:	e9c7 3410 	strd	r3, r4, [r7, #64]	; 0x40
     488:	6a3b      	ldr	r3, [r7, #32]
     48a:	f04f 0400 	mov.w	r4, #0
     48e:	461a      	mov	r2, r3
     490:	4623      	mov	r3, r4
     492:	e9d7 0110 	ldrd	r0, r1, [r7, #64]	; 0x40
     496:	f006 ff3a 	bl	730e <__aeabi_uldivmod>
     49a:	4603      	mov	r3, r0
     49c:	460c      	mov	r4, r1
     49e:	e9c7 3410 	strd	r3, r4, [r7, #64]	; 0x40
     4a2:	2300      	movs	r3, #0
     4a4:	627b      	str	r3, [r7, #36]	; 0x24
     4a6:	68bb      	ldr	r3, [r7, #8]
     4a8:	f04f 0400 	mov.w	r4, #0
     4ac:	e9d7 120a 	ldrd	r1, r2, [r7, #40]	; 0x28
     4b0:	42a2      	cmp	r2, r4
     4b2:	bf08      	it	eq
     4b4:	4299      	cmpeq	r1, r3
     4b6:	d307      	bcc.n	4c8 <LPSPI_MasterSetDelayTimes+0x148>
     4b8:	79fb      	ldrb	r3, [r7, #7]
     4ba:	461a      	mov	r2, r3
     4bc:	2100      	movs	r1, #0
     4be:	68f8      	ldr	r0, [r7, #12]
     4c0:	f001 fdfe 	bl	20c0 <LPSPI_MasterSetDelayScaler>
     4c4:	6abb      	ldr	r3, [r7, #40]	; 0x28
     4c6:	e053      	b.n	570 <LPSPI_MasterSetDelayTimes+0x1f0>
     4c8:	2300      	movs	r3, #0
     4ca:	63fb      	str	r3, [r7, #60]	; 0x3c
     4cc:	e043      	b.n	556 <LPSPI_MasterSetDelayTimes+0x1d6>
     4ce:	a42c      	add	r4, pc, #176	; (adr r4, 580 <LPSPI_MasterSetDelayTimes+0x200>)
     4d0:	e9d4 3400 	ldrd	r3, r4, [r4]
     4d4:	e9c7 3406 	strd	r3, r4, [r7, #24]
     4d8:	6bfa      	ldr	r2, [r7, #60]	; 0x3c
     4da:	6a7b      	ldr	r3, [r7, #36]	; 0x24
     4dc:	4413      	add	r3, r2
     4de:	3301      	adds	r3, #1
     4e0:	f04f 0400 	mov.w	r4, #0
     4e4:	69fa      	ldr	r2, [r7, #28]
     4e6:	fb03 f102 	mul.w	r1, r3, r2
     4ea:	69ba      	ldr	r2, [r7, #24]
     4ec:	fb04 f202 	mul.w	r2, r4, r2
     4f0:	440a      	add	r2, r1
     4f2:	69b9      	ldr	r1, [r7, #24]
     4f4:	fba1 3403 	umull	r3, r4, r1, r3
     4f8:	4422      	add	r2, r4
     4fa:	4614      	mov	r4, r2
     4fc:	e9c7 3406 	strd	r3, r4, [r7, #24]
     500:	e9c7 3406 	strd	r3, r4, [r7, #24]
     504:	6a3b      	ldr	r3, [r7, #32]
     506:	f04f 0400 	mov.w	r4, #0
     50a:	461a      	mov	r2, r3
     50c:	4623      	mov	r3, r4
     50e:	e9d7 0106 	ldrd	r0, r1, [r7, #24]
     512:	f006 fefc 	bl	730e <__aeabi_uldivmod>
     516:	4603      	mov	r3, r0
     518:	460c      	mov	r4, r1
     51a:	e9c7 3406 	strd	r3, r4, [r7, #24]
     51e:	68bb      	ldr	r3, [r7, #8]
     520:	f04f 0400 	mov.w	r4, #0
     524:	e9d7 1206 	ldrd	r1, r2, [r7, #24]
     528:	42a2      	cmp	r2, r4
     52a:	bf08      	it	eq
     52c:	4299      	cmpeq	r1, r3
     52e:	d30f      	bcc.n	550 <LPSPI_MasterSetDelayTimes+0x1d0>
     530:	69ba      	ldr	r2, [r7, #24]
     532:	68bb      	ldr	r3, [r7, #8]
     534:	1ad3      	subs	r3, r2, r3
     536:	617b      	str	r3, [r7, #20]
     538:	6b7a      	ldr	r2, [r7, #52]	; 0x34
     53a:	697b      	ldr	r3, [r7, #20]
     53c:	429a      	cmp	r2, r3
     53e:	d907      	bls.n	550 <LPSPI_MasterSetDelayTimes+0x1d0>
     540:	697b      	ldr	r3, [r7, #20]
     542:	637b      	str	r3, [r7, #52]	; 0x34
     544:	6bfb      	ldr	r3, [r7, #60]	; 0x3c
     546:	63bb      	str	r3, [r7, #56]	; 0x38
     548:	e9d7 3406 	ldrd	r3, r4, [r7, #24]
     54c:	e9c7 3410 	strd	r3, r4, [r7, #64]	; 0x40
     550:	6bfb      	ldr	r3, [r7, #60]	; 0x3c
     552:	3301      	adds	r3, #1
     554:	63fb      	str	r3, [r7, #60]	; 0x3c
     556:	6bfb      	ldr	r3, [r7, #60]	; 0x3c
     558:	2bff      	cmp	r3, #255	; 0xff
     55a:	d802      	bhi.n	562 <LPSPI_MasterSetDelayTimes+0x1e2>
     55c:	6b7b      	ldr	r3, [r7, #52]	; 0x34
     55e:	2b00      	cmp	r3, #0
     560:	d1b5      	bne.n	4ce <LPSPI_MasterSetDelayTimes+0x14e>
     562:	79fb      	ldrb	r3, [r7, #7]
     564:	461a      	mov	r2, r3
     566:	6bb9      	ldr	r1, [r7, #56]	; 0x38
     568:	68f8      	ldr	r0, [r7, #12]
     56a:	f001 fda9 	bl	20c0 <LPSPI_MasterSetDelayScaler>
     56e:	6c3b      	ldr	r3, [r7, #64]	; 0x40
     570:	4618      	mov	r0, r3
     572:	374c      	adds	r7, #76	; 0x4c
     574:	46bd      	mov	sp, r7
     576:	e8bd 83f0 	ldmia.w	sp!, {r4, r5, r6, r7, r8, r9, pc}
     57a:	bf00      	nop
     57c:	f3af 8000 	nop.w
     580:	ca00      	ldmia	r2!, {}
     582:	3b9a      	subs	r3, #154	; 0x9a
     584:	0000      	movs	r0, r0
     586:	0000      	movs	r0, r0
     588:	8f04      	ldrh	r4, [r0, #56]	; 0x38
	...

0000058c <DbgConsole_SendDataReliable>:
     58c:	b580      	push	{r7, lr}
     58e:	b084      	sub	sp, #16
     590:	af00      	add	r7, sp, #0
     592:	6078      	str	r0, [r7, #4]
     594:	6039      	str	r1, [r7, #0]
     596:	f243 5321 	movw	r3, #13601	; 0x3521
     59a:	60fb      	str	r3, [r7, #12]
     59c:	687b      	ldr	r3, [r7, #4]
     59e:	2b00      	cmp	r3, #0
     5a0:	d102      	bne.n	5a8 <DbgConsole_SendDataReliable+0x1c>
     5a2:	480d      	ldr	r0, [pc, #52]	; (5d8 <DbgConsole_SendDataReliable+0x4c>)
     5a4:	f004 fe94 	bl	52d0 <__assertion_failed>
     5a8:	683b      	ldr	r3, [r7, #0]
     5aa:	2b00      	cmp	r3, #0
     5ac:	d102      	bne.n	5b4 <DbgConsole_SendDataReliable+0x28>
     5ae:	480b      	ldr	r0, [pc, #44]	; (5dc <DbgConsole_SendDataReliable+0x50>)
     5b0:	f004 fe8e 	bl	52d0 <__assertion_failed>
     5b4:	6879683a 	.word	0x6879683a
     5b8:	4809      	ldr	r0, [pc, #36]	; (5e0 <DbgConsole_SendDataReliable+0x54>)
     5ba:	f006      	.short	0xf006
     5bc:	fbfd 4603 			; <UNDEFINED> instruction: 0xfbfd4603
     5c0:	68fb60fb 	.word	0x68fb60fb
     5c4:	2b00      	cmp	r3, #0
     5c6:	d101      	.short	0xd101
     5c8:	683b      	ldr	r3, [r7, #0]
     5ca:	e001      	.short	0xe001
     5cc:	f04f 33ff 	mov.w	r3, #4294967295
     5d0:	37104618 	.word	0x37104618
     5d4:	46bd      	mov	sp, r7
     5d6:	bd80      	.short	0xbd80
     5d8:	7548      	strb	r0, [r1, #21]
     5da:	0000      	.short	0x0000
     5dc:	757c      	strb	r4, [r7, #21]
     5de:	0000      	.short	0x0000
     5e0:	002c      	movs	r4, r5
     5e2:	2000      	.short	0x2000

000005e4 <DbgConsole_Init>:
     5e4:	b580      	push	{r7, lr}
     5e6:	b08e      	.short	0xb08e
     5e8:	af00      	add	r7, sp, #0
     5ea:	60b9      	.short	0x60b9
     5ec:	607b      	str	r3, [r7, #4]
     5ee:	4603      	.short	0x4603
     5f0:	73fb      	strb	r3, [r7, #15]
     5f2:	4613      	.short	0x4613
     5f4:	73bb      	strb	r3, [r7, #14]
     5f6:	f243      	.short	0xf243
     5f8:	5321      	strh	r1, [r4, r4]
     5fa:	637b      	.short	0x637b
     5fc:	687b      	ldr	r3, [r7, #4]
     5fe:	617b      	.short	0x617b
     600:	68bb      	ldr	r3, [r7, #8]
     602:	61bb      	.short	0x61bb
     604:	2300      	movs	r3, #0
     606:	773b      	.short	0x773b
     608:	2300      	movs	r3, #0
     60a:	777b      	.short	0x777b
     60c:	7bfb      	ldrb	r3, [r7, #15]
     60e:	77bb      	.short	0x77bb
     610:	2301      	movs	r3, #1
     612:	77fb      	.short	0x77fb
     614:	2301      	movs	r3, #1
     616:	f887      	.short	0xf887
     618:	3020      	adds	r0, #32
     61a:	7bbb      	.short	0x7bbb
     61c:	f887 302c 	strb.w	r3, [r7, #44]	; 0x2c
     620:	2b017bbb 	.word	0x2b017bbb
     624:	d118      	bne.n	658 <DbgConsole_Init+0x74>
     626:	f107      	.short	0xf107
     628:	0314      	lsls	r4, r2, #12
     62a:	633b      	.short	0x633b
     62c:	221c      	movs	r2, #28
     62e:	2100      	.short	0x2100
     630:	4826      	ldr	r0, [pc, #152]	; (6cc <DbgConsole_Init+0xe8>)
     632:	f006      	.short	0xf006
     634:	fca3 4b25 	stc2	11, cr4, [r3], #148	; 0x94	; <UNPREDICTABLE>
     638:	611a4a24 	.word	0x611a4a24
     63c:	4b23      	ldr	r3, [pc, #140]	; (6cc <DbgConsole_Init+0xe8>)
     63e:	691b      	.short	0x691b
     640:	f107 0224 	add.w	r2, r7, #36	; 0x24
     644:	46184611 	.word	0x46184611
     648:	f003 fd84 	bl	4154 <SerialManager_Init>
     64c:	637b4603 	.word	0x637b4603
     650:	6b7b      	ldr	r3, [r7, #52]	; 0x34
     652:	2b00      	.short	0x2b00
     654:	d014      	beq.n	680 <DbgConsole_Init+0x9c>
     656:	e010      	.short	0xe010
     658:	7bbb      	ldrb	r3, [r7, #14]
     65a:	2b02      	.short	0x2b02
     65c:	d101      	bne.n	662 <DbgConsole_Init+0x7e>
     65e:	6b7b      	.short	0x6b7b
     660:	e02f      	b.n	6c2 <DbgConsole_Init+0xde>
     662:	7bbb      	.short	0x7bbb
     664:	2b03      	cmp	r3, #3
     666:	d101      	.short	0xd101
     668:	6b7b      	ldr	r3, [r7, #52]	; 0x34
     66a:	e02a      	.short	0xe02a
     66c:	7bbb      	ldrb	r3, [r7, #14]
     66e:	2b04      	.short	0x2b04
     670:	d101      	bne.n	676 <DbgConsole_Init+0x92>
     672:	6b7b      	.short	0x6b7b
     674:	e025      	b.n	6c2 <DbgConsole_Init+0xde>
     676:	6b7b      	.short	0x6b7b
     678:	e023      	b.n	6c2 <DbgConsole_Init+0xde>
     67a:	4815      	.short	0x4815
     67c:	f004 fe28 	bl	52d0 <__assertion_failed>
     680:	691b4b12 	.word	0x691b4b12
     684:	4913      	ldr	r1, [pc, #76]	; (6d4 <DbgConsole_Init+0xf0>)
     686:	4618      	.short	0x4618
     688:	f003 fd9e 	bl	41c8 <SerialManager_OpenWriteHandle>
     68c:	637b4603 	.word	0x637b4603
     690:	6b7b      	ldr	r3, [r7, #52]	; 0x34
     692:	2b00      	.short	0x2b00
     694:	d002      	beq.n	69c <DbgConsole_Init+0xb8>
     696:	4810      	.short	0x4810
     698:	f004 fe1a 	bl	52d0 <__assertion_failed>
     69c:	691b4b0b 	.word	0x691b4b0b
     6a0:	490e      	ldr	r1, [pc, #56]	; (6dc <DbgConsole_Init+0xf8>)
     6a2:	4618      	.short	0x4618
     6a4:	f003 fdbc 	bl	4220 <SerialManager_OpenReadHandle>
     6a8:	637b4603 	.word	0x637b4603
     6ac:	6b7b      	ldr	r3, [r7, #52]	; 0x34
     6ae:	2b00      	.short	0x2b00
     6b0:	d002      	beq.n	6b8 <DbgConsole_Init+0xd4>
     6b2:	480b      	.short	0x480b
     6b4:	f004 fe0c 	bl	52d0 <__assertion_failed>
     6b8:	4b04      	ldr	r3, [pc, #16]	; (6cc <DbgConsole_Init+0xe8>)
     6ba:	691b      	.short	0x691b
     6bc:	4a09      	ldr	r2, [pc, #36]	; (6e4 <DbgConsole_Init+0x100>)
     6be:	6013      	.short	0x6013
     6c0:	2300      	movs	r3, #0
     6c2:	4618      	.short	0x4618
     6c4:	3738      	adds	r7, #56	; 0x38
     6c6:	46bd      	.short	0x46bd
     6c8:	bd80      	pop	{r7, pc}
     6ca:	bf00      	.short	0xbf00
     6cc:	0018      	movs	r0, r3
     6ce:	2000      	.short	0x2000
     6d0:	7610      	strb	r0, [r2, #24]
     6d2:	0000      	.short	0x0000
     6d4:	002c      	movs	r4, r5
     6d6:	2000      	.short	0x2000
     6d8:	7660      	strb	r0, [r4, #25]
     6da:	0000      	.short	0x0000
     6dc:	0030      	movs	r0, r6
     6de:	2000      	.short	0x2000
     6e0:	76b0      	strb	r0, [r6, #26]
     6e2:	0000      	.short	0x0000
     6e4:	0034      	movs	r4, r6
     6e6:	2000      	.short	0x2000

000006e8 <DbgConsole_Printf>:
     6e8:	b40f      	push	{r0, r1, r2, r3}
     6ea:	b580      	.short	0xb580
     6ec:	b0a4      	sub	sp, #144	; 0x90
     6ee:	af00      	.short	0xaf00
     6f0:	2300      	movs	r3, #0
     6f2:	f8c7      	.short	0xf8c7
     6f4:	308c      	adds	r0, #140	; 0x8c
     6f6:	2300      	.short	0x2300
     6f8:	f8c7 3088 	str.w	r3, [r7, #136]	; 0x88
     6fc:	22801d3b 	.word	0x22801d3b
     700:	2100      	movs	r1, #0
     702:	4618      	.short	0x4618
     704:	f006 fc3a 	bl	6f7c <memset>
     708:	681b4b12 	.word	0x681b4b12
     70c:	2b00      	cmp	r3, #0
     70e:	d101      	.short	0xd101
     710:	2300      	movs	r3, #0
     712:	e018      	.short	0xe018
     714:	f107 039c 	add.w	r3, r7, #156	; 0x9c
     718:	3084f8c7 	.word	0x3084f8c7
     71c:	1d3a      	adds	r2, r7, #4
     71e:	4b0e      	.short	0x4b0e
     720:	f8d7 1084 	ldr.w	r1, [r7, #132]	; 0x84
     724:	0098f8d7 	.word	0x0098f8d7
     728:	f005 f8aa 	bl	5880 <StrFormatPrintf>
     72c:	008cf8c7 	.word	0x008cf8c7
     730:	f8d7 208c 	ldr.w	r2, [r7, #140]	; 0x8c
     734:	46111d3b 	.word	0x46111d3b
     738:	4618      	mov	r0, r3
     73a:	f7ff      	.short	0xf7ff
     73c:	ff27 f8c7 	vsub.i32	<illegal reg q7.5>, <illegal reg q11.5>, <illegal reg q3.5>
     740:	f8d70088 	.word	0xf8d70088
     744:	3088      	adds	r0, #136	; 0x88
     746:	4618      	.short	0x4618
     748:	3790      	adds	r7, #144	; 0x90
     74a:	46bd      	.short	0x46bd
     74c:	e8bd 4080 	ldmia.w	sp!, {r7, lr}
     750:	4770b004 	.word	0x4770b004
     754:	0034      	movs	r4, r6
     756:	2000      	.short	0x2000
     758:	5709      	ldrsb	r1, [r1, r4]
	...

0000075c <main>:
     75c:	af00b580 	.word	0xaf00b580
     760:	f003 ff72 	bl	4648 <BOARD_ConfigMPU>
     764:	fc9af004 	.word	0xfc9af004
     768:	f004 f922 	bl	49b0 <BOARD_BootClockRUN>
     76c:	fb34f006 	.word	0xfb34f006
     770:	481c      	ldr	r0, [pc, #112]	; (7e4 <main+0x88>)
     772:	f7ff      	.short	0xf7ff
     774:	ffb9 481c 	vqshrun.s64	d4, q6, #7
     778:	ffb6f7ff 	.word	0xffb6f7ff
     77c:	481b      	ldr	r0, [pc, #108]	; (7ec <main+0x90>)
     77e:	f7ff      	.short	0xf7ff
     780:	ffb3 481b 	vqshrun.s64	d4, <illegal reg q5.5>, #13
     784:	ffb0f7ff 	.word	0xffb0f7ff
     788:	481a      	ldr	r0, [pc, #104]	; (7f4 <main+0x98>)
     78a:	f7ff      	.short	0xf7ff
     78c:	ffad 481a 	vqshrun.s64	d4, q5, #19
     790:	ffaaf7ff 	.word	0xffaaf7ff
     794:	4819      	ldr	r0, [pc, #100]	; (7fc <main+0xa0>)
     796:	f7ff      	.short	0xf7ff
     798:	ffa7 4819 	vqshrun.s64	d4, <illegal reg q4.5>, #25
     79c:	ffa4f7ff 	.word	0xffa4f7ff
     7a0:	4818      	ldr	r0, [pc, #96]	; (804 <main+0xa8>)
     7a2:	f7ff      	.short	0xf7ff
     7a4:	ffa1 4818 	vqshrun.s64	d4, q4, #31
     7a8:	ff9ef7ff 	.word	0xff9ef7ff
     7ac:	4b17      	ldr	r3, [pc, #92]	; (80c <main+0xb0>)
     7ae:	689b      	.short	0x689b
     7b0:	4817      	ldr	r0, [pc, #92]	; (810 <main+0xb4>)
     7b2:	4798      	.short	0x4798
     7b4:	4b15      	ldr	r3, [pc, #84]	; (80c <main+0xb0>)
     7b6:	691b      	.short	0x691b
     7b8:	2002      	movs	r0, #2
     7ba:	4798      	.short	0x4798
     7bc:	4b13      	ldr	r3, [pc, #76]	; (80c <main+0xb0>)
     7be:	6a5b      	.short	0x6a5b
     7c0:	4914      	ldr	r1, [pc, #80]	; (814 <main+0xb8>)
     7c2:	2001      	.short	0x2001
     7c4:	4798      	blx	r3
     7c6:	2200      	movs	r2, #0
     7c8:	4813210b 	.word	0x4813210b
     7cc:	f001 f94a 	bl	1a64 <GPIO_PinWrite>
     7d0:	f0052032 	.word	0xf0052032
     7d4:	fc69 20fa 	stc2l	0, cr2, [r9], #-1000	; 0xfffffc18
     7d8:	fc66f005 	.word	0xfc66f005
     7dc:	f000 f906 	bl	9ec <W5100_Init>
     7e0:	bf00e7fe 	.word	0xbf00e7fe
     7e4:	7700      	strb	r0, [r0, #28]
     7e6:	0000      	.short	0x0000
     7e8:	7738      	strb	r0, [r7, #28]
     7ea:	0000      	.short	0x0000
     7ec:	7778      	strb	r0, [r7, #29]
     7ee:	0000      	.short	0x0000
     7f0:	77bc      	strb	r4, [r7, #30]
     7f2:	0000      	.short	0x0000
     7f4:	7814      	ldrb	r4, [r2, #0]
     7f6:	0000      	.short	0x0000
     7f8:	7838      	ldrb	r0, [r7, #0]
     7fa:	0000      	.short	0x0000
     7fc:	7854      	ldrb	r4, [r2, #1]
     7fe:	0000      	.short	0x0000
     800:	7870      	ldrb	r0, [r6, #1]
     802:	0000      	.short	0x0000
     804:	788c      	ldrb	r4, [r1, #2]
     806:	0000      	.short	0x0000
     808:	78a8      	ldrb	r0, [r5, #2]
     80a:	0000      	.short	0x0000
     80c:	8f80      	ldrh	r0, [r0, #60]	; 0x3c
     80e:	0000      	.short	0x0000
     810:	0831      	lsrs	r1, r6, #32
     812:	0000      	.short	0x0000
     814:	86a0      	strh	r0, [r4, #52]	; 0x34
     816:	0001      	.short	0x0001
     818:	c000      	stmia	r0!, {}
     81a:	401b      	.short	0x401b

0000081c <LPSPI4_GetFreq>:
     81c:	b480      	push	{r7}
     81e:	af00      	.short	0xaf00
     820:	4b02      	ldr	r3, [pc, #8]	; (82c <LPSPI4_GetFreq+0x10>)
     822:	4618      	.short	0x4618
     824:	46bd      	mov	sp, r7
     826:	f85d      	.short	0xf85d
     828:	7b04      	ldrb	r4, [r0, #12]
     82a:	4770      	.short	0x4770
     82c:	1480      	asrs	r0, r0, #18
     82e:	03ef      	.short	0x03ef

00000830 <LPSPI_MasterSignalEvent_t>:
     830:	b480      	push	{r7}
     832:	b083      	.short	0xb083
     834:	af00      	add	r7, sp, #0
     836:	6078      	.short	0x6078
     838:	4b0c      	ldr	r3, [pc, #48]	; (86c <LPSPI_MasterSignalEvent_t+0x3c>)
     83a:	781b      	.short	0x781b
     83c:	b2db      	uxtb	r3, r3
     83e:	2b00      	.short	0x2b00
     840:	d002      	beq.n	848 <LPSPI_MasterSignalEvent_t+0x18>
     842:	4b0a      	.short	0x4b0a
     844:	2200      	movs	r2, #0
     846:	701a      	.short	0x701a
     848:	4b09      	ldr	r3, [pc, #36]	; (870 <LPSPI_MasterSignalEvent_t+0x40>)
     84a:	781b      	.short	0x781b
     84c:	b2db      	uxtb	r3, r3
     84e:	2b00      	.short	0x2b00
     850:	d002      	beq.n	858 <LPSPI_MasterSignalEvent_t+0x28>
     852:	4b07      	.short	0x4b07
     854:	2200      	movs	r2, #0
     856:	701a      	.short	0x701a
     858:	4b06      	ldr	r3, [pc, #24]	; (874 <LPSPI_MasterSignalEvent_t+0x44>)
     85a:	2201      	.short	0x2201
     85c:	701a      	strb	r2, [r3, #0]
     85e:	bf00      	.short	0xbf00
     860:	370c      	adds	r7, #12
     862:	46bd      	.short	0x46bd
     864:	f85d 7b04 	ldr.w	r7, [sp], #4
     868:	bf004770 	.word	0xbf004770
     86c:	020b      	lsls	r3, r1, #8
     86e:	2000      	.short	0x2000
     870:	020a      	lsls	r2, r1, #8
     872:	2000      	.short	0x2000
     874:	0209      	lsls	r1, r1, #8
     876:	2000      	.short	0x2000

00000878 <SPI_Write>:
     878:	b580      	push	{r7, lr}
     87a:	b082      	sub	sp, #8
     87c:	af00      	add	r7, sp, #0
     87e:	4603      	mov	r3, r0
     880:	460a      	mov	r2, r1
     882:	80fb      	strh	r3, [r7, #6]
     884:	4613      	mov	r3, r2
     886:	717b      	strb	r3, [r7, #5]
     888:	4b22      	ldr	r3, [pc, #136]	; (914 <SPI_Write+0x9c>)
     88a:	22f0      	movs	r2, #240	; 0xf0
     88c:	701a      	strb	r2, [r3, #0]
     88e:	88fb      	ldrh	r3, [r7, #6]
     890:	0a1b      	lsrs	r3, r3, #8
     892:	b29b      	uxth	r3, r3
     894:	b2da      	uxtb	r2, r3
     896:	4b1f      	ldr	r3, [pc, #124]	; (914 <SPI_Write+0x9c>)
     898:	705a      	strb	r2, [r3, #1]
     89a:	88fb      	ldrh	r3, [r7, #6]
     89c:	b2da      	uxtb	r2, r3
     89e:	4b1d      	ldr	r3, [pc, #116]	; (914 <SPI_Write+0x9c>)
     8a0:	709a      	strb	r2, [r3, #2]
     8a2:	4a1c      	ldr	r2, [pc, #112]	; (914 <SPI_Write+0x9c>)
     8a4:	797b      	ldrb	r3, [r7, #5]
     8a6:	70d3      	strb	r3, [r2, #3]
     8a8:	4b1b      	ldr	r3, [pc, #108]	; (918 <SPI_Write+0xa0>)
     8aa:	2200      	movs	r2, #0
     8ac:	701a      	strb	r2, [r3, #0]
     8ae:	4b1b      	ldr	r3, [pc, #108]	; (91c <SPI_Write+0xa4>)
     8b0:	2201      	movs	r2, #1
     8b2:	701a      	strb	r2, [r3, #0]
     8b4:	4b1a      	ldr	r3, [pc, #104]	; (920 <SPI_Write+0xa8>)
     8b6:	69db      	ldr	r3, [r3, #28]
     8b8:	2204      	movs	r2, #4
     8ba:	491a      	ldr	r1, [pc, #104]	; (924 <SPI_Write+0xac>)
     8bc:	4815      	ldr	r0, [pc, #84]	; (914 <SPI_Write+0x9c>)
     8be:	4798      	blx	r3
     8c0:	bf00      	nop
     8c2:	4b15      	ldr	r3, [pc, #84]	; (918 <SPI_Write+0xa0>)
     8c4:	781b      	ldrb	r3, [r3, #0]
     8c6:	b2db      	uxtb	r3, r3
     8c8:	f083 0301 	eor.w	r3, r3, #1
     8cc:	b2db      	uxtb	r3, r3
     8ce:	2b00      	cmp	r3, #0
     8d0:	d1f7      	bne.n	8c2 <SPI_Write+0x4a>
     8d2:	4b11      	ldr	r3, [pc, #68]	; (918 <SPI_Write+0xa0>)
     8d4:	2200      	movs	r2, #0
     8d6:	701a      	strb	r2, [r3, #0]
     8d8:	4b13      	ldr	r3, [pc, #76]	; (928 <SPI_Write+0xb0>)
     8da:	2201      	movs	r2, #1
     8dc:	701a      	strb	r2, [r3, #0]
     8de:	2001      	movs	r0, #1
     8e0:	f005 fbe2 	bl	60a8 <_delay_ms>
     8e4:	4b11      	ldr	r3, [pc, #68]	; (92c <SPI_Write+0xb4>)
     8e6:	2200      	movs	r2, #0
     8e8:	701a      	strb	r2, [r3, #0]
     8ea:	e00b      	b.n	904 <SPI_Write+0x8c>
     8ec:	4b0f      	ldr	r3, [pc, #60]	; (92c <SPI_Write+0xb4>)
     8ee:	781b      	ldrb	r3, [r3, #0]
     8f0:	461a      	mov	r2, r3
     8f2:	4b0c      	ldr	r3, [pc, #48]	; (924 <SPI_Write+0xac>)
     8f4:	2100      	movs	r1, #0
     8f6:	5499      	strb	r1, [r3, r2]
     8f8:	4b0c      	ldr	r3, [pc, #48]	; (92c <SPI_Write+0xb4>)
     8fa:	781b      	ldrb	r3, [r3, #0]
     8fc:	3301      	adds	r3, #1
     8fe:	b2da      	uxtb	r2, r3
     900:	4b0a      	ldr	r3, [pc, #40]	; (92c <SPI_Write+0xb4>)
     902:	701a      	strb	r2, [r3, #0]
     904:	4b09      	ldr	r3, [pc, #36]	; (92c <SPI_Write+0xb4>)
     906:	781b      	ldrb	r3, [r3, #0]
     908:	2b03      	cmp	r3, #3
     90a:	d9ef      	bls.n	8ec <SPI_Write+0x74>
     90c:	bf00      	nop
     90e:	3708      	adds	r7, #8
     910:	46bd      	mov	sp, r7
     912:	bd80      	pop	{r7, pc}
     914:	2000003c 	.word	0x2000003c
     918:	20000209 	.word	0x20000209
     91c:	2000020a 	.word	0x2000020a
     920:	00008f80 	.word	0x00008f80
     924:	20000038 	.word	0x20000038
     928:	2000020b 	.word	0x2000020b
     92c:	20000208 	.word	0x20000208

00000930 <SPI_Read>:
     930:	b580      	push	{r7, lr}
     932:	b082      	sub	sp, #8
     934:	af00      	add	r7, sp, #0
     936:	4603      	mov	r3, r0
     938:	80fb      	strh	r3, [r7, #6]
     93a:	4b25      	ldr	r3, [pc, #148]	; (9d0 <SPI_Read+0xa0>)
     93c:	220f      	movs	r2, #15
     93e:	701a      	strb	r2, [r3, #0]
     940:	88fb      	ldrh	r3, [r7, #6]
     942:	0a1b      	lsrs	r3, r3, #8
     944:	b29b      	uxth	r3, r3
     946:	b2da      	uxtb	r2, r3
     948:	4b21      	ldr	r3, [pc, #132]	; (9d0 <SPI_Read+0xa0>)
     94a:	705a      	strb	r2, [r3, #1]
     94c:	88fb      	ldrh	r3, [r7, #6]
     94e:	b2da      	uxtb	r2, r3
     950:	4b1f      	ldr	r3, [pc, #124]	; (9d0 <SPI_Read+0xa0>)
     952:	709a      	strb	r2, [r3, #2]
     954:	4b1e      	ldr	r3, [pc, #120]	; (9d0 <SPI_Read+0xa0>)
     956:	2200      	movs	r2, #0
     958:	70da      	strb	r2, [r3, #3]
     95a:	4b1e      	ldr	r3, [pc, #120]	; (9d4 <SPI_Read+0xa4>)
     95c:	2200      	movs	r2, #0
     95e:	701a      	strb	r2, [r3, #0]
     960:	4b1d      	ldr	r3, [pc, #116]	; (9d8 <SPI_Read+0xa8>)
     962:	2201      	movs	r2, #1
     964:	701a      	strb	r2, [r3, #0]
     966:	4b1d      	ldr	r3, [pc, #116]	; (9dc <SPI_Read+0xac>)
     968:	2200      	movs	r2, #0
     96a:	701a      	strb	r2, [r3, #0]
     96c:	e00b      	b.n	986 <SPI_Read+0x56>
     96e:	4b1b      	ldr	r3, [pc, #108]	; (9dc <SPI_Read+0xac>)
     970:	781b      	ldrb	r3, [r3, #0]
     972:	461a      	mov	r2, r3
     974:	4b1a      	ldr	r3, [pc, #104]	; (9e0 <SPI_Read+0xb0>)
     976:	2100      	movs	r1, #0
     978:	5499      	strb	r1, [r3, r2]
     97a:	4b18      	ldr	r3, [pc, #96]	; (9dc <SPI_Read+0xac>)
     97c:	781b      	ldrb	r3, [r3, #0]
     97e:	3301      	adds	r3, #1
     980:	b2da      	uxtb	r2, r3
     982:	4b16      	ldr	r3, [pc, #88]	; (9dc <SPI_Read+0xac>)
     984:	701a      	strb	r2, [r3, #0]
     986:	4b15      	ldr	r3, [pc, #84]	; (9dc <SPI_Read+0xac>)
     988:	781b      	ldrb	r3, [r3, #0]
     98a:	2b03      	cmp	r3, #3
     98c:	d9ef      	bls.n	96e <SPI_Read+0x3e>
     98e:	4b11      	ldr	r3, [pc, #68]	; (9d4 <SPI_Read+0xa4>)
     990:	2200      	movs	r2, #0
     992:	701a      	strb	r2, [r3, #0]
     994:	4b13      	ldr	r3, [pc, #76]	; (9e4 <SPI_Read+0xb4>)
     996:	2201      	movs	r2, #1
     998:	701a      	strb	r2, [r3, #0]
     99a:	4b13      	ldr	r3, [pc, #76]	; (9e8 <SPI_Read+0xb8>)
     99c:	69db      	ldr	r3, [r3, #28]
     99e:	2204      	movs	r2, #4
     9a0:	490f      	ldr	r1, [pc, #60]	; (9e0 <SPI_Read+0xb0>)
     9a2:	480b      	ldr	r0, [pc, #44]	; (9d0 <SPI_Read+0xa0>)
     9a4:	4798      	blx	r3
     9a6:	bf00      	nop
     9a8:	4b0a      	ldr	r3, [pc, #40]	; (9d4 <SPI_Read+0xa4>)
     9aa:	781b      	ldrb	r3, [r3, #0]
     9ac:	b2db      	uxtb	r3, r3
     9ae:	f083 0301 	eor.w	r3, r3, #1
     9b2:	b2db      	uxtb	r3, r3
     9b4:	2b00      	cmp	r3, #0
     9b6:	d1f7      	bne.n	9a8 <SPI_Read+0x78>
     9b8:	4b06      	ldr	r3, [pc, #24]	; (9d4 <SPI_Read+0xa4>)
     9ba:	2200      	movs	r2, #0
     9bc:	701a      	strb	r2, [r3, #0]
     9be:	4b06      	ldr	r3, [pc, #24]	; (9d8 <SPI_Read+0xa8>)
     9c0:	2201      	movs	r2, #1
     9c2:	701a      	strb	r2, [r3, #0]
     9c4:	4b06      	ldr	r3, [pc, #24]	; (9e0 <SPI_Read+0xb0>)
     9c6:	78db      	ldrb	r3, [r3, #3]
     9c8:	4618      	mov	r0, r3
     9ca:	3708      	adds	r7, #8
     9cc:	46bd      	mov	sp, r7
     9ce:	bd80      	pop	{r7, pc}
     9d0:	2000003c 	.word	0x2000003c
     9d4:	20000209 	.word	0x20000209
     9d8:	2000020b 	.word	0x2000020b
     9dc:	20000208 	.word	0x20000208
     9e0:	20000038 	.word	0x20000038
     9e4:	2000020a 	.word	0x2000020a
     9e8:	00008f80 	.word	0x00008f80

000009ec <W5100_Init>:
     9ec:	e92d 43f0 	stmdb	sp!, {r4, r5, r6, r7, r8, r9, lr}
     9f0:	b08b      	sub	sp, #44	; 0x2c
     9f2:	af04      	add	r7, sp, #16
     9f4:	4aa1      	ldr	r2, [pc, #644]	; (c7c <W5100_Init+0x290>)
     9f6:	f107 0310 	add.w	r3, r7, #16
     9fa:	e892 0003 	ldmia.w	r2, {r0, r1}
     9fe:	6018      	str	r0, [r3, #0]
     a00:	3304      	adds	r3, #4
     a02:	8019      	strh	r1, [r3, #0]
     a04:	4b9e      	ldr	r3, [pc, #632]	; (c80 <W5100_Init+0x294>)
     a06:	681b      	ldr	r3, [r3, #0]
     a08:	60fb      	str	r3, [r7, #12]
     a0a:	4b9e      	ldr	r3, [pc, #632]	; (c84 <W5100_Init+0x298>)
     a0c:	681b      	ldr	r3, [r3, #0]
     a0e:	60bb      	str	r3, [r7, #8]
     a10:	4b9d      	ldr	r3, [pc, #628]	; (c88 <W5100_Init+0x29c>)
     a12:	681b      	ldr	r3, [r3, #0]
     a14:	607b      	str	r3, [r7, #4]
     a16:	2180      	movs	r1, #128	; 0x80
     a18:	2000      	movs	r0, #0
     a1a:	f7ff ff2d 	bl	878 <SPI_Write>
     a1e:	200a      	movs	r0, #10
     a20:	f005 fb42 	bl	60a8 <_delay_ms>
     a24:	2000      	movs	r0, #0
     a26:	f7ff ff83 	bl	930 <SPI_Read>
     a2a:	4603      	mov	r3, r0
     a2c:	4619      	mov	r1, r3
     a2e:	4897      	ldr	r0, [pc, #604]	; (c8c <W5100_Init+0x2a0>)
     a30:	f7ff fe5a 	bl	6e8 <DbgConsole_Printf>
     a34:	793b      	ldrb	r3, [r7, #4]
     a36:	4619      	mov	r1, r3
     a38:	797b      	ldrb	r3, [r7, #5]
     a3a:	461a      	mov	r2, r3
     a3c:	79bb      	ldrb	r3, [r7, #6]
     a3e:	4618      	mov	r0, r3
     a40:	79fb      	ldrb	r3, [r7, #7]
     a42:	9300      	str	r3, [sp, #0]
     a44:	4603      	mov	r3, r0
     a46:	4892      	ldr	r0, [pc, #584]	; (c90 <W5100_Init+0x2a4>)
     a48:	f7ff fe4e 	bl	6e8 <DbgConsole_Printf>
     a4c:	793b      	ldrb	r3, [r7, #4]
     a4e:	4619      	mov	r1, r3
     a50:	2001      	movs	r0, #1
     a52:	f7ff ff11 	bl	878 <SPI_Write>
     a56:	797b      	ldrb	r3, [r7, #5]
     a58:	4619      	mov	r1, r3
     a5a:	2002      	movs	r0, #2
     a5c:	f7ff ff0c 	bl	878 <SPI_Write>
     a60:	79bb      	ldrb	r3, [r7, #6]
     a62:	4619      	mov	r1, r3
     a64:	2003      	movs	r0, #3
     a66:	f7ff ff07 	bl	878 <SPI_Write>
     a6a:	79fb      	ldrb	r3, [r7, #7]
     a6c:	4619      	mov	r1, r3
     a6e:	2004      	movs	r0, #4
     a70:	f7ff ff02 	bl	878 <SPI_Write>
     a74:	200a      	movs	r0, #10
     a76:	f005 fb17 	bl	60a8 <_delay_ms>
     a7a:	2001      	movs	r0, #1
     a7c:	f7ff ff58 	bl	930 <SPI_Read>
     a80:	4603      	mov	r3, r0
     a82:	461c      	mov	r4, r3
     a84:	2002      	movs	r0, #2
     a86:	f7ff ff53 	bl	930 <SPI_Read>
     a8a:	4603      	mov	r3, r0
     a8c:	461d      	mov	r5, r3
     a8e:	2003      	movs	r0, #3
     a90:	f7ff ff4e 	bl	930 <SPI_Read>
     a94:	4603      	mov	r3, r0
     a96:	461e      	mov	r6, r3
     a98:	2004      	movs	r0, #4
     a9a:	f7ff ff49 	bl	930 <SPI_Read>
     a9e:	4603      	mov	r3, r0
     aa0:	9300      	str	r3, [sp, #0]
     aa2:	4633      	mov	r3, r6
     aa4:	462a      	mov	r2, r5
     aa6:	4621      	mov	r1, r4
     aa8:	487a      	ldr	r0, [pc, #488]	; (c94 <W5100_Init+0x2a8>)
     aaa:	f7ff fe1d 	bl	6e8 <DbgConsole_Printf>
     aae:	7c3b      	ldrb	r3, [r7, #16]
     ab0:	4618      	mov	r0, r3
     ab2:	7c7b      	ldrb	r3, [r7, #17]
     ab4:	461c      	mov	r4, r3
     ab6:	7cbb      	ldrb	r3, [r7, #18]
     ab8:	461d      	mov	r5, r3
     aba:	7cfb      	ldrb	r3, [r7, #19]
     abc:	7d3a      	ldrb	r2, [r7, #20]
     abe:	7d79      	ldrb	r1, [r7, #21]
     ac0:	9102      	str	r1, [sp, #8]
     ac2:	9201      	str	r2, [sp, #4]
     ac4:	9300      	str	r3, [sp, #0]
     ac6:	462b      	mov	r3, r5
     ac8:	4622      	mov	r2, r4
     aca:	4601      	mov	r1, r0
     acc:	4872      	ldr	r0, [pc, #456]	; (c98 <W5100_Init+0x2ac>)
     ace:	f7ff fe0b 	bl	6e8 <DbgConsole_Printf>
     ad2:	7c3b      	ldrb	r3, [r7, #16]
     ad4:	4619      	mov	r1, r3
     ad6:	2009      	movs	r0, #9
     ad8:	f7ff fece 	bl	878 <SPI_Write>
     adc:	7c7b      	ldrb	r3, [r7, #17]
     ade:	4619      	mov	r1, r3
     ae0:	200a      	movs	r0, #10
     ae2:	f7ff fec9 	bl	878 <SPI_Write>
     ae6:	7cbb      	ldrb	r3, [r7, #18]
     ae8:	4619      	mov	r1, r3
     aea:	200b      	movs	r0, #11
     aec:	f7ff fec4 	bl	878 <SPI_Write>
     af0:	7cfb      	ldrb	r3, [r7, #19]
     af2:	4619      	mov	r1, r3
     af4:	200c      	movs	r0, #12
     af6:	f7ff febf 	bl	878 <SPI_Write>
     afa:	7d3b      	ldrb	r3, [r7, #20]
     afc:	4619      	mov	r1, r3
     afe:	200d      	movs	r0, #13
     b00:	f7ff feba 	bl	878 <SPI_Write>
     b04:	7d7b      	ldrb	r3, [r7, #21]
     b06:	4619      	mov	r1, r3
     b08:	200e      	movs	r0, #14
     b0a:	f7ff feb5 	bl	878 <SPI_Write>
     b0e:	200a      	movs	r0, #10
     b10:	f005 faca 	bl	60a8 <_delay_ms>
     b14:	2009      	movs	r0, #9
     b16:	f7ff ff0b 	bl	930 <SPI_Read>
     b1a:	4603      	mov	r3, r0
     b1c:	461e      	mov	r6, r3
     b1e:	200a      	movs	r0, #10
     b20:	f7ff ff06 	bl	930 <SPI_Read>
     b24:	4603      	mov	r3, r0
     b26:	4698      	mov	r8, r3
     b28:	200b      	movs	r0, #11
     b2a:	f7ff ff01 	bl	930 <SPI_Read>
     b2e:	4603      	mov	r3, r0
     b30:	4699      	mov	r9, r3
     b32:	200c      	movs	r0, #12
     b34:	f7ff fefc 	bl	930 <SPI_Read>
     b38:	4603      	mov	r3, r0
     b3a:	461c      	mov	r4, r3
     b3c:	200d      	movs	r0, #13
     b3e:	f7ff fef7 	bl	930 <SPI_Read>
     b42:	4603      	mov	r3, r0
     b44:	461d      	mov	r5, r3
     b46:	200e      	movs	r0, #14
     b48:	f7ff fef2 	bl	930 <SPI_Read>
     b4c:	4603      	mov	r3, r0
     b4e:	9302      	str	r3, [sp, #8]
     b50:	9501      	str	r5, [sp, #4]
     b52:	9400      	str	r4, [sp, #0]
     b54:	464b      	mov	r3, r9
     b56:	4642      	mov	r2, r8
     b58:	4631      	mov	r1, r6
     b5a:	4850      	ldr	r0, [pc, #320]	; (c9c <W5100_Init+0x2b0>)
     b5c:	f7ff fdc4 	bl	6e8 <DbgConsole_Printf>
     b60:	7a3b      	ldrb	r3, [r7, #8]
     b62:	4619      	mov	r1, r3
     b64:	7a7b      	ldrb	r3, [r7, #9]
     b66:	461a      	mov	r2, r3
     b68:	7abb      	ldrb	r3, [r7, #10]
     b6a:	4618      	mov	r0, r3
     b6c:	7afb      	ldrb	r3, [r7, #11]
     b6e:	9300      	str	r3, [sp, #0]
     b70:	4603      	mov	r3, r0
     b72:	484b      	ldr	r0, [pc, #300]	; (ca0 <W5100_Init+0x2b4>)
     b74:	f7ff fdb8 	bl	6e8 <DbgConsole_Printf>
     b78:	7a3b      	ldrb	r3, [r7, #8]
     b7a:	4619      	mov	r1, r3
     b7c:	2005      	movs	r0, #5
     b7e:	f7ff fe7b 	bl	878 <SPI_Write>
     b82:	7a7b      	ldrb	r3, [r7, #9]
     b84:	4619      	mov	r1, r3
     b86:	2006      	movs	r0, #6
     b88:	f7ff fe76 	bl	878 <SPI_Write>
     b8c:	7abb      	ldrb	r3, [r7, #10]
     b8e:	4619      	mov	r1, r3
     b90:	2007      	movs	r0, #7
     b92:	f7ff fe71 	bl	878 <SPI_Write>
     b96:	7afb      	ldrb	r3, [r7, #11]
     b98:	4619      	mov	r1, r3
     b9a:	2008      	movs	r0, #8
     b9c:	f7ff fe6c 	bl	878 <SPI_Write>
     ba0:	200a      	movs	r0, #10
     ba2:	f005 fa81 	bl	60a8 <_delay_ms>
     ba6:	2005      	movs	r0, #5
     ba8:	f7ff fec2 	bl	930 <SPI_Read>
     bac:	4603      	mov	r3, r0
     bae:	461c      	mov	r4, r3
     bb0:	2006      	movs	r0, #6
     bb2:	f7ff febd 	bl	930 <SPI_Read>
     bb6:	4603      	mov	r3, r0
     bb8:	461d      	mov	r5, r3
     bba:	2007      	movs	r0, #7
     bbc:	f7ff feb8 	bl	930 <SPI_Read>
     bc0:	4603      	mov	r3, r0
     bc2:	461e      	mov	r6, r3
     bc4:	2008      	movs	r0, #8
     bc6:	f7ff feb3 	bl	930 <SPI_Read>
     bca:	4603      	mov	r3, r0
     bcc:	9300      	str	r3, [sp, #0]
     bce:	4633      	mov	r3, r6
     bd0:	462a      	mov	r2, r5
     bd2:	4621      	mov	r1, r4
     bd4:	4833      	ldr	r0, [pc, #204]	; (ca4 <W5100_Init+0x2b8>)
     bd6:	f7ff fd87 	bl	6e8 <DbgConsole_Printf>
     bda:	7b3b      	ldrb	r3, [r7, #12]
     bdc:	4619      	mov	r1, r3
     bde:	7b7b      	ldrb	r3, [r7, #13]
     be0:	461a      	mov	r2, r3
     be2:	7bbb      	ldrb	r3, [r7, #14]
     be4:	4618      	mov	r0, r3
     be6:	7bfb      	ldrb	r3, [r7, #15]
     be8:	9300      	str	r3, [sp, #0]
     bea:	4603      	mov	r3, r0
     bec:	482e      	ldr	r0, [pc, #184]	; (ca8 <W5100_Init+0x2bc>)
     bee:	f7ff fd7b 	bl	6e8 <DbgConsole_Printf>
     bf2:	7b3b      	ldrb	r3, [r7, #12]
     bf4:	4619      	mov	r1, r3
     bf6:	200f      	movs	r0, #15
     bf8:	f7ff fe3e 	bl	878 <SPI_Write>
     bfc:	7b7b      	ldrb	r3, [r7, #13]
     bfe:	4619      	mov	r1, r3
     c00:	2010      	movs	r0, #16
     c02:	f7ff fe39 	bl	878 <SPI_Write>
     c06:	7bbb      	ldrb	r3, [r7, #14]
     c08:	4619      	mov	r1, r3
     c0a:	2011      	movs	r0, #17
     c0c:	f7ff fe34 	bl	878 <SPI_Write>
     c10:	7bfb      	ldrb	r3, [r7, #15]
     c12:	4619      	mov	r1, r3
     c14:	2012      	movs	r0, #18
     c16:	f7ff fe2f 	bl	878 <SPI_Write>
     c1a:	200a      	movs	r0, #10
     c1c:	f005 fa44 	bl	60a8 <_delay_ms>
     c20:	200f      	movs	r0, #15
     c22:	f7ff fe85 	bl	930 <SPI_Read>
     c26:	4603      	mov	r3, r0
     c28:	461c      	mov	r4, r3
     c2a:	2010      	movs	r0, #16
     c2c:	f7ff fe80 	bl	930 <SPI_Read>
     c30:	4603      	mov	r3, r0
     c32:	461d      	mov	r5, r3
     c34:	2011      	movs	r0, #17
     c36:	f7ff fe7b 	bl	930 <SPI_Read>
     c3a:	4603      	mov	r3, r0
     c3c:	461e      	mov	r6, r3
     c3e:	2012      	movs	r0, #18
     c40:	f7ff fe76 	bl	930 <SPI_Read>
     c44:	4603      	mov	r3, r0
     c46:	9300      	str	r3, [sp, #0]
     c48:	4633      	mov	r3, r6
     c4a:	462a      	mov	r2, r5
     c4c:	4621      	mov	r1, r4
     c4e:	4817      	ldr	r0, [pc, #92]	; (cac <W5100_Init+0x2c0>)
     c50:	f7ff fd4a 	bl	6e8 <DbgConsole_Printf>
     c54:	4816      	ldr	r0, [pc, #88]	; (cb0 <W5100_Init+0x2c4>)
     c56:	f7ff fd47 	bl	6e8 <DbgConsole_Printf>
     c5a:	2155      	movs	r1, #85	; 0x55
     c5c:	201a      	movs	r0, #26
     c5e:	f7ff fe0b 	bl	878 <SPI_Write>
     c62:	2155      	movs	r1, #85	; 0x55
     c64:	201b      	movs	r0, #27
     c66:	f7ff fe07 	bl	878 <SPI_Write>
     c6a:	4812      	ldr	r0, [pc, #72]	; (cb4 <W5100_Init+0x2c8>)
     c6c:	f7ff fd3c 	bl	6e8 <DbgConsole_Printf>
     c70:	bf00      	nop
     c72:	371c      	adds	r7, #28
     c74:	46bd      	mov	sp, r7
     c76:	e8bd 83f0 	ldmia.w	sp!, {r4, r5, r6, r7, r8, r9, pc}
     c7a:	bf00      	nop
     c7c:	00007a14 	.word	0x00007a14
     c80:	00007a1c 	.word	0x00007a1c
     c84:	00007a20 	.word	0x00007a20
     c88:	00007a24 	.word	0x00007a24
     c8c:	000078c4 	.word	0x000078c4
     c90:	000078d4 	.word	0x000078d4
     c94:	000078f0 	.word	0x000078f0
     c98:	0000790c 	.word	0x0000790c
     c9c:	00007938 	.word	0x00007938
     ca0:	00007964 	.word	0x00007964
     ca4:	00007980 	.word	0x00007980
     ca8:	0000799c 	.word	0x0000799c
     cac:	000079b8 	.word	0x000079b8
     cb0:	000079d4 	.word	0x000079d4
     cb4:	000079f4 	.word	0x000079f4

00000cb8 <CLOCK_GetOscFreq>:
     cb8:	b480      	push	{r7}
     cba:	af00      	add	r7, sp, #0
     cbc:	4b07      	ldr	r3, [pc, #28]	; (cdc <CLOCK_GetOscFreq+0x24>)
     cbe:	f8d3 3270 	ldr.w	r3, [r3, #624]	; 0x270
     cc2:	f003 0310 	and.w	r3, r3, #16
     cc6:	2b00      	cmp	r3, #0
     cc8:	d102      	bne.n	cd0 <CLOCK_GetOscFreq+0x18>
     cca:	4b05      	ldr	r3, [pc, #20]	; (ce0 <CLOCK_GetOscFreq+0x28>)
     ccc:	681b      	ldr	r3, [r3, #0]
     cce:	e000      	b.n	cd2 <CLOCK_GetOscFreq+0x1a>
     cd0:	4b04      	ldr	r3, [pc, #16]	; (ce4 <CLOCK_GetOscFreq+0x2c>)
     cd2:	4618      	mov	r0, r3
     cd4:	46bd      	mov	sp, r7
     cd6:	f85d 7b04 	ldr.w	r7, [sp], #4
     cda:	4770      	bx	lr
     cdc:	400d8000 	.word	0x400d8000
     ce0:	20000040 	.word	0x20000040
     ce4:	016e3600 	.word	0x016e3600

00000ce8 <CLOCK_InitExternalClk>:
     ce8:	b580      	push	{r7, lr}
     cea:	b082      	sub	sp, #8
     cec:	af00      	add	r7, sp, #0
     cee:	4603      	mov	r3, r0
     cf0:	71fb      	strb	r3, [r7, #7]
     cf2:	79fb      	ldrb	r3, [r7, #7]
     cf4:	f083 0301 	eor.w	r3, r3, #1
     cf8:	b2db      	uxtb	r3, r3
     cfa:	2b00      	cmp	r3, #0
     cfc:	d102      	bne.n	d04 <CLOCK_InitExternalClk+0x1c>
     cfe:	4813      	ldr	r0, [pc, #76]	; (d4c <CLOCK_InitExternalClk+0x64>)
     d00:	f004 fae6 	bl	52d0 <__assertion_failed>
     d04:	4b12      	ldr	r3, [pc, #72]	; (d50 <CLOCK_InitExternalClk+0x68>)
     d06:	f04f 4280 	mov.w	r2, #1073741824	; 0x40000000
     d0a:	f8c3 2158 	str.w	r2, [r3, #344]	; 0x158
     d0e:	bf00      	nop
     d10:	4b0f      	ldr	r3, [pc, #60]	; (d50 <CLOCK_InitExternalClk+0x68>)
     d12:	f8d3 3270 	ldr.w	r3, [r3, #624]	; 0x270
     d16:	f403 3380 	and.w	r3, r3, #65536	; 0x10000
     d1a:	2b00      	cmp	r3, #0
     d1c:	d0f8      	beq.n	d10 <CLOCK_InitExternalClk+0x28>
     d1e:	4b0c      	ldr	r3, [pc, #48]	; (d50 <CLOCK_InitExternalClk+0x68>)
     d20:	f44f 3280 	mov.w	r2, #65536	; 0x10000
     d24:	f8c3 2154 	str.w	r2, [r3, #340]	; 0x154
     d28:	bf00      	nop
     d2a:	4b09      	ldr	r3, [pc, #36]	; (d50 <CLOCK_InitExternalClk+0x68>)
     d2c:	f8d3 3150 	ldr.w	r3, [r3, #336]	; 0x150
     d30:	f403 4300 	and.w	r3, r3, #32768	; 0x8000
     d34:	2b00      	cmp	r3, #0
     d36:	d0f8      	beq.n	d2a <CLOCK_InitExternalClk+0x42>
     d38:	4b05      	ldr	r3, [pc, #20]	; (d50 <CLOCK_InitExternalClk+0x68>)
     d3a:	f44f 3280 	mov.w	r2, #65536	; 0x10000
     d3e:	f8c3 2158 	str.w	r2, [r3, #344]	; 0x158
     d42:	bf00      	nop
     d44:	3708      	adds	r7, #8
     d46:	46bd      	mov	sp, r7
     d48:	bd80      	pop	{r7, pc}
     d4a:	bf00      	nop
     d4c:	00007a28 	.word	0x00007a28
     d50:	400d8000 	.word	0x400d8000

00000d54 <CLOCK_SwitchOsc>:
     d54:	b480      	push	{r7}
     d56:	b083      	sub	sp, #12
     d58:	af00      	add	r7, sp, #0
     d5a:	4603      	mov	r3, r0
     d5c:	71fb      	strb	r3, [r7, #7]
     d5e:	79fb      	ldrb	r3, [r7, #7]
     d60:	2b00      	cmp	r3, #0
     d62:	d104      	bne.n	d6e <CLOCK_SwitchOsc+0x1a>
     d64:	4b07      	ldr	r3, [pc, #28]	; (d84 <CLOCK_SwitchOsc+0x30>)
     d66:	2210      	movs	r2, #16
     d68:	f8c3 2274 	str.w	r2, [r3, #628]	; 0x274
     d6c:	e003      	b.n	d76 <CLOCK_SwitchOsc+0x22>
     d6e:	4b05      	ldr	r3, [pc, #20]	; (d84 <CLOCK_SwitchOsc+0x30>)
     d70:	2210      	movs	r2, #16
     d72:	f8c3 2278 	str.w	r2, [r3, #632]	; 0x278
     d76:	bf00      	nop
     d78:	370c      	adds	r7, #12
     d7a:	46bd      	mov	sp, r7
     d7c:	f85d 7b04 	ldr.w	r7, [sp], #4
     d80:	4770      	bx	lr
     d82:	bf00      	nop
     d84:	400d8000 	.word	0x400d8000

00000d88 <CLOCK_InitRcOsc24M>:
     d88:	b480      	push	{r7}
     d8a:	af00      	add	r7, sp, #0
     d8c:	4b06      	ldr	r3, [pc, #24]	; (da8 <CLOCK_InitRcOsc24M+0x20>)
     d8e:	f8d3 3270 	ldr.w	r3, [r3, #624]	; 0x270
     d92:	4a05      	ldr	r2, [pc, #20]	; (da8 <CLOCK_InitRcOsc24M+0x20>)
     d94:	f043 0301 	orr.w	r3, r3, #1
     d98:	f8c2 3270 	str.w	r3, [r2, #624]	; 0x270
     d9c:	bf00      	nop
     d9e:	46bd      	mov	sp, r7
     da0:	f85d 7b04 	ldr.w	r7, [sp], #4
     da4:	4770      	bx	lr
     da6:	bf00      	nop
     da8:	400d8000 	.word	0x400d8000

00000dac <CLOCK_InitArmPll>:
     dac:	b480      	push	{r7}
     dae:	b083      	sub	sp, #12
     db0:	af00      	add	r7, sp, #0
     db2:	6078      	str	r0, [r7, #4]
     db4:	4b15      	ldr	r3, [pc, #84]	; (e0c <CLOCK_InitArmPll+0x60>)
     db6:	681b      	ldr	r3, [r3, #0]
     db8:	f423 32e0 	bic.w	r2, r3, #114688	; 0x1c000
     dbc:	687b      	ldr	r3, [r7, #4]
     dbe:	791b      	ldrb	r3, [r3, #4]
     dc0:	039b      	lsls	r3, r3, #14
     dc2:	b29b      	uxth	r3, r3
     dc4:	4313      	orrs	r3, r2
     dc6:	4a11      	ldr	r2, [pc, #68]	; (e0c <CLOCK_InitArmPll+0x60>)
     dc8:	f443 3380 	orr.w	r3, r3, #65536	; 0x10000
     dcc:	6013      	str	r3, [r2, #0]
     dce:	4b0f      	ldr	r3, [pc, #60]	; (e0c <CLOCK_InitArmPll+0x60>)
     dd0:	681a      	ldr	r2, [r3, #0]
     dd2:	4b0f      	ldr	r3, [pc, #60]	; (e10 <CLOCK_InitArmPll+0x64>)
     dd4:	4013      	ands	r3, r2
     dd6:	687a      	ldr	r2, [r7, #4]
     dd8:	6812      	ldr	r2, [r2, #0]
     dda:	f002 027f 	and.w	r2, r2, #127	; 0x7f
     dde:	4313      	orrs	r3, r2
     de0:	4a0a      	ldr	r2, [pc, #40]	; (e0c <CLOCK_InitArmPll+0x60>)
     de2:	f443 5300 	orr.w	r3, r3, #8192	; 0x2000
     de6:	6013      	str	r3, [r2, #0]
     de8:	bf00      	nop
     dea:	4b08      	ldr	r3, [pc, #32]	; (e0c <CLOCK_InitArmPll+0x60>)
     dec:	681b      	ldr	r3, [r3, #0]
     dee:	2b00      	cmp	r3, #0
     df0:	dafb      	bge.n	dea <CLOCK_InitArmPll+0x3e>
     df2:	4b06      	ldr	r3, [pc, #24]	; (e0c <CLOCK_InitArmPll+0x60>)
     df4:	681b      	ldr	r3, [r3, #0]
     df6:	4a05      	ldr	r2, [pc, #20]	; (e0c <CLOCK_InitArmPll+0x60>)
     df8:	f423 3380 	bic.w	r3, r3, #65536	; 0x10000
     dfc:	6013      	str	r3, [r2, #0]
     dfe:	bf00      	nop
     e00:	370c      	adds	r7, #12
     e02:	46bd      	mov	sp, r7
     e04:	f85d 7b04 	ldr.w	r7, [sp], #4
     e08:	4770      	bx	lr
     e0a:	bf00      	nop
     e0c:	400d8000 	.word	0x400d8000
     e10:	ffffcf80 	.word	0xffffcf80

00000e14 <CLOCK_InitSysPll>:
     e14:	b480      	push	{r7}
     e16:	b083      	sub	sp, #12
     e18:	af00      	add	r7, sp, #0
     e1a:	6078      	str	r0, [r7, #4]
     e1c:	4b22      	ldr	r3, [pc, #136]	; (ea8 <CLOCK_InitSysPll+0x94>)
     e1e:	6b1b      	ldr	r3, [r3, #48]	; 0x30
     e20:	f423 32e0 	bic.w	r2, r3, #114688	; 0x1c000
     e24:	687b      	ldr	r3, [r7, #4]
     e26:	7b1b      	ldrb	r3, [r3, #12]
     e28:	039b      	lsls	r3, r3, #14
     e2a:	b29b      	uxth	r3, r3
     e2c:	4313      	orrs	r3, r2
     e2e:	4a1e      	ldr	r2, [pc, #120]	; (ea8 <CLOCK_InitSysPll+0x94>)
     e30:	f443 3380 	orr.w	r3, r3, #65536	; 0x10000
     e34:	6313      	str	r3, [r2, #48]	; 0x30
     e36:	4b1c      	ldr	r3, [pc, #112]	; (ea8 <CLOCK_InitSysPll+0x94>)
     e38:	6b1a      	ldr	r2, [r3, #48]	; 0x30
     e3a:	4b1c      	ldr	r3, [pc, #112]	; (eac <CLOCK_InitSysPll+0x98>)
     e3c:	4013      	ands	r3, r2
     e3e:	687a      	ldr	r2, [r7, #4]
     e40:	7812      	ldrb	r2, [r2, #0]
     e42:	f002 0201 	and.w	r2, r2, #1
     e46:	4313      	orrs	r3, r2
     e48:	4a17      	ldr	r2, [pc, #92]	; (ea8 <CLOCK_InitSysPll+0x94>)
     e4a:	f443 5300 	orr.w	r3, r3, #8192	; 0x2000
     e4e:	6313      	str	r3, [r2, #48]	; 0x30
     e50:	687b      	ldr	r3, [r7, #4]
     e52:	685b      	ldr	r3, [r3, #4]
     e54:	4a14      	ldr	r2, [pc, #80]	; (ea8 <CLOCK_InitSysPll+0x94>)
     e56:	f023 4340 	bic.w	r3, r3, #3221225472	; 0xc0000000
     e5a:	6513      	str	r3, [r2, #80]	; 0x50
     e5c:	687b      	ldr	r3, [r7, #4]
     e5e:	689b      	ldr	r3, [r3, #8]
     e60:	4a11      	ldr	r2, [pc, #68]	; (ea8 <CLOCK_InitSysPll+0x94>)
     e62:	f023 4340 	bic.w	r3, r3, #3221225472	; 0xc0000000
     e66:	6613      	str	r3, [r2, #96]	; 0x60
     e68:	687b      	ldr	r3, [r7, #4]
     e6a:	8a5b      	ldrh	r3, [r3, #18]
     e6c:	f3c3 020e 	ubfx	r2, r3, #0, #15
     e70:	687b      	ldr	r3, [r7, #4]
     e72:	7c1b      	ldrb	r3, [r3, #16]
     e74:	03db      	lsls	r3, r3, #15
     e76:	b29b      	uxth	r3, r3
     e78:	431a      	orrs	r2, r3
     e7a:	687b      	ldr	r3, [r7, #4]
     e7c:	89db      	ldrh	r3, [r3, #14]
     e7e:	041b      	lsls	r3, r3, #16
     e80:	4909      	ldr	r1, [pc, #36]	; (ea8 <CLOCK_InitSysPll+0x94>)
     e82:	4313      	orrs	r3, r2
     e84:	640b      	str	r3, [r1, #64]	; 0x40
     e86:	bf00      	nop
     e88:	4b07      	ldr	r3, [pc, #28]	; (ea8 <CLOCK_InitSysPll+0x94>)
     e8a:	6b1b      	ldr	r3, [r3, #48]	; 0x30
     e8c:	2b00      	cmp	r3, #0
     e8e:	dafb      	bge.n	e88 <CLOCK_InitSysPll+0x74>
     e90:	4b05      	ldr	r3, [pc, #20]	; (ea8 <CLOCK_InitSysPll+0x94>)
     e92:	6b1b      	ldr	r3, [r3, #48]	; 0x30
     e94:	4a04      	ldr	r2, [pc, #16]	; (ea8 <CLOCK_InitSysPll+0x94>)
     e96:	f423 3380 	bic.w	r3, r3, #65536	; 0x10000
     e9a:	6313      	str	r3, [r2, #48]	; 0x30
     e9c:	bf00      	nop
     e9e:	370c      	adds	r7, #12
     ea0:	46bd      	mov	sp, r7
     ea2:	f85d 7b04 	ldr.w	r7, [sp], #4
     ea6:	4770      	bx	lr
     ea8:	400d8000 	.word	0x400d8000
     eac:	ffffcffe 	.word	0xffffcffe

00000eb0 <CLOCK_DeinitUsb2Pll>:
     eb0:	b480      	push	{r7}
     eb2:	af00      	add	r7, sp, #0
     eb4:	4b03      	ldr	r3, [pc, #12]	; (ec4 <CLOCK_DeinitUsb2Pll+0x14>)
     eb6:	2200      	movs	r2, #0
     eb8:	621a      	str	r2, [r3, #32]
     eba:	bf00      	nop
     ebc:	46bd      	mov	sp, r7
     ebe:	f85d 7b04 	ldr.w	r7, [sp], #4
     ec2:	4770      	bx	lr
     ec4:	400d8000 	.word	0x400d8000

00000ec8 <CLOCK_DeinitAudioPll>:
     ec8:	b480      	push	{r7}
     eca:	af00      	add	r7, sp, #0
     ecc:	4b04      	ldr	r3, [pc, #16]	; (ee0 <CLOCK_DeinitAudioPll+0x18>)
     ece:	f44f 5280 	mov.w	r2, #4096	; 0x1000
     ed2:	671a      	str	r2, [r3, #112]	; 0x70
     ed4:	bf00      	nop
     ed6:	46bd      	mov	sp, r7
     ed8:	f85d 7b04 	ldr.w	r7, [sp], #4
     edc:	4770      	bx	lr
     ede:	bf00      	nop
     ee0:	400d8000 	.word	0x400d8000

00000ee4 <CLOCK_DeinitVideoPll>:
     ee4:	b480      	push	{r7}
     ee6:	af00      	add	r7, sp, #0
     ee8:	4b04      	ldr	r3, [pc, #16]	; (efc <CLOCK_DeinitVideoPll+0x18>)
     eea:	f44f 5280 	mov.w	r2, #4096	; 0x1000
     eee:	f8c3 20a0 	str.w	r2, [r3, #160]	; 0xa0
     ef2:	bf00      	nop
     ef4:	46bd      	mov	sp, r7
     ef6:	f85d 7b04 	ldr.w	r7, [sp], #4
     efa:	4770      	bx	lr
     efc:	400d8000 	.word	0x400d8000

00000f00 <CLOCK_DeinitEnetPll>:
     f00:	b480      	push	{r7}
     f02:	af00      	add	r7, sp, #0
     f04:	4b04      	ldr	r3, [pc, #16]	; (f18 <CLOCK_DeinitEnetPll+0x18>)
     f06:	f44f 5280 	mov.w	r2, #4096	; 0x1000
     f0a:	f8c3 20e0 	str.w	r2, [r3, #224]	; 0xe0
     f0e:	bf00      	nop
     f10:	46bd      	mov	sp, r7
     f12:	f85d 7b04 	ldr.w	r7, [sp], #4
     f16:	4770      	bx	lr
     f18:	400d8000 	.word	0x400d8000

00000f1c <CLOCK_GetPllFreq>:
     f1c:	b590      	push	{r4, r7, lr}
     f1e:	b08d      	sub	sp, #52	; 0x34
     f20:	af00      	add	r7, sp, #0
     f22:	6078      	str	r0, [r7, #4]
     f24:	4bb2      	ldr	r3, [pc, #712]	; (11f0 <_HeapSize+0x1f0>)
     f26:	f107 040c 	add.w	r4, r7, #12
     f2a:	cb0f      	ldmia	r3, {r0, r1, r2, r3}
     f2c:	e884 000f 	stmia.w	r4, {r0, r1, r2, r3}
     f30:	6879      	ldr	r1, [r7, #4]
     f32:	48b0      	ldr	r0, [pc, #704]	; (11f4 <_HeapSize+0x1f4>)
     f34:	f005 f8e9 	bl	610a <CLOCK_IsPllEnabled>
     f38:	4603      	mov	r3, r0
     f3a:	f083 0301 	eor.w	r3, r3, #1
     f3e:	b2db      	uxtb	r3, r3
     f40:	2b00      	cmp	r3, #0
     f42:	d001      	beq.n	f48 <CLOCK_GetPllFreq+0x2c>
     f44:	2300      	movs	r3, #0
     f46:	e17e      	b.n	1246 <_HeapSize+0x246>
     f48:	6879      	ldr	r1, [r7, #4]
     f4a:	48aa      	ldr	r0, [pc, #680]	; (11f4 <_HeapSize+0x1f4>)
     f4c:	f005 f8fb 	bl	6146 <CLOCK_GetPllBypassRefClk>
     f50:	62f8      	str	r0, [r7, #44]	; 0x2c
     f52:	6879      	ldr	r1, [r7, #4]
     f54:	48a7      	ldr	r0, [pc, #668]	; (11f4 <_HeapSize+0x1f4>)
     f56:	f005 f8bf 	bl	60d8 <CLOCK_IsPllBypassed>
     f5a:	4603      	mov	r3, r0
     f5c:	2b00      	cmp	r3, #0
     f5e:	d001      	beq.n	f64 <CLOCK_GetPllFreq+0x48>
     f60:	6afb      	ldr	r3, [r7, #44]	; 0x2c
     f62:	e170      	b.n	1246 <_HeapSize+0x246>
     f64:	687b      	ldr	r3, [r7, #4]
     f66:	4aa4      	ldr	r2, [pc, #656]	; (11f8 <_HeapSize+0x1f8>)
     f68:	4293      	cmp	r3, r2
     f6a:	d07e      	beq.n	106a <_HeapSize+0x6a>
     f6c:	687b      	ldr	r3, [r7, #4]
     f6e:	4aa2      	ldr	r2, [pc, #648]	; (11f8 <_HeapSize+0x1f8>)
     f70:	4293      	cmp	r3, r2
     f72:	d815      	bhi.n	fa0 <CLOCK_GetPllFreq+0x84>
     f74:	687b      	ldr	r3, [r7, #4]
     f76:	4aa1      	ldr	r2, [pc, #644]	; (11fc <_HeapSize+0x1fc>)
     f78:	4293      	cmp	r3, r2
     f7a:	d068      	beq.n	104e <_HeapSize+0x4e>
     f7c:	687b      	ldr	r3, [r7, #4]
     f7e:	4a9f      	ldr	r2, [pc, #636]	; (11fc <_HeapSize+0x1fc>)
     f80:	4293      	cmp	r3, r2
     f82:	d803      	bhi.n	f8c <CLOCK_GetPllFreq+0x70>
     f84:	687b      	ldr	r3, [r7, #4]
     f86:	2b0d      	cmp	r3, #13
     f88:	d024      	beq.n	fd4 <CLOCK_GetPllFreq+0xb8>
     f8a:	e158      	b.n	123e <_HeapSize+0x23e>
     f8c:	687b      	ldr	r3, [r7, #4]
     f8e:	4a9c      	ldr	r2, [pc, #624]	; (1200 <_HeapSize+0x200>)
     f90:	4293      	cmp	r3, r2
     f92:	f000 8146 	beq.w	1222 <_HeapSize+0x222>
     f96:	687b      	ldr	r3, [r7, #4]
     f98:	4a9a      	ldr	r2, [pc, #616]	; (1204 <_HeapSize+0x204>)
     f9a:	4293      	cmp	r3, r2
     f9c:	d024      	beq.n	fe8 <CLOCK_GetPllFreq+0xcc>
     f9e:	e14e      	b.n	123e <_HeapSize+0x23e>
     fa0:	687b      	ldr	r3, [r7, #4]
     fa2:	4a99      	ldr	r2, [pc, #612]	; (1208 <_HeapSize+0x208>)
     fa4:	4293      	cmp	r3, r2
     fa6:	f000 8104 	beq.w	11b2 <_HeapSize+0x1b2>
     faa:	687b      	ldr	r3, [r7, #4]
     fac:	4a96      	ldr	r2, [pc, #600]	; (1208 <_HeapSize+0x208>)
     fae:	4293      	cmp	r3, r2
     fb0:	d805      	bhi.n	fbe <CLOCK_GetPllFreq+0xa2>
     fb2:	687b      	ldr	r3, [r7, #4]
     fb4:	4a95      	ldr	r2, [pc, #596]	; (120c <_HeapSize+0x20c>)
     fb6:	4293      	cmp	r3, r2
     fb8:	f000 80a8 	beq.w	110c <_HeapSize+0x10c>
     fbc:	e13f      	b.n	123e <_HeapSize+0x23e>
     fbe:	687b      	ldr	r3, [r7, #4]
     fc0:	4a93      	ldr	r2, [pc, #588]	; (1210 <_HeapSize+0x210>)
     fc2:	4293      	cmp	r3, r2
     fc4:	f000 8104 	beq.w	11d0 <_HeapSize+0x1d0>
     fc8:	687b      	ldr	r3, [r7, #4]
     fca:	4a92      	ldr	r2, [pc, #584]	; (1214 <_HeapSize+0x214>)
     fcc:	4293      	cmp	r3, r2
     fce:	f000 8125 	beq.w	121c <_HeapSize+0x21c>
     fd2:	e134      	b.n	123e <_HeapSize+0x23e>
     fd4:	4b87      	ldr	r3, [pc, #540]	; (11f4 <_HeapSize+0x1f4>)
     fd6:	681b      	ldr	r3, [r3, #0]
     fd8:	f003 037f 	and.w	r3, r3, #127	; 0x7f
     fdc:	6afa      	ldr	r2, [r7, #44]	; 0x2c
     fde:	fb02 f303 	mul.w	r3, r2, r3
     fe2:	085b      	lsrs	r3, r3, #1
     fe4:	62fb      	str	r3, [r7, #44]	; 0x2c
     fe6:	e12d      	b.n	1244 <_HeapSize+0x244>
     fe8:	6afb      	ldr	r3, [r7, #44]	; 0x2c
     fea:	ee07 3a90 	vmov	s15, r3
     fee:	eeb8 6b67 	vcvt.f64.u32	d6, s15
     ff2:	4b80      	ldr	r3, [pc, #512]	; (11f4 <_HeapSize+0x1f4>)
     ff4:	6d1b      	ldr	r3, [r3, #80]	; 0x50
     ff6:	ee07 3a90 	vmov	s15, r3
     ffa:	eeb8 7b67 	vcvt.f64.u32	d7, s15
     ffe:	ee26 5b07 	vmul.f64	d5, d6, d7
    1002:	4b7c      	ldr	r3, [pc, #496]	; (11f4 <_HeapSize+0x1f4>)
    1004:	6e1b      	ldr	r3, [r3, #96]	; 0x60
    1006:	ee07 3a90 	vmov	s15, r3
    100a:	eeb8 6b67 	vcvt.f64.u32	d6, s15
    100e:	ee85 7b06 	vdiv.f64	d7, d5, d6
    1012:	ed87 7b08 	vstr	d7, [r7, #32]
    1016:	4b77      	ldr	r3, [pc, #476]	; (11f4 <_HeapSize+0x1f4>)
    1018:	6b1b      	ldr	r3, [r3, #48]	; 0x30
    101a:	f003 0301 	and.w	r3, r3, #1
    101e:	2b00      	cmp	r3, #0
    1020:	d005      	beq.n	102e <_HeapSize+0x2e>
    1022:	6afb      	ldr	r3, [r7, #44]	; 0x2c
    1024:	2216      	movs	r2, #22
    1026:	fb02 f303 	mul.w	r3, r2, r3
    102a:	62fb      	str	r3, [r7, #44]	; 0x2c
    102c:	e005      	b.n	103a <_HeapSize+0x3a>
    102e:	6afa      	ldr	r2, [r7, #44]	; 0x2c
    1030:	4613      	mov	r3, r2
    1032:	009b      	lsls	r3, r3, #2
    1034:	4413      	add	r3, r2
    1036:	009b      	lsls	r3, r3, #2
    1038:	62fb      	str	r3, [r7, #44]	; 0x2c
    103a:	ed97 7b08 	vldr	d7, [r7, #32]
    103e:	eefc 7bc7 	vcvt.u32.f64	s15, d7
    1042:	ee17 2a90 	vmov	r2, s15
    1046:	6afb      	ldr	r3, [r7, #44]	; 0x2c
    1048:	4413      	add	r3, r2
    104a:	62fb      	str	r3, [r7, #44]	; 0x2c
    104c:	e0fa      	b.n	1244 <_HeapSize+0x244>
    104e:	4b69      	ldr	r3, [pc, #420]	; (11f4 <_HeapSize+0x1f4>)
    1050:	691b      	ldr	r3, [r3, #16]
    1052:	f003 0302 	and.w	r3, r3, #2
    1056:	2b00      	cmp	r3, #0
    1058:	d001      	beq.n	105e <_HeapSize+0x5e>
    105a:	2216      	movs	r2, #22
    105c:	e000      	b.n	1060 <_HeapSize+0x60>
    105e:	2214      	movs	r2, #20
    1060:	6afb      	ldr	r3, [r7, #44]	; 0x2c
    1062:	fb02 f303 	mul.w	r3, r2, r3
    1066:	62fb      	str	r3, [r7, #44]	; 0x2c
    1068:	e0ec      	b.n	1244 <_HeapSize+0x244>
    106a:	4b62      	ldr	r3, [pc, #392]	; (11f4 <_HeapSize+0x1f4>)
    106c:	6f1b      	ldr	r3, [r3, #112]	; 0x70
    106e:	f003 037f 	and.w	r3, r3, #127	; 0x7f
    1072:	61fb      	str	r3, [r7, #28]
    1074:	6afb      	ldr	r3, [r7, #44]	; 0x2c
    1076:	ee07 3a90 	vmov	s15, r3
    107a:	eeb8 6b67 	vcvt.f64.u32	d6, s15
    107e:	4b5d      	ldr	r3, [pc, #372]	; (11f4 <_HeapSize+0x1f4>)
    1080:	f8d3 3080 	ldr.w	r3, [r3, #128]	; 0x80
    1084:	ee07 3a90 	vmov	s15, r3
    1088:	eeb8 7b67 	vcvt.f64.u32	d7, s15
    108c:	ee26 5b07 	vmul.f64	d5, d6, d7
    1090:	4b58      	ldr	r3, [pc, #352]	; (11f4 <_HeapSize+0x1f4>)
    1092:	f8d3 3090 	ldr.w	r3, [r3, #144]	; 0x90
    1096:	ee07 3a90 	vmov	s15, r3
    109a:	eeb8 6b67 	vcvt.f64.u32	d6, s15
    109e:	ee85 7b06 	vdiv.f64	d7, d5, d6
    10a2:	ed87 7b08 	vstr	d7, [r7, #32]
    10a6:	6afb      	ldr	r3, [r7, #44]	; 0x2c
    10a8:	69fa      	ldr	r2, [r7, #28]
    10aa:	fb02 f303 	mul.w	r3, r2, r3
    10ae:	ed97 7b08 	vldr	d7, [r7, #32]
    10b2:	eefc 7bc7 	vcvt.u32.f64	s15, d7
    10b6:	ee17 2a90 	vmov	r2, s15
    10ba:	4413      	add	r3, r2
    10bc:	62fb      	str	r3, [r7, #44]	; 0x2c
    10be:	4b4d      	ldr	r3, [pc, #308]	; (11f4 <_HeapSize+0x1f4>)
    10c0:	6f1b      	ldr	r3, [r3, #112]	; 0x70
    10c2:	f403 13c0 	and.w	r3, r3, #1572864	; 0x180000
    10c6:	2b00      	cmp	r3, #0
    10c8:	d003      	beq.n	10d2 <_HeapSize+0xd2>
    10ca:	f5b3 2f00 	cmp.w	r3, #524288	; 0x80000
    10ce:	d004      	beq.n	10da <_HeapSize+0xda>
    10d0:	e007      	b.n	10e2 <_HeapSize+0xe2>
    10d2:	6afb      	ldr	r3, [r7, #44]	; 0x2c
    10d4:	089b      	lsrs	r3, r3, #2
    10d6:	62fb      	str	r3, [r7, #44]	; 0x2c
    10d8:	e003      	b.n	10e2 <_HeapSize+0xe2>
    10da:	6afb      	ldr	r3, [r7, #44]	; 0x2c
    10dc:	085b      	lsrs	r3, r3, #1
    10de:	62fb      	str	r3, [r7, #44]	; 0x2c
    10e0:	bf00      	nop
    10e2:	4b44      	ldr	r3, [pc, #272]	; (11f4 <_HeapSize+0x1f4>)
    10e4:	f8d3 2170 	ldr.w	r2, [r3, #368]	; 0x170
    10e8:	4b4b      	ldr	r3, [pc, #300]	; (1218 <_HeapSize+0x218>)
    10ea:	4013      	ands	r3, r2
    10ec:	f5b3 4f00 	cmp.w	r3, #32768	; 0x8000
    10f0:	d006      	beq.n	1100 <_HeapSize+0x100>
    10f2:	4a49      	ldr	r2, [pc, #292]	; (1218 <_HeapSize+0x218>)
    10f4:	4293      	cmp	r3, r2
    10f6:	d107      	bne.n	1108 <_HeapSize+0x108>
    10f8:	6afb      	ldr	r3, [r7, #44]	; 0x2c
    10fa:	089b      	lsrs	r3, r3, #2
    10fc:	62fb      	str	r3, [r7, #44]	; 0x2c
    10fe:	e004      	b.n	110a <_HeapSize+0x10a>
    1100:	6afb      	ldr	r3, [r7, #44]	; 0x2c
    1102:	085b      	lsrs	r3, r3, #1
    1104:	62fb      	str	r3, [r7, #44]	; 0x2c
    1106:	e000      	b.n	110a <_HeapSize+0x10a>
    1108:	bf00      	nop
    110a:	e09b      	b.n	1244 <_HeapSize+0x244>
    110c:	4b39      	ldr	r3, [pc, #228]	; (11f4 <_HeapSize+0x1f4>)
    110e:	f8d3 30a0 	ldr.w	r3, [r3, #160]	; 0xa0
    1112:	f003 037f 	and.w	r3, r3, #127	; 0x7f
    1116:	61fb      	str	r3, [r7, #28]
    1118:	6afb      	ldr	r3, [r7, #44]	; 0x2c
    111a:	ee07 3a90 	vmov	s15, r3
    111e:	eeb8 6b67 	vcvt.f64.u32	d6, s15
    1122:	4b34      	ldr	r3, [pc, #208]	; (11f4 <_HeapSize+0x1f4>)
    1124:	f8d3 30b0 	ldr.w	r3, [r3, #176]	; 0xb0
    1128:	ee07 3a90 	vmov	s15, r3
    112c:	eeb8 7b67 	vcvt.f64.u32	d7, s15
    1130:	ee26 5b07 	vmul.f64	d5, d6, d7
    1134:	4b2f      	ldr	r3, [pc, #188]	; (11f4 <_HeapSize+0x1f4>)
    1136:	f8d3 30c0 	ldr.w	r3, [r3, #192]	; 0xc0
    113a:	ee07 3a90 	vmov	s15, r3
    113e:	eeb8 6b67 	vcvt.f64.u32	d6, s15
    1142:	ee85 7b06 	vdiv.f64	d7, d5, d6
    1146:	ed87 7b08 	vstr	d7, [r7, #32]
    114a:	6afb      	ldr	r3, [r7, #44]	; 0x2c
    114c:	69fa      	ldr	r2, [r7, #28]
    114e:	fb02 f303 	mul.w	r3, r2, r3
    1152:	ed97 7b08 	vldr	d7, [r7, #32]
    1156:	eefc 7bc7 	vcvt.u32.f64	s15, d7
    115a:	ee17 2a90 	vmov	r2, s15
    115e:	4413      	add	r3, r2
    1160:	62fb      	str	r3, [r7, #44]	; 0x2c
    1162:	4b24      	ldr	r3, [pc, #144]	; (11f4 <_HeapSize+0x1f4>)
    1164:	f8d3 30a0 	ldr.w	r3, [r3, #160]	; 0xa0
    1168:	f403 13c0 	and.w	r3, r3, #1572864	; 0x180000
    116c:	2b00      	cmp	r3, #0
    116e:	d003      	beq.n	1178 <_HeapSize+0x178>
    1170:	f5b3 2f00 	cmp.w	r3, #524288	; 0x80000
    1174:	d004      	beq.n	1180 <_HeapSize+0x180>
    1176:	e007      	b.n	1188 <_HeapSize+0x188>
    1178:	6afb      	ldr	r3, [r7, #44]	; 0x2c
    117a:	089b      	lsrs	r3, r3, #2
    117c:	62fb      	str	r3, [r7, #44]	; 0x2c
    117e:	e003      	b.n	1188 <_HeapSize+0x188>
    1180:	6afb      	ldr	r3, [r7, #44]	; 0x2c
    1182:	085b      	lsrs	r3, r3, #1
    1184:	62fb      	str	r3, [r7, #44]	; 0x2c
    1186:	bf00      	nop
    1188:	4b1a      	ldr	r3, [pc, #104]	; (11f4 <_HeapSize+0x1f4>)
    118a:	f8d3 3170 	ldr.w	r3, [r3, #368]	; 0x170
    118e:	f003 4340 	and.w	r3, r3, #3221225472	; 0xc0000000
    1192:	f1b3 4f80 	cmp.w	r3, #1073741824	; 0x40000000
    1196:	d006      	beq.n	11a6 <_HeapSize+0x1a6>
    1198:	f1b3 4f40 	cmp.w	r3, #3221225472	; 0xc0000000
    119c:	d107      	bne.n	11ae <_HeapSize+0x1ae>
    119e:	6afb      	ldr	r3, [r7, #44]	; 0x2c
    11a0:	089b      	lsrs	r3, r3, #2
    11a2:	62fb      	str	r3, [r7, #44]	; 0x2c
    11a4:	e004      	b.n	11b0 <_HeapSize+0x1b0>
    11a6:	6afb      	ldr	r3, [r7, #44]	; 0x2c
    11a8:	085b      	lsrs	r3, r3, #1
    11aa:	62fb      	str	r3, [r7, #44]	; 0x2c
    11ac:	e000      	b.n	11b0 <_HeapSize+0x1b0>
    11ae:	bf00      	nop
    11b0:	e048      	b.n	1244 <_HeapSize+0x244>
    11b2:	4b10      	ldr	r3, [pc, #64]	; (11f4 <_HeapSize+0x1f4>)
    11b4:	f8d3 30e0 	ldr.w	r3, [r3, #224]	; 0xe0
    11b8:	f003 0303 	and.w	r3, r3, #3
    11bc:	61fb      	str	r3, [r7, #28]
    11be:	69fb      	ldr	r3, [r7, #28]
    11c0:	009b      	lsls	r3, r3, #2
    11c2:	f107 0230 	add.w	r2, r7, #48	; 0x30
    11c6:	4413      	add	r3, r2
    11c8:	f853 3c24 	ldr.w	r3, [r3, #-36]
    11cc:	62fb      	str	r3, [r7, #44]	; 0x2c
    11ce:	e039      	b.n	1244 <_HeapSize+0x244>
    11d0:	4b08      	ldr	r3, [pc, #32]	; (11f4 <_HeapSize+0x1f4>)
    11d2:	f8d3 30e0 	ldr.w	r3, [r3, #224]	; 0xe0
    11d6:	089b      	lsrs	r3, r3, #2
    11d8:	f003 0303 	and.w	r3, r3, #3
    11dc:	61fb      	str	r3, [r7, #28]
    11de:	69fb      	ldr	r3, [r7, #28]
    11e0:	009b      	lsls	r3, r3, #2
    11e2:	f107 0230 	add.w	r2, r7, #48	; 0x30
    11e6:	4413      	add	r3, r2
    11e8:	f853 3c24 	ldr.w	r3, [r3, #-36]
    11ec:	62fb      	str	r3, [r7, #44]	; 0x2c
    11ee:	e029      	b.n	1244 <_HeapSize+0x244>
    11f0:	00007a54 	.word	0x00007a54
    11f4:	400d8000 	.word	0x400d8000
    11f8:	0070000d 	.word	0x0070000d
    11fc:	0010000d 	.word	0x0010000d
    1200:	0020000d 	.word	0x0020000d
    1204:	0030000d 	.word	0x0030000d
    1208:	00e0000d 	.word	0x00e0000d
    120c:	00a0000d 	.word	0x00a0000d
    1210:	00e00014 	.word	0x00e00014
    1214:	00e00015 	.word	0x00e00015
    1218:	00808000 	.word	0x00808000
    121c:	4b0c      	ldr	r3, [pc, #48]	; (1250 <_HeapSize+0x250>)
    121e:	62fb      	str	r3, [r7, #44]	; 0x2c
    1220:	e010      	b.n	1244 <_HeapSize+0x244>
    1222:	4b0c      	ldr	r3, [pc, #48]	; (1254 <_HeapSize+0x254>)
    1224:	6a1b      	ldr	r3, [r3, #32]
    1226:	f003 0302 	and.w	r3, r3, #2
    122a:	2b00      	cmp	r3, #0
    122c:	d001      	beq.n	1232 <_HeapSize+0x232>
    122e:	2216      	movs	r2, #22
    1230:	e000      	b.n	1234 <_HeapSize+0x234>
    1232:	2214      	movs	r2, #20
    1234:	6afb      	ldr	r3, [r7, #44]	; 0x2c
    1236:	fb02 f303 	mul.w	r3, r2, r3
    123a:	62fb      	str	r3, [r7, #44]	; 0x2c
    123c:	e002      	b.n	1244 <_HeapSize+0x244>
    123e:	2300      	movs	r3, #0
    1240:	62fb      	str	r3, [r7, #44]	; 0x2c
    1242:	bf00      	nop
    1244:	6afb      	ldr	r3, [r7, #44]	; 0x2c
    1246:	4618      	mov	r0, r3
    1248:	3734      	adds	r7, #52	; 0x34
    124a:	46bd      	mov	sp, r7
    124c:	bd90      	pop	{r4, r7, pc}
    124e:	bf00      	nop
    1250:	017d7840 	.word	0x017d7840
    1254:	400d8000 	.word	0x400d8000

00001258 <CLOCK_InitSysPfd>:
    1258:	b480      	push	{r7}
    125a:	b085      	sub	sp, #20
    125c:	af00      	add	r7, sp, #0
    125e:	4603      	mov	r3, r0
    1260:	460a      	mov	r2, r1
    1262:	71fb      	strb	r3, [r7, #7]
    1264:	4613      	mov	r3, r2
    1266:	71bb      	strb	r3, [r7, #6]
    1268:	79fb      	ldrb	r3, [r7, #7]
    126a:	60fb      	str	r3, [r7, #12]
    126c:	4b12      	ldr	r3, [pc, #72]	; (12b8 <CLOCK_InitSysPfd+0x60>)
    126e:	f8d3 2100 	ldr.w	r2, [r3, #256]	; 0x100
    1272:	68fb      	ldr	r3, [r7, #12]
    1274:	00db      	lsls	r3, r3, #3
    1276:	21bf      	movs	r1, #191	; 0xbf
    1278:	fa01 f303 	lsl.w	r3, r1, r3
    127c:	43db      	mvns	r3, r3
    127e:	4013      	ands	r3, r2
    1280:	60bb      	str	r3, [r7, #8]
    1282:	68fb      	ldr	r3, [r7, #12]
    1284:	00db      	lsls	r3, r3, #3
    1286:	2280      	movs	r2, #128	; 0x80
    1288:	409a      	lsls	r2, r3
    128a:	490b      	ldr	r1, [pc, #44]	; (12b8 <CLOCK_InitSysPfd+0x60>)
    128c:	68bb      	ldr	r3, [r7, #8]
    128e:	4313      	orrs	r3, r2
    1290:	f8c1 3100 	str.w	r3, [r1, #256]	; 0x100
    1294:	79bb      	ldrb	r3, [r7, #6]
    1296:	f003 023f 	and.w	r2, r3, #63	; 0x3f
    129a:	68fb      	ldr	r3, [r7, #12]
    129c:	00db      	lsls	r3, r3, #3
    129e:	409a      	lsls	r2, r3
    12a0:	4905      	ldr	r1, [pc, #20]	; (12b8 <CLOCK_InitSysPfd+0x60>)
    12a2:	68bb      	ldr	r3, [r7, #8]
    12a4:	4313      	orrs	r3, r2
    12a6:	f8c1 3100 	str.w	r3, [r1, #256]	; 0x100
    12aa:	bf00      	nop
    12ac:	3714      	adds	r7, #20
    12ae:	46bd      	mov	sp, r7
    12b0:	f85d 7b04 	ldr.w	r7, [sp], #4
    12b4:	4770      	bx	lr
    12b6:	bf00      	nop
    12b8:	400d8000 	.word	0x400d8000

000012bc <EDMA_GetChannelStatusFlags>:
    12bc:	b580      	push	{r7, lr}
    12be:	b084      	sub	sp, #16
    12c0:	af00      	add	r7, sp, #0
    12c2:	6078      	str	r0, [r7, #4]
    12c4:	6039      	str	r1, [r7, #0]
    12c6:	683b      	ldr	r3, [r7, #0]
    12c8:	2b1f      	cmp	r3, #31
    12ca:	d902      	bls.n	12d2 <EDMA_GetChannelStatusFlags+0x16>
    12cc:	4817      	ldr	r0, [pc, #92]	; (132c <EDMA_GetChannelStatusFlags+0x70>)
    12ce:	f003 ffff 	bl	52d0 <__assertion_failed>
    12d2:	2300      	movs	r3, #0
    12d4:	60fb      	str	r3, [r7, #12]
    12d6:	687a      	ldr	r2, [r7, #4]
    12d8:	683b      	ldr	r3, [r7, #0]
    12da:	015b      	lsls	r3, r3, #5
    12dc:	441a      	add	r2, r3
    12de:	f241 031c 	movw	r3, #4124	; 0x101c
    12e2:	4413      	add	r3, r2
    12e4:	881b      	ldrh	r3, [r3, #0]
    12e6:	b29b      	uxth	r3, r3
    12e8:	09db      	lsrs	r3, r3, #7
    12ea:	f003 0301 	and.w	r3, r3, #1
    12ee:	68fa      	ldr	r2, [r7, #12]
    12f0:	4313      	orrs	r3, r2
    12f2:	60fb      	str	r3, [r7, #12]
    12f4:	687b      	ldr	r3, [r7, #4]
    12f6:	6ada      	ldr	r2, [r3, #44]	; 0x2c
    12f8:	683b      	ldr	r3, [r7, #0]
    12fa:	fa22 f303 	lsr.w	r3, r2, r3
    12fe:	005b      	lsls	r3, r3, #1
    1300:	f003 0302 	and.w	r3, r3, #2
    1304:	68fa      	ldr	r2, [r7, #12]
    1306:	4313      	orrs	r3, r2
    1308:	60fb      	str	r3, [r7, #12]
    130a:	687b      	ldr	r3, [r7, #4]
    130c:	6a5a      	ldr	r2, [r3, #36]	; 0x24
    130e:	683b      	ldr	r3, [r7, #0]
    1310:	fa22 f303 	lsr.w	r3, r2, r3
    1314:	009b      	lsls	r3, r3, #2
    1316:	f003 0304 	and.w	r3, r3, #4
    131a:	68fa      	ldr	r2, [r7, #12]
    131c:	4313      	orrs	r3, r2
    131e:	60fb      	str	r3, [r7, #12]
    1320:	68fb      	ldr	r3, [r7, #12]
    1322:	4618      	mov	r0, r3
    1324:	3710      	adds	r7, #16
    1326:	46bd      	mov	sp, r7
    1328:	bd80      	pop	{r7, pc}
    132a:	bf00      	nop
    132c:	000083ac 	.word	0x000083ac

00001330 <EDMA_HandleIRQ>:
    1330:	b590      	push	{r4, r7, lr}
    1332:	b089      	sub	sp, #36	; 0x24
    1334:	af00      	add	r7, sp, #0
    1336:	6078      	str	r0, [r7, #4]
    1338:	687b      	ldr	r3, [r7, #4]
    133a:	2b00      	cmp	r3, #0
    133c:	d102      	bne.n	1344 <EDMA_HandleIRQ+0x14>
    133e:	4853      	ldr	r0, [pc, #332]	; (148c <EDMA_HandleIRQ+0x15c>)
    1340:	f003 ffc6 	bl	52d0 <__assertion_failed>
    1344:	687b      	ldr	r3, [r7, #4]
    1346:	689b      	ldr	r3, [r3, #8]
    1348:	687a      	ldr	r2, [r7, #4]
    134a:	7c12      	ldrb	r2, [r2, #16]
    134c:	77da      	strb	r2, [r3, #31]
    134e:	687b      	ldr	r3, [r7, #4]
    1350:	689a      	ldr	r2, [r3, #8]
    1352:	687b      	ldr	r3, [r7, #4]
    1354:	7c1b      	ldrb	r3, [r3, #16]
    1356:	015b      	lsls	r3, r3, #5
    1358:	441a      	add	r2, r3
    135a:	f241 031c 	movw	r3, #4124	; 0x101c
    135e:	4413      	add	r3, r2
    1360:	881b      	ldrh	r3, [r3, #0]
    1362:	b29b      	uxth	r3, r3
    1364:	f003 0380 	and.w	r3, r3, #128	; 0x80
    1368:	2b00      	cmp	r3, #0
    136a:	bf14      	ite	ne
    136c:	2301      	movne	r3, #1
    136e:	2300      	moveq	r3, #0
    1370:	76bb      	strb	r3, [r7, #26]
    1372:	687b      	ldr	r3, [r7, #4]
    1374:	68db      	ldr	r3, [r3, #12]
    1376:	2b00      	cmp	r3, #0
    1378:	d10c      	bne.n	1394 <EDMA_HandleIRQ+0x64>
    137a:	687b      	ldr	r3, [r7, #4]
    137c:	681b      	ldr	r3, [r3, #0]
    137e:	2b00      	cmp	r3, #0
    1380:	d07f      	beq.n	1482 <EDMA_HandleIRQ+0x152>
    1382:	687b      	ldr	r3, [r7, #4]
    1384:	681c      	ldr	r4, [r3, #0]
    1386:	687b      	ldr	r3, [r7, #4]
    1388:	6859      	ldr	r1, [r3, #4]
    138a:	7eba      	ldrb	r2, [r7, #26]
    138c:	2300      	movs	r3, #0
    138e:	6878      	ldr	r0, [r7, #4]
    1390:	47a0      	blx	r4
    1392:	e076      	b.n	1482 <EDMA_HandleIRQ+0x152>
    1394:	687b      	ldr	r3, [r7, #4]
    1396:	689a      	ldr	r2, [r3, #8]
    1398:	687b      	ldr	r3, [r7, #4]
    139a:	7c1b      	ldrb	r3, [r3, #16]
    139c:	015b      	lsls	r3, r3, #5
    139e:	441a      	add	r2, r3
    13a0:	f241 0318 	movw	r3, #4120	; 0x1018
    13a4:	4413      	add	r3, r2
    13a6:	681b      	ldr	r3, [r3, #0]
    13a8:	617b      	str	r3, [r7, #20]
    13aa:	687b      	ldr	r3, [r7, #4]
    13ac:	68db      	ldr	r3, [r3, #12]
    13ae:	461a      	mov	r2, r3
    13b0:	697b      	ldr	r3, [r7, #20]
    13b2:	1a9b      	subs	r3, r3, r2
    13b4:	617b      	str	r3, [r7, #20]
    13b6:	697b      	ldr	r3, [r7, #20]
    13b8:	095b      	lsrs	r3, r3, #5
    13ba:	613b      	str	r3, [r7, #16]
    13bc:	7ebb      	ldrb	r3, [r7, #26]
    13be:	2b00      	cmp	r3, #0
    13c0:	d002      	beq.n	13c8 <EDMA_HandleIRQ+0x98>
    13c2:	693b      	ldr	r3, [r7, #16]
    13c4:	76fb      	strb	r3, [r7, #27]
    13c6:	e00e      	b.n	13e6 <EDMA_HandleIRQ+0xb6>
    13c8:	693b      	ldr	r3, [r7, #16]
    13ca:	2b00      	cmp	r3, #0
    13cc:	d004      	beq.n	13d8 <EDMA_HandleIRQ+0xa8>
    13ce:	693b      	ldr	r3, [r7, #16]
    13d0:	b2db      	uxtb	r3, r3
    13d2:	3b01      	subs	r3, #1
    13d4:	b2db      	uxtb	r3, r3
    13d6:	e005      	b.n	13e4 <EDMA_HandleIRQ+0xb4>
    13d8:	687b      	ldr	r3, [r7, #4]
    13da:	7d1b      	ldrb	r3, [r3, #20]
    13dc:	b25b      	sxtb	r3, r3
    13de:	b2db      	uxtb	r3, r3
    13e0:	3b01      	subs	r3, #1
    13e2:	b2db      	uxtb	r3, r3
    13e4:	76fb      	strb	r3, [r7, #27]
    13e6:	687b      	ldr	r3, [r7, #4]
    13e8:	7c5b      	ldrb	r3, [r3, #17]
    13ea:	b25a      	sxtb	r2, r3
    13ec:	f997 301b 	ldrsb.w	r3, [r7, #27]
    13f0:	429a      	cmp	r2, r3
    13f2:	d113      	bne.n	141c <EDMA_HandleIRQ+0xec>
    13f4:	687b      	ldr	r3, [r7, #4]
    13f6:	7cdb      	ldrb	r3, [r3, #19]
    13f8:	73fb      	strb	r3, [r7, #15]
    13fa:	687b      	ldr	r3, [r7, #4]
    13fc:	7d1b      	ldrb	r3, [r3, #20]
    13fe:	73bb      	strb	r3, [r7, #14]
    1400:	f997 200f 	ldrsb.w	r2, [r7, #15]
    1404:	f997 300e 	ldrsb.w	r3, [r7, #14]
    1408:	429a      	cmp	r2, r3
    140a:	d104      	bne.n	1416 <EDMA_HandleIRQ+0xe6>
    140c:	687b      	ldr	r3, [r7, #4]
    140e:	7cdb      	ldrb	r3, [r3, #19]
    1410:	b25b      	sxtb	r3, r3
    1412:	61fb      	str	r3, [r7, #28]
    1414:	e012      	b.n	143c <EDMA_HandleIRQ+0x10c>
    1416:	2300      	movs	r3, #0
    1418:	61fb      	str	r3, [r7, #28]
    141a:	e00f      	b.n	143c <EDMA_HandleIRQ+0x10c>
    141c:	7efb      	ldrb	r3, [r7, #27]
    141e:	687a      	ldr	r2, [r7, #4]
    1420:	7c52      	ldrb	r2, [r2, #17]
    1422:	b252      	sxtb	r2, r2
    1424:	1a9b      	subs	r3, r3, r2
    1426:	61fb      	str	r3, [r7, #28]
    1428:	69fb      	ldr	r3, [r7, #28]
    142a:	2b00      	cmp	r3, #0
    142c:	da06      	bge.n	143c <EDMA_HandleIRQ+0x10c>
    142e:	687b      	ldr	r3, [r7, #4]
    1430:	7d1b      	ldrb	r3, [r3, #20]
    1432:	b25b      	sxtb	r3, r3
    1434:	461a      	mov	r2, r3
    1436:	69fb      	ldr	r3, [r7, #28]
    1438:	4413      	add	r3, r2
    143a:	61fb      	str	r3, [r7, #28]
    143c:	f997 201b 	ldrsb.w	r2, [r7, #27]
    1440:	687b      	ldr	r3, [r7, #4]
    1442:	745a      	strb	r2, [r3, #17]
    1444:	687b      	ldr	r3, [r7, #4]
    1446:	7cdb      	ldrb	r3, [r3, #19]
    1448:	b25b      	sxtb	r3, r3
    144a:	b2da      	uxtb	r2, r3
    144c:	69fb      	ldr	r3, [r7, #28]
    144e:	b2db      	uxtb	r3, r3
    1450:	1ad3      	subs	r3, r2, r3
    1452:	b2db      	uxtb	r3, r3
    1454:	b25a      	sxtb	r2, r3
    1456:	687b      	ldr	r3, [r7, #4]
    1458:	74da      	strb	r2, [r3, #19]
    145a:	687b      	ldr	r3, [r7, #4]
    145c:	681b      	ldr	r3, [r3, #0]
    145e:	2b00      	cmp	r3, #0
    1460:	d007      	beq.n	1472 <EDMA_HandleIRQ+0x142>
    1462:	687b      	ldr	r3, [r7, #4]
    1464:	681c      	ldr	r4, [r3, #0]
    1466:	687b      	ldr	r3, [r7, #4]
    1468:	6859      	ldr	r1, [r3, #4]
    146a:	69fb      	ldr	r3, [r7, #28]
    146c:	7eba      	ldrb	r2, [r7, #26]
    146e:	6878      	ldr	r0, [r7, #4]
    1470:	47a0      	blx	r4
    1472:	7ebb      	ldrb	r3, [r7, #26]
    1474:	2b00      	cmp	r3, #0
    1476:	d004      	beq.n	1482 <EDMA_HandleIRQ+0x152>
    1478:	687b      	ldr	r3, [r7, #4]
    147a:	689b      	ldr	r3, [r3, #8]
    147c:	687a      	ldr	r2, [r7, #4]
    147e:	7c12      	ldrb	r2, [r2, #16]
    1480:	771a      	strb	r2, [r3, #28]
    1482:	bf00      	nop
    1484:	3724      	adds	r7, #36	; 0x24
    1486:	46bd      	mov	sp, r7
    1488:	bd90      	pop	{r4, r7, pc}
    148a:	bf00      	nop
    148c:	0000887c 	.word	0x0000887c

00001490 <DMA0_DMA16_DriverIRQHandler>:
    1490:	b580      	push	{r7, lr}
    1492:	af00      	add	r7, sp, #0
    1494:	2100      	movs	r1, #0
    1496:	480e      	ldr	r0, [pc, #56]	; (14d0 <DMA0_DMA16_DriverIRQHandler+0x40>)
    1498:	f7ff ff10 	bl	12bc <EDMA_GetChannelStatusFlags>
    149c:	4603      	mov	r3, r0
    149e:	f003 0304 	and.w	r3, r3, #4
    14a2:	2b00      	cmp	r3, #0
    14a4:	d004      	beq.n	14b0 <DMA0_DMA16_DriverIRQHandler+0x20>
    14a6:	4b0b      	ldr	r3, [pc, #44]	; (14d4 <DMA0_DMA16_DriverIRQHandler+0x44>)
    14a8:	681b      	ldr	r3, [r3, #0]
    14aa:	4618      	mov	r0, r3
    14ac:	f7ff ff40 	bl	1330 <EDMA_HandleIRQ>
    14b0:	2110      	movs	r1, #16
    14b2:	4807      	ldr	r0, [pc, #28]	; (14d0 <DMA0_DMA16_DriverIRQHandler+0x40>)
    14b4:	f7ff ff02 	bl	12bc <EDMA_GetChannelStatusFlags>
    14b8:	4603      	mov	r3, r0
    14ba:	f003 0304 	and.w	r3, r3, #4
    14be:	2b00      	cmp	r3, #0
    14c0:	d004      	beq.n	14cc <DMA0_DMA16_DriverIRQHandler+0x3c>
    14c2:	4b04      	ldr	r3, [pc, #16]	; (14d4 <DMA0_DMA16_DriverIRQHandler+0x44>)
    14c4:	6c1b      	ldr	r3, [r3, #64]	; 0x40
    14c6:	4618      	mov	r0, r3
    14c8:	f7ff ff32 	bl	1330 <EDMA_HandleIRQ>
    14cc:	bf00      	nop
    14ce:	bd80      	pop	{r7, pc}
    14d0:	400e8000 	.word	0x400e8000
    14d4:	20000048 	.word	0x20000048

000014d8 <DMA1_DMA17_DriverIRQHandler>:
    14d8:	b580      	push	{r7, lr}
    14da:	af00      	add	r7, sp, #0
    14dc:	2101      	movs	r1, #1
    14de:	480e      	ldr	r0, [pc, #56]	; (1518 <DMA1_DMA17_DriverIRQHandler+0x40>)
    14e0:	f7ff feec 	bl	12bc <EDMA_GetChannelStatusFlags>
    14e4:	4603      	mov	r3, r0
    14e6:	f003 0304 	and.w	r3, r3, #4
    14ea:	2b00      	cmp	r3, #0
    14ec:	d004      	beq.n	14f8 <DMA1_DMA17_DriverIRQHandler+0x20>
    14ee:	4b0b      	ldr	r3, [pc, #44]	; (151c <DMA1_DMA17_DriverIRQHandler+0x44>)
    14f0:	685b      	ldr	r3, [r3, #4]
    14f2:	4618      	mov	r0, r3
    14f4:	f7ff ff1c 	bl	1330 <EDMA_HandleIRQ>
    14f8:	2111      	movs	r1, #17
    14fa:	4807      	ldr	r0, [pc, #28]	; (1518 <DMA1_DMA17_DriverIRQHandler+0x40>)
    14fc:	f7ff fede 	bl	12bc <EDMA_GetChannelStatusFlags>
    1500:	4603      	mov	r3, r0
    1502:	f003 0304 	and.w	r3, r3, #4
    1506:	2b00      	cmp	r3, #0
    1508:	d004      	beq.n	1514 <DMA1_DMA17_DriverIRQHandler+0x3c>
    150a:	4b04      	ldr	r3, [pc, #16]	; (151c <DMA1_DMA17_DriverIRQHandler+0x44>)
    150c:	6c5b      	ldr	r3, [r3, #68]	; 0x44
    150e:	4618      	mov	r0, r3
    1510:	f7ff ff0e 	bl	1330 <EDMA_HandleIRQ>
    1514:	bf00      	nop
    1516:	bd80      	pop	{r7, pc}
    1518:	400e8000 	.word	0x400e8000
    151c:	20000048 	.word	0x20000048

00001520 <DMA2_DMA18_DriverIRQHandler>:
    1520:	b580      	push	{r7, lr}
    1522:	af00      	add	r7, sp, #0
    1524:	2102      	movs	r1, #2
    1526:	480e      	ldr	r0, [pc, #56]	; (1560 <DMA2_DMA18_DriverIRQHandler+0x40>)
    1528:	f7ff fec8 	bl	12bc <EDMA_GetChannelStatusFlags>
    152c:	4603      	mov	r3, r0
    152e:	f003 0304 	and.w	r3, r3, #4
    1532:	2b00      	cmp	r3, #0
    1534:	d004      	beq.n	1540 <DMA2_DMA18_DriverIRQHandler+0x20>
    1536:	4b0b      	ldr	r3, [pc, #44]	; (1564 <DMA2_DMA18_DriverIRQHandler+0x44>)
    1538:	689b      	ldr	r3, [r3, #8]
    153a:	4618      	mov	r0, r3
    153c:	f7ff fef8 	bl	1330 <EDMA_HandleIRQ>
    1540:	2112      	movs	r1, #18
    1542:	4807      	ldr	r0, [pc, #28]	; (1560 <DMA2_DMA18_DriverIRQHandler+0x40>)
    1544:	f7ff feba 	bl	12bc <EDMA_GetChannelStatusFlags>
    1548:	4603      	mov	r3, r0
    154a:	f003 0304 	and.w	r3, r3, #4
    154e:	2b00      	cmp	r3, #0
    1550:	d004      	beq.n	155c <DMA2_DMA18_DriverIRQHandler+0x3c>
    1552:	4b04      	ldr	r3, [pc, #16]	; (1564 <DMA2_DMA18_DriverIRQHandler+0x44>)
    1554:	6c9b      	ldr	r3, [r3, #72]	; 0x48
    1556:	4618      	mov	r0, r3
    1558:	f7ff feea 	bl	1330 <EDMA_HandleIRQ>
    155c:	bf00      	nop
    155e:	bd80      	pop	{r7, pc}
    1560:	400e8000 	.word	0x400e8000
    1564:	20000048 	.word	0x20000048

00001568 <DMA3_DMA19_DriverIRQHandler>:
    1568:	b580      	push	{r7, lr}
    156a:	af00      	add	r7, sp, #0
    156c:	2103      	movs	r1, #3
    156e:	480e      	ldr	r0, [pc, #56]	; (15a8 <DMA3_DMA19_DriverIRQHandler+0x40>)
    1570:	f7ff fea4 	bl	12bc <EDMA_GetChannelStatusFlags>
    1574:	4603      	mov	r3, r0
    1576:	f003 0304 	and.w	r3, r3, #4
    157a:	2b00      	cmp	r3, #0
    157c:	d004      	beq.n	1588 <DMA3_DMA19_DriverIRQHandler+0x20>
    157e:	4b0b      	ldr	r3, [pc, #44]	; (15ac <DMA3_DMA19_DriverIRQHandler+0x44>)
    1580:	68db      	ldr	r3, [r3, #12]
    1582:	4618      	mov	r0, r3
    1584:	f7ff fed4 	bl	1330 <EDMA_HandleIRQ>
    1588:	2113      	movs	r1, #19
    158a:	4807      	ldr	r0, [pc, #28]	; (15a8 <DMA3_DMA19_DriverIRQHandler+0x40>)
    158c:	f7ff fe96 	bl	12bc <EDMA_GetChannelStatusFlags>
    1590:	4603      	mov	r3, r0
    1592:	f003 0304 	and.w	r3, r3, #4
    1596:	2b00      	cmp	r3, #0
    1598:	d004      	beq.n	15a4 <DMA3_DMA19_DriverIRQHandler+0x3c>
    159a:	4b04      	ldr	r3, [pc, #16]	; (15ac <DMA3_DMA19_DriverIRQHandler+0x44>)
    159c:	6cdb      	ldr	r3, [r3, #76]	; 0x4c
    159e:	4618      	mov	r0, r3
    15a0:	f7ff fec6 	bl	1330 <EDMA_HandleIRQ>
    15a4:	bf00      	nop
    15a6:	bd80      	pop	{r7, pc}
    15a8:	400e8000 	.word	0x400e8000
    15ac:	20000048 	.word	0x20000048

000015b0 <DMA4_DMA20_DriverIRQHandler>:
    15b0:	b580      	push	{r7, lr}
    15b2:	af00      	add	r7, sp, #0
    15b4:	2104      	movs	r1, #4
    15b6:	480e      	ldr	r0, [pc, #56]	; (15f0 <DMA4_DMA20_DriverIRQHandler+0x40>)
    15b8:	f7ff fe80 	bl	12bc <EDMA_GetChannelStatusFlags>
    15bc:	4603      	mov	r3, r0
    15be:	f003 0304 	and.w	r3, r3, #4
    15c2:	2b00      	cmp	r3, #0
    15c4:	d004      	beq.n	15d0 <DMA4_DMA20_DriverIRQHandler+0x20>
    15c6:	4b0b      	ldr	r3, [pc, #44]	; (15f4 <DMA4_DMA20_DriverIRQHandler+0x44>)
    15c8:	691b      	ldr	r3, [r3, #16]
    15ca:	4618      	mov	r0, r3
    15cc:	f7ff feb0 	bl	1330 <EDMA_HandleIRQ>
    15d0:	2114      	movs	r1, #20
    15d2:	4807      	ldr	r0, [pc, #28]	; (15f0 <DMA4_DMA20_DriverIRQHandler+0x40>)
    15d4:	f7ff fe72 	bl	12bc <EDMA_GetChannelStatusFlags>
    15d8:	4603      	mov	r3, r0
    15da:	f003 0304 	and.w	r3, r3, #4
    15de:	2b00      	cmp	r3, #0
    15e0:	d004      	beq.n	15ec <DMA4_DMA20_DriverIRQHandler+0x3c>
    15e2:	4b04      	ldr	r3, [pc, #16]	; (15f4 <DMA4_DMA20_DriverIRQHandler+0x44>)
    15e4:	6d1b      	ldr	r3, [r3, #80]	; 0x50
    15e6:	4618      	mov	r0, r3
    15e8:	f7ff fea2 	bl	1330 <EDMA_HandleIRQ>
    15ec:	bf00      	nop
    15ee:	bd80      	pop	{r7, pc}
    15f0:	400e8000 	.word	0x400e8000
    15f4:	20000048 	.word	0x20000048

000015f8 <DMA5_DMA21_DriverIRQHandler>:
    15f8:	b580      	push	{r7, lr}
    15fa:	af00      	add	r7, sp, #0
    15fc:	2105      	movs	r1, #5
    15fe:	480e      	ldr	r0, [pc, #56]	; (1638 <DMA5_DMA21_DriverIRQHandler+0x40>)
    1600:	f7ff fe5c 	bl	12bc <EDMA_GetChannelStatusFlags>
    1604:	4603      	mov	r3, r0
    1606:	f003 0304 	and.w	r3, r3, #4
    160a:	2b00      	cmp	r3, #0
    160c:	d004      	beq.n	1618 <DMA5_DMA21_DriverIRQHandler+0x20>
    160e:	4b0b      	ldr	r3, [pc, #44]	; (163c <DMA5_DMA21_DriverIRQHandler+0x44>)
    1610:	695b      	ldr	r3, [r3, #20]
    1612:	4618      	mov	r0, r3
    1614:	f7ff fe8c 	bl	1330 <EDMA_HandleIRQ>
    1618:	2115      	movs	r1, #21
    161a:	4807      	ldr	r0, [pc, #28]	; (1638 <DMA5_DMA21_DriverIRQHandler+0x40>)
    161c:	f7ff fe4e 	bl	12bc <EDMA_GetChannelStatusFlags>
    1620:	4603      	mov	r3, r0
    1622:	f003 0304 	and.w	r3, r3, #4
    1626:	2b00      	cmp	r3, #0
    1628:	d004      	beq.n	1634 <DMA5_DMA21_DriverIRQHandler+0x3c>
    162a:	4b04      	ldr	r3, [pc, #16]	; (163c <DMA5_DMA21_DriverIRQHandler+0x44>)
    162c:	6d5b      	ldr	r3, [r3, #84]	; 0x54
    162e:	4618      	mov	r0, r3
    1630:	f7ff fe7e 	bl	1330 <EDMA_HandleIRQ>
    1634:	bf00      	nop
    1636:	bd80      	pop	{r7, pc}
    1638:	400e8000 	.word	0x400e8000
    163c:	20000048 	.word	0x20000048

00001640 <DMA6_DMA22_DriverIRQHandler>:
    1640:	b580      	push	{r7, lr}
    1642:	af00      	add	r7, sp, #0
    1644:	2106      	movs	r1, #6
    1646:	480e      	ldr	r0, [pc, #56]	; (1680 <DMA6_DMA22_DriverIRQHandler+0x40>)
    1648:	f7ff fe38 	bl	12bc <EDMA_GetChannelStatusFlags>
    164c:	4603      	mov	r3, r0
    164e:	f003 0304 	and.w	r3, r3, #4
    1652:	2b00      	cmp	r3, #0
    1654:	d004      	beq.n	1660 <DMA6_DMA22_DriverIRQHandler+0x20>
    1656:	4b0b      	ldr	r3, [pc, #44]	; (1684 <DMA6_DMA22_DriverIRQHandler+0x44>)
    1658:	699b      	ldr	r3, [r3, #24]
    165a:	4618      	mov	r0, r3
    165c:	f7ff fe68 	bl	1330 <EDMA_HandleIRQ>
    1660:	2116      	movs	r1, #22
    1662:	4807      	ldr	r0, [pc, #28]	; (1680 <DMA6_DMA22_DriverIRQHandler+0x40>)
    1664:	f7ff fe2a 	bl	12bc <EDMA_GetChannelStatusFlags>
    1668:	4603      	mov	r3, r0
    166a:	f003 0304 	and.w	r3, r3, #4
    166e:	2b00      	cmp	r3, #0
    1670:	d004      	beq.n	167c <DMA6_DMA22_DriverIRQHandler+0x3c>
    1672:	4b04      	ldr	r3, [pc, #16]	; (1684 <DMA6_DMA22_DriverIRQHandler+0x44>)
    1674:	6d9b      	ldr	r3, [r3, #88]	; 0x58
    1676:	4618      	mov	r0, r3
    1678:	f7ff fe5a 	bl	1330 <EDMA_HandleIRQ>
    167c:	bf00      	nop
    167e:	bd80      	pop	{r7, pc}
    1680:	400e8000 	.word	0x400e8000
    1684:	20000048 	.word	0x20000048

00001688 <DMA7_DMA23_DriverIRQHandler>:
    1688:	b580      	push	{r7, lr}
    168a:	af00      	add	r7, sp, #0
    168c:	2107      	movs	r1, #7
    168e:	480e      	ldr	r0, [pc, #56]	; (16c8 <DMA7_DMA23_DriverIRQHandler+0x40>)
    1690:	f7ff fe14 	bl	12bc <EDMA_GetChannelStatusFlags>
    1694:	4603      	mov	r3, r0
    1696:	f003 0304 	and.w	r3, r3, #4
    169a:	2b00      	cmp	r3, #0
    169c:	d004      	beq.n	16a8 <DMA7_DMA23_DriverIRQHandler+0x20>
    169e:	4b0b      	ldr	r3, [pc, #44]	; (16cc <DMA7_DMA23_DriverIRQHandler+0x44>)
    16a0:	69db      	ldr	r3, [r3, #28]
    16a2:	4618      	mov	r0, r3
    16a4:	f7ff fe44 	bl	1330 <EDMA_HandleIRQ>
    16a8:	2117      	movs	r1, #23
    16aa:	4807      	ldr	r0, [pc, #28]	; (16c8 <DMA7_DMA23_DriverIRQHandler+0x40>)
    16ac:	f7ff fe06 	bl	12bc <EDMA_GetChannelStatusFlags>
    16b0:	4603      	mov	r3, r0
    16b2:	f003 0304 	and.w	r3, r3, #4
    16b6:	2b00      	cmp	r3, #0
    16b8:	d004      	beq.n	16c4 <DMA7_DMA23_DriverIRQHandler+0x3c>
    16ba:	4b04      	ldr	r3, [pc, #16]	; (16cc <DMA7_DMA23_DriverIRQHandler+0x44>)
    16bc:	6ddb      	ldr	r3, [r3, #92]	; 0x5c
    16be:	4618      	mov	r0, r3
    16c0:	f7ff fe36 	bl	1330 <EDMA_HandleIRQ>
    16c4:	bf00      	nop
    16c6:	bd80      	pop	{r7, pc}
    16c8:	400e8000 	.word	0x400e8000
    16cc:	20000048 	.word	0x20000048

000016d0 <DMA8_DMA24_DriverIRQHandler>:
    16d0:	b580      	push	{r7, lr}
    16d2:	af00      	add	r7, sp, #0
    16d4:	2108      	movs	r1, #8
    16d6:	480e      	ldr	r0, [pc, #56]	; (1710 <DMA8_DMA24_DriverIRQHandler+0x40>)
    16d8:	f7ff fdf0 	bl	12bc <EDMA_GetChannelStatusFlags>
    16dc:	4603      	mov	r3, r0
    16de:	f003 0304 	and.w	r3, r3, #4
    16e2:	2b00      	cmp	r3, #0
    16e4:	d004      	beq.n	16f0 <DMA8_DMA24_DriverIRQHandler+0x20>
    16e6:	4b0b      	ldr	r3, [pc, #44]	; (1714 <DMA8_DMA24_DriverIRQHandler+0x44>)
    16e8:	6a1b      	ldr	r3, [r3, #32]
    16ea:	4618      	mov	r0, r3
    16ec:	f7ff fe20 	bl	1330 <EDMA_HandleIRQ>
    16f0:	2118      	movs	r1, #24
    16f2:	4807      	ldr	r0, [pc, #28]	; (1710 <DMA8_DMA24_DriverIRQHandler+0x40>)
    16f4:	f7ff fde2 	bl	12bc <EDMA_GetChannelStatusFlags>
    16f8:	4603      	mov	r3, r0
    16fa:	f003 0304 	and.w	r3, r3, #4
    16fe:	2b00      	cmp	r3, #0
    1700:	d004      	beq.n	170c <DMA8_DMA24_DriverIRQHandler+0x3c>
    1702:	4b04      	ldr	r3, [pc, #16]	; (1714 <DMA8_DMA24_DriverIRQHandler+0x44>)
    1704:	6e1b      	ldr	r3, [r3, #96]	; 0x60
    1706:	4618      	mov	r0, r3
    1708:	f7ff fe12 	bl	1330 <EDMA_HandleIRQ>
    170c:	bf00      	nop
    170e:	bd80      	pop	{r7, pc}
    1710:	400e8000 	.word	0x400e8000
    1714:	20000048 	.word	0x20000048

00001718 <DMA9_DMA25_DriverIRQHandler>:
    1718:	b580      	push	{r7, lr}
    171a:	af00      	add	r7, sp, #0
    171c:	2109      	movs	r1, #9
    171e:	480e      	ldr	r0, [pc, #56]	; (1758 <DMA9_DMA25_DriverIRQHandler+0x40>)
    1720:	f7ff fdcc 	bl	12bc <EDMA_GetChannelStatusFlags>
    1724:	4603      	mov	r3, r0
    1726:	f003 0304 	and.w	r3, r3, #4
    172a:	2b00      	cmp	r3, #0
    172c:	d004      	beq.n	1738 <DMA9_DMA25_DriverIRQHandler+0x20>
    172e:	4b0b      	ldr	r3, [pc, #44]	; (175c <DMA9_DMA25_DriverIRQHandler+0x44>)
    1730:	6a5b      	ldr	r3, [r3, #36]	; 0x24
    1732:	4618      	mov	r0, r3
    1734:	f7ff fdfc 	bl	1330 <EDMA_HandleIRQ>
    1738:	2119      	movs	r1, #25
    173a:	4807      	ldr	r0, [pc, #28]	; (1758 <DMA9_DMA25_DriverIRQHandler+0x40>)
    173c:	f7ff fdbe 	bl	12bc <EDMA_GetChannelStatusFlags>
    1740:	4603      	mov	r3, r0
    1742:	f003 0304 	and.w	r3, r3, #4
    1746:	2b00      	cmp	r3, #0
    1748:	d004      	beq.n	1754 <DMA9_DMA25_DriverIRQHandler+0x3c>
    174a:	4b04      	ldr	r3, [pc, #16]	; (175c <DMA9_DMA25_DriverIRQHandler+0x44>)
    174c:	6e5b      	ldr	r3, [r3, #100]	; 0x64
    174e:	4618      	mov	r0, r3
    1750:	f7ff fdee 	bl	1330 <EDMA_HandleIRQ>
    1754:	bf00      	nop
    1756:	bd80      	pop	{r7, pc}
    1758:	400e8000 	.word	0x400e8000
    175c:	20000048 	.word	0x20000048

00001760 <DMA10_DMA26_DriverIRQHandler>:
    1760:	b580      	push	{r7, lr}
    1762:	af00      	add	r7, sp, #0
    1764:	210a      	movs	r1, #10
    1766:	480e      	ldr	r0, [pc, #56]	; (17a0 <DMA10_DMA26_DriverIRQHandler+0x40>)
    1768:	f7ff fda8 	bl	12bc <EDMA_GetChannelStatusFlags>
    176c:	4603      	mov	r3, r0
    176e:	f003 0304 	and.w	r3, r3, #4
    1772:	2b00      	cmp	r3, #0
    1774:	d004      	beq.n	1780 <DMA10_DMA26_DriverIRQHandler+0x20>
    1776:	4b0b      	ldr	r3, [pc, #44]	; (17a4 <DMA10_DMA26_DriverIRQHandler+0x44>)
    1778:	6a9b      	ldr	r3, [r3, #40]	; 0x28
    177a:	4618      	mov	r0, r3
    177c:	f7ff fdd8 	bl	1330 <EDMA_HandleIRQ>
    1780:	211a      	movs	r1, #26
    1782:	4807      	ldr	r0, [pc, #28]	; (17a0 <DMA10_DMA26_DriverIRQHandler+0x40>)
    1784:	f7ff fd9a 	bl	12bc <EDMA_GetChannelStatusFlags>
    1788:	4603      	mov	r3, r0
    178a:	f003 0304 	and.w	r3, r3, #4
    178e:	2b00      	cmp	r3, #0
    1790:	d004      	beq.n	179c <DMA10_DMA26_DriverIRQHandler+0x3c>
    1792:	4b04      	ldr	r3, [pc, #16]	; (17a4 <DMA10_DMA26_DriverIRQHandler+0x44>)
    1794:	6e9b      	ldr	r3, [r3, #104]	; 0x68
    1796:	4618      	mov	r0, r3
    1798:	f7ff fdca 	bl	1330 <EDMA_HandleIRQ>
    179c:	bf00      	nop
    179e:	bd80      	pop	{r7, pc}
    17a0:	400e8000 	.word	0x400e8000
    17a4:	20000048 	.word	0x20000048

000017a8 <DMA11_DMA27_DriverIRQHandler>:
    17a8:	b580      	push	{r7, lr}
    17aa:	af00      	add	r7, sp, #0
    17ac:	210b      	movs	r1, #11
    17ae:	480e      	ldr	r0, [pc, #56]	; (17e8 <DMA11_DMA27_DriverIRQHandler+0x40>)
    17b0:	f7ff fd84 	bl	12bc <EDMA_GetChannelStatusFlags>
    17b4:	4603      	mov	r3, r0
    17b6:	f003 0304 	and.w	r3, r3, #4
    17ba:	2b00      	cmp	r3, #0
    17bc:	d004      	beq.n	17c8 <DMA11_DMA27_DriverIRQHandler+0x20>
    17be:	4b0b      	ldr	r3, [pc, #44]	; (17ec <DMA11_DMA27_DriverIRQHandler+0x44>)
    17c0:	6adb      	ldr	r3, [r3, #44]	; 0x2c
    17c2:	4618      	mov	r0, r3
    17c4:	f7ff fdb4 	bl	1330 <EDMA_HandleIRQ>
    17c8:	211b      	movs	r1, #27
    17ca:	4807      	ldr	r0, [pc, #28]	; (17e8 <DMA11_DMA27_DriverIRQHandler+0x40>)
    17cc:	f7ff fd76 	bl	12bc <EDMA_GetChannelStatusFlags>
    17d0:	4603      	mov	r3, r0
    17d2:	f003 0304 	and.w	r3, r3, #4
    17d6:	2b00      	cmp	r3, #0
    17d8:	d004      	beq.n	17e4 <DMA11_DMA27_DriverIRQHandler+0x3c>
    17da:	4b04      	ldr	r3, [pc, #16]	; (17ec <DMA11_DMA27_DriverIRQHandler+0x44>)
    17dc:	6edb      	ldr	r3, [r3, #108]	; 0x6c
    17de:	4618      	mov	r0, r3
    17e0:	f7ff fda6 	bl	1330 <EDMA_HandleIRQ>
    17e4:	bf00      	nop
    17e6:	bd80      	pop	{r7, pc}
    17e8:	400e8000 	.word	0x400e8000
    17ec:	20000048 	.word	0x20000048

000017f0 <DMA12_DMA28_DriverIRQHandler>:
    17f0:	b580      	push	{r7, lr}
    17f2:	af00      	add	r7, sp, #0
    17f4:	210c      	movs	r1, #12
    17f6:	480e      	ldr	r0, [pc, #56]	; (1830 <DMA12_DMA28_DriverIRQHandler+0x40>)
    17f8:	f7ff fd60 	bl	12bc <EDMA_GetChannelStatusFlags>
    17fc:	4603      	mov	r3, r0
    17fe:	f003 0304 	and.w	r3, r3, #4
    1802:	2b00      	cmp	r3, #0
    1804:	d004      	beq.n	1810 <DMA12_DMA28_DriverIRQHandler+0x20>
    1806:	4b0b      	ldr	r3, [pc, #44]	; (1834 <DMA12_DMA28_DriverIRQHandler+0x44>)
    1808:	6b1b      	ldr	r3, [r3, #48]	; 0x30
    180a:	4618      	mov	r0, r3
    180c:	f7ff fd90 	bl	1330 <EDMA_HandleIRQ>
    1810:	211c      	movs	r1, #28
    1812:	4807      	ldr	r0, [pc, #28]	; (1830 <DMA12_DMA28_DriverIRQHandler+0x40>)
    1814:	f7ff fd52 	bl	12bc <EDMA_GetChannelStatusFlags>
    1818:	4603      	mov	r3, r0
    181a:	f003 0304 	and.w	r3, r3, #4
    181e:	2b00      	cmp	r3, #0
    1820:	d004      	beq.n	182c <DMA12_DMA28_DriverIRQHandler+0x3c>
    1822:	4b04      	ldr	r3, [pc, #16]	; (1834 <DMA12_DMA28_DriverIRQHandler+0x44>)
    1824:	6f1b      	ldr	r3, [r3, #112]	; 0x70
    1826:	4618      	mov	r0, r3
    1828:	f7ff fd82 	bl	1330 <EDMA_HandleIRQ>
    182c:	bf00      	nop
    182e:	bd80      	pop	{r7, pc}
    1830:	400e8000 	.word	0x400e8000
    1834:	20000048 	.word	0x20000048

00001838 <DMA13_DMA29_DriverIRQHandler>:
    1838:	b580      	push	{r7, lr}
    183a:	af00      	add	r7, sp, #0
    183c:	210d      	movs	r1, #13
    183e:	480e      	ldr	r0, [pc, #56]	; (1878 <DMA13_DMA29_DriverIRQHandler+0x40>)
    1840:	f7ff fd3c 	bl	12bc <EDMA_GetChannelStatusFlags>
    1844:	4603      	mov	r3, r0
    1846:	f003 0304 	and.w	r3, r3, #4
    184a:	2b00      	cmp	r3, #0
    184c:	d004      	beq.n	1858 <DMA13_DMA29_DriverIRQHandler+0x20>
    184e:	4b0b      	ldr	r3, [pc, #44]	; (187c <DMA13_DMA29_DriverIRQHandler+0x44>)
    1850:	6b5b      	ldr	r3, [r3, #52]	; 0x34
    1852:	4618      	mov	r0, r3
    1854:	f7ff fd6c 	bl	1330 <EDMA_HandleIRQ>
    1858:	211d      	movs	r1, #29
    185a:	4807      	ldr	r0, [pc, #28]	; (1878 <DMA13_DMA29_DriverIRQHandler+0x40>)
    185c:	f7ff fd2e 	bl	12bc <EDMA_GetChannelStatusFlags>
    1860:	4603      	mov	r3, r0
    1862:	f003 0304 	and.w	r3, r3, #4
    1866:	2b00      	cmp	r3, #0
    1868:	d004      	beq.n	1874 <DMA13_DMA29_DriverIRQHandler+0x3c>
    186a:	4b04      	ldr	r3, [pc, #16]	; (187c <DMA13_DMA29_DriverIRQHandler+0x44>)
    186c:	6f5b      	ldr	r3, [r3, #116]	; 0x74
    186e:	4618      	mov	r0, r3
    1870:	f7ff fd5e 	bl	1330 <EDMA_HandleIRQ>
    1874:	bf00      	nop
    1876:	bd80      	pop	{r7, pc}
    1878:	400e8000 	.word	0x400e8000
    187c:	20000048 	.word	0x20000048

00001880 <DMA14_DMA30_DriverIRQHandler>:
    1880:	b580      	push	{r7, lr}
    1882:	af00      	add	r7, sp, #0
    1884:	210e      	movs	r1, #14
    1886:	480e      	ldr	r0, [pc, #56]	; (18c0 <DMA14_DMA30_DriverIRQHandler+0x40>)
    1888:	f7ff fd18 	bl	12bc <EDMA_GetChannelStatusFlags>
    188c:	4603      	mov	r3, r0
    188e:	f003 0304 	and.w	r3, r3, #4
    1892:	2b00      	cmp	r3, #0
    1894:	d004      	beq.n	18a0 <DMA14_DMA30_DriverIRQHandler+0x20>
    1896:	4b0b      	ldr	r3, [pc, #44]	; (18c4 <DMA14_DMA30_DriverIRQHandler+0x44>)
    1898:	6b9b      	ldr	r3, [r3, #56]	; 0x38
    189a:	4618      	mov	r0, r3
    189c:	f7ff fd48 	bl	1330 <EDMA_HandleIRQ>
    18a0:	211e      	movs	r1, #30
    18a2:	4807      	ldr	r0, [pc, #28]	; (18c0 <DMA14_DMA30_DriverIRQHandler+0x40>)
    18a4:	f7ff fd0a 	bl	12bc <EDMA_GetChannelStatusFlags>
    18a8:	4603      	mov	r3, r0
    18aa:	f003 0304 	and.w	r3, r3, #4
    18ae:	2b00      	cmp	r3, #0
    18b0:	d004      	beq.n	18bc <DMA14_DMA30_DriverIRQHandler+0x3c>
    18b2:	4b04      	ldr	r3, [pc, #16]	; (18c4 <DMA14_DMA30_DriverIRQHandler+0x44>)
    18b4:	6f9b      	ldr	r3, [r3, #120]	; 0x78
    18b6:	4618      	mov	r0, r3
    18b8:	f7ff fd3a 	bl	1330 <EDMA_HandleIRQ>
    18bc:	bf00      	nop
    18be:	bd80      	pop	{r7, pc}
    18c0:	400e8000 	.word	0x400e8000
    18c4:	20000048 	.word	0x20000048

000018c8 <DMA15_DMA31_DriverIRQHandler>:
    18c8:	b580      	push	{r7, lr}
    18ca:	af00      	add	r7, sp, #0
    18cc:	210f      	movs	r1, #15
    18ce:	480e      	ldr	r0, [pc, #56]	; (1908 <DMA15_DMA31_DriverIRQHandler+0x40>)
    18d0:	f7ff fcf4 	bl	12bc <EDMA_GetChannelStatusFlags>
    18d4:	4603      	mov	r3, r0
    18d6:	f003 0304 	and.w	r3, r3, #4
    18da:	2b00      	cmp	r3, #0
    18dc:	d004      	beq.n	18e8 <DMA15_DMA31_DriverIRQHandler+0x20>
    18de:	4b0b      	ldr	r3, [pc, #44]	; (190c <DMA15_DMA31_DriverIRQHandler+0x44>)
    18e0:	6bdb      	ldr	r3, [r3, #60]	; 0x3c
    18e2:	4618      	mov	r0, r3
    18e4:	f7ff fd24 	bl	1330 <EDMA_HandleIRQ>
    18e8:	211f      	movs	r1, #31
    18ea:	4807      	ldr	r0, [pc, #28]	; (1908 <DMA15_DMA31_DriverIRQHandler+0x40>)
    18ec:	f7ff fce6 	bl	12bc <EDMA_GetChannelStatusFlags>
    18f0:	4603      	mov	r3, r0
    18f2:	f003 0304 	and.w	r3, r3, #4
    18f6:	2b00      	cmp	r3, #0
    18f8:	d004      	beq.n	1904 <DMA15_DMA31_DriverIRQHandler+0x3c>
    18fa:	4b04      	ldr	r3, [pc, #16]	; (190c <DMA15_DMA31_DriverIRQHandler+0x44>)
    18fc:	6fdb      	ldr	r3, [r3, #124]	; 0x7c
    18fe:	4618      	mov	r0, r3
    1900:	f7ff fd16 	bl	1330 <EDMA_HandleIRQ>
    1904:	bf00      	nop
    1906:	bd80      	pop	{r7, pc}
    1908:	400e8000 	.word	0x400e8000
    190c:	20000048 	.word	0x20000048

00001910 <CLOCK_ControlGate>:
    1910:	b580      	push	{r7, lr}
    1912:	b086      	sub	sp, #24
    1914:	af00      	add	r7, sp, #0
    1916:	4603      	mov	r3, r0
    1918:	460a      	mov	r2, r1
    191a:	80fb      	strh	r3, [r7, #6]
    191c:	4613      	mov	r3, r2
    191e:	717b      	strb	r3, [r7, #5]
    1920:	f9b7 3006 	ldrsh.w	r3, [r7, #6]
    1924:	0a1b      	lsrs	r3, r3, #8
    1926:	617b      	str	r3, [r7, #20]
    1928:	88fb      	ldrh	r3, [r7, #6]
    192a:	f003 031f 	and.w	r3, r3, #31
    192e:	613b      	str	r3, [r7, #16]
    1930:	697b      	ldr	r3, [r7, #20]
    1932:	2b07      	cmp	r3, #7
    1934:	d902      	bls.n	193c <CLOCK_ControlGate+0x2c>
    1936:	480d      	ldr	r0, [pc, #52]	; (196c <CLOCK_ControlGate+0x5c>)
    1938:	f003 fcca 	bl	52d0 <__assertion_failed>
    193c:	697b      	ldr	r3, [r7, #20]
    193e:	009a      	lsls	r2, r3, #2
    1940:	4b0b      	ldr	r3, [pc, #44]	; (1970 <CLOCK_ControlGate+0x60>)
    1942:	4413      	add	r3, r2
    1944:	60fb      	str	r3, [r7, #12]
    1946:	68fb      	ldr	r3, [r7, #12]
    1948:	681a      	ldr	r2, [r3, #0]
    194a:	2103      	movs	r1, #3
    194c:	693b      	ldr	r3, [r7, #16]
    194e:	fa01 f303 	lsl.w	r3, r1, r3
    1952:	43db      	mvns	r3, r3
    1954:	401a      	ands	r2, r3
    1956:	7979      	ldrb	r1, [r7, #5]
    1958:	693b      	ldr	r3, [r7, #16]
    195a:	fa01 f303 	lsl.w	r3, r1, r3
    195e:	431a      	orrs	r2, r3
    1960:	68fb      	ldr	r3, [r7, #12]
    1962:	601a      	str	r2, [r3, #0]
    1964:	bf00      	nop
    1966:	3718      	adds	r7, #24
    1968:	46bd      	mov	sp, r7
    196a:	bd80      	pop	{r7, pc}
    196c:	000088a8 	.word	0x000088a8
    1970:	400fc068 	.word	0x400fc068

00001974 <GPIO_GetInstance>:
    1974:	b580      	push	{r7, lr}
    1976:	b084      	sub	sp, #16
    1978:	af00      	add	r7, sp, #0
    197a:	6078      	str	r0, [r7, #4]
    197c:	2300      	movs	r3, #0
    197e:	60fb      	str	r3, [r7, #12]
    1980:	e009      	b.n	1996 <GPIO_GetInstance+0x22>
    1982:	4a0d      	ldr	r2, [pc, #52]	; (19b8 <GPIO_GetInstance+0x44>)
    1984:	68fb      	ldr	r3, [r7, #12]
    1986:	f852 3023 	ldr.w	r3, [r2, r3, lsl #2]
    198a:	687a      	ldr	r2, [r7, #4]
    198c:	429a      	cmp	r2, r3
    198e:	d006      	beq.n	199e <GPIO_GetInstance+0x2a>
    1990:	68fb      	ldr	r3, [r7, #12]
    1992:	3301      	adds	r3, #1
    1994:	60fb      	str	r3, [r7, #12]
    1996:	68fb      	ldr	r3, [r7, #12]
    1998:	2b09      	cmp	r3, #9
    199a:	d9f2      	bls.n	1982 <GPIO_GetInstance+0xe>
    199c:	e000      	b.n	19a0 <GPIO_GetInstance+0x2c>
    199e:	bf00      	nop
    19a0:	68fb      	ldr	r3, [r7, #12]
    19a2:	2b09      	cmp	r3, #9
    19a4:	d902      	bls.n	19ac <GPIO_GetInstance+0x38>
    19a6:	4805      	ldr	r0, [pc, #20]	; (19bc <GPIO_GetInstance+0x48>)
    19a8:	f003 fc92 	bl	52d0 <__assertion_failed>
    19ac:	68fb      	ldr	r3, [r7, #12]
    19ae:	4618      	mov	r0, r3
    19b0:	3710      	adds	r7, #16
    19b2:	46bd      	mov	sp, r7
    19b4:	bd80      	pop	{r7, pc}
    19b6:	bf00      	nop
    19b8:	0000893c 	.word	0x0000893c
    19bc:	000088d4 	.word	0x000088d4

000019c0 <GPIO_PinInit>:
    19c0:	b580      	push	{r7, lr}
    19c2:	b086      	sub	sp, #24
    19c4:	af00      	add	r7, sp, #0
    19c6:	60f8      	str	r0, [r7, #12]
    19c8:	60b9      	str	r1, [r7, #8]
    19ca:	607a      	str	r2, [r7, #4]
    19cc:	68f8      	ldr	r0, [r7, #12]
    19ce:	f7ff ffd1 	bl	1974 <GPIO_GetInstance>
    19d2:	6178      	str	r0, [r7, #20]
    19d4:	697b      	ldr	r3, [r7, #20]
    19d6:	2b05      	cmp	r3, #5
    19d8:	d80d      	bhi.n	19f6 <GPIO_PinInit+0x36>
    19da:	4a21      	ldr	r2, [pc, #132]	; (1a60 <GPIO_PinInit+0xa0>)
    19dc:	697b      	ldr	r3, [r7, #20]
    19de:	f932 3013 	ldrsh.w	r3, [r2, r3, lsl #1]
    19e2:	f1b3 3fff 	cmp.w	r3, #4294967295
    19e6:	d006      	beq.n	19f6 <GPIO_PinInit+0x36>
    19e8:	4a1d      	ldr	r2, [pc, #116]	; (1a60 <GPIO_PinInit+0xa0>)
    19ea:	697b      	ldr	r3, [r7, #20]
    19ec:	f932 3013 	ldrsh.w	r3, [r2, r3, lsl #1]
    19f0:	4618      	mov	r0, r3
    19f2:	f004 fbc2 	bl	617a <CLOCK_EnableClock>
    19f6:	68fb      	ldr	r3, [r7, #12]
    19f8:	695a      	ldr	r2, [r3, #20]
    19fa:	2101      	movs	r1, #1
    19fc:	68bb      	ldr	r3, [r7, #8]
    19fe:	fa01 f303 	lsl.w	r3, r1, r3
    1a02:	43db      	mvns	r3, r3
    1a04:	401a      	ands	r2, r3
    1a06:	68fb      	ldr	r3, [r7, #12]
    1a08:	615a      	str	r2, [r3, #20]
    1a0a:	687b      	ldr	r3, [r7, #4]
    1a0c:	781b      	ldrb	r3, [r3, #0]
    1a0e:	2b00      	cmp	r3, #0
    1a10:	d10a      	bne.n	1a28 <GPIO_PinInit+0x68>
    1a12:	68fb      	ldr	r3, [r7, #12]
    1a14:	685a      	ldr	r2, [r3, #4]
    1a16:	2101      	movs	r1, #1
    1a18:	68bb      	ldr	r3, [r7, #8]
    1a1a:	fa01 f303 	lsl.w	r3, r1, r3
    1a1e:	43db      	mvns	r3, r3
    1a20:	401a      	ands	r2, r3
    1a22:	68fb      	ldr	r3, [r7, #12]
    1a24:	605a      	str	r2, [r3, #4]
    1a26:	e00f      	b.n	1a48 <GPIO_PinInit+0x88>
    1a28:	687b      	ldr	r3, [r7, #4]
    1a2a:	785b      	ldrb	r3, [r3, #1]
    1a2c:	461a      	mov	r2, r3
    1a2e:	68b9      	ldr	r1, [r7, #8]
    1a30:	68f8      	ldr	r0, [r7, #12]
    1a32:	f000 f817 	bl	1a64 <GPIO_PinWrite>
    1a36:	68fb      	ldr	r3, [r7, #12]
    1a38:	685a      	ldr	r2, [r3, #4]
    1a3a:	2101      	movs	r1, #1
    1a3c:	68bb      	ldr	r3, [r7, #8]
    1a3e:	fa01 f303 	lsl.w	r3, r1, r3
    1a42:	431a      	orrs	r2, r3
    1a44:	68fb      	ldr	r3, [r7, #12]
    1a46:	605a      	str	r2, [r3, #4]
    1a48:	687b      	ldr	r3, [r7, #4]
    1a4a:	789b      	ldrb	r3, [r3, #2]
    1a4c:	461a      	mov	r2, r3
    1a4e:	68b9      	ldr	r1, [r7, #8]
    1a50:	68f8      	ldr	r0, [r7, #12]
    1a52:	f004 fba1 	bl	6198 <GPIO_SetPinInterruptConfig>
    1a56:	bf00      	nop
    1a58:	3718      	adds	r7, #24
    1a5a:	46bd      	mov	sp, r7
    1a5c:	bd80      	pop	{r7, pc}
    1a5e:	bf00      	nop
    1a60:	00008964 	.word	0x00008964

00001a64 <GPIO_PinWrite>:
    1a64:	b580      	push	{r7, lr}
    1a66:	b084      	sub	sp, #16
    1a68:	af00      	add	r7, sp, #0
    1a6a:	60f8      	str	r0, [r7, #12]
    1a6c:	60b9      	str	r1, [r7, #8]
    1a6e:	4613      	mov	r3, r2
    1a70:	71fb      	strb	r3, [r7, #7]
    1a72:	68bb      	ldr	r3, [r7, #8]
    1a74:	2b1f      	cmp	r3, #31
    1a76:	d902      	bls.n	1a7e <GPIO_PinWrite+0x1a>
    1a78:	480e      	ldr	r0, [pc, #56]	; (1ab4 <GPIO_PinWrite+0x50>)
    1a7a:	f003 fc29 	bl	52d0 <__assertion_failed>
    1a7e:	79fb      	ldrb	r3, [r7, #7]
    1a80:	2b00      	cmp	r3, #0
    1a82:	d10a      	bne.n	1a9a <GPIO_PinWrite+0x36>
    1a84:	68fb      	ldr	r3, [r7, #12]
    1a86:	681a      	ldr	r2, [r3, #0]
    1a88:	2101      	movs	r1, #1
    1a8a:	68bb      	ldr	r3, [r7, #8]
    1a8c:	fa01 f303 	lsl.w	r3, r1, r3
    1a90:	43db      	mvns	r3, r3
    1a92:	401a      	ands	r2, r3
    1a94:	68fb      	ldr	r3, [r7, #12]
    1a96:	601a      	str	r2, [r3, #0]
    1a98:	e008      	b.n	1aac <GPIO_PinWrite+0x48>
    1a9a:	68fb      	ldr	r3, [r7, #12]
    1a9c:	681a      	ldr	r2, [r3, #0]
    1a9e:	2101      	movs	r1, #1
    1aa0:	68bb      	ldr	r3, [r7, #8]
    1aa2:	fa01 f303 	lsl.w	r3, r1, r3
    1aa6:	431a      	orrs	r2, r3
    1aa8:	68fb      	ldr	r3, [r7, #12]
    1aaa:	601a      	str	r2, [r3, #0]
    1aac:	bf00      	nop
    1aae:	3710      	adds	r7, #16
    1ab0:	46bd      	mov	sp, r7
    1ab2:	bd80      	pop	{r7, pc}
    1ab4:	00008914 	.word	0x00008914

00001ab8 <GPIO_PinSetInterruptConfig>:
    1ab8:	b480      	push	{r7}
    1aba:	b087      	sub	sp, #28
    1abc:	af00      	add	r7, sp, #0
    1abe:	60f8      	str	r0, [r7, #12]
    1ac0:	60b9      	str	r1, [r7, #8]
    1ac2:	4613      	mov	r3, r2
    1ac4:	71fb      	strb	r3, [r7, #7]
    1ac6:	68bb      	ldr	r3, [r7, #8]
    1ac8:	613b      	str	r3, [r7, #16]
    1aca:	68fb      	ldr	r3, [r7, #12]
    1acc:	69da      	ldr	r2, [r3, #28]
    1ace:	2101      	movs	r1, #1
    1ad0:	68bb      	ldr	r3, [r7, #8]
    1ad2:	fa01 f303 	lsl.w	r3, r1, r3
    1ad6:	43db      	mvns	r3, r3
    1ad8:	401a      	ands	r2, r3
    1ada:	68fb      	ldr	r3, [r7, #12]
    1adc:	61da      	str	r2, [r3, #28]
    1ade:	68bb      	ldr	r3, [r7, #8]
    1ae0:	2b0f      	cmp	r3, #15
    1ae2:	d803      	bhi.n	1aec <GPIO_PinSetInterruptConfig+0x34>
    1ae4:	68fb      	ldr	r3, [r7, #12]
    1ae6:	330c      	adds	r3, #12
    1ae8:	617b      	str	r3, [r7, #20]
    1aea:	e005      	b.n	1af8 <GPIO_PinSetInterruptConfig+0x40>
    1aec:	68fb      	ldr	r3, [r7, #12]
    1aee:	3310      	adds	r3, #16
    1af0:	617b      	str	r3, [r7, #20]
    1af2:	693b      	ldr	r3, [r7, #16]
    1af4:	3b10      	subs	r3, #16
    1af6:	613b      	str	r3, [r7, #16]
    1af8:	79fb      	ldrb	r3, [r7, #7]
    1afa:	3b01      	subs	r3, #1
    1afc:	2b04      	cmp	r3, #4
    1afe:	d852      	bhi.n	1ba6 <GPIO_PinSetInterruptConfig+0xee>
    1b00:	a201      	add	r2, pc, #4	; (adr r2, 1b08 <GPIO_PinSetInterruptConfig+0x50>)
    1b02:	f852 f023 	ldr.w	pc, [r2, r3, lsl #2]
    1b06:	bf00      	nop
    1b08:	00001b1d 	.word	0x00001b1d
    1b0c:	00001b35 	.word	0x00001b35
    1b10:	00001b59 	.word	0x00001b59
    1b14:	00001b7d 	.word	0x00001b7d
    1b18:	00001b93 	.word	0x00001b93
    1b1c:	697b      	ldr	r3, [r7, #20]
    1b1e:	681a      	ldr	r2, [r3, #0]
    1b20:	693b      	ldr	r3, [r7, #16]
    1b22:	005b      	lsls	r3, r3, #1
    1b24:	2103      	movs	r1, #3
    1b26:	fa01 f303 	lsl.w	r3, r1, r3
    1b2a:	43db      	mvns	r3, r3
    1b2c:	401a      	ands	r2, r3
    1b2e:	697b      	ldr	r3, [r7, #20]
    1b30:	601a      	str	r2, [r3, #0]
    1b32:	e039      	b.n	1ba8 <GPIO_PinSetInterruptConfig+0xf0>
    1b34:	697b      	ldr	r3, [r7, #20]
    1b36:	681a      	ldr	r2, [r3, #0]
    1b38:	693b      	ldr	r3, [r7, #16]
    1b3a:	005b      	lsls	r3, r3, #1
    1b3c:	2103      	movs	r1, #3
    1b3e:	fa01 f303 	lsl.w	r3, r1, r3
    1b42:	43db      	mvns	r3, r3
    1b44:	401a      	ands	r2, r3
    1b46:	693b      	ldr	r3, [r7, #16]
    1b48:	005b      	lsls	r3, r3, #1
    1b4a:	2101      	movs	r1, #1
    1b4c:	fa01 f303 	lsl.w	r3, r1, r3
    1b50:	431a      	orrs	r2, r3
    1b52:	697b      	ldr	r3, [r7, #20]
    1b54:	601a      	str	r2, [r3, #0]
    1b56:	e027      	b.n	1ba8 <GPIO_PinSetInterruptConfig+0xf0>
    1b58:	697b      	ldr	r3, [r7, #20]
    1b5a:	681a      	ldr	r2, [r3, #0]
    1b5c:	693b      	ldr	r3, [r7, #16]
    1b5e:	005b      	lsls	r3, r3, #1
    1b60:	2103      	movs	r1, #3
    1b62:	fa01 f303 	lsl.w	r3, r1, r3
    1b66:	43db      	mvns	r3, r3
    1b68:	401a      	ands	r2, r3
    1b6a:	693b      	ldr	r3, [r7, #16]
    1b6c:	005b      	lsls	r3, r3, #1
    1b6e:	2102      	movs	r1, #2
    1b70:	fa01 f303 	lsl.w	r3, r1, r3
    1b74:	431a      	orrs	r2, r3
    1b76:	697b      	ldr	r3, [r7, #20]
    1b78:	601a      	str	r2, [r3, #0]
    1b7a:	e015      	b.n	1ba8 <GPIO_PinSetInterruptConfig+0xf0>
    1b7c:	697b      	ldr	r3, [r7, #20]
    1b7e:	681a      	ldr	r2, [r3, #0]
    1b80:	693b      	ldr	r3, [r7, #16]
    1b82:	005b      	lsls	r3, r3, #1
    1b84:	2103      	movs	r1, #3
    1b86:	fa01 f303 	lsl.w	r3, r1, r3
    1b8a:	431a      	orrs	r2, r3
    1b8c:	697b      	ldr	r3, [r7, #20]
    1b8e:	601a      	str	r2, [r3, #0]
    1b90:	e00a      	b.n	1ba8 <GPIO_PinSetInterruptConfig+0xf0>
    1b92:	68fb      	ldr	r3, [r7, #12]
    1b94:	69da      	ldr	r2, [r3, #28]
    1b96:	2101      	movs	r1, #1
    1b98:	68bb      	ldr	r3, [r7, #8]
    1b9a:	fa01 f303 	lsl.w	r3, r1, r3
    1b9e:	431a      	orrs	r2, r3
    1ba0:	68fb      	ldr	r3, [r7, #12]
    1ba2:	61da      	str	r2, [r3, #28]
    1ba4:	e000      	b.n	1ba8 <GPIO_PinSetInterruptConfig+0xf0>
    1ba6:	bf00      	nop
    1ba8:	bf00      	nop
    1baa:	371c      	adds	r7, #28
    1bac:	46bd      	mov	sp, r7
    1bae:	f85d 7b04 	ldr.w	r7, [sp], #4
    1bb2:	4770      	bx	lr

00001bb4 <__NVIC_EnableIRQ>:
    1bb4:	b480      	push	{r7}
    1bb6:	b083      	sub	sp, #12
    1bb8:	af00      	add	r7, sp, #0
    1bba:	4603      	mov	r3, r0
    1bbc:	80fb      	strh	r3, [r7, #6]
    1bbe:	f9b7 3006 	ldrsh.w	r3, [r7, #6]
    1bc2:	2b00      	cmp	r3, #0
    1bc4:	db0b      	blt.n	1bde <__NVIC_EnableIRQ+0x2a>
    1bc6:	88fb      	ldrh	r3, [r7, #6]
    1bc8:	f003 021f 	and.w	r2, r3, #31
    1bcc:	4907      	ldr	r1, [pc, #28]	; (1bec <__NVIC_EnableIRQ+0x38>)
    1bce:	f9b7 3006 	ldrsh.w	r3, [r7, #6]
    1bd2:	095b      	lsrs	r3, r3, #5
    1bd4:	2001      	movs	r0, #1
    1bd6:	fa00 f202 	lsl.w	r2, r0, r2
    1bda:	f841 2023 	str.w	r2, [r1, r3, lsl #2]
    1bde:	bf00      	nop
    1be0:	370c      	adds	r7, #12
    1be2:	46bd      	mov	sp, r7
    1be4:	f85d 7b04 	ldr.w	r7, [sp], #4
    1be8:	4770      	bx	lr
    1bea:	bf00      	nop
    1bec:	e000e100 	.word	0xe000e100

00001bf0 <CLOCK_ControlGate>:
    1bf0:	b580      	push	{r7, lr}
    1bf2:	b086      	sub	sp, #24
    1bf4:	af00      	add	r7, sp, #0
    1bf6:	4603      	mov	r3, r0
    1bf8:	460a      	mov	r2, r1
    1bfa:	80fb      	strh	r3, [r7, #6]
    1bfc:	4613      	mov	r3, r2
    1bfe:	717b      	strb	r3, [r7, #5]
    1c00:	f9b7 3006 	ldrsh.w	r3, [r7, #6]
    1c04:	0a1b      	lsrs	r3, r3, #8
    1c06:	617b      	str	r3, [r7, #20]
    1c08:	88fb      	ldrh	r3, [r7, #6]
    1c0a:	f003 031f 	and.w	r3, r3, #31
    1c0e:	613b      	str	r3, [r7, #16]
    1c10:	697b      	ldr	r3, [r7, #20]
    1c12:	2b07      	cmp	r3, #7
    1c14:	d902      	bls.n	1c1c <CLOCK_ControlGate+0x2c>
    1c16:	480d      	ldr	r0, [pc, #52]	; (1c4c <CLOCK_ControlGate+0x5c>)
    1c18:	f003 fb5a 	bl	52d0 <__assertion_failed>
    1c1c:	697b      	ldr	r3, [r7, #20]
    1c1e:	009a      	lsls	r2, r3, #2
    1c20:	4b0b      	ldr	r3, [pc, #44]	; (1c50 <CLOCK_ControlGate+0x60>)
    1c22:	4413      	add	r3, r2
    1c24:	60fb      	str	r3, [r7, #12]
    1c26:	68fb      	ldr	r3, [r7, #12]
    1c28:	681a      	ldr	r2, [r3, #0]
    1c2a:	2103      	movs	r1, #3
    1c2c:	693b      	ldr	r3, [r7, #16]
    1c2e:	fa01 f303 	lsl.w	r3, r1, r3
    1c32:	43db      	mvns	r3, r3
    1c34:	401a      	ands	r2, r3
    1c36:	7979      	ldrb	r1, [r7, #5]
    1c38:	693b      	ldr	r3, [r7, #16]
    1c3a:	fa01 f303 	lsl.w	r3, r1, r3
    1c3e:	431a      	orrs	r2, r3
    1c40:	68fb      	ldr	r3, [r7, #12]
    1c42:	601a      	str	r2, [r3, #0]
    1c44:	bf00      	nop
    1c46:	3718      	adds	r7, #24
    1c48:	46bd      	mov	sp, r7
    1c4a:	bd80      	pop	{r7, pc}
    1c4c:	00008970 	.word	0x00008970
    1c50:	400fc068 	.word	0x400fc068

00001c54 <LPSPI_GetInstance>:
    1c54:	b580      	push	{r7, lr}
    1c56:	b084      	sub	sp, #16
    1c58:	af00      	add	r7, sp, #0
    1c5a:	6078      	str	r0, [r7, #4]
    1c5c:	2300      	movs	r3, #0
    1c5e:	73fb      	strb	r3, [r7, #15]
    1c60:	2300      	movs	r3, #0
    1c62:	73fb      	strb	r3, [r7, #15]
    1c64:	e009      	b.n	1c7a <LPSPI_GetInstance+0x26>
    1c66:	7bfb      	ldrb	r3, [r7, #15]
    1c68:	4a0c      	ldr	r2, [pc, #48]	; (1c9c <LPSPI_GetInstance+0x48>)
    1c6a:	f852 3023 	ldr.w	r3, [r2, r3, lsl #2]
    1c6e:	687a      	ldr	r2, [r7, #4]
    1c70:	429a      	cmp	r2, r3
    1c72:	d006      	beq.n	1c82 <LPSPI_GetInstance+0x2e>
    1c74:	7bfb      	ldrb	r3, [r7, #15]
    1c76:	3301      	adds	r3, #1
    1c78:	73fb      	strb	r3, [r7, #15]
    1c7a:	7bfb      	ldrb	r3, [r7, #15]
    1c7c:	2b04      	cmp	r3, #4
    1c7e:	d9f2      	bls.n	1c66 <LPSPI_GetInstance+0x12>
    1c80:	e000      	b.n	1c84 <LPSPI_GetInstance+0x30>
    1c82:	bf00      	nop
    1c84:	7bfb      	ldrb	r3, [r7, #15]
    1c86:	2b04      	cmp	r3, #4
    1c88:	d902      	bls.n	1c90 <LPSPI_GetInstance+0x3c>
    1c8a:	4805      	ldr	r0, [pc, #20]	; (1ca0 <LPSPI_GetInstance+0x4c>)
    1c8c:	f003 fb20 	bl	52d0 <__assertion_failed>
    1c90:	7bfb      	ldrb	r3, [r7, #15]
    1c92:	4618      	mov	r0, r3
    1c94:	3710      	adds	r7, #16
    1c96:	46bd      	mov	sp, r7
    1c98:	bd80      	pop	{r7, pc}
    1c9a:	bf00      	nop
    1c9c:	00008f0c 	.word	0x00008f0c
    1ca0:	0000899c 	.word	0x0000899c

00001ca4 <LPSPI_SetDummyData>:
    1ca4:	b580      	push	{r7, lr}
    1ca6:	b084      	sub	sp, #16
    1ca8:	af00      	add	r7, sp, #0
    1caa:	6078      	str	r0, [r7, #4]
    1cac:	460b      	mov	r3, r1
    1cae:	70fb      	strb	r3, [r7, #3]
    1cb0:	6878      	ldr	r0, [r7, #4]
    1cb2:	f7ff ffcf 	bl	1c54 <LPSPI_GetInstance>
    1cb6:	60f8      	str	r0, [r7, #12]
    1cb8:	4a04      	ldr	r2, [pc, #16]	; (1ccc <LPSPI_SetDummyData+0x28>)
    1cba:	68fb      	ldr	r3, [r7, #12]
    1cbc:	4413      	add	r3, r2
    1cbe:	78fa      	ldrb	r2, [r7, #3]
    1cc0:	701a      	strb	r2, [r3, #0]
    1cc2:	bf00      	nop
    1cc4:	3710      	adds	r7, #16
    1cc6:	46bd      	mov	sp, r7
    1cc8:	bd80      	pop	{r7, pc}
    1cca:	bf00      	nop
    1ccc:	200000e4 	.word	0x200000e4

00001cd0 <LPSPI_MasterInit>:
    1cd0:	b580      	push	{r7, lr}
    1cd2:	b086      	sub	sp, #24
    1cd4:	af00      	add	r7, sp, #0
    1cd6:	60f8      	str	r0, [r7, #12]
    1cd8:	60b9      	str	r1, [r7, #8]
    1cda:	607a      	str	r2, [r7, #4]
    1cdc:	68bb      	ldr	r3, [r7, #8]
    1cde:	2b00      	cmp	r3, #0
    1ce0:	d102      	bne.n	1ce8 <LPSPI_MasterInit+0x18>
    1ce2:	483f      	ldr	r0, [pc, #252]	; (1de0 <LPSPI_MasterInit+0x110>)
    1ce4:	f003 faf4 	bl	52d0 <__assertion_failed>
    1ce8:	2300      	movs	r3, #0
    1cea:	613b      	str	r3, [r7, #16]
    1cec:	68f8      	ldr	r0, [r7, #12]
    1cee:	f7ff ffb1 	bl	1c54 <LPSPI_GetInstance>
    1cf2:	6178      	str	r0, [r7, #20]
    1cf4:	4a3b      	ldr	r2, [pc, #236]	; (1de4 <LPSPI_MasterInit+0x114>)
    1cf6:	697b      	ldr	r3, [r7, #20]
    1cf8:	f932 3013 	ldrsh.w	r3, [r2, r3, lsl #1]
    1cfc:	4618      	mov	r0, r3
    1cfe:	f004 fa5c 	bl	61ba <CLOCK_EnableClock>
    1d02:	2101      	movs	r1, #1
    1d04:	68f8      	ldr	r0, [r7, #12]
    1d06:	f004 fb13 	bl	6330 <LPSPI_SetMasterSlaveMode>
    1d0a:	68bb      	ldr	r3, [r7, #8]
    1d0c:	7e19      	ldrb	r1, [r3, #24]
    1d0e:	68bb      	ldr	r3, [r7, #8]
    1d10:	7e5b      	ldrb	r3, [r3, #25]
    1d12:	461a      	mov	r2, r3
    1d14:	68f8      	ldr	r0, [r7, #12]
    1d16:	f004 fb95 	bl	6444 <LPSPI_SetOnePcsPolarity>
    1d1a:	68fb      	ldr	r3, [r7, #12]
    1d1c:	6a5a      	ldr	r2, [r3, #36]	; 0x24
    1d1e:	4b32      	ldr	r3, [pc, #200]	; (1de8 <LPSPI_MasterInit+0x118>)
    1d20:	4013      	ands	r3, r2
    1d22:	68ba      	ldr	r2, [r7, #8]
    1d24:	7ed2      	ldrb	r2, [r2, #27]
    1d26:	0692      	lsls	r2, r2, #26
    1d28:	f002 6280 	and.w	r2, r2, #67108864	; 0x4000000
    1d2c:	431a      	orrs	r2, r3
    1d2e:	68bb      	ldr	r3, [r7, #8]
    1d30:	7e9b      	ldrb	r3, [r3, #26]
    1d32:	061b      	lsls	r3, r3, #24
    1d34:	f003 7340 	and.w	r3, r3, #50331648	; 0x3000000
    1d38:	431a      	orrs	r2, r3
    1d3a:	68fb      	ldr	r3, [r7, #12]
    1d3c:	625a      	str	r2, [r3, #36]	; 0x24
    1d3e:	68bb      	ldr	r3, [r7, #8]
    1d40:	6819      	ldr	r1, [r3, #0]
    1d42:	f107 0310 	add.w	r3, r7, #16
    1d46:	687a      	ldr	r2, [r7, #4]
    1d48:	68f8      	ldr	r0, [r7, #12]
    1d4a:	f000 f941 	bl	1fd0 <LPSPI_MasterSetBaudRate>
    1d4e:	2200      	movs	r2, #0
    1d50:	2100      	movs	r1, #0
    1d52:	68f8      	ldr	r0, [r7, #12]
    1d54:	f004 fb2d 	bl	63b2 <LPSPI_SetFifoWatermarks>
    1d58:	68bb      	ldr	r3, [r7, #8]
    1d5a:	7a1b      	ldrb	r3, [r3, #8]
    1d5c:	07da      	lsls	r2, r3, #31
    1d5e:	68bb      	ldr	r3, [r7, #8]
    1d60:	7a5b      	ldrb	r3, [r3, #9]
    1d62:	079b      	lsls	r3, r3, #30
    1d64:	f003 4380 	and.w	r3, r3, #1073741824	; 0x40000000
    1d68:	431a      	orrs	r2, r3
    1d6a:	68bb      	ldr	r3, [r7, #8]
    1d6c:	7a9b      	ldrb	r3, [r3, #10]
    1d6e:	05db      	lsls	r3, r3, #23
    1d70:	f403 0300 	and.w	r3, r3, #8388608	; 0x800000
    1d74:	431a      	orrs	r2, r3
    1d76:	68bb      	ldr	r3, [r7, #8]
    1d78:	685b      	ldr	r3, [r3, #4]
    1d7a:	3b01      	subs	r3, #1
    1d7c:	f3c3 030b 	ubfx	r3, r3, #0, #12
    1d80:	431a      	orrs	r2, r3
    1d82:	693b      	ldr	r3, [r7, #16]
    1d84:	06db      	lsls	r3, r3, #27
    1d86:	f003 5360 	and.w	r3, r3, #939524096	; 0x38000000
    1d8a:	431a      	orrs	r2, r3
    1d8c:	68bb      	ldr	r3, [r7, #8]
    1d8e:	7e1b      	ldrb	r3, [r3, #24]
    1d90:	061b      	lsls	r3, r3, #24
    1d92:	f003 7340 	and.w	r3, r3, #50331648	; 0x3000000
    1d96:	431a      	orrs	r2, r3
    1d98:	68fb      	ldr	r3, [r7, #12]
    1d9a:	661a      	str	r2, [r3, #96]	; 0x60
    1d9c:	2101      	movs	r1, #1
    1d9e:	68f8      	ldr	r0, [r7, #12]
    1da0:	f004 fa3f 	bl	6222 <LPSPI_Enable>
    1da4:	68bb      	ldr	r3, [r7, #8]
    1da6:	68d9      	ldr	r1, [r3, #12]
    1da8:	687b      	ldr	r3, [r7, #4]
    1daa:	2201      	movs	r2, #1
    1dac:	68f8      	ldr	r0, [r7, #12]
    1dae:	f7fe fae7 	bl	380 <LPSPI_MasterSetDelayTimes>
    1db2:	68bb      	ldr	r3, [r7, #8]
    1db4:	6919      	ldr	r1, [r3, #16]
    1db6:	687b      	ldr	r3, [r7, #4]
    1db8:	2202      	movs	r2, #2
    1dba:	68f8      	ldr	r0, [r7, #12]
    1dbc:	f7fe fae0 	bl	380 <LPSPI_MasterSetDelayTimes>
    1dc0:	68bb      	ldr	r3, [r7, #8]
    1dc2:	6959      	ldr	r1, [r3, #20]
    1dc4:	687b      	ldr	r3, [r7, #4]
    1dc6:	2203      	movs	r2, #3
    1dc8:	68f8      	ldr	r0, [r7, #12]
    1dca:	f7fe fad9 	bl	380 <LPSPI_MasterSetDelayTimes>
    1dce:	2100      	movs	r1, #0
    1dd0:	68f8      	ldr	r0, [r7, #12]
    1dd2:	f7ff ff67 	bl	1ca4 <LPSPI_SetDummyData>
    1dd6:	bf00      	nop
    1dd8:	3718      	adds	r7, #24
    1dda:	46bd      	mov	sp, r7
    1ddc:	bd80      	pop	{r7, pc}
    1dde:	bf00      	nop
    1de0:	000089e0 	.word	0x000089e0
    1de4:	00008f2c 	.word	0x00008f2c
    1de8:	f8fffff7 	.word	0xf8fffff7

00001dec <LPSPI_MasterGetDefaultConfig>:
    1dec:	b580      	push	{r7, lr}
    1dee:	b082      	sub	sp, #8
    1df0:	af00      	add	r7, sp, #0
    1df2:	6078      	str	r0, [r7, #4]
    1df4:	687b      	ldr	r3, [r7, #4]
    1df6:	2b00      	cmp	r3, #0
    1df8:	d102      	bne.n	1e00 <LPSPI_MasterGetDefaultConfig+0x14>
    1dfa:	481f      	ldr	r0, [pc, #124]	; (1e78 <LPSPI_MasterGetDefaultConfig+0x8c>)
    1dfc:	f003 fa68 	bl	52d0 <__assertion_failed>
    1e00:	221c      	movs	r2, #28
    1e02:	2100      	movs	r1, #0
    1e04:	6878      	ldr	r0, [r7, #4]
    1e06:	f005 f8b9 	bl	6f7c <memset>
    1e0a:	687b      	ldr	r3, [r7, #4]
    1e0c:	4a1b      	ldr	r2, [pc, #108]	; (1e7c <LPSPI_MasterGetDefaultConfig+0x90>)
    1e0e:	601a      	str	r2, [r3, #0]
    1e10:	687b      	ldr	r3, [r7, #4]
    1e12:	2208      	movs	r2, #8
    1e14:	605a      	str	r2, [r3, #4]
    1e16:	687b      	ldr	r3, [r7, #4]
    1e18:	2200      	movs	r2, #0
    1e1a:	721a      	strb	r2, [r3, #8]
    1e1c:	687b      	ldr	r3, [r7, #4]
    1e1e:	2200      	movs	r2, #0
    1e20:	725a      	strb	r2, [r3, #9]
    1e22:	687b      	ldr	r3, [r7, #4]
    1e24:	2200      	movs	r2, #0
    1e26:	729a      	strb	r2, [r3, #10]
    1e28:	687b      	ldr	r3, [r7, #4]
    1e2a:	681b      	ldr	r3, [r3, #0]
    1e2c:	4a14      	ldr	r2, [pc, #80]	; (1e80 <LPSPI_MasterGetDefaultConfig+0x94>)
    1e2e:	fbb2 f3f3 	udiv	r3, r2, r3
    1e32:	005a      	lsls	r2, r3, #1
    1e34:	687b      	ldr	r3, [r7, #4]
    1e36:	60da      	str	r2, [r3, #12]
    1e38:	687b      	ldr	r3, [r7, #4]
    1e3a:	681b      	ldr	r3, [r3, #0]
    1e3c:	4a10      	ldr	r2, [pc, #64]	; (1e80 <LPSPI_MasterGetDefaultConfig+0x94>)
    1e3e:	fbb2 f3f3 	udiv	r3, r2, r3
    1e42:	005a      	lsls	r2, r3, #1
    1e44:	687b      	ldr	r3, [r7, #4]
    1e46:	611a      	str	r2, [r3, #16]
    1e48:	687b      	ldr	r3, [r7, #4]
    1e4a:	681b      	ldr	r3, [r3, #0]
    1e4c:	4a0c      	ldr	r2, [pc, #48]	; (1e80 <LPSPI_MasterGetDefaultConfig+0x94>)
    1e4e:	fbb2 f3f3 	udiv	r3, r2, r3
    1e52:	005a      	lsls	r2, r3, #1
    1e54:	687b      	ldr	r3, [r7, #4]
    1e56:	615a      	str	r2, [r3, #20]
    1e58:	687b      	ldr	r3, [r7, #4]
    1e5a:	2200      	movs	r2, #0
    1e5c:	761a      	strb	r2, [r3, #24]
    1e5e:	687b      	ldr	r3, [r7, #4]
    1e60:	2200      	movs	r2, #0
    1e62:	765a      	strb	r2, [r3, #25]
    1e64:	687b      	ldr	r3, [r7, #4]
    1e66:	2200      	movs	r2, #0
    1e68:	769a      	strb	r2, [r3, #26]
    1e6a:	687b      	ldr	r3, [r7, #4]
    1e6c:	2200      	movs	r2, #0
    1e6e:	76da      	strb	r2, [r3, #27]
    1e70:	bf00      	nop
    1e72:	3708      	adds	r7, #8
    1e74:	46bd      	mov	sp, r7
    1e76:	bd80      	pop	{r7, pc}
    1e78:	00008a0c 	.word	0x00008a0c
    1e7c:	0007a120 	.word	0x0007a120
    1e80:	3b9aca00 	.word	0x3b9aca00

00001e84 <LPSPI_SlaveInit>:
    1e84:	b580      	push	{r7, lr}
    1e86:	b084      	sub	sp, #16
    1e88:	af00      	add	r7, sp, #0
    1e8a:	6078      	str	r0, [r7, #4]
    1e8c:	6039      	str	r1, [r7, #0]
    1e8e:	683b      	ldr	r3, [r7, #0]
    1e90:	2b00      	cmp	r3, #0
    1e92:	d102      	bne.n	1e9a <LPSPI_SlaveInit+0x16>
    1e94:	4829      	ldr	r0, [pc, #164]	; (1f3c <LPSPI_SlaveInit+0xb8>)
    1e96:	f003 fa1b 	bl	52d0 <__assertion_failed>
    1e9a:	6878      	ldr	r0, [r7, #4]
    1e9c:	f7ff feda 	bl	1c54 <LPSPI_GetInstance>
    1ea0:	60f8      	str	r0, [r7, #12]
    1ea2:	4a27      	ldr	r2, [pc, #156]	; (1f40 <LPSPI_SlaveInit+0xbc>)
    1ea4:	68fb      	ldr	r3, [r7, #12]
    1ea6:	f932 3013 	ldrsh.w	r3, [r2, r3, lsl #1]
    1eaa:	4618      	mov	r0, r3
    1eac:	f004 f985 	bl	61ba <CLOCK_EnableClock>
    1eb0:	2100      	movs	r1, #0
    1eb2:	6878      	ldr	r0, [r7, #4]
    1eb4:	f004 fa3c 	bl	6330 <LPSPI_SetMasterSlaveMode>
    1eb8:	683b      	ldr	r3, [r7, #0]
    1eba:	79d9      	ldrb	r1, [r3, #7]
    1ebc:	683b      	ldr	r3, [r7, #0]
    1ebe:	7a1b      	ldrb	r3, [r3, #8]
    1ec0:	461a      	mov	r2, r3
    1ec2:	6878      	ldr	r0, [r7, #4]
    1ec4:	f004 fabe 	bl	6444 <LPSPI_SetOnePcsPolarity>
    1ec8:	687b      	ldr	r3, [r7, #4]
    1eca:	6a5b      	ldr	r3, [r3, #36]	; 0x24
    1ecc:	f023 62e0 	bic.w	r2, r3, #117440512	; 0x7000000
    1ed0:	683b      	ldr	r3, [r7, #0]
    1ed2:	7a9b      	ldrb	r3, [r3, #10]
    1ed4:	069b      	lsls	r3, r3, #26
    1ed6:	f003 6380 	and.w	r3, r3, #67108864	; 0x4000000
    1eda:	431a      	orrs	r2, r3
    1edc:	683b      	ldr	r3, [r7, #0]
    1ede:	7a5b      	ldrb	r3, [r3, #9]
    1ee0:	061b      	lsls	r3, r3, #24
    1ee2:	f003 7340 	and.w	r3, r3, #50331648	; 0x3000000
    1ee6:	431a      	orrs	r2, r3
    1ee8:	687b      	ldr	r3, [r7, #4]
    1eea:	625a      	str	r2, [r3, #36]	; 0x24
    1eec:	2200      	movs	r2, #0
    1eee:	2100      	movs	r1, #0
    1ef0:	6878      	ldr	r0, [r7, #4]
    1ef2:	f004 fa5e 	bl	63b2 <LPSPI_SetFifoWatermarks>
    1ef6:	683b      	ldr	r3, [r7, #0]
    1ef8:	791b      	ldrb	r3, [r3, #4]
    1efa:	07da      	lsls	r2, r3, #31
    1efc:	683b      	ldr	r3, [r7, #0]
    1efe:	795b      	ldrb	r3, [r3, #5]
    1f00:	079b      	lsls	r3, r3, #30
    1f02:	f003 4380 	and.w	r3, r3, #1073741824	; 0x40000000
    1f06:	431a      	orrs	r2, r3
    1f08:	683b      	ldr	r3, [r7, #0]
    1f0a:	799b      	ldrb	r3, [r3, #6]
    1f0c:	05db      	lsls	r3, r3, #23
    1f0e:	f403 0300 	and.w	r3, r3, #8388608	; 0x800000
    1f12:	431a      	orrs	r2, r3
    1f14:	683b      	ldr	r3, [r7, #0]
    1f16:	681b      	ldr	r3, [r3, #0]
    1f18:	3b01      	subs	r3, #1
    1f1a:	f3c3 030b 	ubfx	r3, r3, #0, #12
    1f1e:	431a      	orrs	r2, r3
    1f20:	687b      	ldr	r3, [r7, #4]
    1f22:	661a      	str	r2, [r3, #96]	; 0x60
    1f24:	2100      	movs	r1, #0
    1f26:	6878      	ldr	r0, [r7, #4]
    1f28:	f7ff febc 	bl	1ca4 <LPSPI_SetDummyData>
    1f2c:	2101      	movs	r1, #1
    1f2e:	6878      	ldr	r0, [r7, #4]
    1f30:	f004 f977 	bl	6222 <LPSPI_Enable>
    1f34:	bf00      	nop
    1f36:	3710      	adds	r7, #16
    1f38:	46bd      	mov	sp, r7
    1f3a:	bd80      	pop	{r7, pc}
    1f3c:	00008a38 	.word	0x00008a38
    1f40:	00008f2c 	.word	0x00008f2c

00001f44 <LPSPI_SlaveGetDefaultConfig>:
    1f44:	b580      	push	{r7, lr}
    1f46:	b082      	sub	sp, #8
    1f48:	af00      	add	r7, sp, #0
    1f4a:	6078      	str	r0, [r7, #4]
    1f4c:	687b      	ldr	r3, [r7, #4]
    1f4e:	2b00      	cmp	r3, #0
    1f50:	d102      	bne.n	1f58 <LPSPI_SlaveGetDefaultConfig+0x14>
    1f52:	4812      	ldr	r0, [pc, #72]	; (1f9c <LPSPI_SlaveGetDefaultConfig+0x58>)
    1f54:	f003 f9bc 	bl	52d0 <__assertion_failed>
    1f58:	220c      	movs	r2, #12
    1f5a:	2100      	movs	r1, #0
    1f5c:	6878      	ldr	r0, [r7, #4]
    1f5e:	f005 f80d 	bl	6f7c <memset>
    1f62:	687b      	ldr	r3, [r7, #4]
    1f64:	2208      	movs	r2, #8
    1f66:	601a      	str	r2, [r3, #0]
    1f68:	687b      	ldr	r3, [r7, #4]
    1f6a:	2200      	movs	r2, #0
    1f6c:	711a      	strb	r2, [r3, #4]
    1f6e:	687b      	ldr	r3, [r7, #4]
    1f70:	2200      	movs	r2, #0
    1f72:	715a      	strb	r2, [r3, #5]
    1f74:	687b      	ldr	r3, [r7, #4]
    1f76:	2200      	movs	r2, #0
    1f78:	719a      	strb	r2, [r3, #6]
    1f7a:	687b      	ldr	r3, [r7, #4]
    1f7c:	2200      	movs	r2, #0
    1f7e:	71da      	strb	r2, [r3, #7]
    1f80:	687b      	ldr	r3, [r7, #4]
    1f82:	2200      	movs	r2, #0
    1f84:	721a      	strb	r2, [r3, #8]
    1f86:	687b      	ldr	r3, [r7, #4]
    1f88:	2200      	movs	r2, #0
    1f8a:	725a      	strb	r2, [r3, #9]
    1f8c:	687b      	ldr	r3, [r7, #4]
    1f8e:	2200      	movs	r2, #0
    1f90:	729a      	strb	r2, [r3, #10]
    1f92:	bf00      	nop
    1f94:	3708      	adds	r7, #8
    1f96:	46bd      	mov	sp, r7
    1f98:	bd80      	pop	{r7, pc}
    1f9a:	bf00      	nop
    1f9c:	00008a64 	.word	0x00008a64

00001fa0 <LPSPI_Deinit>:
    1fa0:	b580      	push	{r7, lr}
    1fa2:	b084      	sub	sp, #16
    1fa4:	af00      	add	r7, sp, #0
    1fa6:	6078      	str	r0, [r7, #4]
    1fa8:	6878      	ldr	r0, [r7, #4]
    1faa:	f004 fa32 	bl	6412 <LPSPI_Reset>
    1fae:	6878      	ldr	r0, [r7, #4]
    1fb0:	f7ff fe50 	bl	1c54 <LPSPI_GetInstance>
    1fb4:	60f8      	str	r0, [r7, #12]
    1fb6:	4a05      	ldr	r2, [pc, #20]	; (1fcc <LPSPI_Deinit+0x2c>)
    1fb8:	68fb      	ldr	r3, [r7, #12]
    1fba:	f932 3013 	ldrsh.w	r3, [r2, r3, lsl #1]
    1fbe:	4618      	mov	r0, r3
    1fc0:	f004 f90a 	bl	61d8 <CLOCK_DisableClock>
    1fc4:	bf00      	nop
    1fc6:	3710      	adds	r7, #16
    1fc8:	46bd      	mov	sp, r7
    1fca:	bd80      	pop	{r7, pc}
    1fcc:	00008f2c 	.word	0x00008f2c

00001fd0 <LPSPI_MasterSetBaudRate>:
    1fd0:	b580      	push	{r7, lr}
    1fd2:	b08e      	sub	sp, #56	; 0x38
    1fd4:	af00      	add	r7, sp, #0
    1fd6:	60f8      	str	r0, [r7, #12]
    1fd8:	60b9      	str	r1, [r7, #8]
    1fda:	607a      	str	r2, [r7, #4]
    1fdc:	603b      	str	r3, [r7, #0]
    1fde:	683b      	ldr	r3, [r7, #0]
    1fe0:	2b00      	cmp	r3, #0
    1fe2:	d102      	bne.n	1fea <LPSPI_MasterSetBaudRate+0x1a>
    1fe4:	4834      	ldr	r0, [pc, #208]	; (20b8 <LPSPI_MasterSetBaudRate+0xe8>)
    1fe6:	f003 f973 	bl	52d0 <__assertion_failed>
    1fea:	68f8      	ldr	r0, [r7, #12]
    1fec:	f004 f9b6 	bl	635c <LPSPI_IsMaster>
    1ff0:	4603      	mov	r3, r0
    1ff2:	f083 0301 	eor.w	r3, r3, #1
    1ff6:	b2db      	uxtb	r3, r3
    1ff8:	2b00      	cmp	r3, #0
    1ffa:	d105      	bne.n	2008 <LPSPI_MasterSetBaudRate+0x38>
    1ffc:	68fb      	ldr	r3, [r7, #12]
    1ffe:	691b      	ldr	r3, [r3, #16]
    2000:	f003 0301 	and.w	r3, r3, #1
    2004:	2b00      	cmp	r3, #0
    2006:	d001      	beq.n	200c <LPSPI_MasterSetBaudRate+0x3c>
    2008:	2300      	movs	r3, #0
    200a:	e050      	b.n	20ae <LPSPI_MasterSetBaudRate+0xde>
    200c:	68bb      	ldr	r3, [r7, #8]
    200e:	61fb      	str	r3, [r7, #28]
    2010:	f04f 33ff 	mov.w	r3, #4294967295
    2014:	623b      	str	r3, [r7, #32]
    2016:	2307      	movs	r3, #7
    2018:	633b      	str	r3, [r7, #48]	; 0x30
    201a:	23ff      	movs	r3, #255	; 0xff
    201c:	62bb      	str	r3, [r7, #40]	; 0x28
    201e:	2300      	movs	r3, #0
    2020:	627b      	str	r3, [r7, #36]	; 0x24
    2022:	2300      	movs	r3, #0
    2024:	637b      	str	r3, [r7, #52]	; 0x34
    2026:	e02f      	b.n	2088 <LPSPI_MasterSetBaudRate+0xb8>
    2028:	2300      	movs	r3, #0
    202a:	62fb      	str	r3, [r7, #44]	; 0x2c
    202c:	e023      	b.n	2076 <LPSPI_MasterSetBaudRate+0xa6>
    202e:	4a23      	ldr	r2, [pc, #140]	; (20bc <LPSPI_MasterSetBaudRate+0xec>)
    2030:	6b7b      	ldr	r3, [r7, #52]	; 0x34
    2032:	4413      	add	r3, r2
    2034:	781b      	ldrb	r3, [r3, #0]
    2036:	461a      	mov	r2, r3
    2038:	6afb      	ldr	r3, [r7, #44]	; 0x2c
    203a:	3302      	adds	r3, #2
    203c:	fb03 f302 	mul.w	r3, r3, r2
    2040:	687a      	ldr	r2, [r7, #4]
    2042:	fbb2 f3f3 	udiv	r3, r2, r3
    2046:	61bb      	str	r3, [r7, #24]
    2048:	69fa      	ldr	r2, [r7, #28]
    204a:	69bb      	ldr	r3, [r7, #24]
    204c:	429a      	cmp	r2, r3
    204e:	d30f      	bcc.n	2070 <LPSPI_MasterSetBaudRate+0xa0>
    2050:	69fa      	ldr	r2, [r7, #28]
    2052:	69bb      	ldr	r3, [r7, #24]
    2054:	1ad3      	subs	r3, r2, r3
    2056:	617b      	str	r3, [r7, #20]
    2058:	6a3a      	ldr	r2, [r7, #32]
    205a:	697b      	ldr	r3, [r7, #20]
    205c:	429a      	cmp	r2, r3
    205e:	d907      	bls.n	2070 <LPSPI_MasterSetBaudRate+0xa0>
    2060:	697b      	ldr	r3, [r7, #20]
    2062:	623b      	str	r3, [r7, #32]
    2064:	6b7b      	ldr	r3, [r7, #52]	; 0x34
    2066:	633b      	str	r3, [r7, #48]	; 0x30
    2068:	6afb      	ldr	r3, [r7, #44]	; 0x2c
    206a:	62bb      	str	r3, [r7, #40]	; 0x28
    206c:	69bb      	ldr	r3, [r7, #24]
    206e:	627b      	str	r3, [r7, #36]	; 0x24
    2070:	6afb      	ldr	r3, [r7, #44]	; 0x2c
    2072:	3301      	adds	r3, #1
    2074:	62fb      	str	r3, [r7, #44]	; 0x2c
    2076:	6afb      	ldr	r3, [r7, #44]	; 0x2c
    2078:	2bff      	cmp	r3, #255	; 0xff
    207a:	d802      	bhi.n	2082 <LPSPI_MasterSetBaudRate+0xb2>
    207c:	6a3b      	ldr	r3, [r7, #32]
    207e:	2b00      	cmp	r3, #0
    2080:	d1d5      	bne.n	202e <LPSPI_MasterSetBaudRate+0x5e>
    2082:	6b7b      	ldr	r3, [r7, #52]	; 0x34
    2084:	3301      	adds	r3, #1
    2086:	637b      	str	r3, [r7, #52]	; 0x34
    2088:	6b7b      	ldr	r3, [r7, #52]	; 0x34
    208a:	2b07      	cmp	r3, #7
    208c:	d802      	bhi.n	2094 <LPSPI_MasterSetBaudRate+0xc4>
    208e:	6a3b      	ldr	r3, [r7, #32]
    2090:	2b00      	cmp	r3, #0
    2092:	d1c9      	bne.n	2028 <LPSPI_MasterSetBaudRate+0x58>
    2094:	68fb      	ldr	r3, [r7, #12]
    2096:	6c1b      	ldr	r3, [r3, #64]	; 0x40
    2098:	f023 02ff 	bic.w	r2, r3, #255	; 0xff
    209c:	6abb      	ldr	r3, [r7, #40]	; 0x28
    209e:	b2db      	uxtb	r3, r3
    20a0:	431a      	orrs	r2, r3
    20a2:	68fb      	ldr	r3, [r7, #12]
    20a4:	641a      	str	r2, [r3, #64]	; 0x40
    20a6:	683b      	ldr	r3, [r7, #0]
    20a8:	6b3a      	ldr	r2, [r7, #48]	; 0x30
    20aa:	601a      	str	r2, [r3, #0]
    20ac:	6a7b      	ldr	r3, [r7, #36]	; 0x24
    20ae:	4618      	mov	r0, r3
    20b0:	3738      	adds	r7, #56	; 0x38
    20b2:	46bd      	mov	sp, r7
    20b4:	bd80      	pop	{r7, pc}
    20b6:	bf00      	nop
    20b8:	00008a90 	.word	0x00008a90
    20bc:	00008f04 	.word	0x00008f04

000020c0 <LPSPI_MasterSetDelayScaler>:
    20c0:	b580      	push	{r7, lr}
    20c2:	b084      	sub	sp, #16
    20c4:	af00      	add	r7, sp, #0
    20c6:	60f8      	str	r0, [r7, #12]
    20c8:	60b9      	str	r1, [r7, #8]
    20ca:	4613      	mov	r3, r2
    20cc:	71fb      	strb	r3, [r7, #7]
    20ce:	79fb      	ldrb	r3, [r7, #7]
    20d0:	2b02      	cmp	r3, #2
    20d2:	d00f      	beq.n	20f4 <LPSPI_MasterSetDelayScaler+0x34>
    20d4:	2b03      	cmp	r3, #3
    20d6:	d017      	beq.n	2108 <LPSPI_MasterSetDelayScaler+0x48>
    20d8:	2b01      	cmp	r3, #1
    20da:	d120      	bne.n	211e <LPSPI_MasterSetDelayScaler+0x5e>
    20dc:	68fb      	ldr	r3, [r7, #12]
    20de:	6c1b      	ldr	r3, [r3, #64]	; 0x40
    20e0:	f423 027f 	bic.w	r2, r3, #16711680	; 0xff0000
    20e4:	68bb      	ldr	r3, [r7, #8]
    20e6:	041b      	lsls	r3, r3, #16
    20e8:	f403 037f 	and.w	r3, r3, #16711680	; 0xff0000
    20ec:	431a      	orrs	r2, r3
    20ee:	68fb      	ldr	r3, [r7, #12]
    20f0:	641a      	str	r2, [r3, #64]	; 0x40
    20f2:	e017      	b.n	2124 <LPSPI_MasterSetDelayScaler+0x64>
    20f4:	68fb      	ldr	r3, [r7, #12]
    20f6:	6c1b      	ldr	r3, [r3, #64]	; 0x40
    20f8:	f023 427f 	bic.w	r2, r3, #4278190080	; 0xff000000
    20fc:	68bb      	ldr	r3, [r7, #8]
    20fe:	061b      	lsls	r3, r3, #24
    2100:	431a      	orrs	r2, r3
    2102:	68fb      	ldr	r3, [r7, #12]
    2104:	641a      	str	r2, [r3, #64]	; 0x40
    2106:	e00d      	b.n	2124 <LPSPI_MasterSetDelayScaler+0x64>
    2108:	68fb      	ldr	r3, [r7, #12]
    210a:	6c1b      	ldr	r3, [r3, #64]	; 0x40
    210c:	f423 427f 	bic.w	r2, r3, #65280	; 0xff00
    2110:	68bb      	ldr	r3, [r7, #8]
    2112:	021b      	lsls	r3, r3, #8
    2114:	b29b      	uxth	r3, r3
    2116:	431a      	orrs	r2, r3
    2118:	68fb      	ldr	r3, [r7, #12]
    211a:	641a      	str	r2, [r3, #64]	; 0x40
    211c:	e002      	b.n	2124 <LPSPI_MasterSetDelayScaler+0x64>
    211e:	4803      	ldr	r0, [pc, #12]	; (212c <LPSPI_MasterSetDelayScaler+0x6c>)
    2120:	f003 f8d6 	bl	52d0 <__assertion_failed>
    2124:	bf00      	nop
    2126:	3710      	adds	r7, #16
    2128:	46bd      	mov	sp, r7
    212a:	bd80      	pop	{r7, pc}
    212c:	00008ac0 	.word	0x00008ac0

00002130 <LPSPI_MasterTransferCreateHandle>:
    2130:	b580      	push	{r7, lr}
    2132:	b084      	sub	sp, #16
    2134:	af00      	add	r7, sp, #0
    2136:	60f8      	str	r0, [r7, #12]
    2138:	60b9      	str	r1, [r7, #8]
    213a:	607a      	str	r2, [r7, #4]
    213c:	603b      	str	r3, [r7, #0]
    213e:	68bb      	ldr	r3, [r7, #8]
    2140:	2b00      	cmp	r3, #0
    2142:	d102      	bne.n	214a <LPSPI_MasterTransferCreateHandle+0x1a>
    2144:	480e      	ldr	r0, [pc, #56]	; (2180 <LPSPI_MasterTransferCreateHandle+0x50>)
    2146:	f003 f8c3 	bl	52d0 <__assertion_failed>
    214a:	2234      	movs	r2, #52	; 0x34
    214c:	2100      	movs	r1, #0
    214e:	68b8      	ldr	r0, [r7, #8]
    2150:	f004 ff14 	bl	6f7c <memset>
    2154:	68f8      	ldr	r0, [r7, #12]
    2156:	f7ff fd7d 	bl	1c54 <LPSPI_GetInstance>
    215a:	4601      	mov	r1, r0
    215c:	4a09      	ldr	r2, [pc, #36]	; (2184 <LPSPI_MasterTransferCreateHandle+0x54>)
    215e:	68bb      	ldr	r3, [r7, #8]
    2160:	f842 3021 	str.w	r3, [r2, r1, lsl #2]
    2164:	4b08      	ldr	r3, [pc, #32]	; (2188 <LPSPI_MasterTransferCreateHandle+0x58>)
    2166:	4a09      	ldr	r2, [pc, #36]	; (218c <LPSPI_MasterTransferCreateHandle+0x5c>)
    2168:	601a      	str	r2, [r3, #0]
    216a:	68bb      	ldr	r3, [r7, #8]
    216c:	687a      	ldr	r2, [r7, #4]
    216e:	62da      	str	r2, [r3, #44]	; 0x2c
    2170:	68bb      	ldr	r3, [r7, #8]
    2172:	683a      	ldr	r2, [r7, #0]
    2174:	631a      	str	r2, [r3, #48]	; 0x30
    2176:	bf00      	nop
    2178:	3710      	adds	r7, #16
    217a:	46bd      	mov	sp, r7
    217c:	bd80      	pop	{r7, pc}
    217e:	bf00      	nop
    2180:	00008ae4 	.word	0x00008ae4
    2184:	200000c8 	.word	0x200000c8
    2188:	200000dc 	.word	0x200000dc
    218c:	000026ad 	.word	0x000026ad

00002190 <LPSPI_CheckTransferArgument>:
    2190:	b580      	push	{r7, lr}
    2192:	b084      	sub	sp, #16
    2194:	af00      	add	r7, sp, #0
    2196:	60f8      	str	r0, [r7, #12]
    2198:	60b9      	str	r1, [r7, #8]
    219a:	607a      	str	r2, [r7, #4]
    219c:	68fb      	ldr	r3, [r7, #12]
    219e:	2b00      	cmp	r3, #0
    21a0:	d102      	bne.n	21a8 <LPSPI_CheckTransferArgument+0x18>
    21a2:	4820      	ldr	r0, [pc, #128]	; (2224 <LPSPI_CheckTransferArgument+0x94>)
    21a4:	f003 f894 	bl	52d0 <__assertion_failed>
    21a8:	68fb      	ldr	r3, [r7, #12]
    21aa:	689b      	ldr	r3, [r3, #8]
    21ac:	2b00      	cmp	r3, #0
    21ae:	d101      	bne.n	21b4 <LPSPI_CheckTransferArgument+0x24>
    21b0:	2300      	movs	r3, #0
    21b2:	e033      	b.n	221c <LPSPI_CheckTransferArgument+0x8c>
    21b4:	68fb      	ldr	r3, [r7, #12]
    21b6:	681b      	ldr	r3, [r3, #0]
    21b8:	2b00      	cmp	r3, #0
    21ba:	d105      	bne.n	21c8 <LPSPI_CheckTransferArgument+0x38>
    21bc:	68fb      	ldr	r3, [r7, #12]
    21be:	685b      	ldr	r3, [r3, #4]
    21c0:	2b00      	cmp	r3, #0
    21c2:	d101      	bne.n	21c8 <LPSPI_CheckTransferArgument+0x38>
    21c4:	2300      	movs	r3, #0
    21c6:	e029      	b.n	221c <LPSPI_CheckTransferArgument+0x8c>
    21c8:	687b      	ldr	r3, [r7, #4]
    21ca:	2b04      	cmp	r3, #4
    21cc:	d80c      	bhi.n	21e8 <LPSPI_CheckTransferArgument+0x58>
    21ce:	68fb      	ldr	r3, [r7, #12]
    21d0:	689b      	ldr	r3, [r3, #8]
    21d2:	687a      	ldr	r2, [r7, #4]
    21d4:	fbb3 f2f2 	udiv	r2, r3, r2
    21d8:	6879      	ldr	r1, [r7, #4]
    21da:	fb01 f202 	mul.w	r2, r1, r2
    21de:	1a9b      	subs	r3, r3, r2
    21e0:	2b00      	cmp	r3, #0
    21e2:	d01a      	beq.n	221a <LPSPI_CheckTransferArgument+0x8a>
    21e4:	2300      	movs	r3, #0
    21e6:	e019      	b.n	221c <LPSPI_CheckTransferArgument+0x8c>
    21e8:	687b      	ldr	r3, [r7, #4]
    21ea:	f003 0303 	and.w	r3, r3, #3
    21ee:	2b00      	cmp	r3, #0
    21f0:	d006      	beq.n	2200 <LPSPI_CheckTransferArgument+0x70>
    21f2:	68fb      	ldr	r3, [r7, #12]
    21f4:	689b      	ldr	r3, [r3, #8]
    21f6:	687a      	ldr	r2, [r7, #4]
    21f8:	429a      	cmp	r2, r3
    21fa:	d00e      	beq.n	221a <LPSPI_CheckTransferArgument+0x8a>
    21fc:	2300      	movs	r3, #0
    21fe:	e00d      	b.n	221c <LPSPI_CheckTransferArgument+0x8c>
    2200:	68fb      	ldr	r3, [r7, #12]
    2202:	689b      	ldr	r3, [r3, #8]
    2204:	687a      	ldr	r2, [r7, #4]
    2206:	fbb3 f2f2 	udiv	r2, r3, r2
    220a:	6879      	ldr	r1, [r7, #4]
    220c:	fb01 f202 	mul.w	r2, r1, r2
    2210:	1a9b      	subs	r3, r3, r2
    2212:	2b00      	cmp	r3, #0
    2214:	d001      	beq.n	221a <LPSPI_CheckTransferArgument+0x8a>
    2216:	2300      	movs	r3, #0
    2218:	e000      	b.n	221c <LPSPI_CheckTransferArgument+0x8c>
    221a:	2301      	movs	r3, #1
    221c:	4618      	mov	r0, r3
    221e:	3710      	adds	r7, #16
    2220:	46bd      	mov	sp, r7
    2222:	bd80      	pop	{r7, pc}
    2224:	00008b08 	.word	0x00008b08

00002228 <LPSPI_MasterTransferNonBlocking>:
    2228:	b580      	push	{r7, lr}
    222a:	b08a      	sub	sp, #40	; 0x28
    222c:	af00      	add	r7, sp, #0
    222e:	60f8      	str	r0, [r7, #12]
    2230:	60b9      	str	r1, [r7, #8]
    2232:	607a      	str	r2, [r7, #4]
    2234:	68bb      	ldr	r3, [r7, #8]
    2236:	2b00      	cmp	r3, #0
    2238:	d102      	bne.n	2240 <LPSPI_MasterTransferNonBlocking+0x18>
    223a:	488d      	ldr	r0, [pc, #564]	; (2470 <LPSPI_MasterTransferNonBlocking+0x248>)
    223c:	f003 f848 	bl	52d0 <__assertion_failed>
    2240:	687b      	ldr	r3, [r7, #4]
    2242:	2b00      	cmp	r3, #0
    2244:	d102      	bne.n	224c <LPSPI_MasterTransferNonBlocking+0x24>
    2246:	488b      	ldr	r0, [pc, #556]	; (2474 <LPSPI_MasterTransferNonBlocking+0x24c>)
    2248:	f003 f842 	bl	52d0 <__assertion_failed>
    224c:	68fb      	ldr	r3, [r7, #12]
    224e:	6e1b      	ldr	r3, [r3, #96]	; 0x60
    2250:	f3c3 030b 	ubfx	r3, r3, #0, #12
    2254:	3301      	adds	r3, #1
    2256:	623b      	str	r3, [r7, #32]
    2258:	6a3b      	ldr	r3, [r7, #32]
    225a:	3307      	adds	r3, #7
    225c:	08db      	lsrs	r3, r3, #3
    225e:	61fb      	str	r3, [r7, #28]
    2260:	2300      	movs	r3, #0
    2262:	61bb      	str	r3, [r7, #24]
    2264:	68f8      	ldr	r0, [r7, #12]
    2266:	f7ff fcf5 	bl	1c54 <LPSPI_GetInstance>
    226a:	4602      	mov	r2, r0
    226c:	4b82      	ldr	r3, [pc, #520]	; (2478 <LPSPI_MasterTransferNonBlocking+0x250>)
    226e:	5c9b      	ldrb	r3, [r3, r2]
    2270:	75fb      	strb	r3, [r7, #23]
    2272:	69fa      	ldr	r2, [r7, #28]
    2274:	6a39      	ldr	r1, [r7, #32]
    2276:	6878      	ldr	r0, [r7, #4]
    2278:	f7ff ff8a 	bl	2190 <LPSPI_CheckTransferArgument>
    227c:	4603      	mov	r3, r0
    227e:	f083 0301 	eor.w	r3, r3, #1
    2282:	b2db      	uxtb	r3, r3
    2284:	2b00      	cmp	r3, #0
    2286:	d001      	beq.n	228c <LPSPI_MasterTransferNonBlocking+0x64>
    2288:	2304      	movs	r3, #4
    228a:	e136      	b.n	24fa <LPSPI_MasterTransferNonBlocking+0x2d2>
    228c:	68bb      	ldr	r3, [r7, #8]
    228e:	f893 3028 	ldrb.w	r3, [r3, #40]	; 0x28
    2292:	b2db      	uxtb	r3, r3
    2294:	2b01      	cmp	r3, #1
    2296:	d102      	bne.n	229e <LPSPI_MasterTransferNonBlocking+0x76>
    2298:	f44f 73c8 	mov.w	r3, #400	; 0x190
    229c:	e12d      	b.n	24fa <LPSPI_MasterTransferNonBlocking+0x2d2>
    229e:	68bb      	ldr	r3, [r7, #8]
    22a0:	2201      	movs	r2, #1
    22a2:	f883 2028 	strb.w	r2, [r3, #40]	; 0x28
    22a6:	2300      	movs	r3, #0
    22a8:	f887 3027 	strb.w	r3, [r7, #39]	; 0x27
    22ac:	687b      	ldr	r3, [r7, #4]
    22ae:	68db      	ldr	r3, [r3, #12]
    22b0:	091b      	lsrs	r3, r3, #4
    22b2:	f003 030f 	and.w	r3, r3, #15
    22b6:	613b      	str	r3, [r7, #16]
    22b8:	687b      	ldr	r3, [r7, #4]
    22ba:	681a      	ldr	r2, [r3, #0]
    22bc:	68bb      	ldr	r3, [r7, #8]
    22be:	609a      	str	r2, [r3, #8]
    22c0:	687b      	ldr	r3, [r7, #4]
    22c2:	685a      	ldr	r2, [r3, #4]
    22c4:	68bb      	ldr	r3, [r7, #8]
    22c6:	60da      	str	r2, [r3, #12]
    22c8:	687b      	ldr	r3, [r7, #4]
    22ca:	689a      	ldr	r2, [r3, #8]
    22cc:	68bb      	ldr	r3, [r7, #8]
    22ce:	611a      	str	r2, [r3, #16]
    22d0:	687b      	ldr	r3, [r7, #4]
    22d2:	689a      	ldr	r2, [r3, #8]
    22d4:	68bb      	ldr	r3, [r7, #8]
    22d6:	615a      	str	r2, [r3, #20]
    22d8:	687b      	ldr	r3, [r7, #4]
    22da:	689a      	ldr	r2, [r3, #8]
    22dc:	68bb      	ldr	r3, [r7, #8]
    22de:	621a      	str	r2, [r3, #32]
    22e0:	68bb      	ldr	r3, [r7, #8]
    22e2:	2200      	movs	r2, #0
    22e4:	705a      	strb	r2, [r3, #1]
    22e6:	687b      	ldr	r3, [r7, #4]
    22e8:	689a      	ldr	r2, [r3, #8]
    22ea:	69fb      	ldr	r3, [r7, #28]
    22ec:	fbb2 f3f3 	udiv	r3, r2, r3
    22f0:	69fa      	ldr	r2, [r7, #28]
    22f2:	3203      	adds	r2, #3
    22f4:	0892      	lsrs	r2, r2, #2
    22f6:	fb02 f203 	mul.w	r2, r2, r3
    22fa:	68bb      	ldr	r3, [r7, #8]
    22fc:	619a      	str	r2, [r3, #24]
    22fe:	68bb      	ldr	r3, [r7, #8]
    2300:	699a      	ldr	r2, [r3, #24]
    2302:	68bb      	ldr	r3, [r7, #8]
    2304:	61da      	str	r2, [r3, #28]
    2306:	7dfa      	ldrb	r2, [r7, #23]
    2308:	7dfb      	ldrb	r3, [r7, #23]
    230a:	021b      	lsls	r3, r3, #8
    230c:	431a      	orrs	r2, r3
    230e:	7dfb      	ldrb	r3, [r7, #23]
    2310:	041b      	lsls	r3, r3, #16
    2312:	431a      	orrs	r2, r3
    2314:	7dfb      	ldrb	r3, [r7, #23]
    2316:	061b      	lsls	r3, r3, #24
    2318:	431a      	orrs	r2, r3
    231a:	68bb      	ldr	r3, [r7, #8]
    231c:	625a      	str	r2, [r3, #36]	; 0x24
    231e:	68f8      	ldr	r0, [r7, #12]
    2320:	f003 ffa7 	bl	6272 <LPSPI_GetRxFifoSize>
    2324:	4603      	mov	r3, r0
    2326:	b2da      	uxtb	r2, r3
    2328:	68bb      	ldr	r3, [r7, #8]
    232a:	70da      	strb	r2, [r3, #3]
    232c:	687b      	ldr	r3, [r7, #4]
    232e:	68db      	ldr	r3, [r3, #12]
    2330:	f403 1380 	and.w	r3, r3, #1048576	; 0x100000
    2334:	2b00      	cmp	r3, #0
    2336:	bf14      	ite	ne
    2338:	2301      	movne	r3, #1
    233a:	2300      	moveq	r3, #0
    233c:	b2da      	uxtb	r2, r3
    233e:	68bb      	ldr	r3, [r7, #8]
    2340:	701a      	strb	r2, [r3, #0]
    2342:	687b      	ldr	r3, [r7, #4]
    2344:	68db      	ldr	r3, [r3, #12]
    2346:	f403 0380 	and.w	r3, r3, #4194304	; 0x400000
    234a:	2b00      	cmp	r3, #0
    234c:	bf14      	ite	ne
    234e:	2301      	movne	r3, #1
    2350:	2300      	moveq	r3, #0
    2352:	b2da      	uxtb	r2, r3
    2354:	68bb      	ldr	r3, [r7, #8]
    2356:	709a      	strb	r2, [r3, #2]
    2358:	68bb      	ldr	r3, [r7, #8]
    235a:	78db      	ldrb	r3, [r3, #3]
    235c:	b2db      	uxtb	r3, r3
    235e:	2b01      	cmp	r3, #1
    2360:	d90a      	bls.n	2378 <LPSPI_MasterTransferNonBlocking+0x150>
    2362:	2301      	movs	r3, #1
    2364:	f887 3026 	strb.w	r3, [r7, #38]	; 0x26
    2368:	68bb      	ldr	r3, [r7, #8]
    236a:	78db      	ldrb	r3, [r3, #3]
    236c:	b2db      	uxtb	r3, r3
    236e:	3b02      	subs	r3, #2
    2370:	b2da      	uxtb	r2, r3
    2372:	68bb      	ldr	r3, [r7, #8]
    2374:	711a      	strb	r2, [r3, #4]
    2376:	e005      	b.n	2384 <LPSPI_MasterTransferNonBlocking+0x15c>
    2378:	2300      	movs	r3, #0
    237a:	f887 3026 	strb.w	r3, [r7, #38]	; 0x26
    237e:	68bb      	ldr	r3, [r7, #8]
    2380:	2200      	movs	r2, #0
    2382:	711a      	strb	r2, [r3, #4]
    2384:	f897 1026 	ldrb.w	r1, [r7, #38]	; 0x26
    2388:	68bb      	ldr	r3, [r7, #8]
    238a:	791b      	ldrb	r3, [r3, #4]
    238c:	b2db      	uxtb	r3, r3
    238e:	461a      	mov	r2, r3
    2390:	68f8      	ldr	r0, [r7, #12]
    2392:	f004 f80e 	bl	63b2 <LPSPI_SetFifoWatermarks>
    2396:	2100      	movs	r1, #0
    2398:	68f8      	ldr	r0, [r7, #12]
    239a:	f003 ff42 	bl	6222 <LPSPI_Enable>
    239e:	68fb      	ldr	r3, [r7, #12]
    23a0:	6a5b      	ldr	r3, [r3, #36]	; 0x24
    23a2:	f023 0208 	bic.w	r2, r3, #8
    23a6:	68fb      	ldr	r3, [r7, #12]
    23a8:	625a      	str	r2, [r3, #36]	; 0x24
    23aa:	68fb      	ldr	r3, [r7, #12]
    23ac:	6a5b      	ldr	r3, [r3, #36]	; 0x24
    23ae:	61bb      	str	r3, [r7, #24]
    23b0:	69bb      	ldr	r3, [r7, #24]
    23b2:	f003 7340 	and.w	r3, r3, #50331648	; 0x3000000
    23b6:	61bb      	str	r3, [r7, #24]
    23b8:	69bb      	ldr	r3, [r7, #24]
    23ba:	f1b3 7f80 	cmp.w	r3, #16777216	; 0x1000000
    23be:	d003      	beq.n	23c8 <LPSPI_MasterTransferNonBlocking+0x1a0>
    23c0:	69bb      	ldr	r3, [r7, #24]
    23c2:	f1b3 7f00 	cmp.w	r3, #33554432	; 0x2000000
    23c6:	d113      	bne.n	23f0 <LPSPI_MasterTransferNonBlocking+0x1c8>
    23c8:	68bb      	ldr	r3, [r7, #8]
    23ca:	689b      	ldr	r3, [r3, #8]
    23cc:	2b00      	cmp	r3, #0
    23ce:	d105      	bne.n	23dc <LPSPI_MasterTransferNonBlocking+0x1b4>
    23d0:	68fb      	ldr	r3, [r7, #12]
    23d2:	6a5b      	ldr	r3, [r3, #36]	; 0x24
    23d4:	f043 6280 	orr.w	r2, r3, #67108864	; 0x4000000
    23d8:	68fb      	ldr	r3, [r7, #12]
    23da:	625a      	str	r2, [r3, #36]	; 0x24
    23dc:	68bb      	ldr	r3, [r7, #8]
    23de:	689b      	ldr	r3, [r3, #8]
    23e0:	2b00      	cmp	r3, #0
    23e2:	d005      	beq.n	23f0 <LPSPI_MasterTransferNonBlocking+0x1c8>
    23e4:	68bb      	ldr	r3, [r7, #8]
    23e6:	68db      	ldr	r3, [r3, #12]
    23e8:	2b00      	cmp	r3, #0
    23ea:	d001      	beq.n	23f0 <LPSPI_MasterTransferNonBlocking+0x1c8>
    23ec:	2304      	movs	r3, #4
    23ee:	e084      	b.n	24fa <LPSPI_MasterTransferNonBlocking+0x2d2>
    23f0:	2101      	movs	r1, #1
    23f2:	68f8      	ldr	r0, [r7, #12]
    23f4:	f003 ff15 	bl	6222 <LPSPI_Enable>
    23f8:	2201      	movs	r2, #1
    23fa:	2101      	movs	r1, #1
    23fc:	68f8      	ldr	r0, [r7, #12]
    23fe:	f003 ffc0 	bl	6382 <LPSPI_FlushFifo>
    2402:	491e      	ldr	r1, [pc, #120]	; (247c <LPSPI_MasterTransferNonBlocking+0x254>)
    2404:	68f8      	ldr	r0, [r7, #12]
    2406:	f003 ff62 	bl	62ce <LPSPI_ClearStatusFlags>
    240a:	f643 7103 	movw	r1, #16131	; 0x3f03
    240e:	68f8      	ldr	r0, [r7, #12]
    2410:	f003 ff7c 	bl	630c <LPSPI_DisableInterrupts>
    2414:	68bb      	ldr	r3, [r7, #8]
    2416:	68db      	ldr	r3, [r3, #12]
    2418:	2b00      	cmp	r3, #0
    241a:	d105      	bne.n	2428 <LPSPI_MasterTransferNonBlocking+0x200>
    241c:	2301      	movs	r3, #1
    241e:	f887 3027 	strb.w	r3, [r7, #39]	; 0x27
    2422:	68bb      	ldr	r3, [r7, #8]
    2424:	2200      	movs	r2, #0
    2426:	615a      	str	r2, [r3, #20]
    2428:	68fb      	ldr	r3, [r7, #12]
    242a:	6e1b      	ldr	r3, [r3, #96]	; 0x60
    242c:	f023 724e 	bic.w	r2, r3, #54001664	; 0x3380000
    2430:	68bb      	ldr	r3, [r7, #8]
    2432:	781b      	ldrb	r3, [r3, #0]
    2434:	b2db      	uxtb	r3, r3
    2436:	055b      	lsls	r3, r3, #21
    2438:	f403 1300 	and.w	r3, r3, #2097152	; 0x200000
    243c:	431a      	orrs	r2, r3
    243e:	f897 3027 	ldrb.w	r3, [r7, #39]	; 0x27
    2442:	04db      	lsls	r3, r3, #19
    2444:	f403 2300 	and.w	r3, r3, #524288	; 0x80000
    2448:	431a      	orrs	r2, r3
    244a:	693b      	ldr	r3, [r7, #16]
    244c:	061b      	lsls	r3, r3, #24
    244e:	f003 7340 	and.w	r3, r3, #50331648	; 0x3000000
    2452:	431a      	orrs	r2, r3
    2454:	68fb      	ldr	r3, [r7, #12]
    2456:	661a      	str	r2, [r3, #96]	; 0x60
    2458:	69fb      	ldr	r3, [r7, #28]
    245a:	2b04      	cmp	r3, #4
    245c:	d810      	bhi.n	2480 <LPSPI_MasterTransferNonBlocking+0x258>
    245e:	69fb      	ldr	r3, [r7, #28]
    2460:	b2da      	uxtb	r2, r3
    2462:	68bb      	ldr	r3, [r7, #8]
    2464:	715a      	strb	r2, [r3, #5]
    2466:	69fb      	ldr	r3, [r7, #28]
    2468:	b2da      	uxtb	r2, r3
    246a:	68bb      	ldr	r3, [r7, #8]
    246c:	719a      	strb	r2, [r3, #6]
    246e:	e00d      	b.n	248c <LPSPI_MasterTransferNonBlocking+0x264>
    2470:	00008b58 	.word	0x00008b58
    2474:	00008b7c 	.word	0x00008b7c
    2478:	200000e4 	.word	0x200000e4
    247c:	01003f03 	.word	0x01003f03
    2480:	68bb      	ldr	r3, [r7, #8]
    2482:	2204      	movs	r2, #4
    2484:	715a      	strb	r2, [r3, #5]
    2486:	68bb      	ldr	r3, [r7, #8]
    2488:	2204      	movs	r2, #4
    248a:	719a      	strb	r2, [r3, #6]
    248c:	68f8      	ldr	r0, [r7, #12]
    248e:	f7ff fbe1 	bl	1c54 <LPSPI_GetInstance>
    2492:	4602      	mov	r2, r0
    2494:	4b1b      	ldr	r3, [pc, #108]	; (2504 <LPSPI_MasterTransferNonBlocking+0x2dc>)
    2496:	f933 3012 	ldrsh.w	r3, [r3, r2, lsl #1]
    249a:	4618      	mov	r0, r3
    249c:	f003 feab 	bl	61f6 <EnableIRQ>
    24a0:	bf00      	nop
    24a2:	68f8      	ldr	r0, [r7, #12]
    24a4:	f003 fef6 	bl	6294 <LPSPI_GetTxFifoCount>
    24a8:	4603      	mov	r3, r0
    24aa:	2b00      	cmp	r3, #0
    24ac:	d1f9      	bne.n	24a2 <LPSPI_MasterTransferNonBlocking+0x27a>
    24ae:	68b9      	ldr	r1, [r7, #8]
    24b0:	68f8      	ldr	r0, [r7, #12]
    24b2:	f000 f829 	bl	2508 <LPSPI_MasterTransferFillUpTxFifo>
    24b6:	68bb      	ldr	r3, [r7, #8]
    24b8:	68db      	ldr	r3, [r3, #12]
    24ba:	2b00      	cmp	r3, #0
    24bc:	d018      	beq.n	24f0 <LPSPI_MasterTransferNonBlocking+0x2c8>
    24be:	68bb      	ldr	r3, [r7, #8]
    24c0:	69db      	ldr	r3, [r3, #28]
    24c2:	68ba      	ldr	r2, [r7, #8]
    24c4:	7912      	ldrb	r2, [r2, #4]
    24c6:	b2d2      	uxtb	r2, r2
    24c8:	4293      	cmp	r3, r2
    24ca:	d80c      	bhi.n	24e6 <LPSPI_MasterTransferNonBlocking+0x2be>
    24cc:	68fb      	ldr	r3, [r7, #12]
    24ce:	6d9b      	ldr	r3, [r3, #88]	; 0x58
    24d0:	f423 2270 	bic.w	r2, r3, #983040	; 0xf0000
    24d4:	68bb      	ldr	r3, [r7, #8]
    24d6:	69db      	ldr	r3, [r3, #28]
    24d8:	3b01      	subs	r3, #1
    24da:	041b      	lsls	r3, r3, #16
    24dc:	f403 2370 	and.w	r3, r3, #983040	; 0xf0000
    24e0:	431a      	orrs	r2, r3
    24e2:	68fb      	ldr	r3, [r7, #12]
    24e4:	659a      	str	r2, [r3, #88]	; 0x58
    24e6:	2102      	movs	r1, #2
    24e8:	68f8      	ldr	r0, [r7, #12]
    24ea:	f003 fefe 	bl	62ea <LPSPI_EnableInterrupts>
    24ee:	e003      	b.n	24f8 <LPSPI_MasterTransferNonBlocking+0x2d0>
    24f0:	2101      	movs	r1, #1
    24f2:	68f8      	ldr	r0, [r7, #12]
    24f4:	f003 fef9 	bl	62ea <LPSPI_EnableInterrupts>
    24f8:	2300      	movs	r3, #0
    24fa:	4618      	mov	r0, r3
    24fc:	3728      	adds	r7, #40	; 0x28
    24fe:	46bd      	mov	sp, r7
    2500:	bd80      	pop	{r7, pc}
    2502:	bf00      	nop
    2504:	00008f20 	.word	0x00008f20

00002508 <LPSPI_MasterTransferFillUpTxFifo>:
    2508:	b580      	push	{r7, lr}
    250a:	b084      	sub	sp, #16
    250c:	af00      	add	r7, sp, #0
    250e:	6078      	str	r0, [r7, #4]
    2510:	6039      	str	r1, [r7, #0]
    2512:	683b      	ldr	r3, [r7, #0]
    2514:	2b00      	cmp	r3, #0
    2516:	d102      	bne.n	251e <LPSPI_MasterTransferFillUpTxFifo+0x16>
    2518:	483e      	ldr	r0, [pc, #248]	; (2614 <LPSPI_MasterTransferFillUpTxFifo+0x10c>)
    251a:	f002 fed9 	bl	52d0 <__assertion_failed>
    251e:	2300      	movs	r3, #0
    2520:	60fb      	str	r3, [r7, #12]
    2522:	e059      	b.n	25d8 <LPSPI_MasterTransferFillUpTxFifo+0xd0>
    2524:	683b      	ldr	r3, [r7, #0]
    2526:	691b      	ldr	r3, [r3, #16]
    2528:	683a      	ldr	r2, [r7, #0]
    252a:	7952      	ldrb	r2, [r2, #5]
    252c:	b2d2      	uxtb	r2, r2
    252e:	4293      	cmp	r3, r2
    2530:	d204      	bcs.n	253c <LPSPI_MasterTransferFillUpTxFifo+0x34>
    2532:	683b      	ldr	r3, [r7, #0]
    2534:	691b      	ldr	r3, [r3, #16]
    2536:	b2da      	uxtb	r2, r3
    2538:	683b      	ldr	r3, [r7, #0]
    253a:	715a      	strb	r2, [r3, #5]
    253c:	683b      	ldr	r3, [r7, #0]
    253e:	689b      	ldr	r3, [r3, #8]
    2540:	2b00      	cmp	r3, #0
    2542:	d015      	beq.n	2570 <LPSPI_MasterTransferFillUpTxFifo+0x68>
    2544:	683b      	ldr	r3, [r7, #0]
    2546:	6898      	ldr	r0, [r3, #8]
    2548:	683b      	ldr	r3, [r7, #0]
    254a:	795b      	ldrb	r3, [r3, #5]
    254c:	b2db      	uxtb	r3, r3
    254e:	4619      	mov	r1, r3
    2550:	683b      	ldr	r3, [r7, #0]
    2552:	789b      	ldrb	r3, [r3, #2]
    2554:	b2db      	uxtb	r3, r3
    2556:	461a      	mov	r2, r3
    2558:	f000 fcde 	bl	2f18 <LPSPI_CombineWriteData>
    255c:	60f8      	str	r0, [r7, #12]
    255e:	683b      	ldr	r3, [r7, #0]
    2560:	795b      	ldrb	r3, [r3, #5]
    2562:	b2da      	uxtb	r2, r3
    2564:	683b      	ldr	r3, [r7, #0]
    2566:	689b      	ldr	r3, [r3, #8]
    2568:	441a      	add	r2, r3
    256a:	683b      	ldr	r3, [r7, #0]
    256c:	609a      	str	r2, [r3, #8]
    256e:	e002      	b.n	2576 <LPSPI_MasterTransferFillUpTxFifo+0x6e>
    2570:	683b      	ldr	r3, [r7, #0]
    2572:	6a5b      	ldr	r3, [r3, #36]	; 0x24
    2574:	60fb      	str	r3, [r7, #12]
    2576:	68f9      	ldr	r1, [r7, #12]
    2578:	6878      	ldr	r0, [r7, #4]
    257a:	f003 ff30 	bl	63de <LPSPI_WriteData>
    257e:	683b      	ldr	r3, [r7, #0]
    2580:	699b      	ldr	r3, [r3, #24]
    2582:	1e5a      	subs	r2, r3, #1
    2584:	683b      	ldr	r3, [r7, #0]
    2586:	619a      	str	r2, [r3, #24]
    2588:	683b      	ldr	r3, [r7, #0]
    258a:	795b      	ldrb	r3, [r3, #5]
    258c:	b2da      	uxtb	r2, r3
    258e:	683b      	ldr	r3, [r7, #0]
    2590:	691b      	ldr	r3, [r3, #16]
    2592:	1a9a      	subs	r2, r3, r2
    2594:	683b      	ldr	r3, [r7, #0]
    2596:	611a      	str	r2, [r3, #16]
    2598:	683b      	ldr	r3, [r7, #0]
    259a:	691b      	ldr	r3, [r3, #16]
    259c:	2b00      	cmp	r3, #0
    259e:	d11b      	bne.n	25d8 <LPSPI_MasterTransferFillUpTxFifo+0xd0>
    25a0:	683b      	ldr	r3, [r7, #0]
    25a2:	781b      	ldrb	r3, [r3, #0]
    25a4:	b2db      	uxtb	r3, r3
    25a6:	2b00      	cmp	r3, #0
    25a8:	d02e      	beq.n	2608 <LPSPI_MasterTransferFillUpTxFifo+0x100>
    25aa:	6878      	ldr	r0, [r7, #4]
    25ac:	f003 fe72 	bl	6294 <LPSPI_GetTxFifoCount>
    25b0:	4602      	mov	r2, r0
    25b2:	683b      	ldr	r3, [r7, #0]
    25b4:	78db      	ldrb	r3, [r3, #3]
    25b6:	b2db      	uxtb	r3, r3
    25b8:	429a      	cmp	r2, r3
    25ba:	d209      	bcs.n	25d0 <LPSPI_MasterTransferFillUpTxFifo+0xc8>
    25bc:	687b      	ldr	r3, [r7, #4]
    25be:	6e1b      	ldr	r3, [r3, #96]	; 0x60
    25c0:	f423 1280 	bic.w	r2, r3, #1048576	; 0x100000
    25c4:	687b      	ldr	r3, [r7, #4]
    25c6:	661a      	str	r2, [r3, #96]	; 0x60
    25c8:	683b      	ldr	r3, [r7, #0]
    25ca:	2200      	movs	r2, #0
    25cc:	705a      	strb	r2, [r3, #1]
    25ce:	e01b      	b.n	2608 <LPSPI_MasterTransferFillUpTxFifo+0x100>
    25d0:	683b      	ldr	r3, [r7, #0]
    25d2:	2201      	movs	r2, #1
    25d4:	705a      	strb	r2, [r3, #1]
    25d6:	e017      	b.n	2608 <LPSPI_MasterTransferFillUpTxFifo+0x100>
    25d8:	6878      	ldr	r0, [r7, #4]
    25da:	f003 fe5b 	bl	6294 <LPSPI_GetTxFifoCount>
    25de:	4602      	mov	r2, r0
    25e0:	683b      	ldr	r3, [r7, #0]
    25e2:	78db      	ldrb	r3, [r3, #3]
    25e4:	b2db      	uxtb	r3, r3
    25e6:	429a      	cmp	r2, r3
    25e8:	d20f      	bcs.n	260a <LPSPI_MasterTransferFillUpTxFifo+0x102>
    25ea:	683b      	ldr	r3, [r7, #0]
    25ec:	69da      	ldr	r2, [r3, #28]
    25ee:	683b      	ldr	r3, [r7, #0]
    25f0:	699b      	ldr	r3, [r3, #24]
    25f2:	1ad3      	subs	r3, r2, r3
    25f4:	683a      	ldr	r2, [r7, #0]
    25f6:	78d2      	ldrb	r2, [r2, #3]
    25f8:	b2d2      	uxtb	r2, r2
    25fa:	4293      	cmp	r3, r2
    25fc:	d392      	bcc.n	2524 <LPSPI_MasterTransferFillUpTxFifo+0x1c>
    25fe:	683b      	ldr	r3, [r7, #0]
    2600:	68db      	ldr	r3, [r3, #12]
    2602:	2b00      	cmp	r3, #0
    2604:	d08e      	beq.n	2524 <LPSPI_MasterTransferFillUpTxFifo+0x1c>
    2606:	e000      	b.n	260a <LPSPI_MasterTransferFillUpTxFifo+0x102>
    2608:	bf00      	nop
    260a:	bf00      	nop
    260c:	3710      	adds	r7, #16
    260e:	46bd      	mov	sp, r7
    2610:	bd80      	pop	{r7, pc}
    2612:	bf00      	nop
    2614:	00008ba4 	.word	0x00008ba4

00002618 <LPSPI_MasterTransferComplete>:
    2618:	b590      	push	{r4, r7, lr}
    261a:	b083      	sub	sp, #12
    261c:	af00      	add	r7, sp, #0
    261e:	6078      	str	r0, [r7, #4]
    2620:	6039      	str	r1, [r7, #0]
    2622:	683b      	ldr	r3, [r7, #0]
    2624:	2b00      	cmp	r3, #0
    2626:	d102      	bne.n	262e <LPSPI_MasterTransferComplete+0x16>
    2628:	480d      	ldr	r0, [pc, #52]	; (2660 <LPSPI_MasterTransferComplete+0x48>)
    262a:	f002 fe51 	bl	52d0 <__assertion_failed>
    262e:	f643 7103 	movw	r1, #16131	; 0x3f03
    2632:	6878      	ldr	r0, [r7, #4]
    2634:	f003 fe6a 	bl	630c <LPSPI_DisableInterrupts>
    2638:	683b      	ldr	r3, [r7, #0]
    263a:	2200      	movs	r2, #0
    263c:	f883 2028 	strb.w	r2, [r3, #40]	; 0x28
    2640:	683b      	ldr	r3, [r7, #0]
    2642:	6adb      	ldr	r3, [r3, #44]	; 0x2c
    2644:	2b00      	cmp	r3, #0
    2646:	d007      	beq.n	2658 <LPSPI_MasterTransferComplete+0x40>
    2648:	683b      	ldr	r3, [r7, #0]
    264a:	6adc      	ldr	r4, [r3, #44]	; 0x2c
    264c:	683b      	ldr	r3, [r7, #0]
    264e:	6b1b      	ldr	r3, [r3, #48]	; 0x30
    2650:	2200      	movs	r2, #0
    2652:	6839      	ldr	r1, [r7, #0]
    2654:	6878      	ldr	r0, [r7, #4]
    2656:	47a0      	blx	r4
    2658:	bf00      	nop
    265a:	370c      	adds	r7, #12
    265c:	46bd      	mov	sp, r7
    265e:	bd90      	pop	{r4, r7, pc}
    2660:	00008bcc 	.word	0x00008bcc

00002664 <LPSPI_MasterTransferAbort>:
    2664:	b580      	push	{r7, lr}
    2666:	b082      	sub	sp, #8
    2668:	af00      	add	r7, sp, #0
    266a:	6078      	str	r0, [r7, #4]
    266c:	6039      	str	r1, [r7, #0]
    266e:	683b      	ldr	r3, [r7, #0]
    2670:	2b00      	cmp	r3, #0
    2672:	d102      	bne.n	267a <LPSPI_MasterTransferAbort+0x16>
    2674:	480c      	ldr	r0, [pc, #48]	; (26a8 <LPSPI_MasterTransferAbort+0x44>)
    2676:	f002 fe2b 	bl	52d0 <__assertion_failed>
    267a:	f643 7103 	movw	r1, #16131	; 0x3f03
    267e:	6878      	ldr	r0, [r7, #4]
    2680:	f003 fe44 	bl	630c <LPSPI_DisableInterrupts>
    2684:	6878      	ldr	r0, [r7, #4]
    2686:	f003 fec4 	bl	6412 <LPSPI_Reset>
    268a:	683b      	ldr	r3, [r7, #0]
    268c:	2200      	movs	r2, #0
    268e:	f883 2028 	strb.w	r2, [r3, #40]	; 0x28
    2692:	683b      	ldr	r3, [r7, #0]
    2694:	2200      	movs	r2, #0
    2696:	611a      	str	r2, [r3, #16]
    2698:	683b      	ldr	r3, [r7, #0]
    269a:	2200      	movs	r2, #0
    269c:	615a      	str	r2, [r3, #20]
    269e:	bf00      	nop
    26a0:	3708      	adds	r7, #8
    26a2:	46bd      	mov	sp, r7
    26a4:	bd80      	pop	{r7, pc}
    26a6:	bf00      	nop
    26a8:	00008c1c 	.word	0x00008c1c

000026ac <LPSPI_MasterTransferHandleIRQ>:
    26ac:	b580      	push	{r7, lr}
    26ae:	b084      	sub	sp, #16
    26b0:	af00      	add	r7, sp, #0
    26b2:	6078      	str	r0, [r7, #4]
    26b4:	6039      	str	r1, [r7, #0]
    26b6:	683b      	ldr	r3, [r7, #0]
    26b8:	2b00      	cmp	r3, #0
    26ba:	d102      	bne.n	26c2 <LPSPI_MasterTransferHandleIRQ+0x16>
    26bc:	4862      	ldr	r0, [pc, #392]	; (2848 <LPSPI_MasterTransferHandleIRQ+0x19c>)
    26be:	f002 fe07 	bl	52d0 <__assertion_failed>
    26c2:	683b      	ldr	r3, [r7, #0]
    26c4:	68db      	ldr	r3, [r3, #12]
    26c6:	2b00      	cmp	r3, #0
    26c8:	d065      	beq.n	2796 <LPSPI_MasterTransferHandleIRQ+0xea>
    26ca:	683b      	ldr	r3, [r7, #0]
    26cc:	695b      	ldr	r3, [r3, #20]
    26ce:	2b00      	cmp	r3, #0
    26d0:	d047      	beq.n	2762 <LPSPI_MasterTransferHandleIRQ+0xb6>
    26d2:	2102      	movs	r1, #2
    26d4:	6878      	ldr	r0, [r7, #4]
    26d6:	f003 fe19 	bl	630c <LPSPI_DisableInterrupts>
    26da:	e030      	b.n	273e <LPSPI_MasterTransferHandleIRQ+0x92>
    26dc:	6878      	ldr	r0, [r7, #4]
    26de:	f003 fe8c 	bl	63fa <LPSPI_ReadData>
    26e2:	60f8      	str	r0, [r7, #12]
    26e4:	683b      	ldr	r3, [r7, #0]
    26e6:	69db      	ldr	r3, [r3, #28]
    26e8:	1e5a      	subs	r2, r3, #1
    26ea:	683b      	ldr	r3, [r7, #0]
    26ec:	61da      	str	r2, [r3, #28]
    26ee:	683b      	ldr	r3, [r7, #0]
    26f0:	695b      	ldr	r3, [r3, #20]
    26f2:	683a      	ldr	r2, [r7, #0]
    26f4:	7992      	ldrb	r2, [r2, #6]
    26f6:	b2d2      	uxtb	r2, r2
    26f8:	4293      	cmp	r3, r2
    26fa:	d204      	bcs.n	2706 <LPSPI_MasterTransferHandleIRQ+0x5a>
    26fc:	683b      	ldr	r3, [r7, #0]
    26fe:	695b      	ldr	r3, [r3, #20]
    2700:	b2da      	uxtb	r2, r3
    2702:	683b      	ldr	r3, [r7, #0]
    2704:	719a      	strb	r2, [r3, #6]
    2706:	683b      	ldr	r3, [r7, #0]
    2708:	68d8      	ldr	r0, [r3, #12]
    270a:	683b      	ldr	r3, [r7, #0]
    270c:	799b      	ldrb	r3, [r3, #6]
    270e:	b2db      	uxtb	r3, r3
    2710:	461a      	mov	r2, r3
    2712:	683b      	ldr	r3, [r7, #0]
    2714:	789b      	ldrb	r3, [r3, #2]
    2716:	b2db      	uxtb	r3, r3
    2718:	68f9      	ldr	r1, [r7, #12]
    271a:	f000 fcdb 	bl	30d4 <LPSPI_SeparateReadData>
    271e:	683b      	ldr	r3, [r7, #0]
    2720:	799b      	ldrb	r3, [r3, #6]
    2722:	b2da      	uxtb	r2, r3
    2724:	683b      	ldr	r3, [r7, #0]
    2726:	68db      	ldr	r3, [r3, #12]
    2728:	441a      	add	r2, r3
    272a:	683b      	ldr	r3, [r7, #0]
    272c:	60da      	str	r2, [r3, #12]
    272e:	683b      	ldr	r3, [r7, #0]
    2730:	799b      	ldrb	r3, [r3, #6]
    2732:	b2da      	uxtb	r2, r3
    2734:	683b      	ldr	r3, [r7, #0]
    2736:	695b      	ldr	r3, [r3, #20]
    2738:	1a9a      	subs	r2, r3, r2
    273a:	683b      	ldr	r3, [r7, #0]
    273c:	615a      	str	r2, [r3, #20]
    273e:	6878      	ldr	r0, [r7, #4]
    2740:	f003 fdb6 	bl	62b0 <LPSPI_GetRxFifoCount>
    2744:	4603      	mov	r3, r0
    2746:	2b00      	cmp	r3, #0
    2748:	d003      	beq.n	2752 <LPSPI_MasterTransferHandleIRQ+0xa6>
    274a:	683b      	ldr	r3, [r7, #0]
    274c:	695b      	ldr	r3, [r3, #20]
    274e:	2b00      	cmp	r3, #0
    2750:	d1c4      	bne.n	26dc <LPSPI_MasterTransferHandleIRQ+0x30>
    2752:	683b      	ldr	r3, [r7, #0]
    2754:	695b      	ldr	r3, [r3, #20]
    2756:	2b00      	cmp	r3, #0
    2758:	d003      	beq.n	2762 <LPSPI_MasterTransferHandleIRQ+0xb6>
    275a:	2102      	movs	r1, #2
    275c:	6878      	ldr	r0, [r7, #4]
    275e:	f003 fdc4 	bl	62ea <LPSPI_EnableInterrupts>
    2762:	683b      	ldr	r3, [r7, #0]
    2764:	69db      	ldr	r3, [r3, #28]
    2766:	683a      	ldr	r2, [r7, #0]
    2768:	7912      	ldrb	r2, [r2, #4]
    276a:	b2d2      	uxtb	r2, r2
    276c:	4293      	cmp	r3, r2
    276e:	d812      	bhi.n	2796 <LPSPI_MasterTransferHandleIRQ+0xea>
    2770:	687b      	ldr	r3, [r7, #4]
    2772:	6d9b      	ldr	r3, [r3, #88]	; 0x58
    2774:	f423 2270 	bic.w	r2, r3, #983040	; 0xf0000
    2778:	683b      	ldr	r3, [r7, #0]
    277a:	69db      	ldr	r3, [r3, #28]
    277c:	2b01      	cmp	r3, #1
    277e:	d906      	bls.n	278e <LPSPI_MasterTransferHandleIRQ+0xe2>
    2780:	683b      	ldr	r3, [r7, #0]
    2782:	69db      	ldr	r3, [r3, #28]
    2784:	3b01      	subs	r3, #1
    2786:	041b      	lsls	r3, r3, #16
    2788:	f403 2370 	and.w	r3, r3, #983040	; 0xf0000
    278c:	e000      	b.n	2790 <LPSPI_MasterTransferHandleIRQ+0xe4>
    278e:	2300      	movs	r3, #0
    2790:	431a      	orrs	r2, r3
    2792:	687b      	ldr	r3, [r7, #4]
    2794:	659a      	str	r2, [r3, #88]	; 0x58
    2796:	683b      	ldr	r3, [r7, #0]
    2798:	691b      	ldr	r3, [r3, #16]
    279a:	2b00      	cmp	r3, #0
    279c:	d004      	beq.n	27a8 <LPSPI_MasterTransferHandleIRQ+0xfc>
    279e:	6839      	ldr	r1, [r7, #0]
    27a0:	6878      	ldr	r0, [r7, #4]
    27a2:	f7ff feb1 	bl	2508 <LPSPI_MasterTransferFillUpTxFifo>
    27a6:	e01b      	b.n	27e0 <LPSPI_MasterTransferHandleIRQ+0x134>
    27a8:	6878      	ldr	r0, [r7, #4]
    27aa:	f003 fd73 	bl	6294 <LPSPI_GetTxFifoCount>
    27ae:	4602      	mov	r2, r0
    27b0:	683b      	ldr	r3, [r7, #0]
    27b2:	78db      	ldrb	r3, [r3, #3]
    27b4:	b2db      	uxtb	r3, r3
    27b6:	429a      	cmp	r2, r3
    27b8:	d212      	bcs.n	27e0 <LPSPI_MasterTransferHandleIRQ+0x134>
    27ba:	683b      	ldr	r3, [r7, #0]
    27bc:	781b      	ldrb	r3, [r3, #0]
    27be:	b2db      	uxtb	r3, r3
    27c0:	2b00      	cmp	r3, #0
    27c2:	d00d      	beq.n	27e0 <LPSPI_MasterTransferHandleIRQ+0x134>
    27c4:	683b      	ldr	r3, [r7, #0]
    27c6:	785b      	ldrb	r3, [r3, #1]
    27c8:	b2db      	uxtb	r3, r3
    27ca:	2b00      	cmp	r3, #0
    27cc:	d008      	beq.n	27e0 <LPSPI_MasterTransferHandleIRQ+0x134>
    27ce:	687b      	ldr	r3, [r7, #4]
    27d0:	6e1b      	ldr	r3, [r3, #96]	; 0x60
    27d2:	f423 1280 	bic.w	r2, r3, #1048576	; 0x100000
    27d6:	687b      	ldr	r3, [r7, #4]
    27d8:	661a      	str	r2, [r3, #96]	; 0x60
    27da:	683b      	ldr	r3, [r7, #0]
    27dc:	2200      	movs	r2, #0
    27de:	705a      	strb	r2, [r3, #1]
    27e0:	683b      	ldr	r3, [r7, #0]
    27e2:	691b      	ldr	r3, [r3, #16]
    27e4:	2b00      	cmp	r3, #0
    27e6:	d12a      	bne.n	283e <LPSPI_MasterTransferHandleIRQ+0x192>
    27e8:	683b      	ldr	r3, [r7, #0]
    27ea:	695b      	ldr	r3, [r3, #20]
    27ec:	2b00      	cmp	r3, #0
    27ee:	d126      	bne.n	283e <LPSPI_MasterTransferHandleIRQ+0x192>
    27f0:	683b      	ldr	r3, [r7, #0]
    27f2:	785b      	ldrb	r3, [r3, #1]
    27f4:	b2db      	uxtb	r3, r3
    27f6:	f083 0301 	eor.w	r3, r3, #1
    27fa:	b2db      	uxtb	r3, r3
    27fc:	2b00      	cmp	r3, #0
    27fe:	d01e      	beq.n	283e <LPSPI_MasterTransferHandleIRQ+0x192>
    2800:	683b      	ldr	r3, [r7, #0]
    2802:	68db      	ldr	r3, [r3, #12]
    2804:	2b00      	cmp	r3, #0
    2806:	d116      	bne.n	2836 <LPSPI_MasterTransferHandleIRQ+0x18a>
    2808:	6878      	ldr	r0, [r7, #4]
    280a:	f003 fd26 	bl	625a <LPSPI_GetStatusFlags>
    280e:	4603      	mov	r3, r0
    2810:	f403 6380 	and.w	r3, r3, #1024	; 0x400
    2814:	2b00      	cmp	r3, #0
    2816:	d004      	beq.n	2822 <LPSPI_MasterTransferHandleIRQ+0x176>
    2818:	6839      	ldr	r1, [r7, #0]
    281a:	6878      	ldr	r0, [r7, #4]
    281c:	f7ff fefc 	bl	2618 <LPSPI_MasterTransferComplete>
    2820:	e00d      	b.n	283e <LPSPI_MasterTransferHandleIRQ+0x192>
    2822:	f44f 6180 	mov.w	r1, #1024	; 0x400
    2826:	6878      	ldr	r0, [r7, #4]
    2828:	f003 fd5f 	bl	62ea <LPSPI_EnableInterrupts>
    282c:	2103      	movs	r1, #3
    282e:	6878      	ldr	r0, [r7, #4]
    2830:	f003 fd6c 	bl	630c <LPSPI_DisableInterrupts>
    2834:	e003      	b.n	283e <LPSPI_MasterTransferHandleIRQ+0x192>
    2836:	6839      	ldr	r1, [r7, #0]
    2838:	6878      	ldr	r0, [r7, #4]
    283a:	f7ff feed 	bl	2618 <LPSPI_MasterTransferComplete>
    283e:	bf00      	nop
    2840:	3710      	adds	r7, #16
    2842:	46bd      	mov	sp, r7
    2844:	bd80      	pop	{r7, pc}
    2846:	bf00      	nop
    2848:	00008c44 	.word	0x00008c44

0000284c <LPSPI_SlaveTransferCreateHandle>:
    284c:	b580      	push	{r7, lr}
    284e:	b084      	sub	sp, #16
    2850:	af00      	add	r7, sp, #0
    2852:	60f8      	str	r0, [r7, #12]
    2854:	60b9      	str	r1, [r7, #8]
    2856:	607a      	str	r2, [r7, #4]
    2858:	603b      	str	r3, [r7, #0]
    285a:	68bb      	ldr	r3, [r7, #8]
    285c:	2b00      	cmp	r3, #0
    285e:	d102      	bne.n	2866 <LPSPI_SlaveTransferCreateHandle+0x1a>
    2860:	480e      	ldr	r0, [pc, #56]	; (289c <LPSPI_SlaveTransferCreateHandle+0x50>)
    2862:	f002 fd35 	bl	52d0 <__assertion_failed>
    2866:	2234      	movs	r2, #52	; 0x34
    2868:	2100      	movs	r1, #0
    286a:	68b8      	ldr	r0, [r7, #8]
    286c:	f004 fb86 	bl	6f7c <memset>
    2870:	68f8      	ldr	r0, [r7, #12]
    2872:	f7ff f9ef 	bl	1c54 <LPSPI_GetInstance>
    2876:	4601      	mov	r1, r0
    2878:	4a09      	ldr	r2, [pc, #36]	; (28a0 <LPSPI_SlaveTransferCreateHandle+0x54>)
    287a:	68bb      	ldr	r3, [r7, #8]
    287c:	f842 3021 	str.w	r3, [r2, r1, lsl #2]
    2880:	4b08      	ldr	r3, [pc, #32]	; (28a4 <LPSPI_SlaveTransferCreateHandle+0x58>)
    2882:	4a09      	ldr	r2, [pc, #36]	; (28a8 <LPSPI_SlaveTransferCreateHandle+0x5c>)
    2884:	601a      	str	r2, [r3, #0]
    2886:	68bb      	ldr	r3, [r7, #8]
    2888:	687a      	ldr	r2, [r7, #4]
    288a:	62da      	str	r2, [r3, #44]	; 0x2c
    288c:	68bb      	ldr	r3, [r7, #8]
    288e:	683a      	ldr	r2, [r7, #0]
    2890:	631a      	str	r2, [r3, #48]	; 0x30
    2892:	bf00      	nop
    2894:	3710      	adds	r7, #16
    2896:	46bd      	mov	sp, r7
    2898:	bd80      	pop	{r7, pc}
    289a:	bf00      	nop
    289c:	00008c6c 	.word	0x00008c6c
    28a0:	200000c8 	.word	0x200000c8
    28a4:	200000e0 	.word	0x200000e0
    28a8:	00002cc9 	.word	0x00002cc9

000028ac <LPSPI_SlaveTransferNonBlocking>:
    28ac:	b580      	push	{r7, lr}
    28ae:	b08a      	sub	sp, #40	; 0x28
    28b0:	af00      	add	r7, sp, #0
    28b2:	60f8      	str	r0, [r7, #12]
    28b4:	60b9      	str	r1, [r7, #8]
    28b6:	607a      	str	r2, [r7, #4]
    28b8:	68bb      	ldr	r3, [r7, #8]
    28ba:	2b00      	cmp	r3, #0
    28bc:	d102      	bne.n	28c4 <LPSPI_SlaveTransferNonBlocking+0x18>
    28be:	48ab      	ldr	r0, [pc, #684]	; (2b6c <LPSPI_SlaveTransferNonBlocking+0x2c0>)
    28c0:	f002 fd06 	bl	52d0 <__assertion_failed>
    28c4:	687b      	ldr	r3, [r7, #4]
    28c6:	2b00      	cmp	r3, #0
    28c8:	d102      	bne.n	28d0 <LPSPI_SlaveTransferNonBlocking+0x24>
    28ca:	48a9      	ldr	r0, [pc, #676]	; (2b70 <LPSPI_SlaveTransferNonBlocking+0x2c4>)
    28cc:	f002 fd00 	bl	52d0 <__assertion_failed>
    28d0:	68fb      	ldr	r3, [r7, #12]
    28d2:	6e1b      	ldr	r3, [r3, #96]	; 0x60
    28d4:	f3c3 030b 	ubfx	r3, r3, #0, #12
    28d8:	3301      	adds	r3, #1
    28da:	623b      	str	r3, [r7, #32]
    28dc:	6a3b      	ldr	r3, [r7, #32]
    28de:	3307      	adds	r3, #7
    28e0:	08db      	lsrs	r3, r3, #3
    28e2:	61fb      	str	r3, [r7, #28]
    28e4:	2300      	movs	r3, #0
    28e6:	61bb      	str	r3, [r7, #24]
    28e8:	69fa      	ldr	r2, [r7, #28]
    28ea:	6a39      	ldr	r1, [r7, #32]
    28ec:	6878      	ldr	r0, [r7, #4]
    28ee:	f7ff fc4f 	bl	2190 <LPSPI_CheckTransferArgument>
    28f2:	4603      	mov	r3, r0
    28f4:	f083 0301 	eor.w	r3, r3, #1
    28f8:	b2db      	uxtb	r3, r3
    28fa:	2b00      	cmp	r3, #0
    28fc:	d001      	beq.n	2902 <LPSPI_SlaveTransferNonBlocking+0x56>
    28fe:	2304      	movs	r3, #4
    2900:	e130      	b.n	2b64 <LPSPI_SlaveTransferNonBlocking+0x2b8>
    2902:	68bb      	ldr	r3, [r7, #8]
    2904:	f893 3024 	ldrb.w	r3, [r3, #36]	; 0x24
    2908:	b2db      	uxtb	r3, r3
    290a:	2b01      	cmp	r3, #1
    290c:	d102      	bne.n	2914 <LPSPI_SlaveTransferNonBlocking+0x68>
    290e:	f44f 73c8 	mov.w	r3, #400	; 0x190
    2912:	e127      	b.n	2b64 <LPSPI_SlaveTransferNonBlocking+0x2b8>
    2914:	68bb      	ldr	r3, [r7, #8]
    2916:	2201      	movs	r2, #1
    2918:	f883 2024 	strb.w	r2, [r3, #36]	; 0x24
    291c:	2300      	movs	r3, #0
    291e:	f887 3027 	strb.w	r3, [r7, #39]	; 0x27
    2922:	2300      	movs	r3, #0
    2924:	f887 3026 	strb.w	r3, [r7, #38]	; 0x26
    2928:	687b      	ldr	r3, [r7, #4]
    292a:	68db      	ldr	r3, [r3, #12]
    292c:	091b      	lsrs	r3, r3, #4
    292e:	f003 030f 	and.w	r3, r3, #15
    2932:	617b      	str	r3, [r7, #20]
    2934:	687b      	ldr	r3, [r7, #4]
    2936:	681a      	ldr	r2, [r3, #0]
    2938:	68bb      	ldr	r3, [r7, #8]
    293a:	609a      	str	r2, [r3, #8]
    293c:	687b      	ldr	r3, [r7, #4]
    293e:	685a      	ldr	r2, [r3, #4]
    2940:	68bb      	ldr	r3, [r7, #8]
    2942:	60da      	str	r2, [r3, #12]
    2944:	687b      	ldr	r3, [r7, #4]
    2946:	689a      	ldr	r2, [r3, #8]
    2948:	68bb      	ldr	r3, [r7, #8]
    294a:	611a      	str	r2, [r3, #16]
    294c:	687b      	ldr	r3, [r7, #4]
    294e:	689a      	ldr	r2, [r3, #8]
    2950:	68bb      	ldr	r3, [r7, #8]
    2952:	615a      	str	r2, [r3, #20]
    2954:	687b      	ldr	r3, [r7, #4]
    2956:	689a      	ldr	r2, [r3, #8]
    2958:	68bb      	ldr	r3, [r7, #8]
    295a:	621a      	str	r2, [r3, #32]
    295c:	687b      	ldr	r3, [r7, #4]
    295e:	689a      	ldr	r2, [r3, #8]
    2960:	69fb      	ldr	r3, [r7, #28]
    2962:	fbb2 f3f3 	udiv	r3, r2, r3
    2966:	69fa      	ldr	r2, [r7, #28]
    2968:	3203      	adds	r2, #3
    296a:	0892      	lsrs	r2, r2, #2
    296c:	fb02 f203 	mul.w	r2, r2, r3
    2970:	68bb      	ldr	r3, [r7, #8]
    2972:	619a      	str	r2, [r3, #24]
    2974:	68bb      	ldr	r3, [r7, #8]
    2976:	699a      	ldr	r2, [r3, #24]
    2978:	68bb      	ldr	r3, [r7, #8]
    297a:	61da      	str	r2, [r3, #28]
    297c:	68f8      	ldr	r0, [r7, #12]
    297e:	f003 fc78 	bl	6272 <LPSPI_GetRxFifoSize>
    2982:	4603      	mov	r3, r0
    2984:	b2da      	uxtb	r2, r3
    2986:	68bb      	ldr	r3, [r7, #8]
    2988:	705a      	strb	r2, [r3, #1]
    298a:	687b      	ldr	r3, [r7, #4]
    298c:	68db      	ldr	r3, [r3, #12]
    298e:	f403 0380 	and.w	r3, r3, #4194304	; 0x400000
    2992:	2b00      	cmp	r3, #0
    2994:	bf14      	ite	ne
    2996:	2301      	movne	r3, #1
    2998:	2300      	moveq	r3, #0
    299a:	b2da      	uxtb	r2, r3
    299c:	68bb      	ldr	r3, [r7, #8]
    299e:	701a      	strb	r2, [r3, #0]
    29a0:	68bb      	ldr	r3, [r7, #8]
    29a2:	785b      	ldrb	r3, [r3, #1]
    29a4:	b2db      	uxtb	r3, r3
    29a6:	2b01      	cmp	r3, #1
    29a8:	d90a      	bls.n	29c0 <LPSPI_SlaveTransferNonBlocking+0x114>
    29aa:	2301      	movs	r3, #1
    29ac:	f887 3025 	strb.w	r3, [r7, #37]	; 0x25
    29b0:	68bb      	ldr	r3, [r7, #8]
    29b2:	785b      	ldrb	r3, [r3, #1]
    29b4:	b2db      	uxtb	r3, r3
    29b6:	3b02      	subs	r3, #2
    29b8:	b2da      	uxtb	r2, r3
    29ba:	68bb      	ldr	r3, [r7, #8]
    29bc:	709a      	strb	r2, [r3, #2]
    29be:	e005      	b.n	29cc <LPSPI_SlaveTransferNonBlocking+0x120>
    29c0:	2300      	movs	r3, #0
    29c2:	f887 3025 	strb.w	r3, [r7, #37]	; 0x25
    29c6:	68bb      	ldr	r3, [r7, #8]
    29c8:	2200      	movs	r2, #0
    29ca:	709a      	strb	r2, [r3, #2]
    29cc:	f897 1025 	ldrb.w	r1, [r7, #37]	; 0x25
    29d0:	68bb      	ldr	r3, [r7, #8]
    29d2:	789b      	ldrb	r3, [r3, #2]
    29d4:	b2db      	uxtb	r3, r3
    29d6:	461a      	mov	r2, r3
    29d8:	68f8      	ldr	r0, [r7, #12]
    29da:	f003 fcea 	bl	63b2 <LPSPI_SetFifoWatermarks>
    29de:	68fb      	ldr	r3, [r7, #12]
    29e0:	6a5b      	ldr	r3, [r3, #36]	; 0x24
    29e2:	61bb      	str	r3, [r7, #24]
    29e4:	69bb      	ldr	r3, [r7, #24]
    29e6:	f003 7340 	and.w	r3, r3, #50331648	; 0x3000000
    29ea:	61bb      	str	r3, [r7, #24]
    29ec:	69bb      	ldr	r3, [r7, #24]
    29ee:	f1b3 7f80 	cmp.w	r3, #16777216	; 0x1000000
    29f2:	d003      	beq.n	29fc <LPSPI_SlaveTransferNonBlocking+0x150>
    29f4:	69bb      	ldr	r3, [r7, #24]
    29f6:	f1b3 7f00 	cmp.w	r3, #33554432	; 0x2000000
    29fa:	d11b      	bne.n	2a34 <LPSPI_SlaveTransferNonBlocking+0x188>
    29fc:	68bb      	ldr	r3, [r7, #8]
    29fe:	689b      	ldr	r3, [r3, #8]
    2a00:	2b00      	cmp	r3, #0
    2a02:	d10d      	bne.n	2a20 <LPSPI_SlaveTransferNonBlocking+0x174>
    2a04:	2100      	movs	r1, #0
    2a06:	68f8      	ldr	r0, [r7, #12]
    2a08:	f003 fc0b 	bl	6222 <LPSPI_Enable>
    2a0c:	68fb      	ldr	r3, [r7, #12]
    2a0e:	6a5b      	ldr	r3, [r3, #36]	; 0x24
    2a10:	f043 6280 	orr.w	r2, r3, #67108864	; 0x4000000
    2a14:	68fb      	ldr	r3, [r7, #12]
    2a16:	625a      	str	r2, [r3, #36]	; 0x24
    2a18:	2101      	movs	r1, #1
    2a1a:	68f8      	ldr	r0, [r7, #12]
    2a1c:	f003 fc01 	bl	6222 <LPSPI_Enable>
    2a20:	68bb      	ldr	r3, [r7, #8]
    2a22:	689b      	ldr	r3, [r3, #8]
    2a24:	2b00      	cmp	r3, #0
    2a26:	d005      	beq.n	2a34 <LPSPI_SlaveTransferNonBlocking+0x188>
    2a28:	68bb      	ldr	r3, [r7, #8]
    2a2a:	68db      	ldr	r3, [r3, #12]
    2a2c:	2b00      	cmp	r3, #0
    2a2e:	d001      	beq.n	2a34 <LPSPI_SlaveTransferNonBlocking+0x188>
    2a30:	2304      	movs	r3, #4
    2a32:	e097      	b.n	2b64 <LPSPI_SlaveTransferNonBlocking+0x2b8>
    2a34:	2201      	movs	r2, #1
    2a36:	2101      	movs	r1, #1
    2a38:	68f8      	ldr	r0, [r7, #12]
    2a3a:	f003 fca2 	bl	6382 <LPSPI_FlushFifo>
    2a3e:	494d      	ldr	r1, [pc, #308]	; (2b74 <LPSPI_SlaveTransferNonBlocking+0x2c8>)
    2a40:	68f8      	ldr	r0, [r7, #12]
    2a42:	f003 fc44 	bl	62ce <LPSPI_ClearStatusFlags>
    2a46:	f643 7103 	movw	r1, #16131	; 0x3f03
    2a4a:	68f8      	ldr	r0, [r7, #12]
    2a4c:	f003 fc5e 	bl	630c <LPSPI_DisableInterrupts>
    2a50:	68bb      	ldr	r3, [r7, #8]
    2a52:	68db      	ldr	r3, [r3, #12]
    2a54:	2b00      	cmp	r3, #0
    2a56:	d105      	bne.n	2a64 <LPSPI_SlaveTransferNonBlocking+0x1b8>
    2a58:	2301      	movs	r3, #1
    2a5a:	f887 3027 	strb.w	r3, [r7, #39]	; 0x27
    2a5e:	68bb      	ldr	r3, [r7, #8]
    2a60:	2200      	movs	r2, #0
    2a62:	615a      	str	r2, [r3, #20]
    2a64:	68bb      	ldr	r3, [r7, #8]
    2a66:	689b      	ldr	r3, [r3, #8]
    2a68:	2b00      	cmp	r3, #0
    2a6a:	d105      	bne.n	2a78 <LPSPI_SlaveTransferNonBlocking+0x1cc>
    2a6c:	2301      	movs	r3, #1
    2a6e:	f887 3026 	strb.w	r3, [r7, #38]	; 0x26
    2a72:	68bb      	ldr	r3, [r7, #8]
    2a74:	2200      	movs	r2, #0
    2a76:	611a      	str	r2, [r3, #16]
    2a78:	68fb      	ldr	r3, [r7, #12]
    2a7a:	6e1b      	ldr	r3, [r3, #96]	; 0x60
    2a7c:	f023 724f 	bic.w	r2, r3, #54263808	; 0x33c0000
    2a80:	f897 3027 	ldrb.w	r3, [r7, #39]	; 0x27
    2a84:	04db      	lsls	r3, r3, #19
    2a86:	f403 2300 	and.w	r3, r3, #524288	; 0x80000
    2a8a:	431a      	orrs	r2, r3
    2a8c:	f897 3026 	ldrb.w	r3, [r7, #38]	; 0x26
    2a90:	049b      	lsls	r3, r3, #18
    2a92:	f403 2380 	and.w	r3, r3, #262144	; 0x40000
    2a96:	431a      	orrs	r2, r3
    2a98:	697b      	ldr	r3, [r7, #20]
    2a9a:	061b      	lsls	r3, r3, #24
    2a9c:	f003 7340 	and.w	r3, r3, #50331648	; 0x3000000
    2aa0:	431a      	orrs	r2, r3
    2aa2:	68fb      	ldr	r3, [r7, #12]
    2aa4:	661a      	str	r2, [r3, #96]	; 0x60
    2aa6:	69fb      	ldr	r3, [r7, #28]
    2aa8:	2b04      	cmp	r3, #4
    2aaa:	d808      	bhi.n	2abe <LPSPI_SlaveTransferNonBlocking+0x212>
    2aac:	69fb      	ldr	r3, [r7, #28]
    2aae:	b2da      	uxtb	r2, r3
    2ab0:	68bb      	ldr	r3, [r7, #8]
    2ab2:	70da      	strb	r2, [r3, #3]
    2ab4:	69fb      	ldr	r3, [r7, #28]
    2ab6:	b2da      	uxtb	r2, r3
    2ab8:	68bb      	ldr	r3, [r7, #8]
    2aba:	711a      	strb	r2, [r3, #4]
    2abc:	e005      	b.n	2aca <LPSPI_SlaveTransferNonBlocking+0x21e>
    2abe:	68bb      	ldr	r3, [r7, #8]
    2ac0:	2204      	movs	r2, #4
    2ac2:	70da      	strb	r2, [r3, #3]
    2ac4:	68bb      	ldr	r3, [r7, #8]
    2ac6:	2204      	movs	r2, #4
    2ac8:	711a      	strb	r2, [r3, #4]
    2aca:	68f8      	ldr	r0, [r7, #12]
    2acc:	f7ff f8c2 	bl	1c54 <LPSPI_GetInstance>
    2ad0:	4602      	mov	r2, r0
    2ad2:	4b29      	ldr	r3, [pc, #164]	; (2b78 <LPSPI_SlaveTransferNonBlocking+0x2cc>)
    2ad4:	f933 3012 	ldrsh.w	r3, [r3, r2, lsl #1]
    2ad8:	4618      	mov	r0, r3
    2ada:	f003 fb8c 	bl	61f6 <EnableIRQ>
    2ade:	bf00      	nop
    2ae0:	68f8      	ldr	r0, [r7, #12]
    2ae2:	f003 fbd7 	bl	6294 <LPSPI_GetTxFifoCount>
    2ae6:	4603      	mov	r3, r0
    2ae8:	2b00      	cmp	r3, #0
    2aea:	d1f9      	bne.n	2ae0 <LPSPI_SlaveTransferNonBlocking+0x234>
    2aec:	68bb      	ldr	r3, [r7, #8]
    2aee:	689b      	ldr	r3, [r3, #8]
    2af0:	2b00      	cmp	r3, #0
    2af2:	d003      	beq.n	2afc <LPSPI_SlaveTransferNonBlocking+0x250>
    2af4:	68b9      	ldr	r1, [r7, #8]
    2af6:	68f8      	ldr	r0, [r7, #12]
    2af8:	f000 f840 	bl	2b7c <LPSPI_SlaveTransferFillUpTxFifo>
    2afc:	68bb      	ldr	r3, [r7, #8]
    2afe:	68db      	ldr	r3, [r3, #12]
    2b00:	2b00      	cmp	r3, #0
    2b02:	d018      	beq.n	2b36 <LPSPI_SlaveTransferNonBlocking+0x28a>
    2b04:	68bb      	ldr	r3, [r7, #8]
    2b06:	69db      	ldr	r3, [r3, #28]
    2b08:	68ba      	ldr	r2, [r7, #8]
    2b0a:	7892      	ldrb	r2, [r2, #2]
    2b0c:	b2d2      	uxtb	r2, r2
    2b0e:	4293      	cmp	r3, r2
    2b10:	d80c      	bhi.n	2b2c <LPSPI_SlaveTransferNonBlocking+0x280>
    2b12:	68fb      	ldr	r3, [r7, #12]
    2b14:	6d9b      	ldr	r3, [r3, #88]	; 0x58
    2b16:	f423 2270 	bic.w	r2, r3, #983040	; 0xf0000
    2b1a:	68bb      	ldr	r3, [r7, #8]
    2b1c:	69db      	ldr	r3, [r3, #28]
    2b1e:	3b01      	subs	r3, #1
    2b20:	041b      	lsls	r3, r3, #16
    2b22:	f403 2370 	and.w	r3, r3, #983040	; 0xf0000
    2b26:	431a      	orrs	r2, r3
    2b28:	68fb      	ldr	r3, [r7, #12]
    2b2a:	659a      	str	r2, [r3, #88]	; 0x58
    2b2c:	2102      	movs	r1, #2
    2b2e:	68f8      	ldr	r0, [r7, #12]
    2b30:	f003 fbdb 	bl	62ea <LPSPI_EnableInterrupts>
    2b34:	e003      	b.n	2b3e <LPSPI_SlaveTransferNonBlocking+0x292>
    2b36:	2101      	movs	r1, #1
    2b38:	68f8      	ldr	r0, [r7, #12]
    2b3a:	f003 fbd6 	bl	62ea <LPSPI_EnableInterrupts>
    2b3e:	68bb      	ldr	r3, [r7, #8]
    2b40:	68db      	ldr	r3, [r3, #12]
    2b42:	2b00      	cmp	r3, #0
    2b44:	d004      	beq.n	2b50 <LPSPI_SlaveTransferNonBlocking+0x2a4>
    2b46:	f44f 5180 	mov.w	r1, #4096	; 0x1000
    2b4a:	68f8      	ldr	r0, [r7, #12]
    2b4c:	f003 fbcd 	bl	62ea <LPSPI_EnableInterrupts>
    2b50:	68bb      	ldr	r3, [r7, #8]
    2b52:	689b      	ldr	r3, [r3, #8]
    2b54:	2b00      	cmp	r3, #0
    2b56:	d004      	beq.n	2b62 <LPSPI_SlaveTransferNonBlocking+0x2b6>
    2b58:	f44f 6100 	mov.w	r1, #2048	; 0x800
    2b5c:	68f8      	ldr	r0, [r7, #12]
    2b5e:	f003 fbc4 	bl	62ea <LPSPI_EnableInterrupts>
    2b62:	2300      	movs	r3, #0
    2b64:	4618      	mov	r0, r3
    2b66:	3728      	adds	r7, #40	; 0x28
    2b68:	46bd      	mov	sp, r7
    2b6a:	bd80      	pop	{r7, pc}
    2b6c:	00008c94 	.word	0x00008c94
    2b70:	00008cbc 	.word	0x00008cbc
    2b74:	01003f03 	.word	0x01003f03
    2b78:	00008f20 	.word	0x00008f20

00002b7c <LPSPI_SlaveTransferFillUpTxFifo>:
    2b7c:	b580      	push	{r7, lr}
    2b7e:	b084      	sub	sp, #16
    2b80:	af00      	add	r7, sp, #0
    2b82:	6078      	str	r0, [r7, #4]
    2b84:	6039      	str	r1, [r7, #0]
    2b86:	683b      	ldr	r3, [r7, #0]
    2b88:	2b00      	cmp	r3, #0
    2b8a:	d102      	bne.n	2b92 <LPSPI_SlaveTransferFillUpTxFifo+0x16>
    2b8c:	4822      	ldr	r0, [pc, #136]	; (2c18 <LPSPI_SlaveTransferFillUpTxFifo+0x9c>)
    2b8e:	f002 fb9f 	bl	52d0 <__assertion_failed>
    2b92:	2300      	movs	r3, #0
    2b94:	60fb      	str	r3, [r7, #12]
    2b96:	e030      	b.n	2bfa <LPSPI_SlaveTransferFillUpTxFifo+0x7e>
    2b98:	683b      	ldr	r3, [r7, #0]
    2b9a:	691b      	ldr	r3, [r3, #16]
    2b9c:	683a      	ldr	r2, [r7, #0]
    2b9e:	78d2      	ldrb	r2, [r2, #3]
    2ba0:	b2d2      	uxtb	r2, r2
    2ba2:	4293      	cmp	r3, r2
    2ba4:	d204      	bcs.n	2bb0 <LPSPI_SlaveTransferFillUpTxFifo+0x34>
    2ba6:	683b      	ldr	r3, [r7, #0]
    2ba8:	691b      	ldr	r3, [r3, #16]
    2baa:	b2da      	uxtb	r2, r3
    2bac:	683b      	ldr	r3, [r7, #0]
    2bae:	70da      	strb	r2, [r3, #3]
    2bb0:	683b      	ldr	r3, [r7, #0]
    2bb2:	6898      	ldr	r0, [r3, #8]
    2bb4:	683b      	ldr	r3, [r7, #0]
    2bb6:	78db      	ldrb	r3, [r3, #3]
    2bb8:	b2db      	uxtb	r3, r3
    2bba:	4619      	mov	r1, r3
    2bbc:	683b      	ldr	r3, [r7, #0]
    2bbe:	781b      	ldrb	r3, [r3, #0]
    2bc0:	b2db      	uxtb	r3, r3
    2bc2:	461a      	mov	r2, r3
    2bc4:	f000 f9a8 	bl	2f18 <LPSPI_CombineWriteData>
    2bc8:	60f8      	str	r0, [r7, #12]
    2bca:	683b      	ldr	r3, [r7, #0]
    2bcc:	78db      	ldrb	r3, [r3, #3]
    2bce:	b2da      	uxtb	r2, r3
    2bd0:	683b      	ldr	r3, [r7, #0]
    2bd2:	689b      	ldr	r3, [r3, #8]
    2bd4:	441a      	add	r2, r3
    2bd6:	683b      	ldr	r3, [r7, #0]
    2bd8:	609a      	str	r2, [r3, #8]
    2bda:	683b      	ldr	r3, [r7, #0]
    2bdc:	78db      	ldrb	r3, [r3, #3]
    2bde:	b2da      	uxtb	r2, r3
    2be0:	683b      	ldr	r3, [r7, #0]
    2be2:	691b      	ldr	r3, [r3, #16]
    2be4:	1a9a      	subs	r2, r3, r2
    2be6:	683b      	ldr	r3, [r7, #0]
    2be8:	611a      	str	r2, [r3, #16]
    2bea:	68f9      	ldr	r1, [r7, #12]
    2bec:	6878      	ldr	r0, [r7, #4]
    2bee:	f003 fbf6 	bl	63de <LPSPI_WriteData>
    2bf2:	683b      	ldr	r3, [r7, #0]
    2bf4:	691b      	ldr	r3, [r3, #16]
    2bf6:	2b00      	cmp	r3, #0
    2bf8:	d009      	beq.n	2c0e <LPSPI_SlaveTransferFillUpTxFifo+0x92>
    2bfa:	6878      	ldr	r0, [r7, #4]
    2bfc:	f003 fb4a 	bl	6294 <LPSPI_GetTxFifoCount>
    2c00:	4602      	mov	r2, r0
    2c02:	683b      	ldr	r3, [r7, #0]
    2c04:	785b      	ldrb	r3, [r3, #1]
    2c06:	b2db      	uxtb	r3, r3
    2c08:	429a      	cmp	r2, r3
    2c0a:	d3c5      	bcc.n	2b98 <LPSPI_SlaveTransferFillUpTxFifo+0x1c>
    2c0c:	e000      	b.n	2c10 <LPSPI_SlaveTransferFillUpTxFifo+0x94>
    2c0e:	bf00      	nop
    2c10:	bf00      	nop
    2c12:	3710      	adds	r7, #16
    2c14:	46bd      	mov	sp, r7
    2c16:	bd80      	pop	{r7, pc}
    2c18:	00008ce4 	.word	0x00008ce4

00002c1c <LPSPI_SlaveTransferComplete>:
    2c1c:	b590      	push	{r4, r7, lr}
    2c1e:	b085      	sub	sp, #20
    2c20:	af00      	add	r7, sp, #0
    2c22:	6078      	str	r0, [r7, #4]
    2c24:	6039      	str	r1, [r7, #0]
    2c26:	683b      	ldr	r3, [r7, #0]
    2c28:	2b00      	cmp	r3, #0
    2c2a:	d102      	bne.n	2c32 <LPSPI_SlaveTransferComplete+0x16>
    2c2c:	4814      	ldr	r0, [pc, #80]	; (2c80 <LPSPI_SlaveTransferComplete+0x64>)
    2c2e:	f002 fb4f 	bl	52d0 <__assertion_failed>
    2c32:	2300      	movs	r3, #0
    2c34:	60fb      	str	r3, [r7, #12]
    2c36:	f643 7103 	movw	r1, #16131	; 0x3f03
    2c3a:	6878      	ldr	r0, [r7, #4]
    2c3c:	f003 fb66 	bl	630c <LPSPI_DisableInterrupts>
    2c40:	683b      	ldr	r3, [r7, #0]
    2c42:	f893 3024 	ldrb.w	r3, [r3, #36]	; 0x24
    2c46:	b2db      	uxtb	r3, r3
    2c48:	2b02      	cmp	r3, #2
    2c4a:	d103      	bne.n	2c54 <LPSPI_SlaveTransferComplete+0x38>
    2c4c:	f240 1391 	movw	r3, #401	; 0x191
    2c50:	60fb      	str	r3, [r7, #12]
    2c52:	e001      	b.n	2c58 <LPSPI_SlaveTransferComplete+0x3c>
    2c54:	2300      	movs	r3, #0
    2c56:	60fb      	str	r3, [r7, #12]
    2c58:	683b      	ldr	r3, [r7, #0]
    2c5a:	2200      	movs	r2, #0
    2c5c:	f883 2024 	strb.w	r2, [r3, #36]	; 0x24
    2c60:	683b      	ldr	r3, [r7, #0]
    2c62:	6adb      	ldr	r3, [r3, #44]	; 0x2c
    2c64:	2b00      	cmp	r3, #0
    2c66:	d007      	beq.n	2c78 <LPSPI_SlaveTransferComplete+0x5c>
    2c68:	683b      	ldr	r3, [r7, #0]
    2c6a:	6adc      	ldr	r4, [r3, #44]	; 0x2c
    2c6c:	683b      	ldr	r3, [r7, #0]
    2c6e:	6b1b      	ldr	r3, [r3, #48]	; 0x30
    2c70:	68fa      	ldr	r2, [r7, #12]
    2c72:	6839      	ldr	r1, [r7, #0]
    2c74:	6878      	ldr	r0, [r7, #4]
    2c76:	47a0      	blx	r4
    2c78:	bf00      	nop
    2c7a:	3714      	adds	r7, #20
    2c7c:	46bd      	mov	sp, r7
    2c7e:	bd90      	pop	{r4, r7, pc}
    2c80:	00008d0c 	.word	0x00008d0c

00002c84 <LPSPI_SlaveTransferAbort>:
    2c84:	b580      	push	{r7, lr}
    2c86:	b082      	sub	sp, #8
    2c88:	af00      	add	r7, sp, #0
    2c8a:	6078      	str	r0, [r7, #4]
    2c8c:	6039      	str	r1, [r7, #0]
    2c8e:	683b      	ldr	r3, [r7, #0]
    2c90:	2b00      	cmp	r3, #0
    2c92:	d102      	bne.n	2c9a <LPSPI_SlaveTransferAbort+0x16>
    2c94:	480b      	ldr	r0, [pc, #44]	; (2cc4 <LPSPI_SlaveTransferAbort+0x40>)
    2c96:	f002 fb1b 	bl	52d0 <__assertion_failed>
    2c9a:	2103      	movs	r1, #3
    2c9c:	6878      	ldr	r0, [r7, #4]
    2c9e:	f003 fb35 	bl	630c <LPSPI_DisableInterrupts>
    2ca2:	6878      	ldr	r0, [r7, #4]
    2ca4:	f003 fbb5 	bl	6412 <LPSPI_Reset>
    2ca8:	683b      	ldr	r3, [r7, #0]
    2caa:	2200      	movs	r2, #0
    2cac:	f883 2024 	strb.w	r2, [r3, #36]	; 0x24
    2cb0:	683b      	ldr	r3, [r7, #0]
    2cb2:	2200      	movs	r2, #0
    2cb4:	611a      	str	r2, [r3, #16]
    2cb6:	683b      	ldr	r3, [r7, #0]
    2cb8:	2200      	movs	r2, #0
    2cba:	615a      	str	r2, [r3, #20]
    2cbc:	bf00      	nop
    2cbe:	3708      	adds	r7, #8
    2cc0:	46bd      	mov	sp, r7
    2cc2:	bd80      	pop	{r7, pc}
    2cc4:	00008d5c 	.word	0x00008d5c

00002cc8 <LPSPI_SlaveTransferHandleIRQ>:
    2cc8:	b580      	push	{r7, lr}
    2cca:	b084      	sub	sp, #16
    2ccc:	af00      	add	r7, sp, #0
    2cce:	6078      	str	r0, [r7, #4]
    2cd0:	6039      	str	r1, [r7, #0]
    2cd2:	683b      	ldr	r3, [r7, #0]
    2cd4:	2b00      	cmp	r3, #0
    2cd6:	d102      	bne.n	2cde <LPSPI_SlaveTransferHandleIRQ+0x16>
    2cd8:	488e      	ldr	r0, [pc, #568]	; (2f14 <LPSPI_SlaveTransferHandleIRQ+0x24c>)
    2cda:	f002 faf9 	bl	52d0 <__assertion_failed>
    2cde:	683b      	ldr	r3, [r7, #0]
    2ce0:	68db      	ldr	r3, [r3, #12]
    2ce2:	2b00      	cmp	r3, #0
    2ce4:	f000 8092 	beq.w	2e0c <LPSPI_SlaveTransferHandleIRQ+0x144>
    2ce8:	683b      	ldr	r3, [r7, #0]
    2cea:	695b      	ldr	r3, [r3, #20]
    2cec:	2b00      	cmp	r3, #0
    2cee:	d072      	beq.n	2dd6 <LPSPI_SlaveTransferHandleIRQ+0x10e>
    2cf0:	e069      	b.n	2dc6 <LPSPI_SlaveTransferHandleIRQ+0xfe>
    2cf2:	6878      	ldr	r0, [r7, #4]
    2cf4:	f003 fb81 	bl	63fa <LPSPI_ReadData>
    2cf8:	60f8      	str	r0, [r7, #12]
    2cfa:	683b      	ldr	r3, [r7, #0]
    2cfc:	69db      	ldr	r3, [r3, #28]
    2cfe:	1e5a      	subs	r2, r3, #1
    2d00:	683b      	ldr	r3, [r7, #0]
    2d02:	61da      	str	r2, [r3, #28]
    2d04:	683b      	ldr	r3, [r7, #0]
    2d06:	695b      	ldr	r3, [r3, #20]
    2d08:	683a      	ldr	r2, [r7, #0]
    2d0a:	7912      	ldrb	r2, [r2, #4]
    2d0c:	b2d2      	uxtb	r2, r2
    2d0e:	4293      	cmp	r3, r2
    2d10:	d204      	bcs.n	2d1c <LPSPI_SlaveTransferHandleIRQ+0x54>
    2d12:	683b      	ldr	r3, [r7, #0]
    2d14:	695b      	ldr	r3, [r3, #20]
    2d16:	b2da      	uxtb	r2, r3
    2d18:	683b      	ldr	r3, [r7, #0]
    2d1a:	711a      	strb	r2, [r3, #4]
    2d1c:	683b      	ldr	r3, [r7, #0]
    2d1e:	68d8      	ldr	r0, [r3, #12]
    2d20:	683b      	ldr	r3, [r7, #0]
    2d22:	791b      	ldrb	r3, [r3, #4]
    2d24:	b2db      	uxtb	r3, r3
    2d26:	461a      	mov	r2, r3
    2d28:	683b      	ldr	r3, [r7, #0]
    2d2a:	781b      	ldrb	r3, [r3, #0]
    2d2c:	b2db      	uxtb	r3, r3
    2d2e:	68f9      	ldr	r1, [r7, #12]
    2d30:	f000 f9d0 	bl	30d4 <LPSPI_SeparateReadData>
    2d34:	683b      	ldr	r3, [r7, #0]
    2d36:	791b      	ldrb	r3, [r3, #4]
    2d38:	b2da      	uxtb	r2, r3
    2d3a:	683b      	ldr	r3, [r7, #0]
    2d3c:	68db      	ldr	r3, [r3, #12]
    2d3e:	441a      	add	r2, r3
    2d40:	683b      	ldr	r3, [r7, #0]
    2d42:	60da      	str	r2, [r3, #12]
    2d44:	683b      	ldr	r3, [r7, #0]
    2d46:	791b      	ldrb	r3, [r3, #4]
    2d48:	b2da      	uxtb	r2, r3
    2d4a:	683b      	ldr	r3, [r7, #0]
    2d4c:	695b      	ldr	r3, [r3, #20]
    2d4e:	1a9a      	subs	r2, r3, r2
    2d50:	683b      	ldr	r3, [r7, #0]
    2d52:	615a      	str	r2, [r3, #20]
    2d54:	683b      	ldr	r3, [r7, #0]
    2d56:	691b      	ldr	r3, [r3, #16]
    2d58:	2b00      	cmp	r3, #0
    2d5a:	d030      	beq.n	2dbe <LPSPI_SlaveTransferHandleIRQ+0xf6>
    2d5c:	683b      	ldr	r3, [r7, #0]
    2d5e:	689b      	ldr	r3, [r3, #8]
    2d60:	2b00      	cmp	r3, #0
    2d62:	d02c      	beq.n	2dbe <LPSPI_SlaveTransferHandleIRQ+0xf6>
    2d64:	683b      	ldr	r3, [r7, #0]
    2d66:	691b      	ldr	r3, [r3, #16]
    2d68:	683a      	ldr	r2, [r7, #0]
    2d6a:	78d2      	ldrb	r2, [r2, #3]
    2d6c:	b2d2      	uxtb	r2, r2
    2d6e:	4293      	cmp	r3, r2
    2d70:	d204      	bcs.n	2d7c <LPSPI_SlaveTransferHandleIRQ+0xb4>
    2d72:	683b      	ldr	r3, [r7, #0]
    2d74:	691b      	ldr	r3, [r3, #16]
    2d76:	b2da      	uxtb	r2, r3
    2d78:	683b      	ldr	r3, [r7, #0]
    2d7a:	70da      	strb	r2, [r3, #3]
    2d7c:	683b      	ldr	r3, [r7, #0]
    2d7e:	6898      	ldr	r0, [r3, #8]
    2d80:	683b      	ldr	r3, [r7, #0]
    2d82:	78db      	ldrb	r3, [r3, #3]
    2d84:	b2db      	uxtb	r3, r3
    2d86:	4619      	mov	r1, r3
    2d88:	683b      	ldr	r3, [r7, #0]
    2d8a:	781b      	ldrb	r3, [r3, #0]
    2d8c:	b2db      	uxtb	r3, r3
    2d8e:	461a      	mov	r2, r3
    2d90:	f000 f8c2 	bl	2f18 <LPSPI_CombineWriteData>
    2d94:	60b8      	str	r0, [r7, #8]
    2d96:	683b      	ldr	r3, [r7, #0]
    2d98:	78db      	ldrb	r3, [r3, #3]
    2d9a:	b2da      	uxtb	r2, r3
    2d9c:	683b      	ldr	r3, [r7, #0]
    2d9e:	689b      	ldr	r3, [r3, #8]
    2da0:	441a      	add	r2, r3
    2da2:	683b      	ldr	r3, [r7, #0]
    2da4:	609a      	str	r2, [r3, #8]
    2da6:	683b      	ldr	r3, [r7, #0]
    2da8:	78db      	ldrb	r3, [r3, #3]
    2daa:	b2da      	uxtb	r2, r3
    2dac:	683b      	ldr	r3, [r7, #0]
    2dae:	691b      	ldr	r3, [r3, #16]
    2db0:	1a9a      	subs	r2, r3, r2
    2db2:	683b      	ldr	r3, [r7, #0]
    2db4:	611a      	str	r2, [r3, #16]
    2db6:	68b9      	ldr	r1, [r7, #8]
    2db8:	6878      	ldr	r0, [r7, #4]
    2dba:	f003 fb10 	bl	63de <LPSPI_WriteData>
    2dbe:	683b      	ldr	r3, [r7, #0]
    2dc0:	695b      	ldr	r3, [r3, #20]
    2dc2:	2b00      	cmp	r3, #0
    2dc4:	d006      	beq.n	2dd4 <LPSPI_SlaveTransferHandleIRQ+0x10c>
    2dc6:	6878      	ldr	r0, [r7, #4]
    2dc8:	f003 fa72 	bl	62b0 <LPSPI_GetRxFifoCount>
    2dcc:	4603      	mov	r3, r0
    2dce:	2b00      	cmp	r3, #0
    2dd0:	d18f      	bne.n	2cf2 <LPSPI_SlaveTransferHandleIRQ+0x2a>
    2dd2:	e000      	b.n	2dd6 <LPSPI_SlaveTransferHandleIRQ+0x10e>
    2dd4:	bf00      	nop
    2dd6:	683b      	ldr	r3, [r7, #0]
    2dd8:	69db      	ldr	r3, [r3, #28]
    2dda:	683a      	ldr	r2, [r7, #0]
    2ddc:	7892      	ldrb	r2, [r2, #2]
    2dde:	b2d2      	uxtb	r2, r2
    2de0:	4293      	cmp	r3, r2
    2de2:	d821      	bhi.n	2e28 <LPSPI_SlaveTransferHandleIRQ+0x160>
    2de4:	687b      	ldr	r3, [r7, #4]
    2de6:	6d9b      	ldr	r3, [r3, #88]	; 0x58
    2de8:	f423 2270 	bic.w	r2, r3, #983040	; 0xf0000
    2dec:	683b      	ldr	r3, [r7, #0]
    2dee:	69db      	ldr	r3, [r3, #28]
    2df0:	2b01      	cmp	r3, #1
    2df2:	d906      	bls.n	2e02 <LPSPI_SlaveTransferHandleIRQ+0x13a>
    2df4:	683b      	ldr	r3, [r7, #0]
    2df6:	69db      	ldr	r3, [r3, #28]
    2df8:	3b01      	subs	r3, #1
    2dfa:	041b      	lsls	r3, r3, #16
    2dfc:	f403 2370 	and.w	r3, r3, #983040	; 0xf0000
    2e00:	e000      	b.n	2e04 <LPSPI_SlaveTransferHandleIRQ+0x13c>
    2e02:	2300      	movs	r3, #0
    2e04:	431a      	orrs	r2, r3
    2e06:	687b      	ldr	r3, [r7, #4]
    2e08:	659a      	str	r2, [r3, #88]	; 0x58
    2e0a:	e00d      	b.n	2e28 <LPSPI_SlaveTransferHandleIRQ+0x160>
    2e0c:	683b      	ldr	r3, [r7, #0]
    2e0e:	691b      	ldr	r3, [r3, #16]
    2e10:	2b00      	cmp	r3, #0
    2e12:	d008      	beq.n	2e26 <LPSPI_SlaveTransferHandleIRQ+0x15e>
    2e14:	683b      	ldr	r3, [r7, #0]
    2e16:	689b      	ldr	r3, [r3, #8]
    2e18:	2b00      	cmp	r3, #0
    2e1a:	d004      	beq.n	2e26 <LPSPI_SlaveTransferHandleIRQ+0x15e>
    2e1c:	6839      	ldr	r1, [r7, #0]
    2e1e:	6878      	ldr	r0, [r7, #4]
    2e20:	f7ff feac 	bl	2b7c <LPSPI_SlaveTransferFillUpTxFifo>
    2e24:	e000      	b.n	2e28 <LPSPI_SlaveTransferHandleIRQ+0x160>
    2e26:	bf00      	nop
    2e28:	683b      	ldr	r3, [r7, #0]
    2e2a:	691b      	ldr	r3, [r3, #16]
    2e2c:	2b00      	cmp	r3, #0
    2e2e:	d12d      	bne.n	2e8c <LPSPI_SlaveTransferHandleIRQ+0x1c4>
    2e30:	683b      	ldr	r3, [r7, #0]
    2e32:	695b      	ldr	r3, [r3, #20]
    2e34:	2b00      	cmp	r3, #0
    2e36:	d129      	bne.n	2e8c <LPSPI_SlaveTransferHandleIRQ+0x1c4>
    2e38:	683b      	ldr	r3, [r7, #0]
    2e3a:	68db      	ldr	r3, [r3, #12]
    2e3c:	2b00      	cmp	r3, #0
    2e3e:	d121      	bne.n	2e84 <LPSPI_SlaveTransferHandleIRQ+0x1bc>
    2e40:	6878      	ldr	r0, [r7, #4]
    2e42:	f003 fa0a 	bl	625a <LPSPI_GetStatusFlags>
    2e46:	4603      	mov	r3, r0
    2e48:	f403 7300 	and.w	r3, r3, #512	; 0x200
    2e4c:	2b00      	cmp	r3, #0
    2e4e:	d00a      	beq.n	2e66 <LPSPI_SlaveTransferHandleIRQ+0x19e>
    2e50:	6878      	ldr	r0, [r7, #4]
    2e52:	f003 fa1f 	bl	6294 <LPSPI_GetTxFifoCount>
    2e56:	4603      	mov	r3, r0
    2e58:	2b00      	cmp	r3, #0
    2e5a:	d104      	bne.n	2e66 <LPSPI_SlaveTransferHandleIRQ+0x19e>
    2e5c:	6839      	ldr	r1, [r7, #0]
    2e5e:	6878      	ldr	r0, [r7, #4]
    2e60:	f7ff fedc 	bl	2c1c <LPSPI_SlaveTransferComplete>
    2e64:	e012      	b.n	2e8c <LPSPI_SlaveTransferHandleIRQ+0x1c4>
    2e66:	f44f 7100 	mov.w	r1, #512	; 0x200
    2e6a:	6878      	ldr	r0, [r7, #4]
    2e6c:	f003 fa2f 	bl	62ce <LPSPI_ClearStatusFlags>
    2e70:	f44f 7100 	mov.w	r1, #512	; 0x200
    2e74:	6878      	ldr	r0, [r7, #4]
    2e76:	f003 fa38 	bl	62ea <LPSPI_EnableInterrupts>
    2e7a:	2103      	movs	r1, #3
    2e7c:	6878      	ldr	r0, [r7, #4]
    2e7e:	f003 fa45 	bl	630c <LPSPI_DisableInterrupts>
    2e82:	e003      	b.n	2e8c <LPSPI_SlaveTransferHandleIRQ+0x1c4>
    2e84:	6839      	ldr	r1, [r7, #0]
    2e86:	6878      	ldr	r0, [r7, #4]
    2e88:	f7ff fec8 	bl	2c1c <LPSPI_SlaveTransferComplete>
    2e8c:	6878      	ldr	r0, [r7, #4]
    2e8e:	f003 f9e4 	bl	625a <LPSPI_GetStatusFlags>
    2e92:	4603      	mov	r3, r0
    2e94:	f403 6300 	and.w	r3, r3, #2048	; 0x800
    2e98:	2b00      	cmp	r3, #0
    2e9a:	d017      	beq.n	2ecc <LPSPI_SlaveTransferHandleIRQ+0x204>
    2e9c:	687b      	ldr	r3, [r7, #4]
    2e9e:	699b      	ldr	r3, [r3, #24]
    2ea0:	f403 6300 	and.w	r3, r3, #2048	; 0x800
    2ea4:	2b00      	cmp	r3, #0
    2ea6:	d011      	beq.n	2ecc <LPSPI_SlaveTransferHandleIRQ+0x204>
    2ea8:	f44f 6100 	mov.w	r1, #2048	; 0x800
    2eac:	6878      	ldr	r0, [r7, #4]
    2eae:	f003 fa0e 	bl	62ce <LPSPI_ClearStatusFlags>
    2eb2:	683b      	ldr	r3, [r7, #0]
    2eb4:	689b      	ldr	r3, [r3, #8]
    2eb6:	2b00      	cmp	r3, #0
    2eb8:	d003      	beq.n	2ec2 <LPSPI_SlaveTransferHandleIRQ+0x1fa>
    2eba:	683b      	ldr	r3, [r7, #0]
    2ebc:	2202      	movs	r2, #2
    2ebe:	f883 2024 	strb.w	r2, [r3, #36]	; 0x24
    2ec2:	683b      	ldr	r3, [r7, #0]
    2ec4:	6a9b      	ldr	r3, [r3, #40]	; 0x28
    2ec6:	1c5a      	adds	r2, r3, #1
    2ec8:	683b      	ldr	r3, [r7, #0]
    2eca:	629a      	str	r2, [r3, #40]	; 0x28
    2ecc:	6878      	ldr	r0, [r7, #4]
    2ece:	f003 f9c4 	bl	625a <LPSPI_GetStatusFlags>
    2ed2:	4603      	mov	r3, r0
    2ed4:	f403 5380 	and.w	r3, r3, #4096	; 0x1000
    2ed8:	2b00      	cmp	r3, #0
    2eda:	d017      	beq.n	2f0c <LPSPI_SlaveTransferHandleIRQ+0x244>
    2edc:	687b      	ldr	r3, [r7, #4]
    2ede:	699b      	ldr	r3, [r3, #24]
    2ee0:	f403 5380 	and.w	r3, r3, #4096	; 0x1000
    2ee4:	2b00      	cmp	r3, #0
    2ee6:	d011      	beq.n	2f0c <LPSPI_SlaveTransferHandleIRQ+0x244>
    2ee8:	f44f 5180 	mov.w	r1, #4096	; 0x1000
    2eec:	6878      	ldr	r0, [r7, #4]
    2eee:	f003 f9ee 	bl	62ce <LPSPI_ClearStatusFlags>
    2ef2:	683b      	ldr	r3, [r7, #0]
    2ef4:	689b      	ldr	r3, [r3, #8]
    2ef6:	2b00      	cmp	r3, #0
    2ef8:	d003      	beq.n	2f02 <LPSPI_SlaveTransferHandleIRQ+0x23a>
    2efa:	683b      	ldr	r3, [r7, #0]
    2efc:	2202      	movs	r2, #2
    2efe:	f883 2024 	strb.w	r2, [r3, #36]	; 0x24
    2f02:	683b      	ldr	r3, [r7, #0]
    2f04:	6a9b      	ldr	r3, [r3, #40]	; 0x28
    2f06:	1c5a      	adds	r2, r3, #1
    2f08:	683b      	ldr	r3, [r7, #0]
    2f0a:	629a      	str	r2, [r3, #40]	; 0x28
    2f0c:	bf00      	nop
    2f0e:	3710      	adds	r7, #16
    2f10:	46bd      	mov	sp, r7
    2f12:	bd80      	pop	{r7, pc}
    2f14:	00008d84 	.word	0x00008d84

00002f18 <LPSPI_CombineWriteData>:
    2f18:	b580      	push	{r7, lr}
    2f1a:	b086      	sub	sp, #24
    2f1c:	af00      	add	r7, sp, #0
    2f1e:	60f8      	str	r0, [r7, #12]
    2f20:	60b9      	str	r1, [r7, #8]
    2f22:	4613      	mov	r3, r2
    2f24:	71fb      	strb	r3, [r7, #7]
    2f26:	68fb      	ldr	r3, [r7, #12]
    2f28:	2b00      	cmp	r3, #0
    2f2a:	d102      	bne.n	2f32 <LPSPI_CombineWriteData+0x1a>
    2f2c:	4867      	ldr	r0, [pc, #412]	; (30cc <LPSPI_CombineWriteData+0x1b4>)
    2f2e:	f002 f9cf 	bl	52d0 <__assertion_failed>
    2f32:	2300      	movs	r3, #0
    2f34:	617b      	str	r3, [r7, #20]
    2f36:	68bb      	ldr	r3, [r7, #8]
    2f38:	3b01      	subs	r3, #1
    2f3a:	2b03      	cmp	r3, #3
    2f3c:	f200 80be 	bhi.w	30bc <LPSPI_CombineWriteData+0x1a4>
    2f40:	a201      	add	r2, pc, #4	; (adr r2, 2f48 <LPSPI_CombineWriteData+0x30>)
    2f42:	f852 f023 	ldr.w	pc, [r2, r3, lsl #2]
    2f46:	bf00      	nop
    2f48:	00002f59 	.word	0x00002f59
    2f4c:	00002f67 	.word	0x00002f67
    2f50:	00002fb5 	.word	0x00002fb5
    2f54:	00003027 	.word	0x00003027
    2f58:	68fb      	ldr	r3, [r7, #12]
    2f5a:	781b      	ldrb	r3, [r3, #0]
    2f5c:	617b      	str	r3, [r7, #20]
    2f5e:	68fb      	ldr	r3, [r7, #12]
    2f60:	3301      	adds	r3, #1
    2f62:	60fb      	str	r3, [r7, #12]
    2f64:	e0ad      	b.n	30c2 <LPSPI_CombineWriteData+0x1aa>
    2f66:	79fb      	ldrb	r3, [r7, #7]
    2f68:	f083 0301 	eor.w	r3, r3, #1
    2f6c:	b2db      	uxtb	r3, r3
    2f6e:	2b00      	cmp	r3, #0
    2f70:	d00f      	beq.n	2f92 <LPSPI_CombineWriteData+0x7a>
    2f72:	68fb      	ldr	r3, [r7, #12]
    2f74:	781b      	ldrb	r3, [r3, #0]
    2f76:	617b      	str	r3, [r7, #20]
    2f78:	68fb      	ldr	r3, [r7, #12]
    2f7a:	3301      	adds	r3, #1
    2f7c:	60fb      	str	r3, [r7, #12]
    2f7e:	68fb      	ldr	r3, [r7, #12]
    2f80:	781b      	ldrb	r3, [r3, #0]
    2f82:	021b      	lsls	r3, r3, #8
    2f84:	697a      	ldr	r2, [r7, #20]
    2f86:	4313      	orrs	r3, r2
    2f88:	617b      	str	r3, [r7, #20]
    2f8a:	68fb      	ldr	r3, [r7, #12]
    2f8c:	3301      	adds	r3, #1
    2f8e:	60fb      	str	r3, [r7, #12]
    2f90:	e097      	b.n	30c2 <LPSPI_CombineWriteData+0x1aa>
    2f92:	68fb      	ldr	r3, [r7, #12]
    2f94:	781b      	ldrb	r3, [r3, #0]
    2f96:	021b      	lsls	r3, r3, #8
    2f98:	617b      	str	r3, [r7, #20]
    2f9a:	68fb      	ldr	r3, [r7, #12]
    2f9c:	3301      	adds	r3, #1
    2f9e:	60fb      	str	r3, [r7, #12]
    2fa0:	68fb      	ldr	r3, [r7, #12]
    2fa2:	781b      	ldrb	r3, [r3, #0]
    2fa4:	461a      	mov	r2, r3
    2fa6:	697b      	ldr	r3, [r7, #20]
    2fa8:	4313      	orrs	r3, r2
    2faa:	617b      	str	r3, [r7, #20]
    2fac:	68fb      	ldr	r3, [r7, #12]
    2fae:	3301      	adds	r3, #1
    2fb0:	60fb      	str	r3, [r7, #12]
    2fb2:	e086      	b.n	30c2 <LPSPI_CombineWriteData+0x1aa>
    2fb4:	79fb      	ldrb	r3, [r7, #7]
    2fb6:	f083 0301 	eor.w	r3, r3, #1
    2fba:	b2db      	uxtb	r3, r3
    2fbc:	2b00      	cmp	r3, #0
    2fbe:	d018      	beq.n	2ff2 <LPSPI_CombineWriteData+0xda>
    2fc0:	68fb      	ldr	r3, [r7, #12]
    2fc2:	781b      	ldrb	r3, [r3, #0]
    2fc4:	617b      	str	r3, [r7, #20]
    2fc6:	68fb      	ldr	r3, [r7, #12]
    2fc8:	3301      	adds	r3, #1
    2fca:	60fb      	str	r3, [r7, #12]
    2fcc:	68fb      	ldr	r3, [r7, #12]
