
evkmimxrt1060_cmsis_lpspi_ethernet_library.axf:     file format elf32-littlearm
evkmimxrt1060_cmsis_lpspi_ethernet_library.axf
architecture: armv7e-m, flags 0x00000112:
EXEC_P, HAS_SYMS, D_PAGED
start address 0x60001000

Program Header:
    LOAD off    0x00010018 vaddr 0x20000018 paddr 0x20000018 align 2**16
         filesz 0x00000000 memsz 0x000021f4 flags rw-
    LOAD off    0x00010000 vaddr 0x60000000 paddr 0x60000000 align 2**16
         filesz 0x00002060 memsz 0x00002060 flags rwx
    LOAD off    0x00020000 vaddr 0x00000000 paddr 0x60002060 align 2**16
         filesz 0x0000a1c4 memsz 0x0000a1c4 flags r-x
    LOAD off    0x00030000 vaddr 0x20000000 paddr 0x6000c224 align 2**16
         filesz 0x00000018 memsz 0x00000018 flags rw-
private flags = 5000400: [Version5 EABI] [hard-float ABI]

Sections:
Idx Name          Size      VMA       LMA       File off  Algn
  0 .boot_hdr     00002000  60000000  60000000  00010000  2**2
                  CONTENTS, ALLOC, LOAD, DATA
  1 .teensy_boot  00000060  60002000  60002000  00012000  2**3
                  CONTENTS, ALLOC, LOAD, READONLY, CODE
  2 .text         0000a1c4  00000000  60002060  00020000  2**3
                  CONTENTS, ALLOC, LOAD, READONLY, CODE
  3 .data_RAM     00000000  0000a1c4  0000a1c4  00030018  2**0
                  CONTENTS
  4 .data         00000018  20000000  6000c224  00030000  2**2
                  CONTENTS, ALLOC, LOAD, DATA
  5 .data_RAM3    00000000  20200000  20200000  00030018  2**2
                  CONTENTS
  6 .bss_RAM      00000000  0000a1c4  0000a1c4  00030018  2**0
                  CONTENTS
  7 .bss          000001f4  20000018  20000018  00010018  2**2
                  ALLOC
  8 .bss_RAM3     00000000  20200000  20200000  00030018  2**0
                  CONTENTS
  9 .uninit_RESERVED 00000000  20000000  20000000  00030018  2**0
                  CONTENTS
 10 .noinit_RAM   00000000  0000a1c4  0000a1c4  00030018  2**0
                  CONTENTS
 11 .noinit_RAM3  00000000  20200000  20200000  00030018  2**0
                  CONTENTS
 12 .noinit       00000000  2000020c  2000020c  00030018  2**0
                  CONTENTS
 13 .heap         00001000  2000020c  2000020c  00010018  2**2
                  ALLOC
 14 .stack        00001000  2000120c  2000120c  00010018  2**2
                  ALLOC
 15 .debug_info   000153d4  00000000  00000000  00030018  2**0
                  CONTENTS, READONLY, DEBUGGING
 16 .debug_abbrev 00002aca  00000000  00000000  000453ec  2**0
                  CONTENTS, READONLY, DEBUGGING
 17 .debug_aranges 00001110  00000000  00000000  00047eb6  2**0
                  CONTENTS, READONLY, DEBUGGING
 18 .debug_ranges 00000fe0  00000000  00000000  00048fc6  2**0
                  CONTENTS, READONLY, DEBUGGING
 19 .debug_macro  00003a0f  00000000  00000000  00049fa6  2**0
                  CONTENTS, READONLY, DEBUGGING
 20 .debug_line   0000a824  00000000  00000000  0004d9b5  2**0
                  CONTENTS, READONLY, DEBUGGING
 21 .debug_str    0016f42f  00000000  00000000  000581d9  2**0
                  CONTENTS, READONLY, DEBUGGING
 22 .comment      00000075  00000000  00000000  001c7608  2**0
                  CONTENTS, READONLY
 23 .ARM.attributes 00000035  00000000  00000000  001c767d  2**0
                  CONTENTS, READONLY
 24 .debug_frame  00003dd4  00000000  00000000  001c76b4  2**2
                  CONTENTS, READONLY, DEBUGGING
SYMBOL TABLE:
60000000 l    d  .boot_hdr	00000000 .boot_hdr
60002000 l    d  .teensy_boot	00000000 .teensy_boot
00000000 l    d  .text	00000000 .text
0000a1c4 l    d  .data_RAM	00000000 .data_RAM
20000000 l    d  .data	00000000 .data
20200000 l    d  .data_RAM3	00000000 .data_RAM3
0000a1c4 l    d  .bss_RAM	00000000 .bss_RAM
20000018 l    d  .bss	00000000 .bss
20200000 l    d  .bss_RAM3	00000000 .bss_RAM3
20000000 l    d  .uninit_RESERVED	00000000 .uninit_RESERVED
0000a1c4 l    d  .noinit_RAM	00000000 .noinit_RAM
20200000 l    d  .noinit_RAM3	00000000 .noinit_RAM3
2000020c l    d  .noinit	00000000 .noinit
2000020c l    d  .heap	00000000 .heap
2000120c l    d  .stack	00000000 .stack
00000000 l    d  .debug_info	00000000 .debug_info
00000000 l    d  .debug_abbrev	00000000 .debug_abbrev
00000000 l    d  .debug_aranges	00000000 .debug_aranges
00000000 l    d  .debug_ranges	00000000 .debug_ranges
00000000 l    d  .debug_macro	00000000 .debug_macro
00000000 l    d  .debug_line	00000000 .debug_line
00000000 l    d  .debug_str	00000000 .debug_str
00000000 l    d  .comment	00000000 .comment
00000000 l    d  .ARM.attributes	00000000 .ARM.attributes
00000000 l    d  .debug_frame	00000000 .debug_frame
00000000 l    df *ABS*	00000000 startup_mimxrt1062.c
6000203c l     F .teensy_boot	00000016 memory_copy
00000000 l    df *ABS*	00000000 fsl_lpspi.c
00001bb4 l     F .text	0000003c __NVIC_EnableIRQ
00001bf0 l     F .text	00000064 CLOCK_ControlGate
000061ba l     F .text	0000001e CLOCK_EnableClock
000061d8 l     F .text	0000001e CLOCK_DisableClock
000061f6 l     F .text	0000002c EnableIRQ
00006222 l     F .text	00000038 LPSPI_Enable
0000625a l     F .text	00000018 LPSPI_GetStatusFlags
00006272 l     F .text	00000022 LPSPI_GetRxFifoSize
00006294 l     F .text	0000001c LPSPI_GetTxFifoCount
000062b0 l     F .text	0000001e LPSPI_GetRxFifoCount
000062ce l     F .text	0000001c LPSPI_ClearStatusFlags
000062ea l     F .text	00000022 LPSPI_EnableInterrupts
0000630c l     F .text	00000024 LPSPI_DisableInterrupts
00006330 l     F .text	0000002c LPSPI_SetMasterSlaveMode
0000635c l     F .text	00000026 LPSPI_IsMaster
00006382 l     F .text	00000030 LPSPI_FlushFifo
000063b2 l     F .text	0000002c LPSPI_SetFifoWatermarks
000063de l     F .text	0000001c LPSPI_WriteData
000063fa l     F .text	00000018 LPSPI_ReadData
00008f04 l     O .text	00000008 s_baudratePrescaler
00008f0c l     O .text	00000014 s_lpspiBases
00008f20 l     O .text	0000000a s_lpspiIRQ
00008f2c l     O .text	0000000a s_lpspiClocks
200000c8 l     O .bss	00000014 s_lpspiHandle
200000dc l     O .bss	00000004 s_lpspiMasterIsr
200000e0 l     O .bss	00000004 s_lpspiSlaveIsr
00006444 l     F .text	00000044 LPSPI_SetOnePcsPolarity
00002f18 l     F .text	000001bc LPSPI_CombineWriteData
000030d4 l     F .text	000001a8 LPSPI_SeparateReadData
00002508 l     F .text	00000110 LPSPI_MasterTransferFillUpTxFifo
00002618 l     F .text	0000004c LPSPI_MasterTransferComplete
00002b7c l     F .text	000000a0 LPSPI_SlaveTransferFillUpTxFifo
00002c1c l     F .text	00000068 LPSPI_SlaveTransferComplete
0000327c l     F .text	0000003c LPSPI_CommonIRQHandler
00000000 l    df *ABS*	00000000 fsl_debug_console.c
20000018 l     O .bss	0000001c s_debugConsoleState
00005708 l     F .text	00000064 DbgConsole_PrintCallback
00000000 l    df *ABS*	00000000 cmsis_lpspi_int_b2b_transfer_master.c
00000000 l    df *ABS*	00000000 ethernet_lib.c
00000000 l    df *ABS*	00000000 fsl_clock.c
00000cb8 l     F .text	00000030 CLOCK_GetOscFreq
000060d8 l     F .text	00000032 CLOCK_IsPllBypassed
0000610a l     F .text	0000003c CLOCK_IsPllEnabled
00006146 l     F .text	00000034 CLOCK_GetPllBypassRefClk
00000000 l    df *ABS*	00000000 fsl_edma.c
20000048 l     O .bss	00000080 s_EDMAHandle
00000000 l    df *ABS*	00000000 fsl_gpio.c
00001910 l     F .text	00000064 CLOCK_ControlGate
0000617a l     F .text	0000001e CLOCK_EnableClock
00006198 l     F .text	00000022 GPIO_SetPinInterruptConfig
0000893c l     O .text	00000028 s_gpioBases
00008964 l     O .text	0000000c s_gpioClock
00001974 l     F .text	0000004c GPIO_GetInstance
00000000 l    df *ABS*	00000000 fsl_lpspi_cmsis.c
00003378 l     F .text	00000064 CLOCK_ControlGate
00006488 l     F .text	0000001e CLOCK_EnableClock
000064a6 l     F .text	00000038 LPSPI_Enable
000064de l     F .text	0000002c LPSPI_SetMasterSlaveMode
0000650a l     F .text	00000026 LPSPI_IsMaster
00008f64 l     O .text	0000000a s_lpspiClock
00008f70 l     O .text	00000004 s_lpspiDriverVersion
00006530 l     F .text	000002ea LPSPI_CommonControl
0000681a l     F .text	000000a2 LPSPI_SetTransferConfigFlags
000033dc l     F .text	0000002c LPSPIx_GetVersion
000068bc l     F .text	00000014 LPSPIx_GetCapabilities
00006962 l     F .text	00000030 LPSPI_InterruptInitialize
00006992 l     F .text	0000001c LPSPI_InterruptUninitialize
00003408 l     F .text	00000098 LPSPI_InterruptPowerControl
000069ae l     F .text	000000c6 LPSPI_InterruptSend
00006a74 l     F .text	000000c6 LPSPI_InterruptReceive
00006b3a l     F .text	000000c8 LPSPI_InterruptTransfer
00006c02 l     F .text	00000040 LPSPI_InterruptGetCount
000034a0 l     F .text	00000264 LPSPI_InterruptControl
00003704 l     F .text	00000024 LPSPI4_InterruptInitialize
00003728 l     F .text	00000018 LPSPI4_InterruptUninitialize
00003740 l     F .text	00000024 LPSPI4_InterruptPowerControl
00003764 l     F .text	00000024 LPSPI4_InterruptSend
00003788 l     F .text	00000024 LPSPI4_InterruptReceive
000037ac l     F .text	00000028 LPSPI4_InterruptTransfer
000037d4 l     F .text	00000014 LPSPI4_InterruptGetCount
000037e8 l     F .text	00000024 LPSPI4_InterruptControl
0000380c l     F .text	00000014 LPSPI4_InterruptGetStatus
00000000 l    df *ABS*	00000000 fsl_lpuart.c
00003820 l     F .text	00000064 CLOCK_ControlGate
00006cf4 l     F .text	0000001e CLOCK_EnableClock
00006d12 l     F .text	0000002c LPUART_SoftwareReset
00009660 l     O .text	00000024 s_lpuartBases
20000120 l     O .bss	00000024 s_lpuartHandle
00009684 l     O .text	00000012 s_lpuartClock
20000144 l     O .bss	00000004 s_lpuartIsr
00000000 l    df *ABS*	00000000 system_MIMXRT1062.c
00003dd0 l     F .text	00000040 SCB_EnableICache
00003e10 l     F .text	00000080 SCB_EnableDCache
00000000 l    df *ABS*	00000000 lpuart_adapter.c
00009698 l     O .text	00000024 s_LpuartAdapterBase
00006d4c l     F .text	00000022 HAL_UartGetStatus
00000000 l    df *ABS*	00000000 serial_manager.c
00006d6e l     F .text	0000004a SerialManager_StartWriting
000040e8 l     F .text	0000006c SerialManager_Write
00000000 l    df *ABS*	00000000 serial_port_uart.c
00000000 l    df *ABS*	00000000 board.c
00004358 l     F .text	0000003c ARM_MPU_Enable
00004394 l     F .text	00000038 ARM_MPU_Disable
000043cc l     F .text	00000040 SCB_EnableICache
0000440c l     F .text	00000038 SCB_DisableICache
00004444 l     F .text	00000080 SCB_EnableDCache
000044c4 l     F .text	00000068 SCB_DisableDCache
0000452c l     F .text	00000044 CLOCK_GetMux
00004570 l     F .text	00000044 CLOCK_GetDiv
000045b4 l     F .text	00000030 CLOCK_GetOscFreq
00000000 l    df *ABS*	00000000 clock_config.c
00004748 l     F .text	0000009c CLOCK_SetMux
000047e4 l     F .text	0000009c CLOCK_SetDiv
00004880 l     F .text	00000064 CLOCK_ControlGate
00006dfa l     F .text	0000001e CLOCK_DisableClock
000048e4 l     F .text	00000020 CLOCK_SetXtalFreq
00004904 l     F .text	00000020 CLOCK_SetRtcXtalFreq
00006e18 l     F .text	0000004e CLOCK_SetPllBypass
00004924 l     F .text	00000048 IOMUXC_EnableMode
00006e66 l     F .text	0000006c IOMUXC_SetSaiMClkClockSource
0000496c l     F .text	00000044 IOMUXC_MQSConfig
00000000 l    df *ABS*	00000000 pin_mux.c
00005038 l     F .text	00000064 CLOCK_ControlGate
00006ed2 l     F .text	0000001e CLOCK_EnableClock
00006ef0 l     F .text	0000003a IOMUXC_SetPinMux
00006f2a l     F .text	00000026 IOMUXC_SetPinConfig
00000000 l    df *ABS*	00000000 _cr_assert.c
00000000 l    df *ABS*	00000000 _writebuf.c
00000000 l    df *ABS*	00000000 alloc.c
00000000 l    df *ABS*	00000000 fseek.c
00000000 l    df *ABS*	00000000 ftell.c
00000000 l    df *ABS*	00000000 initio.c
00000000 l    df *ABS*	00000000 setvbuf.c
00000000 l    df *ABS*	00000000 _cr_sbrk.c
00000000 l    df *ABS*	00000000 fflush.c
00000000 l    df *ABS*	00000000 _cr_check_heap.c
00000000 l    df *ABS*	00000000 fsl_str.c
0000576c l     F .text	00000114 ConvertRadixNumToString
00000000 l    df *ABS*	00000000 semihost_hardfault.c
0000608a l       .text	00000000 _MSP
0000608e l       .text	00000000 _process
0000609c l       .text	00000000 _semihost_return
00000000 l    df *ABS*	00000000 _cr__main.c
00000000 l    df *ABS*	00000000 __sys_appexit.c
00000000 l    df *ABS*	00000000 memset.c
00000000 l    df *ABS*	00000000 _deferredlazyseek.c
00000000 l    df *ABS*	00000000 _fflush.c
00000000 l    df *ABS*	00000000 fputs.c
00000000 l    df *ABS*	00000000 strlen.c
00000000 l    df *ABS*	00000000 _fdopen.c
00000000 l    df *ABS*	00000000 fclose.c
00000000 l    df *ABS*	00000000 remove.c
00000000 l    df *ABS*	00000000 _do_fflush.c
00000000 l    df *ABS*	00000000 division_64.o
0000735e l       .text	00000000 ldiv64
000073fc l       .text	00000000 ldiv_divzero
0000732e l       .text	00000000 ldiv32
00007408 l       .text	00000000 udiv6432
00007336 l       .text	00000000 ldiv_return
0000734c l       .text	00000000 ldiv_sign
000073e6 l       .text	00000000 ldiv_res01
00007424 l       .text	00000000 udiv6432_entry
00007410 l       .text	00000000 udiv6432_loop1
00007426 l       .text	00000000 udiv6432_loop
00000000 l    df *ABS*	00000000 division_idiv0.o
00000000 l    df *ABS*	00000000 memcpy.o
000074aa l       .text	00000000 memset1a
00007498 l       .text	00000000 __bhs_memset4
0000749a l       .text	00000000 memset4
000074a6 l       .text	00000000 memset1
00000000 l    df *ABS*	00000000 __sys_close.c
00000000 l    df *ABS*	00000000 __sys_flen.c
00000000 l    df *ABS*	00000000 __sys_istty.c
00000000 l    df *ABS*	00000000 __sys_remove.c
00000000 l    df *ABS*	00000000 __sys_seek.c
00000000 l    df *ABS*	00000000 __sys_tmpnam.c
00000000 l    df *ABS*	00000000 __sys_write.c
00000000 l    df *ABS*	00000000 __ciob.c
60002058 l     F .teensy_boot	00000008 __ResetISR_veneer
0000037a  w    F .text	00000002 ACMP4_DriverIRQHandler
00005d94  w    F .text	00000008 USB_PHY1_IRQHandler
00000380 g     F .text	0000020c LPSPI_MasterSetDelayTimes
0000037a  w    F .text	00000002 Reserved87_DriverIRQHandler
00003dac g     F .text	00000024 LPUART8_DriverIRQHandler
00001ca4 g     F .text	0000002c LPSPI_SetDummyData
60000000 g       *ABS*	00000000 __boot_hdr_start__
00005b9c  w    F .text	00000008 DMA2_DMA18_IRQHandler
0000037a  w    F .text	00000002 KPP_DriverIRQHandler
00006f6c g     F .text	0000000e __main
0000037a  w    F .text	00000002 FLEXSPI2_DriverIRQHandler
000032e8 g     F .text	00000030 LPSPI2_DriverIRQHandler
000038d0 g     F .text	000002fe LPUART_Init
00005d3c  w    F .text	00000008 SJC_IRQHandler
00005f3c  w    F .text	00000008 ADC_ETC_IRQ0_IRQHandler
00000000 g     O .text	000002b8 __Vectors
00006f80 g     F .text	00000040 _deferredlazyseek
0000037a  w    F .text	00000002 LCDIF_DriverIRQHandler
0000037a  w    F .text	00000002 SAI3_RX_DriverIRQHandler
0000037a  w    F .text	00000002 CCM_2_DriverIRQHandler
0000037a  w    F .text	00000002 PIT_DriverIRQHandler
000002b8 g       .text	00000000 __section_table_start
00006f7a  w    F .text	00000002 __exit
0000037a  w    F .text	00000002 PMU_EVENT_DriverIRQHandler
00005cec  w    F .text	00000008 PXP_IRQHandler
0000037a  w    F .text	00000002 PWM4_FAULT_DriverIRQHandler
00001838 g     F .text	00000048 DMA13_DMA29_DriverIRQHandler
0000a148 g     O .text	00000014 sysPllConfig_BOARD_BootClockRUN
000074d4 g     F .text	00000006 __sys_tmpnam
00001fd0 g     F .text	000000f0 LPSPI_MasterSetBaudRate
00006dd8 g     F .text	00000022 BOARD_InitDebugConsole
0000037a  w    F .text	00000002 FLEXRAM_DriverIRQHandler
0000607c g     F .text	0000002c HardFault_Handler
00005dbc  w    F .text	00000008 Reserved86_IRQHandler
00000000 g       *ABS*	00000000 __vectors_start__
00005e9c  w    F .text	00000008 SRC_IRQHandler
00003348 g     F .text	00000030 LPSPI4_DriverIRQHandler
00001000 g       *ABS*	00000000 _HeapSize
000060a8 g     F .text	00000030 _delay_ms
00001dec g     F .text	00000098 LPSPI_MasterGetDefaultConfig
0000037a  w    F .text	00000002 SEMC_DriverIRQHandler
00005ba4  w    F .text	00000008 DMA3_DMA19_IRQHandler
00005e1c  w    F .text	00000008 GPIO2_Combined_0_15_IRQHandler
0000037a  w    F .text	00000002 SPDIF_DriverIRQHandler
00005ddc  w    F .text	00000008 GPIO1_INT2_IRQHandler
00005ce4  w    F .text	00000008 CSI_IRQHandler
00000378  w    F .text	00000002 SysTick_Handler
0000037a  w    F .text	00000002 PWM4_3_DriverIRQHandler
0000037a  w    F .text	00000002 ENET2_DriverIRQHandler
601f0000 g       *ABS*	00000000 __top_Flash_00
00003c58 g     F .text	00000058 LPUART_WriteBlocking
20200000 g       *ABS*	00000000 __base_SRAM_OC
00005d0c  w    F .text	00000008 SNVS_LP_WRAPPER_IRQHandler
00005f9c  w    F .text	00000008 ENC2_IRQHandler
60002060 g       *ABS*	00000000 _itcm_loadstart
00005fe4  w    F .text	00000008 PWM2_2_IRQHandler
20000000 g       *ABS*	00000000 __base_RAM2
00000376  w    F .text	00000002 PendSV_Handler
00000370  w    F .text	00000002 NMI_Handler
0000a1c4 g       .text	00000000 __exidx_end
000002dc g       .text	00000000 __data_section_table_end
00000e14 g     F .text	0000009c CLOCK_InitSysPll
00000eb0 g     F .text	00000018 CLOCK_DeinitUsb2Pll
00006044  w    F .text	00000008 PWM4_FAULT_IRQHandler
00005bfc  w    F .text	00000008 DMA14_DMA30_IRQHandler
00005e04  w    F .text	00000008 GPIO1_INT7_IRQHandler
00006fc0 g     F .text	00000140 __flsbuf
0000037a  w    F .text	00000002 USB_PHY1_DriverIRQHandler
60001000 g     O .boot_hdr	00000020 ImageVectorTable
00005e84  w    F .text	00000008 CCM_1_IRQHandler
00005cac  w    F .text	00000008 CAN1_IRQHandler
0000037a  w    F .text	00000002 GPIO3_Combined_0_15_DriverIRQHandler
0000037a  w    F .text	00000002 CAN3_DriverIRQHandler
200000e4 g     O .bss	00000005 g_lpspiDummyData
00005f44  w    F .text	00000008 ADC_ETC_IRQ1_IRQHandler
0000037a  w    F .text	00000002 Reserved171_DriverIRQHandler
00005bac  w    F .text	00000008 DMA4_DMA20_IRQHandler
00005e64  w    F .text	00000008 FLEXIO2_IRQHandler
00005e5c  w    F .text	00000008 FLEXIO1_IRQHandler
00005c9c  w    F .text	00000008 LPSPI3_IRQHandler
20000204 g     O .bss	00000004 errno
00001688 g     F .text	00000048 DMA7_DMA23_DriverIRQHandler
0000a1c4 g       .text	00000000 _etext
00005c14  w    F .text	00000008 CTI0_ERROR_IRQHandler
0000037a  w    F .text	00000002 BEE_DriverIRQHandler
00005e4c  w    F .text	00000008 GPIO5_Combined_0_15_IRQHandler
00005ebc  w    F .text	00000008 PWM1_0_IRQHandler
00005d2c  w    F .text	00000008 Reserved68_IRQHandler
00000ce8 g     F .text	0000006c CLOCK_InitExternalClk
0000037a  w    F .text	00000002 LPI2C3_DriverIRQHandler
00001330 g     F .text	00000160 EDMA_HandleIRQ
0000037a  w    F .text	00000002 GPR_IRQ_DriverIRQHandler
00005c54  w    F .text	00000008 LPUART6_IRQHandler
00002cc8 g     F .text	00000250 LPSPI_SlaveTransferHandleIRQ
00005d9c  w    F .text	00000008 USB_PHY2_IRQHandler
00005bbc  w    F .text	00000008 DMA6_DMA22_IRQHandler
00004280 g     F .text	00000080 Serial_UartInit
200000ec g     O .bss	00000034 LPSPI4_Handle
00005ccc  w    F .text	00000008 TSC_DIG_IRQHandler
00005bd4  w    F .text	00000008 DMA9_DMA25_IRQHandler
00000d54 g     F .text	00000034 CLOCK_SwitchOsc
00001000 g       *ABS*	00000000 _StackSize
0000037a  w    F .text	00000002 PWM2_FAULT_DriverIRQHandler
0000035e g     F .text	00000012 bss_init
00005e3c  w    F .text	00000008 GPIO4_Combined_0_15_IRQHandler
0000037a  w    F .text	00000002 PWM3_1_DriverIRQHandler
00005c44  w    F .text	00000008 LPUART4_IRQHandler
00005f24  w    F .text	00000008 ENET_1588_Timer_IRQHandler
000041c8 g     F .text	00000058 SerialManager_OpenWriteHandle
20000038 g     O .bss	00000004 masterRxData
00005630 g     F .text	00000040 setvbuf
00008f80 g     O .text	0000002c Driver_SPI4
00005fd4  w    F .text	00000008 PWM2_0_IRQHandler
00005d24  w    F .text	00000008 DCP_VMI_IRQHandler
00005d5c  w    F .text	00000008 SAI3_RX_IRQHandler
00001880 g     F .text	00000048 DMA14_DMA30_DriverIRQHandler
00005ee4  w    F .text	00000008 FLEXSPI2_IRQHandler
0000037a  w    F .text	00000002 TMR1_DriverIRQHandler
0000037a  w    F .text	00000002 TRNG_DriverIRQHandler
0000730e g     F .text	00000174 __aeabi_uldivmod
2000020c g       .noinit	00000000 _noinit
0000037a  w    F .text	00000002 PWM3_2_DriverIRQHandler
60000000 g     O .boot_hdr	00000200 FlexSPI_NOR_Config
0000037a  w    F .text	00000002 ENET_1588_Timer_DriverIRQHandler
00005efc  w    F .text	00000008 USDHC1_IRQHandler
00005fdc  w    F .text	00000008 PWM2_1_IRQHandler
20000014 g     O .data	00000004 SystemCoreClock
00002c84 g     F .text	00000044 LPSPI_SlaveTransferAbort
00005bcc  w    F .text	00000008 DMA8_DMA24_IRQHandler
20000040 g     O .bss	00000004 g_xtalFreq
00005388 g     F .text	000000c8 malloc
000072ba g     F .text	00000014 remove
00005ff4  w    F .text	00000008 PWM2_FAULT_IRQHandler
0000037a  w    F .text	00000002 FLEXIO2_DriverIRQHandler
0000037a  w    F .text	00000002 GPIO2_Combined_16_31_DriverIRQHandler
0000605c  w    F .text	00000008 CAN3_IRQHandler
0000037a  w    F .text	00000002 Reserved143_DriverIRQHandler
00080000 g       *ABS*	00000000 __top_RAM
00006f50 g     F .text	0000000e LPSPI4_InitPins
00005e6c  w    F .text	00000008 WDOG1_IRQHandler
000045e4 g     F .text	00000064 BOARD_DebugConsoleSrcFreq
0000037a  w    F .text	00000002 PWM4_1_DriverIRQHandler
00005ca4  w    F .text	00000008 LPSPI4_IRQHandler
00005d74  w    F .text	00000008 PMU_EVENT_IRQHandler
00003d40 g     F .text	00000024 LPUART5_DriverIRQHandler
00005eac  w    F .text	00000008 GPT1_IRQHandler
aaaaaaaf g       *ABS*	00000000 _flexram_bank_config
00005c34  w    F .text	00000008 LPUART2_IRQHandler
0000602c  w    F .text	00000008 PWM4_1_IRQHandler
00001c54 g     F .text	00000050 LPSPI_GetInstance
000074bc g     F .text	00000006 __sys_flen
00005f0c  w    F .text	00000008 USB_OTG2_IRQHandler
00005f7c  w    F .text	00000008 ACMP4_IRQHandler
00005ef4  w    F .text	00000008 SEMC_IRQHandler
0000037a  w    F .text	00000002 PWM3_3_DriverIRQHandler
00001490 g     F .text	00000048 DMA0_DMA16_DriverIRQHandler
0000037a  w    F .text	00000002 IntDefaultHandler
20080000 g       *ABS*	00000000 __top_RAM2
00000f00 g     F .text	0000001c CLOCK_DeinitEnetPll
2000120c g       .heap	00000000 _pvHeapLimit
00005ec4  w    F .text	00000008 PWM1_1_IRQHandler
00005c3c  w    F .text	00000008 LPUART3_IRQHandler
00001520 g     F .text	00000048 DMA2_DMA18_DriverIRQHandler
000056ac g     F .text	00000044 fflush
00003f84 g     F .text	00000100 HAL_UartInit
00001258 g     F .text	00000064 CLOCK_InitSysPfd
0000037a  w    F .text	00000002 SRC_DriverIRQHandler
00005ffc  w    F .text	00000008 PWM3_0_IRQHandler
20000000 g     O .data	00000014 LPSPI4_InterruptDriverState
0000037a  w    F .text	00000002 GPIO1_INT4_DriverIRQHandler
0000037a  w    F .text	00000002 Reserved144_DriverIRQHandler
0000a1c4 g       .text	00000000 __exidx_start
000052d0 g     F .text	0000004c __assertion_failed
0000037a  w    F .text	00000002 USDHC1_DriverIRQHandler
00006014  w    F .text	00000008 PWM3_3_IRQHandler
00005dcc  w    F .text	00000008 GPIO1_INT0_IRQHandler
0000037a  w    F .text	00000002 ENC3_DriverIRQHandler
00003cd4 g     F .text	00000024 LPUART2_DriverIRQHandler
00008f74 g     O .text	0000000c LPSPI4_Resource
00005c4c  w    F .text	00000008 LPUART5_IRQHandler
0000037a  w    F .text	00000002 PWM3_FAULT_DriverIRQHandler
00005d14  w    F .text	00000008 CSU_IRQHandler
000071fa g     F .text	00000068 _fdopen
00007484 g     F .text	00000032 __aeabi_lowlevel_memset
00005d54  w    F .text	00000008 SAI2_IRQHandler
00005da4  w    F .text	00000008 ADC1_IRQHandler
00005670 g     F .text	0000003c _sbrk
00080000 g       *ABS*	00000000 __top_SRAM_ITC
0000037a  w    F .text	00000002 EWM_DriverIRQHandler
00000dac g     F .text	00000068 CLOCK_InitArmPll
0000037a  w    F .text	00000002 TSC_DIG_DriverIRQHandler
0000037a  w    F .text	00000002 WDOG1_DriverIRQHandler
0000037a  w    F .text	00000002 FLEXIO1_DriverIRQHandler
000002b8 g       .text	00000000 __data_section_table
0000037a  w    F .text	00000002 ENET_DriverIRQHandler
0000037a  w    F .text	00000002 Reserved78_DriverIRQHandler
0000604c  w    F .text	00000008 ENET2_IRQHandler
0000a18c g     O .text	00000004 __num_Ciob_streams
0000037a  w    F .text	00000002 TMR4_DriverIRQHandler
0000037a  w    F .text	00000002 ENC2_DriverIRQHandler
20080000 g       *ABS*	00000000 __top_SRAM_DTC
0000037a  w    F .text	00000002 ADC_ETC_IRQ2_DriverIRQHandler
00003884 g     F .text	0000004c LPUART_GetInstance
2000020c g       .bss	00000000 _ebss
00002664 g     F .text	00000048 LPSPI_MasterTransferAbort
00005e14  w    F .text	00000008 GPIO1_Combined_16_31_IRQHandler
00005c5c  w    F .text	00000008 LPUART7_IRQHandler
00005e74  w    F .text	00000008 RTWDOG_IRQHandler
0000037a  w    F .text	00000002 GPIO1_Combined_16_31_DriverIRQHandler
0000a1dc g       *ABS*	00000000 _image_size
0000037a  w    F .text	00000002 GPIO1_INT7_DriverIRQHandler
00005d7c  w    F .text	00000008 Reserved78_IRQHandler
0000037a  w    F .text	00000002 SAI1_DriverIRQHandler
0000037a  w    F .text	00000002 DCDC_DriverIRQHandler
000017f0 g     F .text	00000048 DMA12_DMA28_DriverIRQHandler
2000003c g     O .bss	00000004 masterTxData
0000037a  w    F .text	00000002 PWM4_0_DriverIRQHandler
00005fa4  w    F .text	00000008 ENC3_IRQHandler
20200000 g       *ABS*	00000000 __base_RAM3
0000037a  w    F .text	00000002 ADC_ETC_ERROR_IRQ_DriverIRQHandler
0000691a g     F .text	00000048 KSDK_LPSPI_SlaveInterruptCallback
0000037a  w    F .text	00000002 ACMP2_DriverIRQHandler
00005e34  w    F .text	00000008 GPIO3_Combined_16_31_IRQHandler
00005e7c  w    F .text	00000008 EWM_IRQHandler
0000037a  w    F .text	00000002 GPIO5_Combined_0_15_DriverIRQHandler
00005d84  w    F .text	00000008 TEMP_LOW_HIGH_IRQHandler
0000037a  w    F .text	00000002 GPIO1_INT0_DriverIRQHandler
0000037a  w    F .text	00000002 GPIO1_INT2_DriverIRQHandler
00000002 g       *ABS*	00000000 _itcm_block_count
00005cf4  w    F .text	00000008 WDOG2_IRQHandler
0000037a  w    F .text	00000002 RTWDOG_DriverIRQHandler
00005df4  w    F .text	00000008 GPIO1_INT5_IRQHandler
0000037a  w    F .text	00000002 FLEXSPI_DriverIRQHandler
00000340 g     F .text	0000001e data_init
00005c8c  w    F .text	00000008 LPSPI1_IRQHandler
0000037a  w    F .text	00000002 GPT2_DriverIRQHandler
00006004  w    F .text	00000008 PWM3_1_IRQHandler
00005fec  w    F .text	00000008 PWM2_3_IRQHandler
60002000 g     O .teensy_boot	00000008 vector_table
00000ec8 g     F .text	0000001c CLOCK_DeinitAudioPll
00005bb4  w    F .text	00000008 DMA5_DMA21_IRQHandler
00005c24  w    F .text	00000008 CORE_IRQHandler
00005be4  w    F .text	00000008 DMA11_DMA27_IRQHandler
60002000 g       *ABS*	00000000 __teensy_vectors_start__
000049b0 g     F .text	00000688 BOARD_BootClockRUN
00005c74  w    F .text	00000008 LPI2C2_IRQHandler
0000037a  w    F .text	00000002 USB_PHY2_DriverIRQHandler
00001760 g     F .text	00000048 DMA10_DMA26_DriverIRQHandler
0000037a  w    F .text	00000002 PWM2_1_DriverIRQHandler
00005d8c  w    F .text	00000008 TEMP_PANIC_IRQHandler
00005dfc  w    F .text	00000008 GPIO1_INT6_IRQHandler
00005ecc  w    F .text	00000008 PWM1_2_IRQHandler
00005470 g     F .text	00000100 fseek
00005f8c  w    F .text	00000008 Reserved144_IRQHandler
0000037a  w    F .text	00000002 PWM1_1_DriverIRQHandler
20000208 g     O .bss	00000001 i
0000081c g     F .text	00000014 LPSPI4_GetFreq
00005cd4  w    F .text	00000008 GPR_IRQ_IRQHandler
20000000 g       *ABS*	00000000 __base_SRAM_DTC
0000037a  w    F .text	00000002 PXP_DriverIRQHandler
60000000 g       *ABS*	00000000 __base_Flash
0000509c g     F .text	00000234 BOARD_InitPins
00005e94  w    F .text	00000008 GPC_IRQHandler
00003cb0 g     F .text	00000024 LPUART1_DriverIRQHandler
00007100 g     F .text	00000052 _fflush
00005db4  w    F .text	00000008 DCDC_IRQHandler
0000037a  w    F .text	00000002 ADC1_DriverIRQHandler
00005e2c  w    F .text	00000008 GPIO3_Combined_0_15_IRQHandler
0000603c  w    F .text	00000008 PWM4_3_IRQHandler
0000037a  w    F .text	00000002 PWM1_0_DriverIRQHandler
00005f04  w    F .text	00000008 USDHC2_IRQHandler
20000018 g       .bss	00000000 _bss
0000037a  w    F .text	00000002 SJC_DriverIRQHandler
00004220 g     F .text	00000060 SerialManager_OpenReadHandle
000014d8 g     F .text	00000048 DMA1_DMA17_DriverIRQHandler
00001ab8 g     F .text	000000fc GPIO_PinSetInterruptConfig
0000037a  w    F .text	00000002 ENC1_DriverIRQHandler
60002060 g       *ABS*	00000000 _image_start
00005f14  w    F .text	00000008 USB_OTG1_IRQHandler
601f0000 g       *ABS*	00000000 __top_Flash
0000037a  w    F .text	00000002 ENC4_DriverIRQHandler
00003d1c g     F .text	00000024 LPUART4_DriverIRQHandler
0000037a  w    F .text	00000002 CAN2_DriverIRQHandler
0000037a  w    F .text	00000002 DCP_DriverIRQHandler
2000020c g       .noinit	00000000 _end_noinit
2000220c g       .stack	00000000 _vStackTop
00005bec  w    F .text	00000008 DMA12_DMA28_IRQHandler
00005e54  w    F .text	00000008 GPIO5_Combined_16_31_IRQHandler
00005fbc  w    F .text	00000008 TMR2_IRQHandler
0000037a  w    F .text	00000002 CTI0_ERROR_DriverIRQHandler
00005f54  w    F .text	00000008 ADC_ETC_ERROR_IRQ_IRQHandler
000016d0 g     F .text	00000048 DMA8_DMA24_DriverIRQHandler
0000037a  w    F .text	00000002 GPT1_DriverIRQHandler
00006034  w    F .text	00000008 PWM4_2_IRQHandler
000002f4 g       .text	00000000 __bss_section_table_end
000056f0 g     F .text	00000018 __check_heap_overflow
0000037a  w    F .text	00000002 ACMP3_DriverIRQHandler
00001640 g     F .text	00000048 DMA6_DMA22_DriverIRQHandler
000012bc g     F .text	00000074 EDMA_GetChannelStatusFlags
0000037a  w    F .text	00000002 CSU_DriverIRQHandler
00005d44  w    F .text	00000008 BEE_IRQHandler
00006f5e g     F .text	0000000e LPSPI4_DeinitPins
00005dd4  w    F .text	00000008 GPIO1_INT1_IRQHandler
00005d6c  w    F .text	00000008 SPDIF_IRQHandler
0000037a  w    F .text	00000002 GPIO1_INT5_DriverIRQHandler
00001f44 g     F .text	0000005c LPSPI_SlaveGetDefaultConfig
60000000 g       *ABS*	00000000 __base_Flash_00
0000037a  w    F .text	00000002 TMR3_DriverIRQHandler
0000a3d0 g       *ABS*	00000000 _itcm_end
0000037a  w    F .text	00000002 TMR2_DriverIRQHandler
00005f4c  w    F .text	00000008 ADC_ETC_IRQ2_IRQHandler
00005dec  w    F .text	00000008 GPIO1_INT4_IRQHandler
00003d64 g     F .text	00000024 LPUART6_DriverIRQHandler
0000037a  w    F .text	00000002 CTI1_ERROR_DriverIRQHandler
00005e8c  w    F .text	00000008 CCM_2_IRQHandler
0000a140 g     O .text	00000008 armPllConfig_BOARD_BootClockRUN
00005cc4  w    F .text	00000008 KPP_IRQHandler
00005eec  w    F .text	00000008 FLEXSPI_IRQHandler
00005dac  w    F .text	00000008 ADC2_IRQHandler
00002130 g     F .text	00000060 LPSPI_MasterTransferCreateHandle
00006db8 g     F .text	00000020 SerialManager_WriteBlocking
0000037a  w    F .text	00000002 GPIO1_Combined_0_15_DriverIRQHandler
0000037a  w    F .text	00000002 USDHC2_DriverIRQHandler
00000ee4 g     F .text	0000001c CLOCK_DeinitVideoPll
000074da g     F .text	00000004 __sys_write
00006f7c g     F .text	00000004 memset
0000037a  w    F .text	00000002 PWM4_2_DriverIRQHandler
0000037a  w    F .text	00000002 SAI2_DriverIRQHandler
0000075c g     F .text	000000c0 main
0000037a  w    F .text	00000002 CORE_DriverIRQHandler
00005d64  w    F .text	00000008 SAI3_TX_IRQHandler
00004084 g     F .text	00000064 HAL_UartSendBlocking
000072ce g     F .text	00000040 _do_fflush
00005570 g     F .text	00000048 ftell
00005f5c  w    F .text	00000008 PIT_IRQHandler
00005ea4  w    F .text	00000008 Reserved115_IRQHandler
00005cfc  w    F .text	00000008 SNVS_HP_WRAPPER_IRQHandler
00000374  w    F .text	00000002 SVC_Handler
00007262 g     F .text	00000058 fclose
000017a8 g     F .text	00000048 DMA11_DMA27_DriverIRQHandler
00004300 g     F .text	00000058 Serial_UartWrite
0000037a  w    F .text	00000002 CSI_DriverIRQHandler
00005c84  w    F .text	00000008 LPI2C4_IRQHandler
0000037a  w    F .text	00000002 PWM2_3_DriverIRQHandler
0000037a  w    F .text	00000002 XBAR1_IRQ_2_3_DriverIRQHandler
00005f34  w    F .text	00000008 XBAR1_IRQ_2_3_IRQHandler
0000600c  w    F .text	00000008 PWM3_2_IRQHandler
0000037a  w    F .text	00000002 SNVS_HP_WRAPPER_TZ_DriverIRQHandler
0000037a  w    F .text	00000002 GPIO3_Combined_16_31_DriverIRQHandler
000074ce g     F .text	00000006 __sys_seek
00006054  w    F .text	00000008 ENET2_1588_Timer_IRQHandler
0000037a  w    F .text	00000002 PWM1_FAULT_DriverIRQHandler
0000037a  w    F .text	00000002 LPI2C1_DriverIRQHandler
00007312 g     F .text	00000000 __bhs_ldivmod1
00005d1c  w    F .text	00000008 DCP_IRQHandler
0000037a  w    F .text	00000002 ENET2_1588_Timer_DriverIRQHandler
000009ec g     F .text	000002cc W5100_Init
00006064  w    F .text	00000008 Reserved171_IRQHandler
00000d88 g     F .text	00000024 CLOCK_InitRcOsc24M
00003d88 g     F .text	00000024 LPUART7_DriverIRQHandler
00005c64  w    F .text	00000008 LPUART8_IRQHandler
0000037a  w    F .text	00000002 PWM2_2_DriverIRQHandler
00002190 g     F .text	00000098 LPSPI_CheckTransferArgument
00001cd0 g     F .text	0000011c LPSPI_MasterInit
000015b0 g     F .text	00000048 DMA4_DMA20_DriverIRQHandler
00005de4  w    F .text	00000008 GPIO1_INT3_IRQHandler
00001718 g     F .text	00000048 DMA9_DMA25_DriverIRQHandler
60002008 g     F .teensy_boot	00000034 ResetISR_pre
00003e90 g     F .text	000000f4 SystemInit
000068d0 g     F .text	0000004a KSDK_LPSPI_MasterInterruptCallback
0000037a  w    F .text	00000002 SNVS_HP_WRAPPER_DriverIRQHandler
00005e0c  w    F .text	00000008 GPIO1_Combined_0_15_IRQHandler
000002dc g       .text	00000000 __bss_section_table
00001e84 g     F .text	000000c0 LPSPI_SlaveInit
0000284c g     F .text	00000060 LPSPI_SlaveTransferCreateHandle
60001020 g     O .boot_hdr	0000000c BootData
0000037a  w    F .text	00000002 XBAR1_IRQ_0_1_DriverIRQHandler
0000037a  w    F .text	00000002 ADC_ETC_IRQ1_DriverIRQHandler
000032b8 g     F .text	00000030 LPSPI1_DriverIRQHandler
00000878 g     F .text	000000b8 SPI_Write
000074b6 g     F .text	00000006 __sys_close
00005bf4  w    F .text	00000008 DMA13_DMA29_IRQHandler
00001568 g     F .text	00000048 DMA3_DMA19_DriverIRQHandler
00005fcc  w    F .text	00000008 TMR4_IRQHandler
00005f74  w    F .text	00000008 ACMP3_IRQHandler
00005c0c  w    F .text	00000008 DMA_ERROR_IRQHandler
00006c42 g     F .text	000000b2 LPSPI_InterruptGetStatus
00005f94  w    F .text	00000008 ENC1_IRQHandler
00005edc  w    F .text	00000008 PWM1_FAULT_IRQHandler
00000000 g       .stack	00000000 _itcm_start
00005f84  w    F .text	00000008 Reserved143_IRQHandler
20000000 g       .uninit_RESERVED	00000000 _end_uninit_RESERVED
000028ac g     F .text	000002d0 LPSPI_SlaveTransferNonBlocking
0000531c g     F .text	0000006c _Cwritebuf
0000037a  w    F .text	00000002 GPIO1_INT3_DriverIRQHandler
0000037a  w    F .text	00000002 DCP_VMI_DriverIRQHandler
00006074  w    F .text	00000008 GPIO6_7_8_9_IRQHandler
0000a3d0 g       *ABS*	00000000 _itcm_size
20000000 g       .data	00000000 _data
20000044 g     O .bss	00000004 g_rtcXtalFreq
0000606c  w    F .text	00000008 FLEXIO3_IRQHandler
00005e24  w    F .text	00000008 GPIO2_Combined_16_31_IRQHandler
0000037a  w    F .text	00000002 LPI2C4_DriverIRQHandler
2000020c g       .heap	00000000 _pvHeapStart
0000037a  w    F .text	00000002 GPC_DriverIRQHandler
00005c2c  w    F .text	00000008 LPUART1_IRQHandler
00005fc4  w    F .text	00000008 TMR3_IRQHandler
00005c6c  w    F .text	00000008 LPI2C1_IRQHandler
000002f4 g       .text	00000000 __section_table_end
00005880 g     F .text	0000030c StrFormatPrintf
0000037a  w    F .text	00000002 GPIO2_Combined_0_15_DriverIRQHandler
0000058c g     F .text	00000058 DbgConsole_SendDataReliable
00003bd0 g     F .text	00000088 LPUART_GetDefaultConfig
00005f2c  w    F .text	00000008 XBAR1_IRQ_0_1_IRQHandler
00000000 g       *ABS*	00000000 __base_SRAM_ITC
00005bc4  w    F .text	00000008 DMA7_DMA23_IRQHandler
00005c7c  w    F .text	00000008 LPI2C3_IRQHandler
000005e4 g     F .text	00000104 DbgConsole_Init
0000037a  w    F .text	00000002 PWM1_2_DriverIRQHandler
0000037a  w    F .text	00000002 USB_OTG1_DriverIRQHandler
000074c8 g     F .text	00000006 __sys_remove
0000037a  w    F .text	00000002 TEMP_LOW_HIGH_DriverIRQHandler
00005d04  w    F .text	00000008 SNVS_HP_WRAPPER_TZ_IRQHandler
0000037a  w    F .text	00000002 SAI3_TX_DriverIRQHandler
0000037a  w    F .text	00000002 FLEXIO3_DriverIRQHandler
20000018 g       .data	00000000 _edata
0000037a  w    F .text	00000002 WDOG2_DriverIRQHandler
000019c0 g     F .text	000000a4 GPIO_PinInit
0000037a  w    F .text	00000002 Reserved68_DriverIRQHandler
00006d3e  w    F .text	0000000e SystemInitHook
2000020a g     O .bss	00000001 isMasterOnTransmit
0000037a  w    F .text	00000002 PWM3_0_DriverIRQHandler
20000200 g     O .bss	00000004 __heaps
0000037a  w    F .text	00000002 GPIO4_Combined_0_15_DriverIRQHandler
00006f7a g     F .text	00000002 __sys_appexit
00005c94  w    F .text	00000008 LPSPI2_IRQHandler
00005f6c  w    F .text	00000008 ACMP2_IRQHandler
0000037a  w    F .text	00000002 GPIO4_Combined_16_31_DriverIRQHandler
00000000 g       *ABS*	00000000 __base_RAM
00000000 g     O .text	000002b8 g_pfnVectors
000002f4 g     F .text	0000004c ResetISR
6000c23c g       *ABS*	00000000 _image_end
0000037a  w    F .text	00000002 GPIO6_7_8_9_DriverIRQHandler
200001fc g     O .bss	00000004 __end_of_heap
00005eb4  w    F .text	00000008 GPT2_IRQHandler
0000037a  w    F .text	00000002 GPIO5_Combined_16_31_DriverIRQHandler
00005450 g     F .text	00000020 _Csys_alloc
00005cbc  w    F .text	00000008 FLEXRAM_IRQHandler
00005cb4  w    F .text	00000008 CAN2_IRQHandler
20280000 g       *ABS*	00000000 __top_SRAM_OC
000015f8 g     F .text	00000048 DMA5_DMA21_DriverIRQHandler
00007482 g     F .text	00000002 __aeabi_idiv0
00005c04  w    F .text	00000008 DMA15_DMA31_IRQHandler
0000037a  w    F .text	00000002 CCM_1_DriverIRQHandler
60001030 g       *ABS*	00000000 __boot_hdr_end__
0000037a  w    F .text	00000002 ADC2_DriverIRQHandler
000026ac g     F .text	000001a0 LPSPI_MasterTransferHandleIRQ
20280000 g       *ABS*	00000000 __top_RAM3
00005f64  w    F .text	00000008 ACMP1_IRQHandler
0000037a  w    F .text	00000002 Reserved115_DriverIRQHandler
0000037a  w    F .text	00000002 TEMP_PANIC_DriverIRQHandler
00005dc4  w    F .text	00000008 Reserved87_IRQHandler
000018c8 g     F .text	00000048 DMA15_DMA31_DriverIRQHandler
00005e44  w    F .text	00000008 GPIO4_Combined_16_31_IRQHandler
000071ae g     F .text	0000004c strlen
00004154 g     F .text	00000074 SerialManager_Init
00003318 g     F .text	00000030 LPSPI3_DriverIRQHandler
00005fac  w    F .text	00000008 ENC4_IRQHandler
0000037a  w    F .text	00000002 PWM1_3_DriverIRQHandler
0000037a  w    F .text	00000002 ACMP1_DriverIRQHandler
0000037a  w    F .text	00000002 LPI2C2_DriverIRQHandler
00005bdc  w    F .text	00000008 DMA10_DMA26_IRQHandler
00007182 g     F .text	0000002c fputs
0000037a  w    F .text	00000002 Reserved86_DriverIRQHandler
00001a64 g     F .text	00000054 GPIO_PinWrite
00000f1c g     F .text	0000033c CLOCK_GetPllFreq
0000037a  w    F .text	00000002 DMA_ERROR_DriverIRQHandler
2000120c g       .stack	00000000 _vStackBase
2000020b g     O .bss	00000001 isMasterOnReceive
0000037a  w    F .text	00000002 ADC_ETC_IRQ0_DriverIRQHandler
20000034 g     O .bss	00000004 g_serialHandle
00006024  w    F .text	00000008 PWM4_0_IRQHandler
0000037a  w    F .text	00000002 CAN1_DriverIRQHandler
000055b8 g     F .text	00000078 _initio
00005fb4  w    F .text	00000008 TMR1_IRQHandler
00005b8c  w    F .text	00000008 DMA0_DMA16_IRQHandler
0000037a  w    F .text	00000002 GPIO1_INT6_DriverIRQHandler
0000037a  w    F .text	00000002 GPIO1_INT1_DriverIRQHandler
00000930 g     F .text	000000bc SPI_Read
00005d34  w    F .text	00000008 TRNG_IRQHandler
00005cdc  w    F .text	00000008 LCDIF_IRQHandler
20000148 g     O .bss	000000b4 __Ciob
00001fa0 g     F .text	00000030 LPSPI_Deinit
0000601c  w    F .text	00000008 PWM3_FAULT_IRQHandler
00005f1c  w    F .text	00000008 ENET_IRQHandler
000074c2 g     F .text	00000006 __sys_istty
000020c0 g     F .text	00000070 LPSPI_MasterSetDelayScaler
00005c1c  w    F .text	00000008 CTI1_ERROR_IRQHandler
00004648 g     F .text	00000100 BOARD_ConfigMPU
00000830 g     F .text	00000048 LPSPI_MasterSignalEvent_t
0000037a  w    F .text	00000002 PWM2_0_DriverIRQHandler
00005ed4  w    F .text	00000008 PWM1_3_IRQHandler
00005b94  w    F .text	00000008 DMA1_DMA17_IRQHandler
00006412 g     F .text	00000032 LPSPI_Reset
00005d4c  w    F .text	00000008 SAI1_IRQHandler
20000209 g     O .bss	00000001 isTransferCompleted
00003cf8 g     F .text	00000024 LPUART3_DriverIRQHandler
000006e8 g     F .text	00000074 DbgConsole_Printf
00007152 g     F .text	00000030 free
00002228 g     F .text	000002e0 LPSPI_MasterTransferNonBlocking
0000037a  w    F .text	00000002 SNVS_LP_WRAPPER_DriverIRQHandler
0000037a  w    F .text	00000002 USB_OTG2_DriverIRQHandler



Disassembly of section .teensy_boot:

60002000 <vector_table>:
60002000:	00 00 01 20 09 20 00 60                             ... . .`

60002008 <ResetISR_pre>:
60002008:	4b07      	ldr	r3, [pc, #28]	; (60002028 <ResetISR_pre+0x20>)
6000200a:	4a08      	ldr	r2, [pc, #32]	; (6000202c <ResetISR_pre+0x24>)
6000200c:	645a      	str	r2, [r3, #68]	; 0x44
6000200e:	2207      	movs	r2, #7
60002010:	641a      	str	r2, [r3, #64]	; 0x40
60002012:	f44f 022a 	mov.w	r2, #11141120	; 0xaa0000
60002016:	639a      	str	r2, [r3, #56]	; 0x38
60002018:	4a05      	ldr	r2, [pc, #20]	; (60002030 <ResetISR_pre+0x28>)
6000201a:	4906      	ldr	r1, [pc, #24]	; (60002034 <ResetISR_pre+0x2c>)
6000201c:	4806      	ldr	r0, [pc, #24]	; (60002038 <ResetISR_pre+0x30>)
6000201e:	f000 f80d 	bl	6000203c <memory_copy>
60002022:	f000 f819 	bl	60002058 <__ResetISR_veneer>
60002026:	bf00      	nop
60002028:	400ac000 	.word	0x400ac000
6000202c:	aaaaaaaf 	.word	0xaaaaaaaf
60002030:	0000a3d0 	.word	0x0000a3d0
60002034:	60002060 	.word	0x60002060
60002038:	00000000 	.word	0x00000000

6000203c <memory_copy>:
6000203c:	4288      	cmp	r0, r1
6000203e:	d006      	beq.n	6000204e <memory_copy+0x12>
60002040:	4290      	cmp	r0, r2
60002042:	d205      	bcs.n	60002050 <memory_copy+0x14>
60002044:	f851 3b04 	ldr.w	r3, [r1], #4
60002048:	f840 3b04 	str.w	r3, [r0], #4
6000204c:	e7f8      	b.n	60002040 <memory_copy+0x4>
6000204e:	4770      	bx	lr
60002050:	4770      	bx	lr
60002052:	ffff ffff 			; <UNDEFINED> instruction: 0xffffffff
60002056:	Address 0x60002056 is out of bounds.


60002058 <__ResetISR_veneer>:
60002058:	f85f f000 	ldr.w	pc, [pc]	; 6000205c <__ResetISR_veneer+0x4>
6000205c:	000002f5 	.word	0x000002f5

Disassembly of section .text:

00000000 <__Vectors>:
       0:	2000220c 000002f5 00000371 0000607d     .". ....q...}`..
	...
      2c:	00000375 00000000 00000000 00000377     u...........w...
      3c:	00000379 00005b8d 00005b95 00005b9d     y....[...[...[..
      4c:	00005ba5 00005bad 00005bb5 00005bbd     .[...[...[...[..
      5c:	00005bc5 00005bcd 00005bd5 00005bdd     .[...[...[...[..
      6c:	00005be5 00005bed 00005bf5 00005bfd     .[...[...[...[..
      7c:	00005c05 00005c0d 00005c15 00005c1d     .\...\...\...\..
      8c:	00005c25 00005c2d 00005c35 00005c3d     %\..-\..5\..=\..
      9c:	00005c45 00005c4d 00005c55 00005c5d     E\..M\..U\..]\..
      ac:	00005c65 00005c6d 00005c75 00005c7d     e\..m\..u\..}\..
      bc:	00005c85 00005c8d 00005c95 00005c9d     .\...\...\...\..
      cc:	00005ca5 00005cad 00005cb5 00005cbd     .\...\...\...\..
      dc:	00005cc5 00005ccd 00005cd5 00005cdd     .\...\...\...\..
      ec:	00005ce5 00005ced 00005cf5 00005cfd     .\...\...\...\..
      fc:	00005d05 00005d0d 00005d15 00005d1d     .]...]...]...]..
     10c:	00005d25 00005d2d 00005d35 00005d3d     %]..-]..5]..=]..
     11c:	00005d45 00005d4d 00005d55 00005d5d     E]..M]..U]..]]..
     12c:	00005d65 00005d6d 00005d75 00005d7d     e]..m]..u]..}]..
     13c:	00005d85 00005d8d 00005d95 00005d9d     .]...]...]...]..
     14c:	00005da5 00005dad 00005db5 00005dbd     .]...]...]...]..
     15c:	00005dc5 00005dcd 00005dd5 00005ddd     .]...]...]...]..
     16c:	00005de5 00005ded 00005df5 00005dfd     .]...]...]...]..
     17c:	00005e05 00005e0d 00005e15 00005e1d     .^...^...^...^..
     18c:	00005e25 00005e2d 00005e35 00005e3d     %^..-^..5^..=^..
     19c:	00005e45 00005e4d 00005e55 00005e5d     E^..M^..U^..]^..
     1ac:	00005e65 00005e6d 00005e75 00005e7d     e^..m^..u^..}^..
     1bc:	00005e85 00005e8d 00005e95 00005e9d     .^...^...^...^..
     1cc:	00005ea5 00005ead 00005eb5 00005ebd     .^...^...^...^..
     1dc:	00005ec5 00005ecd 00005ed5 00005edd     .^...^...^...^..
     1ec:	00005ee5 00005eed 00005ef5 00005efd     .^...^...^...^..
     1fc:	00005f05 00005f0d 00005f15 00005f1d     ._..._..._..._..
     20c:	00005f25 00005f2d 00005f35 00005f3d     %_..-_..5_..=_..
     21c:	00005f45 00005f4d 00005f55 00005f5d     E_..M_..U_..]_..
     22c:	00005f65 00005f6d 00005f75 00005f7d     e_..m_..u_..}_..
     23c:	00005f85 00005f8d 00005f95 00005f9d     ._..._..._..._..
     24c:	00005fa5 00005fad 00005fb5 00005fbd     ._..._..._..._..
     25c:	00005fc5 00005fcd 00005fd5 00005fdd     ._..._..._..._..
     26c:	00005fe5 00005fed 00005ff5 00005ffd     ._..._..._..._..
     27c:	00006005 0000600d 00006015 0000601d     .`...`...`...`..
     28c:	00006025 0000602d 00006035 0000603d     %`..-`..5`..=`..
     29c:	00006045 0000604d 00006055 0000605d     E`..M`..U`..]`..
     2ac:	00006065 0000606d 00006075              e`..m`..u`..

000002b8 <__data_section_table>:
     2b8:	6000c224 	.word	0x6000c224
     2bc:	0000a1c4 	.word	0x0000a1c4
     2c0:	00000000 	.word	0x00000000
     2c4:	6000c224 	.word	0x6000c224
     2c8:	20000000 	.word	0x20000000
     2cc:	00000018 	.word	0x00000018
     2d0:	6000c224 	.word	0x6000c224
     2d4:	20200000 	.word	0x20200000
     2d8:	00000000 	.word	0x00000000

000002dc <__bss_section_table>:
     2dc:	0000a1c4 	.word	0x0000a1c4
     2e0:	00000000 	.word	0x00000000
     2e4:	20000018 	.word	0x20000018
     2e8:	000001f4 	.word	0x000001f4
     2ec:	20200000 	.word	0x20200000
     2f0:	00000000 	.word	0x00000000

000002f4 <ResetISR>:
     2f4:	b672b510 	.word	0xb672b510
     2f8:	fdcaf003 	.word	0xfdcaf003
     2fc:	e0074b0d 	.word	0xe0074b0d
     300:	040cf103 	.word	0x040cf103
     304:	6859689a 	.word	0x6859689a
     308:	f0006818 	.word	0xf0006818
     30c:	4623f819 	.word	0x4623f819
     310:	42934a09 	.word	0x42934a09
     314:	e006d3f4 	.word	0xe006d3f4
     318:	6859461c 	.word	0x6859461c
     31c:	0b08f854 	.word	0x0b08f854
     320:	f81df000 	.word	0xf81df000
     324:	4a054623 	.word	0x4a054623
     328:	d3f54293 	.word	0xd3f54293
     32c:	f006b662 	.word	0xf006b662
     330:	e7fefe1d 	.word	0xe7fefe1d
     334:	000002b8 	.word	0x000002b8
     338:	000002dc 	.word	0x000002dc
     33c:	02f4      	lsls	r4, r6, #11
	...

00000340 <data_init>:
     340:	2300      	movs	r3, #0
     342:	4293      	cmp	r3, r2
     344:	d20a      	bcs.n	35c <data_init+0x1c>
     346:	b410      	push	{r4}
     348:	f850 4b04 	ldr.w	r4, [r0], #4
     34c:	f841 4b04 	str.w	r4, [r1], #4
     350:	3304      	adds	r3, #4
     352:	4293      	cmp	r3, r2
     354:	d3f8      	bcc.n	348 <data_init+0x8>
     356:	f85d 4b04 	ldr.w	r4, [sp], #4
     35a:	4770      	bx	lr
     35c:	4770      	bx	lr

0000035e <bss_init>:
     35e:	2300      	movs	r3, #0
     360:	428b      	cmp	r3, r1
     362:	d204      	bcs.n	36e <bss_init+0x10>
     364:	2200      	movs	r2, #0
     366:	f840 2b04 	str.w	r2, [r0], #4
     36a:	3304      	adds	r3, #4
     36c:	e7f8      	b.n	360 <bss_init+0x2>
     36e:	4770      	bx	lr

00000370 <NMI_Handler>:
     370:	e7fe      	b.n	370 <NMI_Handler>
     372:	e7fe      	b.n	372 <NMI_Handler+0x2>

00000374 <SVC_Handler>:
     374:	e7fe      	b.n	374 <SVC_Handler>

00000376 <PendSV_Handler>:
     376:	e7fe      	b.n	376 <PendSV_Handler>

00000378 <SysTick_Handler>:
     378:	e7fe      	b.n	378 <SysTick_Handler>

0000037a <ACMP1_DriverIRQHandler>:
     37a:	e7fe      	b.n	37a <ACMP1_DriverIRQHandler>
     37c:	ffff ffff 			; <UNDEFINED> instruction: 0xffffffff

00000380 <LPSPI_MasterSetDelayTimes>:
     380:	e92d 43f0 	stmdb	sp!, {r4, r5, r6, r7, r8, r9, lr}
     384:	b093      	sub	sp, #76	; 0x4c
     386:	af00      	add	r7, sp, #0
     388:	60f8      	str	r0, [r7, #12]
     38a:	60b9      	str	r1, [r7, #8]
     38c:	603b      	str	r3, [r7, #0]
     38e:	4613      	mov	r3, r2
     390:	71fb      	strb	r3, [r7, #7]
     392:	2300      	movs	r3, #0
     394:	627b      	str	r3, [r7, #36]	; 0x24
     396:	68fb      	ldr	r3, [r7, #12]
     398:	6e1b      	ldr	r3, [r3, #96]	; 0x60
     39a:	0edb      	lsrs	r3, r3, #27
     39c:	f003 0307 	and.w	r3, r3, #7
     3a0:	4a79      	ldr	r2, [pc, #484]	; (588 <LPSPI_MasterSetDelayTimes+0x208>)
     3a2:	5cd3      	ldrb	r3, [r2, r3]
     3a4:	461a      	mov	r2, r3
     3a6:	683b      	ldr	r3, [r7, #0]
     3a8:	fbb3 f3f2 	udiv	r3, r3, r2
     3ac:	623b      	str	r3, [r7, #32]
     3ae:	f04f 33ff 	mov.w	r3, #4294967295
     3b2:	637b      	str	r3, [r7, #52]	; 0x34
     3b4:	23ff      	movs	r3, #255	; 0xff
     3b6:	63bb      	str	r3, [r7, #56]	; 0x38
     3b8:	79fb      	ldrb	r3, [r7, #7]
     3ba:	2b03      	cmp	r3, #3
     3bc:	d141      	bne.n	442 <LPSPI_MasterSetDelayTimes+0xc2>
     3be:	a470      	add	r4, pc, #448	; (adr r4, 580 <LPSPI_MasterSetDelayTimes+0x200>)
     3c0:	e9d4 3400 	ldrd	r3, r4, [r4]
     3c4:	e9c7 340a 	strd	r3, r4, [r7, #40]	; 0x28
     3c8:	e9d7 340a 	ldrd	r3, r4, [r7, #40]	; 0x28
     3cc:	18dd      	adds	r5, r3, r3
     3ce:	eb44 0604 	adc.w	r6, r4, r4
     3d2:	e9c7 560a 	strd	r5, r6, [r7, #40]	; 0x28
     3d6:	6a3b      	ldr	r3, [r7, #32]
     3d8:	f04f 0400 	mov.w	r4, #0
     3dc:	461a      	mov	r2, r3
     3de:	4623      	mov	r3, r4
     3e0:	e9d7 010a 	ldrd	r0, r1, [r7, #40]	; 0x28
     3e4:	f006 ff93 	bl	730e <__aeabi_uldivmod>
     3e8:	4603      	mov	r3, r0
     3ea:	460c      	mov	r4, r1
     3ec:	e9c7 340a 	strd	r3, r4, [r7, #40]	; 0x28
     3f0:	a463      	add	r4, pc, #396	; (adr r4, 580 <LPSPI_MasterSetDelayTimes+0x200>)
     3f2:	e9d4 3400 	ldrd	r3, r4, [r4]
     3f6:	e9c7 3410 	strd	r3, r4, [r7, #64]	; 0x40
     3fa:	e9d7 5610 	ldrd	r5, r6, [r7, #64]	; 0x40
     3fe:	462b      	mov	r3, r5
     400:	4634      	mov	r4, r6
     402:	f04f 0100 	mov.w	r1, #0
     406:	f04f 0200 	mov.w	r2, #0
     40a:	0222      	lsls	r2, r4, #8
     40c:	ea42 6213 	orr.w	r2, r2, r3, lsr #24
     410:	0219      	lsls	r1, r3, #8
     412:	460b      	mov	r3, r1
     414:	4614      	mov	r4, r2
     416:	eb13 0805 	adds.w	r8, r3, r5
     41a:	eb44 0906 	adc.w	r9, r4, r6
     41e:	e9c7 8910 	strd	r8, r9, [r7, #64]	; 0x40
     422:	6a3b      	ldr	r3, [r7, #32]
     424:	f04f 0400 	mov.w	r4, #0
     428:	461a      	mov	r2, r3
     42a:	4623      	mov	r3, r4
     42c:	e9d7 0110 	ldrd	r0, r1, [r7, #64]	; 0x40
     430:	f006 ff6d 	bl	730e <__aeabi_uldivmod>
     434:	4603      	mov	r3, r0
     436:	460c      	mov	r4, r1
     438:	e9c7 3410 	strd	r3, r4, [r7, #64]	; 0x40
     43c:	2301      	movs	r3, #1
     43e:	627b      	str	r3, [r7, #36]	; 0x24
     440:	e031      	b.n	4a6 <LPSPI_MasterSetDelayTimes+0x126>
     442:	a44f      	add	r4, pc, #316	; (adr r4, 580 <LPSPI_MasterSetDelayTimes+0x200>)
     444:	e9d4 3400 	ldrd	r3, r4, [r4]
     448:	e9c7 340a 	strd	r3, r4, [r7, #40]	; 0x28
     44c:	6a3b      	ldr	r3, [r7, #32]
     44e:	f04f 0400 	mov.w	r4, #0
     452:	461a      	mov	r2, r3
     454:	4623      	mov	r3, r4
     456:	e9d7 010a 	ldrd	r0, r1, [r7, #40]	; 0x28
     45a:	f006 ff58 	bl	730e <__aeabi_uldivmod>
     45e:	4603      	mov	r3, r0
     460:	460c      	mov	r4, r1
     462:	e9c7 340a 	strd	r3, r4, [r7, #40]	; 0x28
     466:	a446      	add	r4, pc, #280	; (adr r4, 580 <LPSPI_MasterSetDelayTimes+0x200>)
     468:	e9d4 3400 	ldrd	r3, r4, [r4]
     46c:	e9c7 3410 	strd	r3, r4, [r7, #64]	; 0x40
     470:	e9d7 1210 	ldrd	r1, r2, [r7, #64]	; 0x40
     474:	f04f 0300 	mov.w	r3, #0
     478:	f04f 0400 	mov.w	r4, #0
     47c:	0214      	lsls	r4, r2, #8
     47e:	ea44 6411 	orr.w	r4, r4, r1, lsr #24
     482:	020b      	lsls	r3, r1, #8
     484:	e9c7 3410 	strd	r3, r4, [r7, #64]	; 0x40
     488:	6a3b      	ldr	r3, [r7, #32]
     48a:	f04f 0400 	mov.w	r4, #0
     48e:	461a      	mov	r2, r3
     490:	4623      	mov	r3, r4
     492:	e9d7 0110 	ldrd	r0, r1, [r7, #64]	; 0x40
     496:	f006 ff3a 	bl	730e <__aeabi_uldivmod>
     49a:	4603      	mov	r3, r0
     49c:	460c      	mov	r4, r1
     49e:	e9c7 3410 	strd	r3, r4, [r7, #64]	; 0x40
     4a2:	2300      	movs	r3, #0
     4a4:	627b      	str	r3, [r7, #36]	; 0x24
     4a6:	68bb      	ldr	r3, [r7, #8]
     4a8:	f04f 0400 	mov.w	r4, #0
     4ac:	e9d7 120a 	ldrd	r1, r2, [r7, #40]	; 0x28
     4b0:	42a2      	cmp	r2, r4
     4b2:	bf08      	it	eq
     4b4:	4299      	cmpeq	r1, r3
     4b6:	d307      	bcc.n	4c8 <LPSPI_MasterSetDelayTimes+0x148>
     4b8:	79fb      	ldrb	r3, [r7, #7]
     4ba:	461a      	mov	r2, r3
     4bc:	2100      	movs	r1, #0
     4be:	68f8      	ldr	r0, [r7, #12]
     4c0:	f001 fdfe 	bl	20c0 <LPSPI_MasterSetDelayScaler>
     4c4:	6abb      	ldr	r3, [r7, #40]	; 0x28
     4c6:	e053      	b.n	570 <LPSPI_MasterSetDelayTimes+0x1f0>
     4c8:	2300      	movs	r3, #0
     4ca:	63fb      	str	r3, [r7, #60]	; 0x3c
     4cc:	e043      	b.n	556 <LPSPI_MasterSetDelayTimes+0x1d6>
     4ce:	a42c      	add	r4, pc, #176	; (adr r4, 580 <LPSPI_MasterSetDelayTimes+0x200>)
     4d0:	e9d4 3400 	ldrd	r3, r4, [r4]
     4d4:	e9c7 3406 	strd	r3, r4, [r7, #24]
     4d8:	6bfa      	ldr	r2, [r7, #60]	; 0x3c
     4da:	6a7b      	ldr	r3, [r7, #36]	; 0x24
     4dc:	4413      	add	r3, r2
     4de:	3301      	adds	r3, #1
     4e0:	f04f 0400 	mov.w	r4, #0
     4e4:	69fa      	ldr	r2, [r7, #28]
     4e6:	fb03 f102 	mul.w	r1, r3, r2
     4ea:	69ba      	ldr	r2, [r7, #24]
     4ec:	fb04 f202 	mul.w	r2, r4, r2
     4f0:	440a      	add	r2, r1
     4f2:	69b9      	ldr	r1, [r7, #24]
     4f4:	fba1 3403 	umull	r3, r4, r1, r3
     4f8:	4422      	add	r2, r4
     4fa:	4614      	mov	r4, r2
     4fc:	e9c7 3406 	strd	r3, r4, [r7, #24]
     500:	e9c7 3406 	strd	r3, r4, [r7, #24]
     504:	6a3b      	ldr	r3, [r7, #32]
     506:	f04f 0400 	mov.w	r4, #0
     50a:	461a      	mov	r2, r3
     50c:	4623      	mov	r3, r4
     50e:	e9d7 0106 	ldrd	r0, r1, [r7, #24]
     512:	f006 fefc 	bl	730e <__aeabi_uldivmod>
     516:	4603      	mov	r3, r0
     518:	460c      	mov	r4, r1
     51a:	e9c7 3406 	strd	r3, r4, [r7, #24]
     51e:	68bb      	ldr	r3, [r7, #8]
     520:	f04f 0400 	mov.w	r4, #0
     524:	e9d7 1206 	ldrd	r1, r2, [r7, #24]
     528:	42a2      	cmp	r2, r4
     52a:	bf08      	it	eq
     52c:	4299      	cmpeq	r1, r3
     52e:	d30f      	bcc.n	550 <LPSPI_MasterSetDelayTimes+0x1d0>
     530:	69ba      	ldr	r2, [r7, #24]
     532:	68bb      	ldr	r3, [r7, #8]
     534:	1ad3      	subs	r3, r2, r3
     536:	617b      	str	r3, [r7, #20]
     538:	6b7a      	ldr	r2, [r7, #52]	; 0x34
     53a:	697b      	ldr	r3, [r7, #20]
     53c:	429a      	cmp	r2, r3
     53e:	d907      	bls.n	550 <LPSPI_MasterSetDelayTimes+0x1d0>
     540:	697b      	ldr	r3, [r7, #20]
     542:	637b      	str	r3, [r7, #52]	; 0x34
     544:	6bfb      	ldr	r3, [r7, #60]	; 0x3c
     546:	63bb      	str	r3, [r7, #56]	; 0x38
     548:	e9d7 3406 	ldrd	r3, r4, [r7, #24]
     54c:	e9c7 3410 	strd	r3, r4, [r7, #64]	; 0x40
     550:	6bfb      	ldr	r3, [r7, #60]	; 0x3c
     552:	3301      	adds	r3, #1
     554:	63fb      	str	r3, [r7, #60]	; 0x3c
     556:	6bfb      	ldr	r3, [r7, #60]	; 0x3c
     558:	2bff      	cmp	r3, #255	; 0xff
     55a:	d802      	bhi.n	562 <LPSPI_MasterSetDelayTimes+0x1e2>
     55c:	6b7b      	ldr	r3, [r7, #52]	; 0x34
     55e:	2b00      	cmp	r3, #0
     560:	d1b5      	bne.n	4ce <LPSPI_MasterSetDelayTimes+0x14e>
     562:	79fb      	ldrb	r3, [r7, #7]
     564:	461a      	mov	r2, r3
     566:	6bb9      	ldr	r1, [r7, #56]	; 0x38
     568:	68f8      	ldr	r0, [r7, #12]
     56a:	f001 fda9 	bl	20c0 <LPSPI_MasterSetDelayScaler>
     56e:	6c3b      	ldr	r3, [r7, #64]	; 0x40
     570:	4618      	mov	r0, r3
     572:	374c      	adds	r7, #76	; 0x4c
     574:	46bd      	mov	sp, r7
     576:	e8bd 83f0 	ldmia.w	sp!, {r4, r5, r6, r7, r8, r9, pc}
     57a:	bf00      	nop
     57c:	f3af 8000 	nop.w
     580:	ca00      	ldmia	r2!, {}
     582:	3b9a      	subs	r3, #154	; 0x9a
     584:	0000      	movs	r0, r0
     586:	0000      	movs	r0, r0
     588:	8f04      	ldrh	r4, [r0, #56]	; 0x38
	...

0000058c <DbgConsole_SendDataReliable>:
     58c:	b580      	push	{r7, lr}
     58e:	b084      	sub	sp, #16
     590:	af00      	add	r7, sp, #0
     592:	6078      	str	r0, [r7, #4]
     594:	6039      	str	r1, [r7, #0]
     596:	f243 5321 	movw	r3, #13601	; 0x3521
     59a:	60fb      	str	r3, [r7, #12]
     59c:	687b      	ldr	r3, [r7, #4]
     59e:	2b00      	cmp	r3, #0
     5a0:	d102      	bne.n	5a8 <DbgConsole_SendDataReliable+0x1c>
     5a2:	480d      	ldr	r0, [pc, #52]	; (5d8 <DbgConsole_SendDataReliable+0x4c>)
     5a4:	f004 fe94 	bl	52d0 <__assertion_failed>
     5a8:	683b      	ldr	r3, [r7, #0]
     5aa:	2b00      	cmp	r3, #0
     5ac:	d102      	bne.n	5b4 <DbgConsole_SendDataReliable+0x28>
     5ae:	480b      	ldr	r0, [pc, #44]	; (5dc <DbgConsole_SendDataReliable+0x50>)
     5b0:	f004 fe8e 	bl	52d0 <__assertion_failed>
     5b4:	6879683a 	.word	0x6879683a
     5b8:	4809      	ldr	r0, [pc, #36]	; (5e0 <DbgConsole_SendDataReliable+0x54>)
     5ba:	f006      	.short	0xf006
     5bc:	fbfd 4603 			; <UNDEFINED> instruction: 0xfbfd4603
     5c0:	68fb60fb 	.word	0x68fb60fb
     5c4:	2b00      	cmp	r3, #0
     5c6:	d101      	.short	0xd101
     5c8:	683b      	ldr	r3, [r7, #0]
     5ca:	e001      	.short	0xe001
     5cc:	f04f 33ff 	mov.w	r3, #4294967295
     5d0:	37104618 	.word	0x37104618
     5d4:	46bd      	mov	sp, r7
     5d6:	bd80      	.short	0xbd80
     5d8:	7548      	strb	r0, [r1, #21]
     5da:	0000      	.short	0x0000
     5dc:	757c      	strb	r4, [r7, #21]
     5de:	0000      	.short	0x0000
     5e0:	002c      	movs	r4, r5
     5e2:	2000      	.short	0x2000

000005e4 <DbgConsole_Init>:
     5e4:	b580      	push	{r7, lr}
     5e6:	b08e      	.short	0xb08e
     5e8:	af00      	add	r7, sp, #0
     5ea:	60b9      	.short	0x60b9
     5ec:	607b      	str	r3, [r7, #4]
     5ee:	4603      	.short	0x4603
     5f0:	73fb      	strb	r3, [r7, #15]
     5f2:	4613      	.short	0x4613
     5f4:	73bb      	strb	r3, [r7, #14]
     5f6:	f243      	.short	0xf243
     5f8:	5321      	strh	r1, [r4, r4]
     5fa:	637b      	.short	0x637b
     5fc:	687b      	ldr	r3, [r7, #4]
     5fe:	617b      	.short	0x617b
     600:	68bb      	ldr	r3, [r7, #8]
     602:	61bb      	.short	0x61bb
     604:	2300      	movs	r3, #0
     606:	773b      	.short	0x773b
     608:	2300      	movs	r3, #0
     60a:	777b      	.short	0x777b
     60c:	7bfb      	ldrb	r3, [r7, #15]
     60e:	77bb      	.short	0x77bb
     610:	2301      	movs	r3, #1
     612:	77fb      	.short	0x77fb
     614:	2301      	movs	r3, #1
     616:	f887      	.short	0xf887
     618:	3020      	adds	r0, #32
     61a:	7bbb      	.short	0x7bbb
     61c:	f887 302c 	strb.w	r3, [r7, #44]	; 0x2c
     620:	2b017bbb 	.word	0x2b017bbb
     624:	d118      	bne.n	658 <DbgConsole_Init+0x74>
     626:	f107      	.short	0xf107
     628:	0314      	lsls	r4, r2, #12
     62a:	633b      	.short	0x633b
     62c:	221c      	movs	r2, #28
     62e:	2100      	.short	0x2100
     630:	4826      	ldr	r0, [pc, #152]	; (6cc <DbgConsole_Init+0xe8>)
     632:	f006      	.short	0xf006
     634:	fca3 4b25 	stc2	11, cr4, [r3], #148	; 0x94	; <UNPREDICTABLE>
     638:	611a4a24 	.word	0x611a4a24
     63c:	4b23      	ldr	r3, [pc, #140]	; (6cc <DbgConsole_Init+0xe8>)
     63e:	691b      	.short	0x691b
     640:	f107 0224 	add.w	r2, r7, #36	; 0x24
     644:	46184611 	.word	0x46184611
     648:	f003 fd84 	bl	4154 <SerialManager_Init>
     64c:	637b4603 	.word	0x637b4603
     650:	6b7b      	ldr	r3, [r7, #52]	; 0x34
     652:	2b00      	.short	0x2b00
     654:	d014      	beq.n	680 <DbgConsole_Init+0x9c>
     656:	e010      	.short	0xe010
     658:	7bbb      	ldrb	r3, [r7, #14]
     65a:	2b02      	.short	0x2b02
     65c:	d101      	bne.n	662 <DbgConsole_Init+0x7e>
     65e:	6b7b      	.short	0x6b7b
     660:	e02f      	b.n	6c2 <DbgConsole_Init+0xde>
     662:	7bbb      	.short	0x7bbb
     664:	2b03      	cmp	r3, #3
     666:	d101      	.short	0xd101
     668:	6b7b      	ldr	r3, [r7, #52]	; 0x34
     66a:	e02a      	.short	0xe02a
     66c:	7bbb      	ldrb	r3, [r7, #14]
     66e:	2b04      	.short	0x2b04
     670:	d101      	bne.n	676 <DbgConsole_Init+0x92>
     672:	6b7b      	.short	0x6b7b
     674:	e025      	b.n	6c2 <DbgConsole_Init+0xde>
     676:	6b7b      	.short	0x6b7b
     678:	e023      	b.n	6c2 <DbgConsole_Init+0xde>
     67a:	4815      	.short	0x4815
     67c:	f004 fe28 	bl	52d0 <__assertion_failed>
     680:	691b4b12 	.word	0x691b4b12
     684:	4913      	ldr	r1, [pc, #76]	; (6d4 <DbgConsole_Init+0xf0>)
     686:	4618      	.short	0x4618
     688:	f003 fd9e 	bl	41c8 <SerialManager_OpenWriteHandle>
     68c:	637b4603 	.word	0x637b4603
     690:	6b7b      	ldr	r3, [r7, #52]	; 0x34
     692:	2b00      	.short	0x2b00
     694:	d002      	beq.n	69c <DbgConsole_Init+0xb8>
     696:	4810      	.short	0x4810
     698:	f004 fe1a 	bl	52d0 <__assertion_failed>
     69c:	691b4b0b 	.word	0x691b4b0b
     6a0:	490e      	ldr	r1, [pc, #56]	; (6dc <DbgConsole_Init+0xf8>)
     6a2:	4618      	.short	0x4618
     6a4:	f003 fdbc 	bl	4220 <SerialManager_OpenReadHandle>
     6a8:	637b4603 	.word	0x637b4603
     6ac:	6b7b      	ldr	r3, [r7, #52]	; 0x34
     6ae:	2b00      	.short	0x2b00
     6b0:	d002      	beq.n	6b8 <DbgConsole_Init+0xd4>
     6b2:	480b      	.short	0x480b
     6b4:	f004 fe0c 	bl	52d0 <__assertion_failed>
     6b8:	4b04      	ldr	r3, [pc, #16]	; (6cc <DbgConsole_Init+0xe8>)
     6ba:	691b      	.short	0x691b
     6bc:	4a09      	ldr	r2, [pc, #36]	; (6e4 <DbgConsole_Init+0x100>)
     6be:	6013      	.short	0x6013
     6c0:	2300      	movs	r3, #0
     6c2:	4618      	.short	0x4618
     6c4:	3738      	adds	r7, #56	; 0x38
     6c6:	46bd      	.short	0x46bd
     6c8:	bd80      	pop	{r7, pc}
     6ca:	bf00      	.short	0xbf00
     6cc:	0018      	movs	r0, r3
     6ce:	2000      	.short	0x2000
     6d0:	7610      	strb	r0, [r2, #24]
     6d2:	0000      	.short	0x0000
     6d4:	002c      	movs	r4, r5
     6d6:	2000      	.short	0x2000
     6d8:	7660      	strb	r0, [r4, #25]
     6da:	0000      	.short	0x0000
     6dc:	0030      	movs	r0, r6
     6de:	2000      	.short	0x2000
     6e0:	76b0      	strb	r0, [r6, #26]
     6e2:	0000      	.short	0x0000
     6e4:	0034      	movs	r4, r6
     6e6:	2000      	.short	0x2000

000006e8 <DbgConsole_Printf>:
     6e8:	b40f      	push	{r0, r1, r2, r3}
     6ea:	b580      	.short	0xb580
     6ec:	b0a4      	sub	sp, #144	; 0x90
     6ee:	af00      	.short	0xaf00
     6f0:	2300      	movs	r3, #0
     6f2:	f8c7      	.short	0xf8c7
     6f4:	308c      	adds	r0, #140	; 0x8c
     6f6:	2300      	.short	0x2300
     6f8:	f8c7 3088 	str.w	r3, [r7, #136]	; 0x88
     6fc:	22801d3b 	.word	0x22801d3b
     700:	2100      	movs	r1, #0
     702:	4618      	.short	0x4618
     704:	f006 fc3a 	bl	6f7c <memset>
     708:	681b4b12 	.word	0x681b4b12
     70c:	2b00      	cmp	r3, #0
     70e:	d101      	.short	0xd101
     710:	2300      	movs	r3, #0
     712:	e018      	.short	0xe018
     714:	f107 039c 	add.w	r3, r7, #156	; 0x9c
     718:	3084f8c7 	.word	0x3084f8c7
     71c:	1d3a      	adds	r2, r7, #4
     71e:	4b0e      	.short	0x4b0e
     720:	f8d7 1084 	ldr.w	r1, [r7, #132]	; 0x84
     724:	0098f8d7 	.word	0x0098f8d7
     728:	f005 f8aa 	bl	5880 <StrFormatPrintf>
     72c:	008cf8c7 	.word	0x008cf8c7
     730:	f8d7 208c 	ldr.w	r2, [r7, #140]	; 0x8c
     734:	46111d3b 	.word	0x46111d3b
     738:	4618      	mov	r0, r3
     73a:	f7ff      	.short	0xf7ff
     73c:	ff27 f8c7 	vsub.i32	<illegal reg q7.5>, <illegal reg q11.5>, <illegal reg q3.5>
     740:	f8d70088 	.word	0xf8d70088
     744:	3088      	adds	r0, #136	; 0x88
     746:	4618      	.short	0x4618
     748:	3790      	adds	r7, #144	; 0x90
     74a:	46bd      	.short	0x46bd
     74c:	e8bd 4080 	ldmia.w	sp!, {r7, lr}
     750:	4770b004 	.word	0x4770b004
     754:	0034      	movs	r4, r6
     756:	2000      	.short	0x2000
     758:	5709      	ldrsb	r1, [r1, r4]
	...

0000075c <main>:
     75c:	af00b580 	.word	0xaf00b580
     760:	f003 ff72 	bl	4648 <BOARD_ConfigMPU>
     764:	fc9af004 	.word	0xfc9af004
     768:	f004 f922 	bl	49b0 <BOARD_BootClockRUN>
     76c:	fb34f006 	.word	0xfb34f006
     770:	481c      	ldr	r0, [pc, #112]	; (7e4 <main+0x88>)
     772:	f7ff      	.short	0xf7ff
     774:	ffb9 481c 	vqshrun.s64	d4, q6, #7
     778:	ffb6f7ff 	.word	0xffb6f7ff
     77c:	481b      	ldr	r0, [pc, #108]	; (7ec <main+0x90>)
     77e:	f7ff      	.short	0xf7ff
     780:	ffb3 481b 	vqshrun.s64	d4, <illegal reg q5.5>, #13
     784:	ffb0f7ff 	.word	0xffb0f7ff
     788:	481a      	ldr	r0, [pc, #104]	; (7f4 <main+0x98>)
     78a:	f7ff      	.short	0xf7ff
     78c:	ffad 481a 	vqshrun.s64	d4, q5, #19
     790:	ffaaf7ff 	.word	0xffaaf7ff
     794:	4819      	ldr	r0, [pc, #100]	; (7fc <main+0xa0>)
     796:	f7ff      	.short	0xf7ff
     798:	ffa7 4819 	vqshrun.s64	d4, <illegal reg q4.5>, #25
     79c:	ffa4f7ff 	.word	0xffa4f7ff
     7a0:	4818      	ldr	r0, [pc, #96]	; (804 <main+0xa8>)
     7a2:	f7ff      	.short	0xf7ff
     7a4:	ffa1 4818 	vqshrun.s64	d4, q4, #31
     7a8:	ff9ef7ff 	.word	0xff9ef7ff
     7ac:	4b17      	ldr	r3, [pc, #92]	; (80c <main+0xb0>)
     7ae:	689b      	.short	0x689b
     7b0:	4817      	ldr	r0, [pc, #92]	; (810 <main+0xb4>)
     7b2:	4798      	.short	0x4798
     7b4:	4b15      	ldr	r3, [pc, #84]	; (80c <main+0xb0>)
     7b6:	691b      	.short	0x691b
     7b8:	2002      	movs	r0, #2
     7ba:	4798      	.short	0x4798
     7bc:	4b13      	ldr	r3, [pc, #76]	; (80c <main+0xb0>)
     7be:	6a5b      	.short	0x6a5b
     7c0:	4914      	ldr	r1, [pc, #80]	; (814 <main+0xb8>)
     7c2:	2001      	.short	0x2001
     7c4:	4798      	blx	r3
     7c6:	2200      	movs	r2, #0
     7c8:	4813210b 	.word	0x4813210b
     7cc:	f001 f94a 	bl	1a64 <GPIO_PinWrite>
     7d0:	f0052032 	.word	0xf0052032
     7d4:	fc69 20fa 	stc2l	0, cr2, [r9], #-1000	; 0xfffffc18
     7d8:	fc66f005 	.word	0xfc66f005
     7dc:	f000 f906 	bl	9ec <W5100_Init>
     7e0:	bf00e7fe 	.word	0xbf00e7fe
     7e4:	7700      	strb	r0, [r0, #28]
     7e6:	0000      	.short	0x0000
     7e8:	7738      	strb	r0, [r7, #28]
     7ea:	0000      	.short	0x0000
     7ec:	7778      	strb	r0, [r7, #29]
     7ee:	0000      	.short	0x0000
     7f0:	77bc      	strb	r4, [r7, #30]
     7f2:	0000      	.short	0x0000
     7f4:	7814      	ldrb	r4, [r2, #0]
     7f6:	0000      	.short	0x0000
     7f8:	7838      	ldrb	r0, [r7, #0]
     7fa:	0000      	.short	0x0000
     7fc:	7854      	ldrb	r4, [r2, #1]
     7fe:	0000      	.short	0x0000
     800:	7870      	ldrb	r0, [r6, #1]
     802:	0000      	.short	0x0000
     804:	788c      	ldrb	r4, [r1, #2]
     806:	0000      	.short	0x0000
     808:	78a8      	ldrb	r0, [r5, #2]
     80a:	0000      	.short	0x0000
     80c:	8f80      	ldrh	r0, [r0, #60]	; 0x3c
     80e:	0000      	.short	0x0000
     810:	0831      	lsrs	r1, r6, #32
     812:	0000      	.short	0x0000
     814:	86a0      	strh	r0, [r4, #52]	; 0x34
     816:	0001      	.short	0x0001
     818:	c000      	stmia	r0!, {}
     81a:	401b      	.short	0x401b

0000081c <LPSPI4_GetFreq>:
     81c:	b480      	push	{r7}
     81e:	af00      	.short	0xaf00
     820:	4b02      	ldr	r3, [pc, #8]	; (82c <LPSPI4_GetFreq+0x10>)
     822:	4618      	.short	0x4618
     824:	46bd      	mov	sp, r7
     826:	f85d      	.short	0xf85d
     828:	7b04      	ldrb	r4, [r0, #12]
     82a:	4770      	.short	0x4770
     82c:	1480      	asrs	r0, r0, #18
     82e:	03ef      	.short	0x03ef

00000830 <LPSPI_MasterSignalEvent_t>:
     830:	b480      	push	{r7}
     832:	b083      	.short	0xb083
     834:	af00      	add	r7, sp, #0
     836:	6078      	.short	0x6078
     838:	4b0c      	ldr	r3, [pc, #48]	; (86c <LPSPI_MasterSignalEvent_t+0x3c>)
     83a:	781b      	.short	0x781b
     83c:	b2db      	uxtb	r3, r3
     83e:	2b00      	.short	0x2b00
     840:	d002      	beq.n	848 <LPSPI_MasterSignalEvent_t+0x18>
     842:	4b0a      	.short	0x4b0a
     844:	2200      	movs	r2, #0
     846:	701a      	.short	0x701a
     848:	4b09      	ldr	r3, [pc, #36]	; (870 <LPSPI_MasterSignalEvent_t+0x40>)
     84a:	781b      	.short	0x781b
     84c:	b2db      	uxtb	r3, r3
     84e:	2b00      	.short	0x2b00
     850:	d002      	beq.n	858 <LPSPI_MasterSignalEvent_t+0x28>
     852:	4b07      	.short	0x4b07
     854:	2200      	movs	r2, #0
     856:	701a      	.short	0x701a
     858:	4b06      	ldr	r3, [pc, #24]	; (874 <LPSPI_MasterSignalEvent_t+0x44>)
     85a:	2201      	.short	0x2201
     85c:	701a      	strb	r2, [r3, #0]
     85e:	bf00      	.short	0xbf00
     860:	370c      	adds	r7, #12
     862:	46bd      	.short	0x46bd
     864:	f85d 7b04 	ldr.w	r7, [sp], #4
     868:	bf004770 	.word	0xbf004770
     86c:	020b      	lsls	r3, r1, #8
     86e:	2000      	.short	0x2000
     870:	020a      	lsls	r2, r1, #8
     872:	2000      	.short	0x2000
     874:	0209      	lsls	r1, r1, #8
     876:	2000      	.short	0x2000

00000878 <SPI_Write>:
     878:	b580      	push	{r7, lr}
     87a:	b082      	sub	sp, #8
     87c:	af00      	add	r7, sp, #0
     87e:	4603      	mov	r3, r0
     880:	460a      	mov	r2, r1
     882:	80fb      	strh	r3, [r7, #6]
     884:	4613      	mov	r3, r2
     886:	717b      	strb	r3, [r7, #5]
     888:	4b22      	ldr	r3, [pc, #136]	; (914 <SPI_Write+0x9c>)
     88a:	22f0      	movs	r2, #240	; 0xf0
     88c:	701a      	strb	r2, [r3, #0]
     88e:	88fb      	ldrh	r3, [r7, #6]
     890:	0a1b      	lsrs	r3, r3, #8
     892:	b29b      	uxth	r3, r3
     894:	b2da      	uxtb	r2, r3
     896:	4b1f      	ldr	r3, [pc, #124]	; (914 <SPI_Write+0x9c>)
     898:	705a      	strb	r2, [r3, #1]
     89a:	88fb      	ldrh	r3, [r7, #6]
     89c:	b2da      	uxtb	r2, r3
     89e:	4b1d      	ldr	r3, [pc, #116]	; (914 <SPI_Write+0x9c>)
     8a0:	709a      	strb	r2, [r3, #2]
     8a2:	4a1c      	ldr	r2, [pc, #112]	; (914 <SPI_Write+0x9c>)
     8a4:	797b      	ldrb	r3, [r7, #5]
     8a6:	70d3      	strb	r3, [r2, #3]
     8a8:	4b1b      	ldr	r3, [pc, #108]	; (918 <SPI_Write+0xa0>)
     8aa:	2200      	movs	r2, #0
     8ac:	701a      	strb	r2, [r3, #0]
     8ae:	4b1b      	ldr	r3, [pc, #108]	; (91c <SPI_Write+0xa4>)
     8b0:	2201      	movs	r2, #1
     8b2:	701a      	strb	r2, [r3, #0]
     8b4:	4b1a      	ldr	r3, [pc, #104]	; (920 <SPI_Write+0xa8>)
     8b6:	69db      	ldr	r3, [r3, #28]
     8b8:	2204      	movs	r2, #4
     8ba:	491a      	ldr	r1, [pc, #104]	; (924 <SPI_Write+0xac>)
     8bc:	4815      	ldr	r0, [pc, #84]	; (914 <SPI_Write+0x9c>)
     8be:	4798      	blx	r3
     8c0:	bf00      	nop
     8c2:	4b15      	ldr	r3, [pc, #84]	; (918 <SPI_Write+0xa0>)
     8c4:	781b      	ldrb	r3, [r3, #0]
     8c6:	b2db      	uxtb	r3, r3
     8c8:	f083 0301 	eor.w	r3, r3, #1
     8cc:	b2db      	uxtb	r3, r3
     8ce:	2b00      	cmp	r3, #0
     8d0:	d1f7      	bne.n	8c2 <SPI_Write+0x4a>
     8d2:	4b11      	ldr	r3, [pc, #68]	; (918 <SPI_Write+0xa0>)
     8d4:	2200      	movs	r2, #0
     8d6:	701a      	strb	r2, [r3, #0]
     8d8:	4b13      	ldr	r3, [pc, #76]	; (928 <SPI_Write+0xb0>)
     8da:	2201      	movs	r2, #1
     8dc:	701a      	strb	r2, [r3, #0]
     8de:	2001      	movs	r0, #1
     8e0:	f005 fbe2 	bl	60a8 <_delay_ms>
     8e4:	4b11      	ldr	r3, [pc, #68]	; (92c <SPI_Write+0xb4>)
     8e6:	2200      	movs	r2, #0
     8e8:	701a      	strb	r2, [r3, #0]
     8ea:	e00b      	b.n	904 <SPI_Write+0x8c>
     8ec:	4b0f      	ldr	r3, [pc, #60]	; (92c <SPI_Write+0xb4>)
     8ee:	781b      	ldrb	r3, [r3, #0]
     8f0:	461a      	mov	r2, r3
     8f2:	4b0c      	ldr	r3, [pc, #48]	; (924 <SPI_Write+0xac>)
     8f4:	2100      	movs	r1, #0
     8f6:	5499      	strb	r1, [r3, r2]
     8f8:	4b0c      	ldr	r3, [pc, #48]	; (92c <SPI_Write+0xb4>)
     8fa:	781b      	ldrb	r3, [r3, #0]
     8fc:	3301      	adds	r3, #1
     8fe:	b2da      	uxtb	r2, r3
     900:	4b0a      	ldr	r3, [pc, #40]	; (92c <SPI_Write+0xb4>)
     902:	701a      	strb	r2, [r3, #0]
     904:	4b09      	ldr	r3, [pc, #36]	; (92c <SPI_Write+0xb4>)
     906:	781b      	ldrb	r3, [r3, #0]
     908:	2b03      	cmp	r3, #3
     90a:	d9ef      	bls.n	8ec <SPI_Write+0x74>
     90c:	bf00      	nop
     90e:	3708      	adds	r7, #8
     910:	46bd      	mov	sp, r7
     912:	bd80      	pop	{r7, pc}
     914:	2000003c 	.word	0x2000003c
     918:	20000209 	.word	0x20000209
     91c:	2000020a 	.word	0x2000020a
     920:	00008f80 	.word	0x00008f80
     924:	20000038 	.word	0x20000038
     928:	2000020b 	.word	0x2000020b
     92c:	20000208 	.word	0x20000208

00000930 <SPI_Read>:
     930:	b580      	push	{r7, lr}
     932:	b082      	sub	sp, #8
     934:	af00      	add	r7, sp, #0
     936:	4603      	mov	r3, r0
     938:	80fb      	strh	r3, [r7, #6]
     93a:	4b25      	ldr	r3, [pc, #148]	; (9d0 <SPI_Read+0xa0>)
     93c:	220f      	movs	r2, #15
     93e:	701a      	strb	r2, [r3, #0]
     940:	88fb      	ldrh	r3, [r7, #6]
     942:	0a1b      	lsrs	r3, r3, #8
     944:	b29b      	uxth	r3, r3
     946:	b2da      	uxtb	r2, r3
     948:	4b21      	ldr	r3, [pc, #132]	; (9d0 <SPI_Read+0xa0>)
     94a:	705a      	strb	r2, [r3, #1]
     94c:	88fb      	ldrh	r3, [r7, #6]
     94e:	b2da      	uxtb	r2, r3
     950:	4b1f      	ldr	r3, [pc, #124]	; (9d0 <SPI_Read+0xa0>)
     952:	709a      	strb	r2, [r3, #2]
     954:	4b1e      	ldr	r3, [pc, #120]	; (9d0 <SPI_Read+0xa0>)
     956:	2200      	movs	r2, #0
     958:	70da      	strb	r2, [r3, #3]
     95a:	4b1e      	ldr	r3, [pc, #120]	; (9d4 <SPI_Read+0xa4>)
     95c:	2200      	movs	r2, #0
     95e:	701a      	strb	r2, [r3, #0]
     960:	4b1d      	ldr	r3, [pc, #116]	; (9d8 <SPI_Read+0xa8>)
     962:	2201      	movs	r2, #1
     964:	701a      	strb	r2, [r3, #0]
     966:	4b1d      	ldr	r3, [pc, #116]	; (9dc <SPI_Read+0xac>)
     968:	2200      	movs	r2, #0
     96a:	701a      	strb	r2, [r3, #0]
     96c:	e00b      	b.n	986 <SPI_Read+0x56>
     96e:	4b1b      	ldr	r3, [pc, #108]	; (9dc <SPI_Read+0xac>)
     970:	781b      	ldrb	r3, [r3, #0]
     972:	461a      	mov	r2, r3
     974:	4b1a      	ldr	r3, [pc, #104]	; (9e0 <SPI_Read+0xb0>)
     976:	2100      	movs	r1, #0
     978:	5499      	strb	r1, [r3, r2]
     97a:	4b18      	ldr	r3, [pc, #96]	; (9dc <SPI_Read+0xac>)
     97c:	781b      	ldrb	r3, [r3, #0]
     97e:	3301      	adds	r3, #1
     980:	b2da      	uxtb	r2, r3
     982:	4b16      	ldr	r3, [pc, #88]	; (9dc <SPI_Read+0xac>)
     984:	701a      	strb	r2, [r3, #0]
     986:	4b15      	ldr	r3, [pc, #84]	; (9dc <SPI_Read+0xac>)
     988:	781b      	ldrb	r3, [r3, #0]
     98a:	2b03      	cmp	r3, #3
     98c:	d9ef      	bls.n	96e <SPI_Read+0x3e>
     98e:	4b11      	ldr	r3, [pc, #68]	; (9d4 <SPI_Read+0xa4>)
     990:	2200      	movs	r2, #0
     992:	701a      	strb	r2, [r3, #0]
     994:	4b13      	ldr	r3, [pc, #76]	; (9e4 <SPI_Read+0xb4>)
     996:	2201      	movs	r2, #1
     998:	701a      	strb	r2, [r3, #0]
     99a:	4b13      	ldr	r3, [pc, #76]	; (9e8 <SPI_Read+0xb8>)
     99c:	69db      	ldr	r3, [r3, #28]
     99e:	2204      	movs	r2, #4
     9a0:	490f      	ldr	r1, [pc, #60]	; (9e0 <SPI_Read+0xb0>)
     9a2:	480b      	ldr	r0, [pc, #44]	; (9d0 <SPI_Read+0xa0>)
     9a4:	4798      	blx	r3
     9a6:	bf00      	nop
     9a8:	4b0a      	ldr	r3, [pc, #40]	; (9d4 <SPI_Read+0xa4>)
     9aa:	781b      	ldrb	r3, [r3, #0]
     9ac:	b2db      	uxtb	r3, r3
     9ae:	f083 0301 	eor.w	r3, r3, #1
     9b2:	b2db      	uxtb	r3, r3
     9b4:	2b00      	cmp	r3, #0
     9b6:	d1f7      	bne.n	9a8 <SPI_Read+0x78>
     9b8:	4b06      	ldr	r3, [pc, #24]	; (9d4 <SPI_Read+0xa4>)
     9ba:	2200      	movs	r2, #0
     9bc:	701a      	strb	r2, [r3, #0]
     9be:	4b06      	ldr	r3, [pc, #24]	; (9d8 <SPI_Read+0xa8>)
     9c0:	2201      	movs	r2, #1
     9c2:	701a      	strb	r2, [r3, #0]
     9c4:	4b06      	ldr	r3, [pc, #24]	; (9e0 <SPI_Read+0xb0>)
     9c6:	78db      	ldrb	r3, [r3, #3]
     9c8:	4618      	mov	r0, r3
     9ca:	3708      	adds	r7, #8
     9cc:	46bd      	mov	sp, r7
     9ce:	bd80      	pop	{r7, pc}
     9d0:	2000003c 	.word	0x2000003c
     9d4:	20000209 	.word	0x20000209
     9d8:	2000020b 	.word	0x2000020b
     9dc:	20000208 	.word	0x20000208
     9e0:	20000038 	.word	0x20000038
     9e4:	2000020a 	.word	0x2000020a
     9e8:	00008f80 	.word	0x00008f80

000009ec <W5100_Init>:
     9ec:	e92d 43f0 	stmdb	sp!, {r4, r5, r6, r7, r8, r9, lr}
     9f0:	b08b      	sub	sp, #44	; 0x2c
     9f2:	af04      	add	r7, sp, #16
     9f4:	4aa1      	ldr	r2, [pc, #644]	; (c7c <W5100_Init+0x290>)
     9f6:	f107 0310 	add.w	r3, r7, #16
     9fa:	e892 0003 	ldmia.w	r2, {r0, r1}
     9fe:	6018      	str	r0, [r3, #0]
     a00:	3304      	adds	r3, #4
     a02:	8019      	strh	r1, [r3, #0]
     a04:	4b9e      	ldr	r3, [pc, #632]	; (c80 <W5100_Init+0x294>)
     a06:	681b      	ldr	r3, [r3, #0]
     a08:	60fb      	str	r3, [r7, #12]
     a0a:	4b9e      	ldr	r3, [pc, #632]	; (c84 <W5100_Init+0x298>)
     a0c:	681b      	ldr	r3, [r3, #0]
     a0e:	60bb      	str	r3, [r7, #8]
     a10:	4b9d      	ldr	r3, [pc, #628]	; (c88 <W5100_Init+0x29c>)
     a12:	681b      	ldr	r3, [r3, #0]
     a14:	607b      	str	r3, [r7, #4]
     a16:	2180      	movs	r1, #128	; 0x80
     a18:	2000      	movs	r0, #0
     a1a:	f7ff ff2d 	bl	878 <SPI_Write>
     a1e:	200a      	movs	r0, #10
     a20:	f005 fb42 	bl	60a8 <_delay_ms>
     a24:	2000      	movs	r0, #0
     a26:	f7ff ff83 	bl	930 <SPI_Read>
     a2a:	4603      	mov	r3, r0
     a2c:	4619      	mov	r1, r3
     a2e:	4897      	ldr	r0, [pc, #604]	; (c8c <W5100_Init+0x2a0>)
     a30:	f7ff fe5a 	bl	6e8 <DbgConsole_Printf>
     a34:	793b      	ldrb	r3, [r7, #4]
     a36:	4619      	mov	r1, r3
     a38:	797b      	ldrb	r3, [r7, #5]
     a3a:	461a      	mov	r2, r3
     a3c:	79bb      	ldrb	r3, [r7, #6]
     a3e:	4618      	mov	r0, r3
     a40:	79fb      	ldrb	r3, [r7, #7]
     a42:	9300      	str	r3, [sp, #0]
     a44:	4603      	mov	r3, r0
     a46:	4892      	ldr	r0, [pc, #584]	; (c90 <W5100_Init+0x2a4>)
     a48:	f7ff fe4e 	bl	6e8 <DbgConsole_Printf>
     a4c:	793b      	ldrb	r3, [r7, #4]
     a4e:	4619      	mov	r1, r3
     a50:	2001      	movs	r0, #1
     a52:	f7ff ff11 	bl	878 <SPI_Write>
     a56:	797b      	ldrb	r3, [r7, #5]
     a58:	4619      	mov	r1, r3
     a5a:	2002      	movs	r0, #2
     a5c:	f7ff ff0c 	bl	878 <SPI_Write>
     a60:	79bb      	ldrb	r3, [r7, #6]
     a62:	4619      	mov	r1, r3
     a64:	2003      	movs	r0, #3
     a66:	f7ff ff07 	bl	878 <SPI_Write>
     a6a:	79fb      	ldrb	r3, [r7, #7]
     a6c:	4619      	mov	r1, r3
     a6e:	2004      	movs	r0, #4
     a70:	f7ff ff02 	bl	878 <SPI_Write>
     a74:	200a      	movs	r0, #10
     a76:	f005 fb17 	bl	60a8 <_delay_ms>
     a7a:	2001      	movs	r0, #1
     a7c:	f7ff ff58 	bl	930 <SPI_Read>
     a80:	4603      	mov	r3, r0
     a82:	461c      	mov	r4, r3
     a84:	2002      	movs	r0, #2
     a86:	f7ff ff53 	bl	930 <SPI_Read>
     a8a:	4603      	mov	r3, r0
     a8c:	461d      	mov	r5, r3
     a8e:	2003      	movs	r0, #3
     a90:	f7ff ff4e 	bl	930 <SPI_Read>
     a94:	4603      	mov	r3, r0
     a96:	461e      	mov	r6, r3
     a98:	2004      	movs	r0, #4
     a9a:	f7ff ff49 	bl	930 <SPI_Read>
     a9e:	4603      	mov	r3, r0
     aa0:	9300      	str	r3, [sp, #0]
     aa2:	4633      	mov	r3, r6
     aa4:	462a      	mov	r2, r5
     aa6:	4621      	mov	r1, r4
     aa8:	487a      	ldr	r0, [pc, #488]	; (c94 <W5100_Init+0x2a8>)
     aaa:	f7ff fe1d 	bl	6e8 <DbgConsole_Printf>
     aae:	7c3b      	ldrb	r3, [r7, #16]
     ab0:	4618      	mov	r0, r3
     ab2:	7c7b      	ldrb	r3, [r7, #17]
     ab4:	461c      	mov	r4, r3
     ab6:	7cbb      	ldrb	r3, [r7, #18]
     ab8:	461d      	mov	r5, r3
     aba:	7cfb      	ldrb	r3, [r7, #19]
     abc:	7d3a      	ldrb	r2, [r7, #20]
     abe:	7d79      	ldrb	r1, [r7, #21]
     ac0:	9102      	str	r1, [sp, #8]
     ac2:	9201      	str	r2, [sp, #4]
     ac4:	9300      	str	r3, [sp, #0]
     ac6:	462b      	mov	r3, r5
     ac8:	4622      	mov	r2, r4
     aca:	4601      	mov	r1, r0
     acc:	4872      	ldr	r0, [pc, #456]	; (c98 <W5100_Init+0x2ac>)
     ace:	f7ff fe0b 	bl	6e8 <DbgConsole_Printf>
     ad2:	7c3b      	ldrb	r3, [r7, #16]
     ad4:	4619      	mov	r1, r3
     ad6:	2009      	movs	r0, #9
     ad8:	f7ff fece 	bl	878 <SPI_Write>
     adc:	7c7b      	ldrb	r3, [r7, #17]
     ade:	4619      	mov	r1, r3
     ae0:	200a      	movs	r0, #10
     ae2:	f7ff fec9 	bl	878 <SPI_Write>
     ae6:	7cbb      	ldrb	r3, [r7, #18]
     ae8:	4619      	mov	r1, r3
     aea:	200b      	movs	r0, #11
     aec:	f7ff fec4 	bl	878 <SPI_Write>
     af0:	7cfb      	ldrb	r3, [r7, #19]
     af2:	4619      	mov	r1, r3
     af4:	200c      	movs	r0, #12
     af6:	f7ff febf 	bl	878 <SPI_Write>
     afa:	7d3b      	ldrb	r3, [r7, #20]
     afc:	4619      	mov	r1, r3
     afe:	200d      	movs	r0, #13
     b00:	f7ff feba 	bl	878 <SPI_Write>
     b04:	7d7b      	ldrb	r3, [r7, #21]
     b06:	4619      	mov	r1, r3
     b08:	200e      	movs	r0, #14
     b0a:	f7ff feb5 	bl	878 <SPI_Write>
     b0e:	200a      	movs	r0, #10
     b10:	f005 faca 	bl	60a8 <_delay_ms>
     b14:	2009      	movs	r0, #9
     b16:	f7ff ff0b 	bl	930 <SPI_Read>
     b1a:	4603      	mov	r3, r0
     b1c:	461e      	mov	r6, r3
     b1e:	200a      	movs	r0, #10
     b20:	f7ff ff06 	bl	930 <SPI_Read>
     b24:	4603      	mov	r3, r0
     b26:	4698      	mov	r8, r3
     b28:	200b      	movs	r0, #11
     b2a:	f7ff ff01 	bl	930 <SPI_Read>
     b2e:	4603      	mov	r3, r0
     b30:	4699      	mov	r9, r3
     b32:	200c      	movs	r0, #12
     b34:	f7ff fefc 	bl	930 <SPI_Read>
     b38:	4603      	mov	r3, r0
     b3a:	461c      	mov	r4, r3
     b3c:	200d      	movs	r0, #13
     b3e:	f7ff fef7 	bl	930 <SPI_Read>
     b42:	4603      	mov	r3, r0
     b44:	461d      	mov	r5, r3
     b46:	200e      	movs	r0, #14
     b48:	f7ff fef2 	bl	930 <SPI_Read>
     b4c:	4603      	mov	r3, r0
     b4e:	9302      	str	r3, [sp, #8]
     b50:	9501      	str	r5, [sp, #4]
     b52:	9400      	str	r4, [sp, #0]
     b54:	464b      	mov	r3, r9
     b56:	4642      	mov	r2, r8
     b58:	4631      	mov	r1, r6
     b5a:	4850      	ldr	r0, [pc, #320]	; (c9c <W5100_Init+0x2b0>)
     b5c:	f7ff fdc4 	bl	6e8 <DbgConsole_Printf>
     b60:	7a3b      	ldrb	r3, [r7, #8]
     b62:	4619      	mov	r1, r3
     b64:	7a7b      	ldrb	r3, [r7, #9]
     b66:	461a      	mov	r2, r3
     b68:	7abb      	ldrb	r3, [r7, #10]
     b6a:	4618      	mov	r0, r3
     b6c:	7afb      	ldrb	r3, [r7, #11]
     b6e:	9300      	str	r3, [sp, #0]
     b70:	4603      	mov	r3, r0
     b72:	484b      	ldr	r0, [pc, #300]	; (ca0 <W5100_Init+0x2b4>)
     b74:	f7ff fdb8 	bl	6e8 <DbgConsole_Printf>
     b78:	7a3b      	ldrb	r3, [r7, #8]
     b7a:	4619      	mov	r1, r3
     b7c:	2005      	movs	r0, #5
     b7e:	f7ff fe7b 	bl	878 <SPI_Write>
     b82:	7a7b      	ldrb	r3, [r7, #9]
     b84:	4619      	mov	r1, r3
     b86:	2006      	movs	r0, #6
     b88:	f7ff fe76 	bl	878 <SPI_Write>
     b8c:	7abb      	ldrb	r3, [r7, #10]
     b8e:	4619      	mov	r1, r3
     b90:	2007      	movs	r0, #7
     b92:	f7ff fe71 	bl	878 <SPI_Write>
     b96:	7afb      	ldrb	r3, [r7, #11]
     b98:	4619      	mov	r1, r3
     b9a:	2008      	movs	r0, #8
     b9c:	f7ff fe6c 	bl	878 <SPI_Write>
     ba0:	200a      	movs	r0, #10
     ba2:	f005 fa81 	bl	60a8 <_delay_ms>
     ba6:	2005      	movs	r0, #5
     ba8:	f7ff fec2 	bl	930 <SPI_Read>
     bac:	4603      	mov	r3, r0
     bae:	461c      	mov	r4, r3
     bb0:	2006      	movs	r0, #6
     bb2:	f7ff febd 	bl	930 <SPI_Read>
     bb6:	4603      	mov	r3, r0
     bb8:	461d      	mov	r5, r3
     bba:	2007      	movs	r0, #7
     bbc:	f7ff feb8 	bl	930 <SPI_Read>
     bc0:	4603      	mov	r3, r0
     bc2:	461e      	mov	r6, r3
     bc4:	2008      	movs	r0, #8
     bc6:	f7ff feb3 	bl	930 <SPI_Read>
     bca:	4603      	mov	r3, r0
     bcc:	9300      	str	r3, [sp, #0]
     bce:	4633      	mov	r3, r6
     bd0:	462a      	mov	r2, r5
     bd2:	4621      	mov	r1, r4
     bd4:	4833      	ldr	r0, [pc, #204]	; (ca4 <W5100_Init+0x2b8>)
     bd6:	f7ff fd87 	bl	6e8 <DbgConsole_Printf>
     bda:	7b3b      	ldrb	r3, [r7, #12]
     bdc:	4619      	mov	r1, r3
     bde:	7b7b      	ldrb	r3, [r7, #13]
     be0:	461a      	mov	r2, r3
     be2:	7bbb      	ldrb	r3, [r7, #14]
     be4:	4618      	mov	r0, r3
     be6:	7bfb      	ldrb	r3, [r7, #15]
     be8:	9300      	str	r3, [sp, #0]
     bea:	4603      	mov	r3, r0
     bec:	482e      	ldr	r0, [pc, #184]	; (ca8 <W5100_Init+0x2bc>)
     bee:	f7ff fd7b 	bl	6e8 <DbgConsole_Printf>
     bf2:	7b3b      	ldrb	r3, [r7, #12]
     bf4:	4619      	mov	r1, r3
     bf6:	200f      	movs	r0, #15
     bf8:	f7ff fe3e 	bl	878 <SPI_Write>
     bfc:	7b7b      	ldrb	r3, [r7, #13]
     bfe:	4619      	mov	r1, r3
     c00:	2010      	movs	r0, #16
     c02:	f7ff fe39 	bl	878 <SPI_Write>
     c06:	7bbb      	ldrb	r3, [r7, #14]
     c08:	4619      	mov	r1, r3
     c0a:	2011      	movs	r0, #17
     c0c:	f7ff fe34 	bl	878 <SPI_Write>
     c10:	7bfb      	ldrb	r3, [r7, #15]
     c12:	4619      	mov	r1, r3
     c14:	2012      	movs	r0, #18
     c16:	f7ff fe2f 	bl	878 <SPI_Write>
     c1a:	200a      	movs	r0, #10
     c1c:	f005 fa44 	bl	60a8 <_delay_ms>
     c20:	200f      	movs	r0, #15
     c22:	f7ff fe85 	bl	930 <SPI_Read>
     c26:	4603      	mov	r3, r0
     c28:	461c      	mov	r4, r3
     c2a:	2010      	movs	r0, #16
     c2c:	f7ff fe80 	bl	930 <SPI_Read>
     c30:	4603      	mov	r3, r0
     c32:	461d      	mov	r5, r3
     c34:	2011      	movs	r0, #17
     c36:	f7ff fe7b 	bl	930 <SPI_Read>
     c3a:	4603      	mov	r3, r0
     c3c:	461e      	mov	r6, r3
     c3e:	2012      	movs	r0, #18
     c40:	f7ff fe76 	bl	930 <SPI_Read>
     c44:	4603      	mov	r3, r0
     c46:	9300      	str	r3, [sp, #0]
     c48:	4633      	mov	r3, r6
     c4a:	462a      	mov	r2, r5
     c4c:	4621      	mov	r1, r4
     c4e:	4817      	ldr	r0, [pc, #92]	; (cac <W5100_Init+0x2c0>)
     c50:	f7ff fd4a 	bl	6e8 <DbgConsole_Printf>
     c54:	4816      	ldr	r0, [pc, #88]	; (cb0 <W5100_Init+0x2c4>)
     c56:	f7ff fd47 	bl	6e8 <DbgConsole_Printf>
     c5a:	2155      	movs	r1, #85	; 0x55
     c5c:	201a      	movs	r0, #26
     c5e:	f7ff fe0b 	bl	878 <SPI_Write>
     c62:	2155      	movs	r1, #85	; 0x55
     c64:	201b      	movs	r0, #27
     c66:	f7ff fe07 	bl	878 <SPI_Write>
     c6a:	4812      	ldr	r0, [pc, #72]	; (cb4 <W5100_Init+0x2c8>)
     c6c:	f7ff fd3c 	bl	6e8 <DbgConsole_Printf>
     c70:	bf00      	nop
     c72:	371c      	adds	r7, #28
     c74:	46bd      	mov	sp, r7
     c76:	e8bd 83f0 	ldmia.w	sp!, {r4, r5, r6, r7, r8, r9, pc}
     c7a:	bf00      	nop
     c7c:	00007a14 	.word	0x00007a14
     c80:	00007a1c 	.word	0x00007a1c
     c84:	00007a20 	.word	0x00007a20
     c88:	00007a24 	.word	0x00007a24
     c8c:	000078c4 	.word	0x000078c4
     c90:	000078d4 	.word	0x000078d4
     c94:	000078f0 	.word	0x000078f0
     c98:	0000790c 	.word	0x0000790c
     c9c:	00007938 	.word	0x00007938
     ca0:	00007964 	.word	0x00007964
     ca4:	00007980 	.word	0x00007980
     ca8:	0000799c 	.word	0x0000799c
     cac:	000079b8 	.word	0x000079b8
     cb0:	000079d4 	.word	0x000079d4
     cb4:	000079f4 	.word	0x000079f4

00000cb8 <CLOCK_GetOscFreq>:
     cb8:	b480      	push	{r7}
     cba:	af00      	add	r7, sp, #0
     cbc:	4b07      	ldr	r3, [pc, #28]	; (cdc <CLOCK_GetOscFreq+0x24>)
     cbe:	f8d3 3270 	ldr.w	r3, [r3, #624]	; 0x270
     cc2:	f003 0310 	and.w	r3, r3, #16
     cc6:	2b00      	cmp	r3, #0
     cc8:	d102      	bne.n	cd0 <CLOCK_GetOscFreq+0x18>
     cca:	4b05      	ldr	r3, [pc, #20]	; (ce0 <CLOCK_GetOscFreq+0x28>)
     ccc:	681b      	ldr	r3, [r3, #0]
     cce:	e000      	b.n	cd2 <CLOCK_GetOscFreq+0x1a>
     cd0:	4b04      	ldr	r3, [pc, #16]	; (ce4 <CLOCK_GetOscFreq+0x2c>)
     cd2:	4618      	mov	r0, r3
     cd4:	46bd      	mov	sp, r7
     cd6:	f85d 7b04 	ldr.w	r7, [sp], #4
     cda:	4770      	bx	lr
     cdc:	400d8000 	.word	0x400d8000
     ce0:	20000040 	.word	0x20000040
     ce4:	016e3600 	.word	0x016e3600

00000ce8 <CLOCK_InitExternalClk>:
     ce8:	b580      	push	{r7, lr}
     cea:	b082      	sub	sp, #8
     cec:	af00      	add	r7, sp, #0
     cee:	4603      	mov	r3, r0
     cf0:	71fb      	strb	r3, [r7, #7]
     cf2:	79fb      	ldrb	r3, [r7, #7]
     cf4:	f083 0301 	eor.w	r3, r3, #1
     cf8:	b2db      	uxtb	r3, r3
     cfa:	2b00      	cmp	r3, #0
     cfc:	d102      	bne.n	d04 <CLOCK_InitExternalClk+0x1c>
     cfe:	4813      	ldr	r0, [pc, #76]	; (d4c <CLOCK_InitExternalClk+0x64>)
     d00:	f004 fae6 	bl	52d0 <__assertion_failed>
     d04:	4b12      	ldr	r3, [pc, #72]	; (d50 <CLOCK_InitExternalClk+0x68>)
     d06:	f04f 4280 	mov.w	r2, #1073741824	; 0x40000000
     d0a:	f8c3 2158 	str.w	r2, [r3, #344]	; 0x158
     d0e:	bf00      	nop
     d10:	4b0f      	ldr	r3, [pc, #60]	; (d50 <CLOCK_InitExternalClk+0x68>)
     d12:	f8d3 3270 	ldr.w	r3, [r3, #624]	; 0x270
     d16:	f403 3380 	and.w	r3, r3, #65536	; 0x10000
     d1a:	2b00      	cmp	r3, #0
     d1c:	d0f8      	beq.n	d10 <CLOCK_InitExternalClk+0x28>
     d1e:	4b0c      	ldr	r3, [pc, #48]	; (d50 <CLOCK_InitExternalClk+0x68>)
     d20:	f44f 3280 	mov.w	r2, #65536	; 0x10000
     d24:	f8c3 2154 	str.w	r2, [r3, #340]	; 0x154
     d28:	bf00      	nop
     d2a:	4b09      	ldr	r3, [pc, #36]	; (d50 <CLOCK_InitExternalClk+0x68>)
     d2c:	f8d3 3150 	ldr.w	r3, [r3, #336]	; 0x150
     d30:	f403 4300 	and.w	r3, r3, #32768	; 0x8000
     d34:	2b00      	cmp	r3, #0
     d36:	d0f8      	beq.n	d2a <CLOCK_InitExternalClk+0x42>
     d38:	4b05      	ldr	r3, [pc, #20]	; (d50 <CLOCK_InitExternalClk+0x68>)
     d3a:	f44f 3280 	mov.w	r2, #65536	; 0x10000
     d3e:	f8c3 2158 	str.w	r2, [r3, #344]	; 0x158
     d42:	bf00      	nop
     d44:	3708      	adds	r7, #8
     d46:	46bd      	mov	sp, r7
     d48:	bd80      	pop	{r7, pc}
     d4a:	bf00      	nop
     d4c:	00007a28 	.word	0x00007a28
     d50:	400d8000 	.word	0x400d8000

00000d54 <CLOCK_SwitchOsc>:
     d54:	b480      	push	{r7}
     d56:	b083      	sub	sp, #12
     d58:	af00      	add	r7, sp, #0
     d5a:	4603      	mov	r3, r0
     d5c:	71fb      	strb	r3, [r7, #7]
     d5e:	79fb      	ldrb	r3, [r7, #7]
     d60:	2b00      	cmp	r3, #0
     d62:	d104      	bne.n	d6e <CLOCK_SwitchOsc+0x1a>
     d64:	4b07      	ldr	r3, [pc, #28]	; (d84 <CLOCK_SwitchOsc+0x30>)
     d66:	2210      	movs	r2, #16
     d68:	f8c3 2274 	str.w	r2, [r3, #628]	; 0x274
     d6c:	e003      	b.n	d76 <CLOCK_SwitchOsc+0x22>
     d6e:	4b05      	ldr	r3, [pc, #20]	; (d84 <CLOCK_SwitchOsc+0x30>)
     d70:	2210      	movs	r2, #16
     d72:	f8c3 2278 	str.w	r2, [r3, #632]	; 0x278
     d76:	bf00      	nop
     d78:	370c      	adds	r7, #12
     d7a:	46bd      	mov	sp, r7
     d7c:	f85d 7b04 	ldr.w	r7, [sp], #4
     d80:	4770      	bx	lr
     d82:	bf00      	nop
     d84:	400d8000 	.word	0x400d8000

00000d88 <CLOCK_InitRcOsc24M>:
     d88:	b480      	push	{r7}
     d8a:	af00      	add	r7, sp, #0
     d8c:	4b06      	ldr	r3, [pc, #24]	; (da8 <CLOCK_InitRcOsc24M+0x20>)
     d8e:	f8d3 3270 	ldr.w	r3, [r3, #624]	; 0x270
     d92:	4a05      	ldr	r2, [pc, #20]	; (da8 <CLOCK_InitRcOsc24M+0x20>)
     d94:	f043 0301 	orr.w	r3, r3, #1
     d98:	f8c2 3270 	str.w	r3, [r2, #624]	; 0x270
     d9c:	bf00      	nop
     d9e:	46bd      	mov	sp, r7
     da0:	f85d 7b04 	ldr.w	r7, [sp], #4
     da4:	4770      	bx	lr
     da6:	bf00      	nop
     da8:	400d8000 	.word	0x400d8000

00000dac <CLOCK_InitArmPll>:
     dac:	b480      	push	{r7}
     dae:	b083      	sub	sp, #12
     db0:	af00      	add	r7, sp, #0
     db2:	6078      	str	r0, [r7, #4]
     db4:	4b15      	ldr	r3, [pc, #84]	; (e0c <CLOCK_InitArmPll+0x60>)
     db6:	681b      	ldr	r3, [r3, #0]
     db8:	f423 32e0 	bic.w	r2, r3, #114688	; 0x1c000
     dbc:	687b      	ldr	r3, [r7, #4]
     dbe:	791b      	ldrb	r3, [r3, #4]
     dc0:	039b      	lsls	r3, r3, #14
     dc2:	b29b      	uxth	r3, r3
     dc4:	4313      	orrs	r3, r2
     dc6:	4a11      	ldr	r2, [pc, #68]	; (e0c <CLOCK_InitArmPll+0x60>)
     dc8:	f443 3380 	orr.w	r3, r3, #65536	; 0x10000
     dcc:	6013      	str	r3, [r2, #0]
     dce:	4b0f      	ldr	r3, [pc, #60]	; (e0c <CLOCK_InitArmPll+0x60>)
     dd0:	681a      	ldr	r2, [r3, #0]
     dd2:	4b0f      	ldr	r3, [pc, #60]	; (e10 <CLOCK_InitArmPll+0x64>)
     dd4:	4013      	ands	r3, r2
     dd6:	687a      	ldr	r2, [r7, #4]
     dd8:	6812      	ldr	r2, [r2, #0]
     dda:	f002 027f 	and.w	r2, r2, #127	; 0x7f
     dde:	4313      	orrs	r3, r2
     de0:	4a0a      	ldr	r2, [pc, #40]	; (e0c <CLOCK_InitArmPll+0x60>)
     de2:	f443 5300 	orr.w	r3, r3, #8192	; 0x2000
     de6:	6013      	str	r3, [r2, #0]
     de8:	bf00      	nop
     dea:	4b08      	ldr	r3, [pc, #32]	; (e0c <CLOCK_InitArmPll+0x60>)
     dec:	681b      	ldr	r3, [r3, #0]
     dee:	2b00      	cmp	r3, #0
     df0:	dafb      	bge.n	dea <CLOCK_InitArmPll+0x3e>
     df2:	4b06      	ldr	r3, [pc, #24]	; (e0c <CLOCK_InitArmPll+0x60>)
     df4:	681b      	ldr	r3, [r3, #0]
     df6:	4a05      	ldr	r2, [pc, #20]	; (e0c <CLOCK_InitArmPll+0x60>)
     df8:	f423 3380 	bic.w	r3, r3, #65536	; 0x10000
     dfc:	6013      	str	r3, [r2, #0]
     dfe:	bf00      	nop
     e00:	370c      	adds	r7, #12
     e02:	46bd      	mov	sp, r7
     e04:	f85d 7b04 	ldr.w	r7, [sp], #4
     e08:	4770      	bx	lr
     e0a:	bf00      	nop
     e0c:	400d8000 	.word	0x400d8000
     e10:	ffffcf80 	.word	0xffffcf80

00000e14 <CLOCK_InitSysPll>:
     e14:	b480      	push	{r7}
     e16:	b083      	sub	sp, #12
     e18:	af00      	add	r7, sp, #0
     e1a:	6078      	str	r0, [r7, #4]
     e1c:	4b22      	ldr	r3, [pc, #136]	; (ea8 <CLOCK_InitSysPll+0x94>)
     e1e:	6b1b      	ldr	r3, [r3, #48]	; 0x30
     e20:	f423 32e0 	bic.w	r2, r3, #114688	; 0x1c000
     e24:	687b      	ldr	r3, [r7, #4]
     e26:	7b1b      	ldrb	r3, [r3, #12]
     e28:	039b      	lsls	r3, r3, #14
     e2a:	b29b      	uxth	r3, r3
     e2c:	4313      	orrs	r3, r2
     e2e:	4a1e      	ldr	r2, [pc, #120]	; (ea8 <CLOCK_InitSysPll+0x94>)
     e30:	f443 3380 	orr.w	r3, r3, #65536	; 0x10000
     e34:	6313      	str	r3, [r2, #48]	; 0x30
     e36:	4b1c      	ldr	r3, [pc, #112]	; (ea8 <CLOCK_InitSysPll+0x94>)
     e38:	6b1a      	ldr	r2, [r3, #48]	; 0x30
     e3a:	4b1c      	ldr	r3, [pc, #112]	; (eac <CLOCK_InitSysPll+0x98>)
     e3c:	4013      	ands	r3, r2
     e3e:	687a      	ldr	r2, [r7, #4]
     e40:	7812      	ldrb	r2, [r2, #0]
     e42:	f002 0201 	and.w	r2, r2, #1
     e46:	4313      	orrs	r3, r2
     e48:	4a17      	ldr	r2, [pc, #92]	; (ea8 <CLOCK_InitSysPll+0x94>)
     e4a:	f443 5300 	orr.w	r3, r3, #8192	; 0x2000
     e4e:	6313      	str	r3, [r2, #48]	; 0x30
     e50:	687b      	ldr	r3, [r7, #4]
     e52:	685b      	ldr	r3, [r3, #4]
     e54:	4a14      	ldr	r2, [pc, #80]	; (ea8 <CLOCK_InitSysPll+0x94>)
     e56:	f023 4340 	bic.w	r3, r3, #3221225472	; 0xc0000000
     e5a:	6513      	str	r3, [r2, #80]	; 0x50
     e5c:	687b      	ldr	r3, [r7, #4]
     e5e:	689b      	ldr	r3, [r3, #8]
     e60:	4a11      	ldr	r2, [pc, #68]	; (ea8 <CLOCK_InitSysPll+0x94>)
     e62:	f023 4340 	bic.w	r3, r3, #3221225472	; 0xc0000000
     e66:	6613      	str	r3, [r2, #96]	; 0x60
     e68:	687b      	ldr	r3, [r7, #4]
     e6a:	8a5b      	ldrh	r3, [r3, #18]
     e6c:	f3c3 020e 	ubfx	r2, r3, #0, #15
     e70:	687b      	ldr	r3, [r7, #4]
     e72:	7c1b      	ldrb	r3, [r3, #16]
     e74:	03db      	lsls	r3, r3, #15
     e76:	b29b      	uxth	r3, r3
     e78:	431a      	orrs	r2, r3
     e7a:	687b      	ldr	r3, [r7, #4]
     e7c:	89db      	ldrh	r3, [r3, #14]
     e7e:	041b      	lsls	r3, r3, #16
     e80:	4909      	ldr	r1, [pc, #36]	; (ea8 <CLOCK_InitSysPll+0x94>)
     e82:	4313      	orrs	r3, r2
     e84:	640b      	str	r3, [r1, #64]	; 0x40
     e86:	bf00      	nop
     e88:	4b07      	ldr	r3, [pc, #28]	; (ea8 <CLOCK_InitSysPll+0x94>)
     e8a:	6b1b      	ldr	r3, [r3, #48]	; 0x30
     e8c:	2b00      	cmp	r3, #0
     e8e:	dafb      	bge.n	e88 <CLOCK_InitSysPll+0x74>
     e90:	4b05      	ldr	r3, [pc, #20]	; (ea8 <CLOCK_InitSysPll+0x94>)
     e92:	6b1b      	ldr	r3, [r3, #48]	; 0x30
     e94:	4a04      	ldr	r2, [pc, #16]	; (ea8 <CLOCK_InitSysPll+0x94>)
     e96:	f423 3380 	bic.w	r3, r3, #65536	; 0x10000
     e9a:	6313      	str	r3, [r2, #48]	; 0x30
     e9c:	bf00      	nop
     e9e:	370c      	adds	r7, #12
     ea0:	46bd      	mov	sp, r7
     ea2:	f85d 7b04 	ldr.w	r7, [sp], #4
     ea6:	4770      	bx	lr
     ea8:	400d8000 	.word	0x400d8000
     eac:	ffffcffe 	.word	0xffffcffe

00000eb0 <CLOCK_DeinitUsb2Pll>:
     eb0:	b480      	push	{r7}
     eb2:	af00      	add	r7, sp, #0
     eb4:	4b03      	ldr	r3, [pc, #12]	; (ec4 <CLOCK_DeinitUsb2Pll+0x14>)
     eb6:	2200      	movs	r2, #0
     eb8:	621a      	str	r2, [r3, #32]
     eba:	bf00      	nop
     ebc:	46bd      	mov	sp, r7
     ebe:	f85d 7b04 	ldr.w	r7, [sp], #4
     ec2:	4770      	bx	lr
     ec4:	400d8000 	.word	0x400d8000

00000ec8 <CLOCK_DeinitAudioPll>:
     ec8:	b480      	push	{r7}
     eca:	af00      	add	r7, sp, #0
     ecc:	4b04      	ldr	r3, [pc, #16]	; (ee0 <CLOCK_DeinitAudioPll+0x18>)
     ece:	f44f 5280 	mov.w	r2, #4096	; 0x1000
     ed2:	671a      	str	r2, [r3, #112]	; 0x70
     ed4:	bf00      	nop
     ed6:	46bd      	mov	sp, r7
     ed8:	f85d 7b04 	ldr.w	r7, [sp], #4
     edc:	4770      	bx	lr
     ede:	bf00      	nop
     ee0:	400d8000 	.word	0x400d8000

00000ee4 <CLOCK_DeinitVideoPll>:
     ee4:	b480      	push	{r7}
     ee6:	af00      	add	r7, sp, #0
     ee8:	4b04      	ldr	r3, [pc, #16]	; (efc <CLOCK_DeinitVideoPll+0x18>)
     eea:	f44f 5280 	mov.w	r2, #4096	; 0x1000
     eee:	f8c3 20a0 	str.w	r2, [r3, #160]	; 0xa0
     ef2:	bf00      	nop
     ef4:	46bd      	mov	sp, r7
     ef6:	f85d 7b04 	ldr.w	r7, [sp], #4
     efa:	4770      	bx	lr
     efc:	400d8000 	.word	0x400d8000

00000f00 <CLOCK_DeinitEnetPll>:
     f00:	b480      	push	{r7}
     f02:	af00      	add	r7, sp, #0
     f04:	4b04      	ldr	r3, [pc, #16]	; (f18 <CLOCK_DeinitEnetPll+0x18>)
     f06:	f44f 5280 	mov.w	r2, #4096	; 0x1000
     f0a:	f8c3 20e0 	str.w	r2, [r3, #224]	; 0xe0
     f0e:	bf00      	nop
     f10:	46bd      	mov	sp, r7
     f12:	f85d 7b04 	ldr.w	r7, [sp], #4
     f16:	4770      	bx	lr
     f18:	400d8000 	.word	0x400d8000

00000f1c <CLOCK_GetPllFreq>:
     f1c:	b590      	push	{r4, r7, lr}
     f1e:	b08d      	sub	sp, #52	; 0x34
     f20:	af00      	add	r7, sp, #0
     f22:	6078      	str	r0, [r7, #4]
     f24:	4bb2      	ldr	r3, [pc, #712]	; (11f0 <_HeapSize+0x1f0>)
     f26:	f107 040c 	add.w	r4, r7, #12
     f2a:	cb0f      	ldmia	r3, {r0, r1, r2, r3}
     f2c:	e884 000f 	stmia.w	r4, {r0, r1, r2, r3}
     f30:	6879      	ldr	r1, [r7, #4]
     f32:	48b0      	ldr	r0, [pc, #704]	; (11f4 <_HeapSize+0x1f4>)
     f34:	f005 f8e9 	bl	610a <CLOCK_IsPllEnabled>
     f38:	4603      	mov	r3, r0
     f3a:	f083 0301 	eor.w	r3, r3, #1
     f3e:	b2db      	uxtb	r3, r3
     f40:	2b00      	cmp	r3, #0
     f42:	d001      	beq.n	f48 <CLOCK_GetPllFreq+0x2c>
     f44:	2300      	movs	r3, #0
     f46:	e17e      	b.n	1246 <_HeapSize+0x246>
     f48:	6879      	ldr	r1, [r7, #4]
     f4a:	48aa      	ldr	r0, [pc, #680]	; (11f4 <_HeapSize+0x1f4>)
     f4c:	f005 f8fb 	bl	6146 <CLOCK_GetPllBypassRefClk>
     f50:	62f8      	str	r0, [r7, #44]	; 0x2c
     f52:	6879      	ldr	r1, [r7, #4]
     f54:	48a7      	ldr	r0, [pc, #668]	; (11f4 <_HeapSize+0x1f4>)
     f56:	f005 f8bf 	bl	60d8 <CLOCK_IsPllBypassed>
     f5a:	4603      	mov	r3, r0
     f5c:	2b00      	cmp	r3, #0
     f5e:	d001      	beq.n	f64 <CLOCK_GetPllFreq+0x48>
     f60:	6afb      	ldr	r3, [r7, #44]	; 0x2c
     f62:	e170      	b.n	1246 <_HeapSize+0x246>
     f64:	687b      	ldr	r3, [r7, #4]
     f66:	4aa4      	ldr	r2, [pc, #656]	; (11f8 <_HeapSize+0x1f8>)
     f68:	4293      	cmp	r3, r2
     f6a:	d07e      	beq.n	106a <_HeapSize+0x6a>
     f6c:	687b      	ldr	r3, [r7, #4]
     f6e:	4aa2      	ldr	r2, [pc, #648]	; (11f8 <_HeapSize+0x1f8>)
     f70:	4293      	cmp	r3, r2
     f72:	d815      	bhi.n	fa0 <CLOCK_GetPllFreq+0x84>
     f74:	687b      	ldr	r3, [r7, #4]
     f76:	4aa1      	ldr	r2, [pc, #644]	; (11fc <_HeapSize+0x1fc>)
     f78:	4293      	cmp	r3, r2
     f7a:	d068      	beq.n	104e <_HeapSize+0x4e>
     f7c:	687b      	ldr	r3, [r7, #4]
     f7e:	4a9f      	ldr	r2, [pc, #636]	; (11fc <_HeapSize+0x1fc>)
     f80:	4293      	cmp	r3, r2
     f82:	d803      	bhi.n	f8c <CLOCK_GetPllFreq+0x70>
     f84:	687b      	ldr	r3, [r7, #4]
     f86:	2b0d      	cmp	r3, #13
     f88:	d024      	beq.n	fd4 <CLOCK_GetPllFreq+0xb8>
     f8a:	e158      	b.n	123e <_HeapSize+0x23e>
     f8c:	687b      	ldr	r3, [r7, #4]
     f8e:	4a9c      	ldr	r2, [pc, #624]	; (1200 <_HeapSize+0x200>)
     f90:	4293      	cmp	r3, r2
     f92:	f000 8146 	beq.w	1222 <_HeapSize+0x222>
     f96:	687b      	ldr	r3, [r7, #4]
     f98:	4a9a      	ldr	r2, [pc, #616]	; (1204 <_HeapSize+0x204>)
     f9a:	4293      	cmp	r3, r2
     f9c:	d024      	beq.n	fe8 <CLOCK_GetPllFreq+0xcc>
     f9e:	e14e      	b.n	123e <_HeapSize+0x23e>
     fa0:	687b      	ldr	r3, [r7, #4]
     fa2:	4a99      	ldr	r2, [pc, #612]	; (1208 <_HeapSize+0x208>)
     fa4:	4293      	cmp	r3, r2
     fa6:	f000 8104 	beq.w	11b2 <_HeapSize+0x1b2>
     faa:	687b      	ldr	r3, [r7, #4]
     fac:	4a96      	ldr	r2, [pc, #600]	; (1208 <_HeapSize+0x208>)
     fae:	4293      	cmp	r3, r2
     fb0:	d805      	bhi.n	fbe <CLOCK_GetPllFreq+0xa2>
     fb2:	687b      	ldr	r3, [r7, #4]
     fb4:	4a95      	ldr	r2, [pc, #596]	; (120c <_HeapSize+0x20c>)
     fb6:	4293      	cmp	r3, r2
     fb8:	f000 80a8 	beq.w	110c <_HeapSize+0x10c>
     fbc:	e13f      	b.n	123e <_HeapSize+0x23e>
     fbe:	687b      	ldr	r3, [r7, #4]
     fc0:	4a93      	ldr	r2, [pc, #588]	; (1210 <_HeapSize+0x210>)
     fc2:	4293      	cmp	r3, r2
     fc4:	f000 8104 	beq.w	11d0 <_HeapSize+0x1d0>
     fc8:	687b      	ldr	r3, [r7, #4]
     fca:	4a92      	ldr	r2, [pc, #584]	; (1214 <_HeapSize+0x214>)
     fcc:	4293      	cmp	r3, r2
     fce:	f000 8125 	beq.w	121c <_HeapSize+0x21c>
     fd2:	e134      	b.n	123e <_HeapSize+0x23e>
     fd4:	4b87      	ldr	r3, [pc, #540]	; (11f4 <_HeapSize+0x1f4>)
     fd6:	681b      	ldr	r3, [r3, #0]
     fd8:	f003 037f 	and.w	r3, r3, #127	; 0x7f
     fdc:	6afa      	ldr	r2, [r7, #44]	; 0x2c
     fde:	fb02 f303 	mul.w	r3, r2, r3
     fe2:	085b      	lsrs	r3, r3, #1
     fe4:	62fb      	str	r3, [r7, #44]	; 0x2c
     fe6:	e12d      	b.n	1244 <_HeapSize+0x244>
     fe8:	6afb      	ldr	r3, [r7, #44]	; 0x2c
     fea:	ee07 3a90 	vmov	s15, r3
     fee:	eeb8 6b67 	vcvt.f64.u32	d6, s15
     ff2:	4b80      	ldr	r3, [pc, #512]	; (11f4 <_HeapSize+0x1f4>)
     ff4:	6d1b      	ldr	r3, [r3, #80]	; 0x50
     ff6:	ee07 3a90 	vmov	s15, r3
     ffa:	eeb8 7b67 	vcvt.f64.u32	d7, s15
     ffe:	ee26 5b07 	vmul.f64	d5, d6, d7
    1002:	4b7c      	ldr	r3, [pc, #496]	; (11f4 <_HeapSize+0x1f4>)
    1004:	6e1b      	ldr	r3, [r3, #96]	; 0x60
    1006:	ee07 3a90 	vmov	s15, r3
    100a:	eeb8 6b67 	vcvt.f64.u32	d6, s15
    100e:	ee85 7b06 	vdiv.f64	d7, d5, d6
    1012:	ed87 7b08 	vstr	d7, [r7, #32]
    1016:	4b77      	ldr	r3, [pc, #476]	; (11f4 <_HeapSize+0x1f4>)
    1018:	6b1b      	ldr	r3, [r3, #48]	; 0x30
    101a:	f003 0301 	and.w	r3, r3, #1
    101e:	2b00      	cmp	r3, #0
    1020:	d005      	beq.n	102e <_HeapSize+0x2e>
    1022:	6afb      	ldr	r3, [r7, #44]	; 0x2c
    1024:	2216      	movs	r2, #22
    1026:	fb02 f303 	mul.w	r3, r2, r3
    102a:	62fb      	str	r3, [r7, #44]	; 0x2c
    102c:	e005      	b.n	103a <_HeapSize+0x3a>
    102e:	6afa      	ldr	r2, [r7, #44]	; 0x2c
    1030:	4613      	mov	r3, r2
    1032:	009b      	lsls	r3, r3, #2
    1034:	4413      	add	r3, r2
    1036:	009b      	lsls	r3, r3, #2
    1038:	62fb      	str	r3, [r7, #44]	; 0x2c
    103a:	ed97 7b08 	vldr	d7, [r7, #32]
    103e:	eefc 7bc7 	vcvt.u32.f64	s15, d7
    1042:	ee17 2a90 	vmov	r2, s15
    1046:	6afb      	ldr	r3, [r7, #44]	; 0x2c
    1048:	4413      	add	r3, r2
    104a:	62fb      	str	r3, [r7, #44]	; 0x2c
    104c:	e0fa      	b.n	1244 <_HeapSize+0x244>
    104e:	4b69      	ldr	r3, [pc, #420]	; (11f4 <_HeapSize+0x1f4>)
    1050:	691b      	ldr	r3, [r3, #16]
    1052:	f003 0302 	and.w	r3, r3, #2
    1056:	2b00      	cmp	r3, #0
    1058:	d001      	beq.n	105e <_HeapSize+0x5e>
    105a:	2216      	movs	r2, #22
    105c:	e000      	b.n	1060 <_HeapSize+0x60>
    105e:	2214      	movs	r2, #20
    1060:	6afb      	ldr	r3, [r7, #44]	; 0x2c
    1062:	fb02 f303 	mul.w	r3, r2, r3
    1066:	62fb      	str	r3, [r7, #44]	; 0x2c
    1068:	e0ec      	b.n	1244 <_HeapSize+0x244>
    106a:	4b62      	ldr	r3, [pc, #392]	; (11f4 <_HeapSize+0x1f4>)
    106c:	6f1b      	ldr	r3, [r3, #112]	; 0x70
    106e:	f003 037f 	and.w	r3, r3, #127	; 0x7f
    1072:	61fb      	str	r3, [r7, #28]
    1074:	6afb      	ldr	r3, [r7, #44]	; 0x2c
    1076:	ee07 3a90 	vmov	s15, r3
    107a:	eeb8 6b67 	vcvt.f64.u32	d6, s15
    107e:	4b5d      	ldr	r3, [pc, #372]	; (11f4 <_HeapSize+0x1f4>)
    1080:	f8d3 3080 	ldr.w	r3, [r3, #128]	; 0x80
    1084:	ee07 3a90 	vmov	s15, r3
    1088:	eeb8 7b67 	vcvt.f64.u32	d7, s15
    108c:	ee26 5b07 	vmul.f64	d5, d6, d7
    1090:	4b58      	ldr	r3, [pc, #352]	; (11f4 <_HeapSize+0x1f4>)
    1092:	f8d3 3090 	ldr.w	r3, [r3, #144]	; 0x90
    1096:	ee07 3a90 	vmov	s15, r3
    109a:	eeb8 6b67 	vcvt.f64.u32	d6, s15
    109e:	ee85 7b06 	vdiv.f64	d7, d5, d6
    10a2:	ed87 7b08 	vstr	d7, [r7, #32]
    10a6:	6afb      	ldr	r3, [r7, #44]	; 0x2c
    10a8:	69fa      	ldr	r2, [r7, #28]
    10aa:	fb02 f303 	mul.w	r3, r2, r3
    10ae:	ed97 7b08 	vldr	d7, [r7, #32]
    10b2:	eefc 7bc7 	vcvt.u32.f64	s15, d7
    10b6:	ee17 2a90 	vmov	r2, s15
    10ba:	4413      	add	r3, r2
    10bc:	62fb      	str	r3, [r7, #44]	; 0x2c
    10be:	4b4d      	ldr	r3, [pc, #308]	; (11f4 <_HeapSize+0x1f4>)
    10c0:	6f1b      	ldr	r3, [r3, #112]	; 0x70
    10c2:	f403 13c0 	and.w	r3, r3, #1572864	; 0x180000
    10c6:	2b00      	cmp	r3, #0
    10c8:	d003      	beq.n	10d2 <_HeapSize+0xd2>
    10ca:	f5b3 2f00 	cmp.w	r3, #524288	; 0x80000
    10ce:	d004      	beq.n	10da <_HeapSize+0xda>
    10d0:	e007      	b.n	10e2 <_HeapSize+0xe2>
    10d2:	6afb      	ldr	r3, [r7, #44]	; 0x2c
    10d4:	089b      	lsrs	r3, r3, #2
    10d6:	62fb      	str	r3, [r7, #44]	; 0x2c
    10d8:	e003      	b.n	10e2 <_HeapSize+0xe2>
    10da:	6afb      	ldr	r3, [r7, #44]	; 0x2c
    10dc:	085b      	lsrs	r3, r3, #1
    10de:	62fb      	str	r3, [r7, #44]	; 0x2c
    10e0:	bf00      	nop
    10e2:	4b44      	ldr	r3, [pc, #272]	; (11f4 <_HeapSize+0x1f4>)
    10e4:	f8d3 2170 	ldr.w	r2, [r3, #368]	; 0x170
    10e8:	4b4b      	ldr	r3, [pc, #300]	; (1218 <_HeapSize+0x218>)
    10ea:	4013      	ands	r3, r2
    10ec:	f5b3 4f00 	cmp.w	r3, #32768	; 0x8000
    10f0:	d006      	beq.n	1100 <_HeapSize+0x100>
    10f2:	4a49      	ldr	r2, [pc, #292]	; (1218 <_HeapSize+0x218>)
    10f4:	4293      	cmp	r3, r2
    10f6:	d107      	bne.n	1108 <_HeapSize+0x108>
    10f8:	6afb      	ldr	r3, [r7, #44]	; 0x2c
    10fa:	089b      	lsrs	r3, r3, #2
    10fc:	62fb      	str	r3, [r7, #44]	; 0x2c
    10fe:	e004      	b.n	110a <_HeapSize+0x10a>
    1100:	6afb      	ldr	r3, [r7, #44]	; 0x2c
    1102:	085b      	lsrs	r3, r3, #1
    1104:	62fb      	str	r3, [r7, #44]	; 0x2c
    1106:	e000      	b.n	110a <_HeapSize+0x10a>
    1108:	bf00      	nop
    110a:	e09b      	b.n	1244 <_HeapSize+0x244>
    110c:	4b39      	ldr	r3, [pc, #228]	; (11f4 <_HeapSize+0x1f4>)
    110e:	f8d3 30a0 	ldr.w	r3, [r3, #160]	; 0xa0
    1112:	f003 037f 	and.w	r3, r3, #127	; 0x7f
    1116:	61fb      	str	r3, [r7, #28]
    1118:	6afb      	ldr	r3, [r7, #44]	; 0x2c
    111a:	ee07 3a90 	vmov	s15, r3
    111e:	eeb8 6b67 	vcvt.f64.u32	d6, s15
    1122:	4b34      	ldr	r3, [pc, #208]	; (11f4 <_HeapSize+0x1f4>)
    1124:	f8d3 30b0 	ldr.w	r3, [r3, #176]	; 0xb0
    1128:	ee07 3a90 	vmov	s15, r3
    112c:	eeb8 7b67 	vcvt.f64.u32	d7, s15
    1130:	ee26 5b07 	vmul.f64	d5, d6, d7
    1134:	4b2f      	ldr	r3, [pc, #188]	; (11f4 <_HeapSize+0x1f4>)
    1136:	f8d3 30c0 	ldr.w	r3, [r3, #192]	; 0xc0
    113a:	ee07 3a90 	vmov	s15, r3
    113e:	eeb8 6b67 	vcvt.f64.u32	d6, s15
    1142:	ee85 7b06 	vdiv.f64	d7, d5, d6
    1146:	ed87 7b08 	vstr	d7, [r7, #32]
    114a:	6afb      	ldr	r3, [r7, #44]	; 0x2c
    114c:	69fa      	ldr	r2, [r7, #28]
    114e:	fb02 f303 	mul.w	r3, r2, r3
    1152:	ed97 7b08 	vldr	d7, [r7, #32]
    1156:	eefc 7bc7 	vcvt.u32.f64	s15, d7
    115a:	ee17 2a90 	vmov	r2, s15
    115e:	4413      	add	r3, r2
    1160:	62fb      	str	r3, [r7, #44]	; 0x2c
    1162:	4b24      	ldr	r3, [pc, #144]	; (11f4 <_HeapSize+0x1f4>)
    1164:	f8d3 30a0 	ldr.w	r3, [r3, #160]	; 0xa0
    1168:	f403 13c0 	and.w	r3, r3, #1572864	; 0x180000
    116c:	2b00      	cmp	r3, #0
    116e:	d003      	beq.n	1178 <_HeapSize+0x178>
    1170:	f5b3 2f00 	cmp.w	r3, #524288	; 0x80000
    1174:	d004      	beq.n	1180 <_HeapSize+0x180>
    1176:	e007      	b.n	1188 <_HeapSize+0x188>
    1178:	6afb      	ldr	r3, [r7, #44]	; 0x2c
    117a:	089b      	lsrs	r3, r3, #2
    117c:	62fb      	str	r3, [r7, #44]	; 0x2c
    117e:	e003      	b.n	1188 <_HeapSize+0x188>
    1180:	6afb      	ldr	r3, [r7, #44]	; 0x2c
    1182:	085b      	lsrs	r3, r3, #1
    1184:	62fb      	str	r3, [r7, #44]	; 0x2c
    1186:	bf00      	nop
    1188:	4b1a      	ldr	r3, [pc, #104]	; (11f4 <_HeapSize+0x1f4>)
    118a:	f8d3 3170 	ldr.w	r3, [r3, #368]	; 0x170
    118e:	f003 4340 	and.w	r3, r3, #3221225472	; 0xc0000000
    1192:	f1b3 4f80 	cmp.w	r3, #1073741824	; 0x40000000
    1196:	d006      	beq.n	11a6 <_HeapSize+0x1a6>
    1198:	f1b3 4f40 	cmp.w	r3, #3221225472	; 0xc0000000
    119c:	d107      	bne.n	11ae <_HeapSize+0x1ae>
    119e:	6afb      	ldr	r3, [r7, #44]	; 0x2c
    11a0:	089b      	lsrs	r3, r3, #2
    11a2:	62fb      	str	r3, [r7, #44]	; 0x2c
    11a4:	e004      	b.n	11b0 <_HeapSize+0x1b0>
    11a6:	6afb      	ldr	r3, [r7, #44]	; 0x2c
    11a8:	085b      	lsrs	r3, r3, #1
    11aa:	62fb      	str	r3, [r7, #44]	; 0x2c
    11ac:	e000      	b.n	11b0 <_HeapSize+0x1b0>
    11ae:	bf00      	nop
    11b0:	e048      	b.n	1244 <_HeapSize+0x244>
    11b2:	4b10      	ldr	r3, [pc, #64]	; (11f4 <_HeapSize+0x1f4>)
    11b4:	f8d3 30e0 	ldr.w	r3, [r3, #224]	; 0xe0
    11b8:	f003 0303 	and.w	r3, r3, #3
    11bc:	61fb      	str	r3, [r7, #28]
    11be:	69fb      	ldr	r3, [r7, #28]
    11c0:	009b      	lsls	r3, r3, #2
    11c2:	f107 0230 	add.w	r2, r7, #48	; 0x30
    11c6:	4413      	add	r3, r2
    11c8:	f853 3c24 	ldr.w	r3, [r3, #-36]
    11cc:	62fb      	str	r3, [r7, #44]	; 0x2c
    11ce:	e039      	b.n	1244 <_HeapSize+0x244>
    11d0:	4b08      	ldr	r3, [pc, #32]	; (11f4 <_HeapSize+0x1f4>)
    11d2:	f8d3 30e0 	ldr.w	r3, [r3, #224]	; 0xe0
    11d6:	089b      	lsrs	r3, r3, #2
    11d8:	f003 0303 	and.w	r3, r3, #3
    11dc:	61fb      	str	r3, [r7, #28]
    11de:	69fb      	ldr	r3, [r7, #28]
    11e0:	009b      	lsls	r3, r3, #2
    11e2:	f107 0230 	add.w	r2, r7, #48	; 0x30
    11e6:	4413      	add	r3, r2
    11e8:	f853 3c24 	ldr.w	r3, [r3, #-36]
    11ec:	62fb      	str	r3, [r7, #44]	; 0x2c
    11ee:	e029      	b.n	1244 <_HeapSize+0x244>
    11f0:	00007a54 	.word	0x00007a54
    11f4:	400d8000 	.word	0x400d8000
    11f8:	0070000d 	.word	0x0070000d
    11fc:	0010000d 	.word	0x0010000d
    1200:	0020000d 	.word	0x0020000d
    1204:	0030000d 	.word	0x0030000d
    1208:	00e0000d 	.word	0x00e0000d
    120c:	00a0000d 	.word	0x00a0000d
    1210:	00e00014 	.word	0x00e00014
    1214:	00e00015 	.word	0x00e00015
    1218:	00808000 	.word	0x00808000
    121c:	4b0c      	ldr	r3, [pc, #48]	; (1250 <_HeapSize+0x250>)
    121e:	62fb      	str	r3, [r7, #44]	; 0x2c
    1220:	e010      	b.n	1244 <_HeapSize+0x244>
    1222:	4b0c      	ldr	r3, [pc, #48]	; (1254 <_HeapSize+0x254>)
    1224:	6a1b      	ldr	r3, [r3, #32]
    1226:	f003 0302 	and.w	r3, r3, #2
    122a:	2b00      	cmp	r3, #0
    122c:	d001      	beq.n	1232 <_HeapSize+0x232>
    122e:	2216      	movs	r2, #22
    1230:	e000      	b.n	1234 <_HeapSize+0x234>
    1232:	2214      	movs	r2, #20
    1234:	6afb      	ldr	r3, [r7, #44]	; 0x2c
    1236:	fb02 f303 	mul.w	r3, r2, r3
    123a:	62fb      	str	r3, [r7, #44]	; 0x2c
    123c:	e002      	b.n	1244 <_HeapSize+0x244>
    123e:	2300      	movs	r3, #0
    1240:	62fb      	str	r3, [r7, #44]	; 0x2c
    1242:	bf00      	nop
    1244:	6afb      	ldr	r3, [r7, #44]	; 0x2c
    1246:	4618      	mov	r0, r3
    1248:	3734      	adds	r7, #52	; 0x34
    124a:	46bd      	mov	sp, r7
    124c:	bd90      	pop	{r4, r7, pc}
    124e:	bf00      	nop
    1250:	017d7840 	.word	0x017d7840
    1254:	400d8000 	.word	0x400d8000

00001258 <CLOCK_InitSysPfd>:
    1258:	b480      	push	{r7}
    125a:	b085      	sub	sp, #20
    125c:	af00      	add	r7, sp, #0
    125e:	4603      	mov	r3, r0
    1260:	460a      	mov	r2, r1
    1262:	71fb      	strb	r3, [r7, #7]
    1264:	4613      	mov	r3, r2
    1266:	71bb      	strb	r3, [r7, #6]
    1268:	79fb      	ldrb	r3, [r7, #7]
    126a:	60fb      	str	r3, [r7, #12]
    126c:	4b12      	ldr	r3, [pc, #72]	; (12b8 <CLOCK_InitSysPfd+0x60>)
    126e:	f8d3 2100 	ldr.w	r2, [r3, #256]	; 0x100
    1272:	68fb      	ldr	r3, [r7, #12]
    1274:	00db      	lsls	r3, r3, #3
    1276:	21bf      	movs	r1, #191	; 0xbf
    1278:	fa01 f303 	lsl.w	r3, r1, r3
    127c:	43db      	mvns	r3, r3
    127e:	4013      	ands	r3, r2
    1280:	60bb      	str	r3, [r7, #8]
    1282:	68fb      	ldr	r3, [r7, #12]
    1284:	00db      	lsls	r3, r3, #3
    1286:	2280      	movs	r2, #128	; 0x80
    1288:	409a      	lsls	r2, r3
    128a:	490b      	ldr	r1, [pc, #44]	; (12b8 <CLOCK_InitSysPfd+0x60>)
    128c:	68bb      	ldr	r3, [r7, #8]
    128e:	4313      	orrs	r3, r2
    1290:	f8c1 3100 	str.w	r3, [r1, #256]	; 0x100
    1294:	79bb      	ldrb	r3, [r7, #6]
    1296:	f003 023f 	and.w	r2, r3, #63	; 0x3f
    129a:	68fb      	ldr	r3, [r7, #12]
    129c:	00db      	lsls	r3, r3, #3
    129e:	409a      	lsls	r2, r3
    12a0:	4905      	ldr	r1, [pc, #20]	; (12b8 <CLOCK_InitSysPfd+0x60>)
    12a2:	68bb      	ldr	r3, [r7, #8]
    12a4:	4313      	orrs	r3, r2
    12a6:	f8c1 3100 	str.w	r3, [r1, #256]	; 0x100
    12aa:	bf00      	nop
    12ac:	3714      	adds	r7, #20
    12ae:	46bd      	mov	sp, r7
    12b0:	f85d 7b04 	ldr.w	r7, [sp], #4
    12b4:	4770      	bx	lr
    12b6:	bf00      	nop
    12b8:	400d8000 	.word	0x400d8000

000012bc <EDMA_GetChannelStatusFlags>:
    12bc:	b580      	push	{r7, lr}
    12be:	b084      	sub	sp, #16
    12c0:	af00      	add	r7, sp, #0
    12c2:	6078      	str	r0, [r7, #4]
    12c4:	6039      	str	r1, [r7, #0]
    12c6:	683b      	ldr	r3, [r7, #0]
    12c8:	2b1f      	cmp	r3, #31
    12ca:	d902      	bls.n	12d2 <EDMA_GetChannelStatusFlags+0x16>
    12cc:	4817      	ldr	r0, [pc, #92]	; (132c <EDMA_GetChannelStatusFlags+0x70>)
    12ce:	f003 ffff 	bl	52d0 <__assertion_failed>
    12d2:	2300      	movs	r3, #0
    12d4:	60fb      	str	r3, [r7, #12]
    12d6:	687a      	ldr	r2, [r7, #4]
    12d8:	683b      	ldr	r3, [r7, #0]
    12da:	015b      	lsls	r3, r3, #5
    12dc:	441a      	add	r2, r3
    12de:	f241 031c 	movw	r3, #4124	; 0x101c
    12e2:	4413      	add	r3, r2
    12e4:	881b      	ldrh	r3, [r3, #0]
    12e6:	b29b      	uxth	r3, r3
    12e8:	09db      	lsrs	r3, r3, #7
    12ea:	f003 0301 	and.w	r3, r3, #1
    12ee:	68fa      	ldr	r2, [r7, #12]
    12f0:	4313      	orrs	r3, r2
    12f2:	60fb      	str	r3, [r7, #12]
    12f4:	687b      	ldr	r3, [r7, #4]
    12f6:	6ada      	ldr	r2, [r3, #44]	; 0x2c
    12f8:	683b      	ldr	r3, [r7, #0]
    12fa:	fa22 f303 	lsr.w	r3, r2, r3
    12fe:	005b      	lsls	r3, r3, #1
    1300:	f003 0302 	and.w	r3, r3, #2
    1304:	68fa      	ldr	r2, [r7, #12]
    1306:	4313      	orrs	r3, r2
    1308:	60fb      	str	r3, [r7, #12]
    130a:	687b      	ldr	r3, [r7, #4]
    130c:	6a5a      	ldr	r2, [r3, #36]	; 0x24
    130e:	683b      	ldr	r3, [r7, #0]
    1310:	fa22 f303 	lsr.w	r3, r2, r3
    1314:	009b      	lsls	r3, r3, #2
    1316:	f003 0304 	and.w	r3, r3, #4
    131a:	68fa      	ldr	r2, [r7, #12]
    131c:	4313      	orrs	r3, r2
    131e:	60fb      	str	r3, [r7, #12]
    1320:	68fb      	ldr	r3, [r7, #12]
    1322:	4618      	mov	r0, r3
    1324:	3710      	adds	r7, #16
    1326:	46bd      	mov	sp, r7
    1328:	bd80      	pop	{r7, pc}
    132a:	bf00      	nop
    132c:	000083ac 	.word	0x000083ac

00001330 <EDMA_HandleIRQ>:
    1330:	b590      	push	{r4, r7, lr}
    1332:	b089      	sub	sp, #36	; 0x24
    1334:	af00      	add	r7, sp, #0
    1336:	6078      	str	r0, [r7, #4]
    1338:	687b      	ldr	r3, [r7, #4]
    133a:	2b00      	cmp	r3, #0
    133c:	d102      	bne.n	1344 <EDMA_HandleIRQ+0x14>
    133e:	4853      	ldr	r0, [pc, #332]	; (148c <EDMA_HandleIRQ+0x15c>)
    1340:	f003 ffc6 	bl	52d0 <__assertion_failed>
    1344:	687b      	ldr	r3, [r7, #4]
    1346:	689b      	ldr	r3, [r3, #8]
    1348:	687a      	ldr	r2, [r7, #4]
    134a:	7c12      	ldrb	r2, [r2, #16]
    134c:	77da      	strb	r2, [r3, #31]
    134e:	687b      	ldr	r3, [r7, #4]
    1350:	689a      	ldr	r2, [r3, #8]
    1352:	687b      	ldr	r3, [r7, #4]
    1354:	7c1b      	ldrb	r3, [r3, #16]
    1356:	015b      	lsls	r3, r3, #5
    1358:	441a      	add	r2, r3
    135a:	f241 031c 	movw	r3, #4124	; 0x101c
    135e:	4413      	add	r3, r2
    1360:	881b      	ldrh	r3, [r3, #0]
    1362:	b29b      	uxth	r3, r3
    1364:	f003 0380 	and.w	r3, r3, #128	; 0x80
    1368:	2b00      	cmp	r3, #0
    136a:	bf14      	ite	ne
    136c:	2301      	movne	r3, #1
    136e:	2300      	moveq	r3, #0
    1370:	76bb      	strb	r3, [r7, #26]
    1372:	687b      	ldr	r3, [r7, #4]
    1374:	68db      	ldr	r3, [r3, #12]
    1376:	2b00      	cmp	r3, #0
    1378:	d10c      	bne.n	1394 <EDMA_HandleIRQ+0x64>
    137a:	687b      	ldr	r3, [r7, #4]
    137c:	681b      	ldr	r3, [r3, #0]
    137e:	2b00      	cmp	r3, #0
    1380:	d07f      	beq.n	1482 <EDMA_HandleIRQ+0x152>
    1382:	687b      	ldr	r3, [r7, #4]
    1384:	681c      	ldr	r4, [r3, #0]
    1386:	687b      	ldr	r3, [r7, #4]
    1388:	6859      	ldr	r1, [r3, #4]
    138a:	7eba      	ldrb	r2, [r7, #26]
    138c:	2300      	movs	r3, #0
    138e:	6878      	ldr	r0, [r7, #4]
    1390:	47a0      	blx	r4
    1392:	e076      	b.n	1482 <EDMA_HandleIRQ+0x152>
    1394:	687b      	ldr	r3, [r7, #4]
    1396:	689a      	ldr	r2, [r3, #8]
    1398:	687b      	ldr	r3, [r7, #4]
    139a:	7c1b      	ldrb	r3, [r3, #16]
    139c:	015b      	lsls	r3, r3, #5
    139e:	441a      	add	r2, r3
    13a0:	f241 0318 	movw	r3, #4120	; 0x1018
    13a4:	4413      	add	r3, r2
    13a6:	681b      	ldr	r3, [r3, #0]
    13a8:	617b      	str	r3, [r7, #20]
    13aa:	687b      	ldr	r3, [r7, #4]
    13ac:	68db      	ldr	r3, [r3, #12]
    13ae:	461a      	mov	r2, r3
    13b0:	697b      	ldr	r3, [r7, #20]
    13b2:	1a9b      	subs	r3, r3, r2
    13b4:	617b      	str	r3, [r7, #20]
    13b6:	697b      	ldr	r3, [r7, #20]
    13b8:	095b      	lsrs	r3, r3, #5
    13ba:	613b      	str	r3, [r7, #16]
    13bc:	7ebb      	ldrb	r3, [r7, #26]
    13be:	2b00      	cmp	r3, #0
    13c0:	d002      	beq.n	13c8 <EDMA_HandleIRQ+0x98>
    13c2:	693b      	ldr	r3, [r7, #16]
    13c4:	76fb      	strb	r3, [r7, #27]
    13c6:	e00e      	b.n	13e6 <EDMA_HandleIRQ+0xb6>
    13c8:	693b      	ldr	r3, [r7, #16]
    13ca:	2b00      	cmp	r3, #0
    13cc:	d004      	beq.n	13d8 <EDMA_HandleIRQ+0xa8>
    13ce:	693b      	ldr	r3, [r7, #16]
    13d0:	b2db      	uxtb	r3, r3
    13d2:	3b01      	subs	r3, #1
    13d4:	b2db      	uxtb	r3, r3
    13d6:	e005      	b.n	13e4 <EDMA_HandleIRQ+0xb4>
    13d8:	687b      	ldr	r3, [r7, #4]
    13da:	7d1b      	ldrb	r3, [r3, #20]
    13dc:	b25b      	sxtb	r3, r3
    13de:	b2db      	uxtb	r3, r3
    13e0:	3b01      	subs	r3, #1
    13e2:	b2db      	uxtb	r3, r3
    13e4:	76fb      	strb	r3, [r7, #27]
    13e6:	687b      	ldr	r3, [r7, #4]
    13e8:	7c5b      	ldrb	r3, [r3, #17]
    13ea:	b25a      	sxtb	r2, r3
    13ec:	f997 301b 	ldrsb.w	r3, [r7, #27]
    13f0:	429a      	cmp	r2, r3
    13f2:	d113      	bne.n	141c <EDMA_HandleIRQ+0xec>
    13f4:	687b      	ldr	r3, [r7, #4]
    13f6:	7cdb      	ldrb	r3, [r3, #19]
    13f8:	73fb      	strb	r3, [r7, #15]
    13fa:	687b      	ldr	r3, [r7, #4]
    13fc:	7d1b      	ldrb	r3, [r3, #20]
    13fe:	73bb      	strb	r3, [r7, #14]
    1400:	f997 200f 	ldrsb.w	r2, [r7, #15]
    1404:	f997 300e 	ldrsb.w	r3, [r7, #14]
    1408:	429a      	cmp	r2, r3
    140a:	d104      	bne.n	1416 <EDMA_HandleIRQ+0xe6>
    140c:	687b      	ldr	r3, [r7, #4]
    140e:	7cdb      	ldrb	r3, [r3, #19]
    1410:	b25b      	sxtb	r3, r3
    1412:	61fb      	str	r3, [r7, #28]
    1414:	e012      	b.n	143c <EDMA_HandleIRQ+0x10c>
    1416:	2300      	movs	r3, #0
    1418:	61fb      	str	r3, [r7, #28]
    141a:	e00f      	b.n	143c <EDMA_HandleIRQ+0x10c>
    141c:	7efb      	ldrb	r3, [r7, #27]
    141e:	687a      	ldr	r2, [r7, #4]
    1420:	7c52      	ldrb	r2, [r2, #17]
    1422:	b252      	sxtb	r2, r2
    1424:	1a9b      	subs	r3, r3, r2
    1426:	61fb      	str	r3, [r7, #28]
    1428:	69fb      	ldr	r3, [r7, #28]
    142a:	2b00      	cmp	r3, #0
    142c:	da06      	bge.n	143c <EDMA_HandleIRQ+0x10c>
    142e:	687b      	ldr	r3, [r7, #4]
    1430:	7d1b      	ldrb	r3, [r3, #20]
    1432:	b25b      	sxtb	r3, r3
    1434:	461a      	mov	r2, r3
    1436:	69fb      	ldr	r3, [r7, #28]
    1438:	4413      	add	r3, r2
    143a:	61fb      	str	r3, [r7, #28]
    143c:	f997 201b 	ldrsb.w	r2, [r7, #27]
    1440:	687b      	ldr	r3, [r7, #4]
    1442:	745a      	strb	r2, [r3, #17]
    1444:	687b      	ldr	r3, [r7, #4]
    1446:	7cdb      	ldrb	r3, [r3, #19]
    1448:	b25b      	sxtb	r3, r3
    144a:	b2da      	uxtb	r2, r3
    144c:	69fb      	ldr	r3, [r7, #28]
    144e:	b2db      	uxtb	r3, r3
    1450:	1ad3      	subs	r3, r2, r3
    1452:	b2db      	uxtb	r3, r3
    1454:	b25a      	sxtb	r2, r3
    1456:	687b      	ldr	r3, [r7, #4]
    1458:	74da      	strb	r2, [r3, #19]
    145a:	687b      	ldr	r3, [r7, #4]
    145c:	681b      	ldr	r3, [r3, #0]
    145e:	2b00      	cmp	r3, #0
    1460:	d007      	beq.n	1472 <EDMA_HandleIRQ+0x142>
    1462:	687b      	ldr	r3, [r7, #4]
    1464:	681c      	ldr	r4, [r3, #0]
    1466:	687b      	ldr	r3, [r7, #4]
    1468:	6859      	ldr	r1, [r3, #4]
    146a:	69fb      	ldr	r3, [r7, #28]
    146c:	7eba      	ldrb	r2, [r7, #26]
    146e:	6878      	ldr	r0, [r7, #4]
    1470:	47a0      	blx	r4
    1472:	7ebb      	ldrb	r3, [r7, #26]
    1474:	2b00      	cmp	r3, #0
    1476:	d004      	beq.n	1482 <EDMA_HandleIRQ+0x152>
    1478:	687b      	ldr	r3, [r7, #4]
    147a:	689b      	ldr	r3, [r3, #8]
    147c:	687a      	ldr	r2, [r7, #4]
    147e:	7c12      	ldrb	r2, [r2, #16]
    1480:	771a      	strb	r2, [r3, #28]
    1482:	bf00      	nop
    1484:	3724      	adds	r7, #36	; 0x24
    1486:	46bd      	mov	sp, r7
    1488:	bd90      	pop	{r4, r7, pc}
    148a:	bf00      	nop
    148c:	0000887c 	.word	0x0000887c

00001490 <DMA0_DMA16_DriverIRQHandler>:
    1490:	b580      	push	{r7, lr}
    1492:	af00      	add	r7, sp, #0
    1494:	2100      	movs	r1, #0
    1496:	480e      	ldr	r0, [pc, #56]	; (14d0 <DMA0_DMA16_DriverIRQHandler+0x40>)
    1498:	f7ff ff10 	bl	12bc <EDMA_GetChannelStatusFlags>
    149c:	4603      	mov	r3, r0
    149e:	f003 0304 	and.w	r3, r3, #4
    14a2:	2b00      	cmp	r3, #0
    14a4:	d004      	beq.n	14b0 <DMA0_DMA16_DriverIRQHandler+0x20>
    14a6:	4b0b      	ldr	r3, [pc, #44]	; (14d4 <DMA0_DMA16_DriverIRQHandler+0x44>)
    14a8:	681b      	ldr	r3, [r3, #0]
    14aa:	4618      	mov	r0, r3
    14ac:	f7ff ff40 	bl	1330 <EDMA_HandleIRQ>
    14b0:	2110      	movs	r1, #16
    14b2:	4807      	ldr	r0, [pc, #28]	; (14d0 <DMA0_DMA16_DriverIRQHandler+0x40>)
    14b4:	f7ff ff02 	bl	12bc <EDMA_GetChannelStatusFlags>
    14b8:	4603      	mov	r3, r0
    14ba:	f003 0304 	and.w	r3, r3, #4
    14be:	2b00      	cmp	r3, #0
    14c0:	d004      	beq.n	14cc <DMA0_DMA16_DriverIRQHandler+0x3c>
    14c2:	4b04      	ldr	r3, [pc, #16]	; (14d4 <DMA0_DMA16_DriverIRQHandler+0x44>)
    14c4:	6c1b      	ldr	r3, [r3, #64]	; 0x40
    14c6:	4618      	mov	r0, r3
    14c8:	f7ff ff32 	bl	1330 <EDMA_HandleIRQ>
    14cc:	bf00      	nop
    14ce:	bd80      	pop	{r7, pc}
    14d0:	400e8000 	.word	0x400e8000
    14d4:	20000048 	.word	0x20000048

000014d8 <DMA1_DMA17_DriverIRQHandler>:
    14d8:	b580      	push	{r7, lr}
    14da:	af00      	add	r7, sp, #0
    14dc:	2101      	movs	r1, #1
    14de:	480e      	ldr	r0, [pc, #56]	; (1518 <DMA1_DMA17_DriverIRQHandler+0x40>)
    14e0:	f7ff feec 	bl	12bc <EDMA_GetChannelStatusFlags>
    14e4:	4603      	mov	r3, r0
    14e6:	f003 0304 	and.w	r3, r3, #4
    14ea:	2b00      	cmp	r3, #0
    14ec:	d004      	beq.n	14f8 <DMA1_DMA17_DriverIRQHandler+0x20>
    14ee:	4b0b      	ldr	r3, [pc, #44]	; (151c <DMA1_DMA17_DriverIRQHandler+0x44>)
    14f0:	685b      	ldr	r3, [r3, #4]
    14f2:	4618      	mov	r0, r3
    14f4:	f7ff ff1c 	bl	1330 <EDMA_HandleIRQ>
    14f8:	2111      	movs	r1, #17
    14fa:	4807      	ldr	r0, [pc, #28]	; (1518 <DMA1_DMA17_DriverIRQHandler+0x40>)
    14fc:	f7ff fede 	bl	12bc <EDMA_GetChannelStatusFlags>
    1500:	4603      	mov	r3, r0
    1502:	f003 0304 	and.w	r3, r3, #4
    1506:	2b00      	cmp	r3, #0
    1508:	d004      	beq.n	1514 <DMA1_DMA17_DriverIRQHandler+0x3c>
    150a:	4b04      	ldr	r3, [pc, #16]	; (151c <DMA1_DMA17_DriverIRQHandler+0x44>)
    150c:	6c5b      	ldr	r3, [r3, #68]	; 0x44
    150e:	4618      	mov	r0, r3
    1510:	f7ff ff0e 	bl	1330 <EDMA_HandleIRQ>
    1514:	bf00      	nop
    1516:	bd80      	pop	{r7, pc}
    1518:	400e8000 	.word	0x400e8000
    151c:	20000048 	.word	0x20000048

00001520 <DMA2_DMA18_DriverIRQHandler>:
    1520:	b580      	push	{r7, lr}
    1522:	af00      	add	r7, sp, #0
    1524:	2102      	movs	r1, #2
    1526:	480e      	ldr	r0, [pc, #56]	; (1560 <DMA2_DMA18_DriverIRQHandler+0x40>)
    1528:	f7ff fec8 	bl	12bc <EDMA_GetChannelStatusFlags>
    152c:	4603      	mov	r3, r0
    152e:	f003 0304 	and.w	r3, r3, #4
    1532:	2b00      	cmp	r3, #0
    1534:	d004      	beq.n	1540 <DMA2_DMA18_DriverIRQHandler+0x20>
    1536:	4b0b      	ldr	r3, [pc, #44]	; (1564 <DMA2_DMA18_DriverIRQHandler+0x44>)
    1538:	689b      	ldr	r3, [r3, #8]
    153a:	4618      	mov	r0, r3
    153c:	f7ff fef8 	bl	1330 <EDMA_HandleIRQ>
    1540:	2112      	movs	r1, #18
    1542:	4807      	ldr	r0, [pc, #28]	; (1560 <DMA2_DMA18_DriverIRQHandler+0x40>)
    1544:	f7ff feba 	bl	12bc <EDMA_GetChannelStatusFlags>
    1548:	4603      	mov	r3, r0
    154a:	f003 0304 	and.w	r3, r3, #4
    154e:	2b00      	cmp	r3, #0
    1550:	d004      	beq.n	155c <DMA2_DMA18_DriverIRQHandler+0x3c>
    1552:	4b04      	ldr	r3, [pc, #16]	; (1564 <DMA2_DMA18_DriverIRQHandler+0x44>)
    1554:	6c9b      	ldr	r3, [r3, #72]	; 0x48
    1556:	4618      	mov	r0, r3
    1558:	f7ff feea 	bl	1330 <EDMA_HandleIRQ>
    155c:	bf00      	nop
    155e:	bd80      	pop	{r7, pc}
    1560:	400e8000 	.word	0x400e8000
    1564:	20000048 	.word	0x20000048

00001568 <DMA3_DMA19_DriverIRQHandler>:
    1568:	b580      	push	{r7, lr}
    156a:	af00      	add	r7, sp, #0
    156c:	2103      	movs	r1, #3
    156e:	480e      	ldr	r0, [pc, #56]	; (15a8 <DMA3_DMA19_DriverIRQHandler+0x40>)
    1570:	f7ff fea4 	bl	12bc <EDMA_GetChannelStatusFlags>
    1574:	4603      	mov	r3, r0
    1576:	f003 0304 	and.w	r3, r3, #4
    157a:	2b00      	cmp	r3, #0
    157c:	d004      	beq.n	1588 <DMA3_DMA19_DriverIRQHandler+0x20>
    157e:	4b0b      	ldr	r3, [pc, #44]	; (15ac <DMA3_DMA19_DriverIRQHandler+0x44>)
    1580:	68db      	ldr	r3, [r3, #12]
    1582:	4618      	mov	r0, r3
    1584:	f7ff fed4 	bl	1330 <EDMA_HandleIRQ>
    1588:	2113      	movs	r1, #19
    158a:	4807      	ldr	r0, [pc, #28]	; (15a8 <DMA3_DMA19_DriverIRQHandler+0x40>)
    158c:	f7ff fe96 	bl	12bc <EDMA_GetChannelStatusFlags>
    1590:	4603      	mov	r3, r0
    1592:	f003 0304 	and.w	r3, r3, #4
    1596:	2b00      	cmp	r3, #0
    1598:	d004      	beq.n	15a4 <DMA3_DMA19_DriverIRQHandler+0x3c>
    159a:	4b04      	ldr	r3, [pc, #16]	; (15ac <DMA3_DMA19_DriverIRQHandler+0x44>)
    159c:	6cdb      	ldr	r3, [r3, #76]	; 0x4c
    159e:	4618      	mov	r0, r3
    15a0:	f7ff fec6 	bl	1330 <EDMA_HandleIRQ>
    15a4:	bf00      	nop
    15a6:	bd80      	pop	{r7, pc}
    15a8:	400e8000 	.word	0x400e8000
    15ac:	20000048 	.word	0x20000048

000015b0 <DMA4_DMA20_DriverIRQHandler>:
    15b0:	b580      	push	{r7, lr}
    15b2:	af00      	add	r7, sp, #0
    15b4:	2104      	movs	r1, #4
    15b6:	480e      	ldr	r0, [pc, #56]	; (15f0 <DMA4_DMA20_DriverIRQHandler+0x40>)
    15b8:	f7ff fe80 	bl	12bc <EDMA_GetChannelStatusFlags>
    15bc:	4603      	mov	r3, r0
    15be:	f003 0304 	and.w	r3, r3, #4
    15c2:	2b00      	cmp	r3, #0
    15c4:	d004      	beq.n	15d0 <DMA4_DMA20_DriverIRQHandler+0x20>
    15c6:	4b0b      	ldr	r3, [pc, #44]	; (15f4 <DMA4_DMA20_DriverIRQHandler+0x44>)
    15c8:	691b      	ldr	r3, [r3, #16]
    15ca:	4618      	mov	r0, r3
    15cc:	f7ff feb0 	bl	1330 <EDMA_HandleIRQ>
    15d0:	2114      	movs	r1, #20
    15d2:	4807      	ldr	r0, [pc, #28]	; (15f0 <DMA4_DMA20_DriverIRQHandler+0x40>)
    15d4:	f7ff fe72 	bl	12bc <EDMA_GetChannelStatusFlags>
    15d8:	4603      	mov	r3, r0
    15da:	f003 0304 	and.w	r3, r3, #4
    15de:	2b00      	cmp	r3, #0
    15e0:	d004      	beq.n	15ec <DMA4_DMA20_DriverIRQHandler+0x3c>
    15e2:	4b04      	ldr	r3, [pc, #16]	; (15f4 <DMA4_DMA20_DriverIRQHandler+0x44>)
    15e4:	6d1b      	ldr	r3, [r3, #80]	; 0x50
    15e6:	4618      	mov	r0, r3
    15e8:	f7ff fea2 	bl	1330 <EDMA_HandleIRQ>
    15ec:	bf00      	nop
    15ee:	bd80      	pop	{r7, pc}
    15f0:	400e8000 	.word	0x400e8000
    15f4:	20000048 	.word	0x20000048

000015f8 <DMA5_DMA21_DriverIRQHandler>:
    15f8:	b580      	push	{r7, lr}
    15fa:	af00      	add	r7, sp, #0
    15fc:	2105      	movs	r1, #5
    15fe:	480e      	ldr	r0, [pc, #56]	; (1638 <DMA5_DMA21_DriverIRQHandler+0x40>)
    1600:	f7ff fe5c 	bl	12bc <EDMA_GetChannelStatusFlags>
    1604:	4603      	mov	r3, r0
    1606:	f003 0304 	and.w	r3, r3, #4
    160a:	2b00      	cmp	r3, #0
    160c:	d004      	beq.n	1618 <DMA5_DMA21_DriverIRQHandler+0x20>
    160e:	4b0b      	ldr	r3, [pc, #44]	; (163c <DMA5_DMA21_DriverIRQHandler+0x44>)
    1610:	695b      	ldr	r3, [r3, #20]
    1612:	4618      	mov	r0, r3
    1614:	f7ff fe8c 	bl	1330 <EDMA_HandleIRQ>
    1618:	2115      	movs	r1, #21
    161a:	4807      	ldr	r0, [pc, #28]	; (1638 <DMA5_DMA21_DriverIRQHandler+0x40>)
    161c:	f7ff fe4e 	bl	12bc <EDMA_GetChannelStatusFlags>
    1620:	4603      	mov	r3, r0
    1622:	f003 0304 	and.w	r3, r3, #4
    1626:	2b00      	cmp	r3, #0
    1628:	d004      	beq.n	1634 <DMA5_DMA21_DriverIRQHandler+0x3c>
    162a:	4b04      	ldr	r3, [pc, #16]	; (163c <DMA5_DMA21_DriverIRQHandler+0x44>)
    162c:	6d5b      	ldr	r3, [r3, #84]	; 0x54
    162e:	4618      	mov	r0, r3
    1630:	f7ff fe7e 	bl	1330 <EDMA_HandleIRQ>
    1634:	bf00      	nop
    1636:	bd80      	pop	{r7, pc}
    1638:	400e8000 	.word	0x400e8000
    163c:	20000048 	.word	0x20000048

00001640 <DMA6_DMA22_DriverIRQHandler>:
    1640:	b580      	push	{r7, lr}
    1642:	af00      	add	r7, sp, #0
    1644:	2106      	movs	r1, #6
    1646:	480e      	ldr	r0, [pc, #56]	; (1680 <DMA6_DMA22_DriverIRQHandler+0x40>)
    1648:	f7ff fe38 	bl	12bc <EDMA_GetChannelStatusFlags>
    164c:	4603      	mov	r3, r0
    164e:	f003 0304 	and.w	r3, r3, #4
    1652:	2b00      	cmp	r3, #0
    1654:	d004      	beq.n	1660 <DMA6_DMA22_DriverIRQHandler+0x20>
    1656:	4b0b      	ldr	r3, [pc, #44]	; (1684 <DMA6_DMA22_DriverIRQHandler+0x44>)
    1658:	699b      	ldr	r3, [r3, #24]
    165a:	4618      	mov	r0, r3
    165c:	f7ff fe68 	bl	1330 <EDMA_HandleIRQ>
    1660:	2116      	movs	r1, #22
    1662:	4807      	ldr	r0, [pc, #28]	; (1680 <DMA6_DMA22_DriverIRQHandler+0x40>)
    1664:	f7ff fe2a 	bl	12bc <EDMA_GetChannelStatusFlags>
    1668:	4603      	mov	r3, r0
    166a:	f003 0304 	and.w	r3, r3, #4
    166e:	2b00      	cmp	r3, #0
    1670:	d004      	beq.n	167c <DMA6_DMA22_DriverIRQHandler+0x3c>
    1672:	4b04      	ldr	r3, [pc, #16]	; (1684 <DMA6_DMA22_DriverIRQHandler+0x44>)
    1674:	6d9b      	ldr	r3, [r3, #88]	; 0x58
    1676:	4618      	mov	r0, r3
    1678:	f7ff fe5a 	bl	1330 <EDMA_HandleIRQ>
    167c:	bf00      	nop
    167e:	bd80      	pop	{r7, pc}
    1680:	400e8000 	.word	0x400e8000
    1684:	20000048 	.word	0x20000048

00001688 <DMA7_DMA23_DriverIRQHandler>:
    1688:	b580      	push	{r7, lr}
    168a:	af00      	add	r7, sp, #0
    168c:	2107      	movs	r1, #7
    168e:	480e      	ldr	r0, [pc, #56]	; (16c8 <DMA7_DMA23_DriverIRQHandler+0x40>)
    1690:	f7ff fe14 	bl	12bc <EDMA_GetChannelStatusFlags>
    1694:	4603      	mov	r3, r0
    1696:	f003 0304 	and.w	r3, r3, #4
    169a:	2b00      	cmp	r3, #0
    169c:	d004      	beq.n	16a8 <DMA7_DMA23_DriverIRQHandler+0x20>
    169e:	4b0b      	ldr	r3, [pc, #44]	; (16cc <DMA7_DMA23_DriverIRQHandler+0x44>)
    16a0:	69db      	ldr	r3, [r3, #28]
    16a2:	4618      	mov	r0, r3
    16a4:	f7ff fe44 	bl	1330 <EDMA_HandleIRQ>
    16a8:	2117      	movs	r1, #23
    16aa:	4807      	ldr	r0, [pc, #28]	; (16c8 <DMA7_DMA23_DriverIRQHandler+0x40>)
    16ac:	f7ff fe06 	bl	12bc <EDMA_GetChannelStatusFlags>
    16b0:	4603      	mov	r3, r0
    16b2:	f003 0304 	and.w	r3, r3, #4
    16b6:	2b00      	cmp	r3, #0
    16b8:	d004      	beq.n	16c4 <DMA7_DMA23_DriverIRQHandler+0x3c>
    16ba:	4b04      	ldr	r3, [pc, #16]	; (16cc <DMA7_DMA23_DriverIRQHandler+0x44>)
    16bc:	6ddb      	ldr	r3, [r3, #92]	; 0x5c
    16be:	4618      	mov	r0, r3
    16c0:	f7ff fe36 	bl	1330 <EDMA_HandleIRQ>
    16c4:	bf00      	nop
    16c6:	bd80      	pop	{r7, pc}
    16c8:	400e8000 	.word	0x400e8000
    16cc:	20000048 	.word	0x20000048

000016d0 <DMA8_DMA24_DriverIRQHandler>:
    16d0:	b580      	push	{r7, lr}
    16d2:	af00      	add	r7, sp, #0
    16d4:	2108      	movs	r1, #8
    16d6:	480e      	ldr	r0, [pc, #56]	; (1710 <DMA8_DMA24_DriverIRQHandler+0x40>)
    16d8:	f7ff fdf0 	bl	12bc <EDMA_GetChannelStatusFlags>
    16dc:	4603      	mov	r3, r0
    16de:	f003 0304 	and.w	r3, r3, #4
    16e2:	2b00      	cmp	r3, #0
    16e4:	d004      	beq.n	16f0 <DMA8_DMA24_DriverIRQHandler+0x20>
    16e6:	4b0b      	ldr	r3, [pc, #44]	; (1714 <DMA8_DMA24_DriverIRQHandler+0x44>)
    16e8:	6a1b      	ldr	r3, [r3, #32]
    16ea:	4618      	mov	r0, r3
    16ec:	f7ff fe20 	bl	1330 <EDMA_HandleIRQ>
    16f0:	2118      	movs	r1, #24
    16f2:	4807      	ldr	r0, [pc, #28]	; (1710 <DMA8_DMA24_DriverIRQHandler+0x40>)
    16f4:	f7ff fde2 	bl	12bc <EDMA_GetChannelStatusFlags>
    16f8:	4603      	mov	r3, r0
    16fa:	f003 0304 	and.w	r3, r3, #4
    16fe:	2b00      	cmp	r3, #0
    1700:	d004      	beq.n	170c <DMA8_DMA24_DriverIRQHandler+0x3c>
    1702:	4b04      	ldr	r3, [pc, #16]	; (1714 <DMA8_DMA24_DriverIRQHandler+0x44>)
    1704:	6e1b      	ldr	r3, [r3, #96]	; 0x60
    1706:	4618      	mov	r0, r3
    1708:	f7ff fe12 	bl	1330 <EDMA_HandleIRQ>
    170c:	bf00      	nop
    170e:	bd80      	pop	{r7, pc}
    1710:	400e8000 	.word	0x400e8000
    1714:	20000048 	.word	0x20000048

00001718 <DMA9_DMA25_DriverIRQHandler>:
    1718:	b580      	push	{r7, lr}
    171a:	af00      	add	r7, sp, #0
    171c:	2109      	movs	r1, #9
    171e:	480e      	ldr	r0, [pc, #56]	; (1758 <DMA9_DMA25_DriverIRQHandler+0x40>)
    1720:	f7ff fdcc 	bl	12bc <EDMA_GetChannelStatusFlags>
    1724:	4603      	mov	r3, r0
    1726:	f003 0304 	and.w	r3, r3, #4
    172a:	2b00      	cmp	r3, #0
    172c:	d004      	beq.n	1738 <DMA9_DMA25_DriverIRQHandler+0x20>
    172e:	4b0b      	ldr	r3, [pc, #44]	; (175c <DMA9_DMA25_DriverIRQHandler+0x44>)
    1730:	6a5b      	ldr	r3, [r3, #36]	; 0x24
    1732:	4618      	mov	r0, r3
    1734:	f7ff fdfc 	bl	1330 <EDMA_HandleIRQ>
    1738:	2119      	movs	r1, #25
    173a:	4807      	ldr	r0, [pc, #28]	; (1758 <DMA9_DMA25_DriverIRQHandler+0x40>)
    173c:	f7ff fdbe 	bl	12bc <EDMA_GetChannelStatusFlags>
    1740:	4603      	mov	r3, r0
    1742:	f003 0304 	and.w	r3, r3, #4
    1746:	2b00      	cmp	r3, #0
    1748:	d004      	beq.n	1754 <DMA9_DMA25_DriverIRQHandler+0x3c>
    174a:	4b04      	ldr	r3, [pc, #16]	; (175c <DMA9_DMA25_DriverIRQHandler+0x44>)
    174c:	6e5b      	ldr	r3, [r3, #100]	; 0x64
    174e:	4618      	mov	r0, r3
    1750:	f7ff fdee 	bl	1330 <EDMA_HandleIRQ>
    1754:	bf00      	nop
    1756:	bd80      	pop	{r7, pc}
    1758:	400e8000 	.word	0x400e8000
    175c:	20000048 	.word	0x20000048

00001760 <DMA10_DMA26_DriverIRQHandler>:
    1760:	b580      	push	{r7, lr}
    1762:	af00      	add	r7, sp, #0
    1764:	210a      	movs	r1, #10
    1766:	480e      	ldr	r0, [pc, #56]	; (17a0 <DMA10_DMA26_DriverIRQHandler+0x40>)
    1768:	f7ff fda8 	bl	12bc <EDMA_GetChannelStatusFlags>
    176c:	4603      	mov	r3, r0
    176e:	f003 0304 	and.w	r3, r3, #4
    1772:	2b00      	cmp	r3, #0
    1774:	d004      	beq.n	1780 <DMA10_DMA26_DriverIRQHandler+0x20>
    1776:	4b0b      	ldr	r3, [pc, #44]	; (17a4 <DMA10_DMA26_DriverIRQHandler+0x44>)
    1778:	6a9b      	ldr	r3, [r3, #40]	; 0x28
    177a:	4618      	mov	r0, r3
    177c:	f7ff fdd8 	bl	1330 <EDMA_HandleIRQ>
    1780:	211a      	movs	r1, #26
    1782:	4807      	ldr	r0, [pc, #28]	; (17a0 <DMA10_DMA26_DriverIRQHandler+0x40>)
    1784:	f7ff fd9a 	bl	12bc <EDMA_GetChannelStatusFlags>
    1788:	4603      	mov	r3, r0
    178a:	f003 0304 	and.w	r3, r3, #4
    178e:	2b00      	cmp	r3, #0
    1790:	d004      	beq.n	179c <DMA10_DMA26_DriverIRQHandler+0x3c>
    1792:	4b04      	ldr	r3, [pc, #16]	; (17a4 <DMA10_DMA26_DriverIRQHandler+0x44>)
    1794:	6e9b      	ldr	r3, [r3, #104]	; 0x68
    1796:	4618      	mov	r0, r3
    1798:	f7ff fdca 	bl	1330 <EDMA_HandleIRQ>
    179c:	bf00      	nop
    179e:	bd80      	pop	{r7, pc}
    17a0:	400e8000 	.word	0x400e8000
    17a4:	20000048 	.word	0x20000048

000017a8 <DMA11_DMA27_DriverIRQHandler>:
    17a8:	b580      	push	{r7, lr}
    17aa:	af00      	add	r7, sp, #0
    17ac:	210b      	movs	r1, #11
    17ae:	480e      	ldr	r0, [pc, #56]	; (17e8 <DMA11_DMA27_DriverIRQHandler+0x40>)
    17b0:	f7ff fd84 	bl	12bc <EDMA_GetChannelStatusFlags>
    17b4:	4603      	mov	r3, r0
    17b6:	f003 0304 	and.w	r3, r3, #4
    17ba:	2b00      	cmp	r3, #0
    17bc:	d004      	beq.n	17c8 <DMA11_DMA27_DriverIRQHandler+0x20>
    17be:	4b0b      	ldr	r3, [pc, #44]	; (17ec <DMA11_DMA27_DriverIRQHandler+0x44>)
    17c0:	6adb      	ldr	r3, [r3, #44]	; 0x2c
    17c2:	4618      	mov	r0, r3
    17c4:	f7ff fdb4 	bl	1330 <EDMA_HandleIRQ>
    17c8:	211b      	movs	r1, #27
    17ca:	4807      	ldr	r0, [pc, #28]	; (17e8 <DMA11_DMA27_DriverIRQHandler+0x40>)
    17cc:	f7ff fd76 	bl	12bc <EDMA_GetChannelStatusFlags>
    17d0:	4603      	mov	r3, r0
    17d2:	f003 0304 	and.w	r3, r3, #4
    17d6:	2b00      	cmp	r3, #0
    17d8:	d004      	beq.n	17e4 <DMA11_DMA27_DriverIRQHandler+0x3c>
    17da:	4b04      	ldr	r3, [pc, #16]	; (17ec <DMA11_DMA27_DriverIRQHandler+0x44>)
    17dc:	6edb      	ldr	r3, [r3, #108]	; 0x6c
    17de:	4618      	mov	r0, r3
    17e0:	f7ff fda6 	bl	1330 <EDMA_HandleIRQ>
    17e4:	bf00      	nop
    17e6:	bd80      	pop	{r7, pc}
    17e8:	400e8000 	.word	0x400e8000
    17ec:	20000048 	.word	0x20000048

000017f0 <DMA12_DMA28_DriverIRQHandler>:
    17f0:	b580      	push	{r7, lr}
    17f2:	af00      	add	r7, sp, #0
    17f4:	210c      	movs	r1, #12
    17f6:	480e      	ldr	r0, [pc, #56]	; (1830 <DMA12_DMA28_DriverIRQHandler+0x40>)
    17f8:	f7ff fd60 	bl	12bc <EDMA_GetChannelStatusFlags>
    17fc:	4603      	mov	r3, r0
    17fe:	f003 0304 	and.w	r3, r3, #4
    1802:	2b00      	cmp	r3, #0
    1804:	d004      	beq.n	1810 <DMA12_DMA28_DriverIRQHandler+0x20>
    1806:	4b0b      	ldr	r3, [pc, #44]	; (1834 <DMA12_DMA28_DriverIRQHandler+0x44>)
    1808:	6b1b      	ldr	r3, [r3, #48]	; 0x30
    180a:	4618      	mov	r0, r3
    180c:	f7ff fd90 	bl	1330 <EDMA_HandleIRQ>
    1810:	211c      	movs	r1, #28
    1812:	4807      	ldr	r0, [pc, #28]	; (1830 <DMA12_DMA28_DriverIRQHandler+0x40>)
    1814:	f7ff fd52 	bl	12bc <EDMA_GetChannelStatusFlags>
    1818:	4603      	mov	r3, r0
    181a:	f003 0304 	and.w	r3, r3, #4
    181e:	2b00      	cmp	r3, #0
    1820:	d004      	beq.n	182c <DMA12_DMA28_DriverIRQHandler+0x3c>
    1822:	4b04      	ldr	r3, [pc, #16]	; (1834 <DMA12_DMA28_DriverIRQHandler+0x44>)
    1824:	6f1b      	ldr	r3, [r3, #112]	; 0x70
    1826:	4618      	mov	r0, r3
    1828:	f7ff fd82 	bl	1330 <EDMA_HandleIRQ>
    182c:	bf00      	nop
    182e:	bd80      	pop	{r7, pc}
    1830:	400e8000 	.word	0x400e8000
    1834:	20000048 	.word	0x20000048

00001838 <DMA13_DMA29_DriverIRQHandler>:
    1838:	b580      	push	{r7, lr}
    183a:	af00      	add	r7, sp, #0
    183c:	210d      	movs	r1, #13
    183e:	480e      	ldr	r0, [pc, #56]	; (1878 <DMA13_DMA29_DriverIRQHandler+0x40>)
    1840:	f7ff fd3c 	bl	12bc <EDMA_GetChannelStatusFlags>
    1844:	4603      	mov	r3, r0
    1846:	f003 0304 	and.w	r3, r3, #4
    184a:	2b00      	cmp	r3, #0
    184c:	d004      	beq.n	1858 <DMA13_DMA29_DriverIRQHandler+0x20>
    184e:	4b0b      	ldr	r3, [pc, #44]	; (187c <DMA13_DMA29_DriverIRQHandler+0x44>)
    1850:	6b5b      	ldr	r3, [r3, #52]	; 0x34
    1852:	4618      	mov	r0, r3
    1854:	f7ff fd6c 	bl	1330 <EDMA_HandleIRQ>
    1858:	211d      	movs	r1, #29
    185a:	4807      	ldr	r0, [pc, #28]	; (1878 <DMA13_DMA29_DriverIRQHandler+0x40>)
    185c:	f7ff fd2e 	bl	12bc <EDMA_GetChannelStatusFlags>
    1860:	4603      	mov	r3, r0
    1862:	f003 0304 	and.w	r3, r3, #4
    1866:	2b00      	cmp	r3, #0
    1868:	d004      	beq.n	1874 <DMA13_DMA29_DriverIRQHandler+0x3c>
    186a:	4b04      	ldr	r3, [pc, #16]	; (187c <DMA13_DMA29_DriverIRQHandler+0x44>)
    186c:	6f5b      	ldr	r3, [r3, #116]	; 0x74
    186e:	4618      	mov	r0, r3
    1870:	f7ff fd5e 	bl	1330 <EDMA_HandleIRQ>
    1874:	bf00      	nop
    1876:	bd80      	pop	{r7, pc}
    1878:	400e8000 	.word	0x400e8000
    187c:	20000048 	.word	0x20000048

00001880 <DMA14_DMA30_DriverIRQHandler>:
    1880:	b580      	push	{r7, lr}
    1882:	af00      	add	r7, sp, #0
    1884:	210e      	movs	r1, #14
    1886:	480e      	ldr	r0, [pc, #56]	; (18c0 <DMA14_DMA30_DriverIRQHandler+0x40>)
    1888:	f7ff fd18 	bl	12bc <EDMA_GetChannelStatusFlags>
    188c:	4603      	mov	r3, r0
    188e:	f003 0304 	and.w	r3, r3, #4
    1892:	2b00      	cmp	r3, #0
    1894:	d004      	beq.n	18a0 <DMA14_DMA30_DriverIRQHandler+0x20>
    1896:	4b0b      	ldr	r3, [pc, #44]	; (18c4 <DMA14_DMA30_DriverIRQHandler+0x44>)
    1898:	6b9b      	ldr	r3, [r3, #56]	; 0x38
    189a:	4618      	mov	r0, r3
    189c:	f7ff fd48 	bl	1330 <EDMA_HandleIRQ>
    18a0:	211e      	movs	r1, #30
    18a2:	4807      	ldr	r0, [pc, #28]	; (18c0 <DMA14_DMA30_DriverIRQHandler+0x40>)
    18a4:	f7ff fd0a 	bl	12bc <EDMA_GetChannelStatusFlags>
    18a8:	4603      	mov	r3, r0
    18aa:	f003 0304 	and.w	r3, r3, #4
    18ae:	2b00      	cmp	r3, #0
    18b0:	d004      	beq.n	18bc <DMA14_DMA30_DriverIRQHandler+0x3c>
    18b2:	4b04      	ldr	r3, [pc, #16]	; (18c4 <DMA14_DMA30_DriverIRQHandler+0x44>)
    18b4:	6f9b      	ldr	r3, [r3, #120]	; 0x78
    18b6:	4618      	mov	r0, r3
    18b8:	f7ff fd3a 	bl	1330 <EDMA_HandleIRQ>
    18bc:	bf00      	nop
    18be:	bd80      	pop	{r7, pc}
    18c0:	400e8000 	.word	0x400e8000
    18c4:	20000048 	.word	0x20000048

000018c8 <DMA15_DMA31_DriverIRQHandler>:
    18c8:	b580      	push	{r7, lr}
    18ca:	af00      	add	r7, sp, #0
    18cc:	210f      	movs	r1, #15
    18ce:	480e      	ldr	r0, [pc, #56]	; (1908 <DMA15_DMA31_DriverIRQHandler+0x40>)
    18d0:	f7ff fcf4 	bl	12bc <EDMA_GetChannelStatusFlags>
    18d4:	4603      	mov	r3, r0
    18d6:	f003 0304 	and.w	r3, r3, #4
    18da:	2b00      	cmp	r3, #0
    18dc:	d004      	beq.n	18e8 <DMA15_DMA31_DriverIRQHandler+0x20>
    18de:	4b0b      	ldr	r3, [pc, #44]	; (190c <DMA15_DMA31_DriverIRQHandler+0x44>)
    18e0:	6bdb      	ldr	r3, [r3, #60]	; 0x3c
    18e2:	4618      	mov	r0, r3
    18e4:	f7ff fd24 	bl	1330 <EDMA_HandleIRQ>
    18e8:	211f      	movs	r1, #31
    18ea:	4807      	ldr	r0, [pc, #28]	; (1908 <DMA15_DMA31_DriverIRQHandler+0x40>)
    18ec:	f7ff fce6 	bl	12bc <EDMA_GetChannelStatusFlags>
    18f0:	4603      	mov	r3, r0
    18f2:	f003 0304 	and.w	r3, r3, #4
    18f6:	2b00      	cmp	r3, #0
    18f8:	d004      	beq.n	1904 <DMA15_DMA31_DriverIRQHandler+0x3c>
    18fa:	4b04      	ldr	r3, [pc, #16]	; (190c <DMA15_DMA31_DriverIRQHandler+0x44>)
    18fc:	6fdb      	ldr	r3, [r3, #124]	; 0x7c
    18fe:	4618      	mov	r0, r3
    1900:	f7ff fd16 	bl	1330 <EDMA_HandleIRQ>
    1904:	bf00      	nop
    1906:	bd80      	pop	{r7, pc}
    1908:	400e8000 	.word	0x400e8000
    190c:	20000048 	.word	0x20000048

00001910 <CLOCK_ControlGate>:
    1910:	b580      	push	{r7, lr}
    1912:	b086      	sub	sp, #24
    1914:	af00      	add	r7, sp, #0
    1916:	4603      	mov	r3, r0
    1918:	460a      	mov	r2, r1
    191a:	80fb      	strh	r3, [r7, #6]
    191c:	4613      	mov	r3, r2
    191e:	717b      	strb	r3, [r7, #5]
    1920:	f9b7 3006 	ldrsh.w	r3, [r7, #6]
    1924:	0a1b      	lsrs	r3, r3, #8
    1926:	617b      	str	r3, [r7, #20]
    1928:	88fb      	ldrh	r3, [r7, #6]
    192a:	f003 031f 	and.w	r3, r3, #31
    192e:	613b      	str	r3, [r7, #16]
    1930:	697b      	ldr	r3, [r7, #20]
    1932:	2b07      	cmp	r3, #7
    1934:	d902      	bls.n	193c <CLOCK_ControlGate+0x2c>
    1936:	480d      	ldr	r0, [pc, #52]	; (196c <CLOCK_ControlGate+0x5c>)
    1938:	f003 fcca 	bl	52d0 <__assertion_failed>
    193c:	697b      	ldr	r3, [r7, #20]
    193e:	009a      	lsls	r2, r3, #2
    1940:	4b0b      	ldr	r3, [pc, #44]	; (1970 <CLOCK_ControlGate+0x60>)
    1942:	4413      	add	r3, r2
    1944:	60fb      	str	r3, [r7, #12]
    1946:	68fb      	ldr	r3, [r7, #12]
    1948:	681a      	ldr	r2, [r3, #0]
    194a:	2103      	movs	r1, #3
    194c:	693b      	ldr	r3, [r7, #16]
    194e:	fa01 f303 	lsl.w	r3, r1, r3
    1952:	43db      	mvns	r3, r3
    1954:	401a      	ands	r2, r3
    1956:	7979      	ldrb	r1, [r7, #5]
    1958:	693b      	ldr	r3, [r7, #16]
    195a:	fa01 f303 	lsl.w	r3, r1, r3
    195e:	431a      	orrs	r2, r3
    1960:	68fb      	ldr	r3, [r7, #12]
    1962:	601a      	str	r2, [r3, #0]
    1964:	bf00      	nop
    1966:	3718      	adds	r7, #24
    1968:	46bd      	mov	sp, r7
    196a:	bd80      	pop	{r7, pc}
    196c:	000088a8 	.word	0x000088a8
    1970:	400fc068 	.word	0x400fc068

00001974 <GPIO_GetInstance>:
    1974:	b580      	push	{r7, lr}
    1976:	b084      	sub	sp, #16
    1978:	af00      	add	r7, sp, #0
    197a:	6078      	str	r0, [r7, #4]
    197c:	2300      	movs	r3, #0
    197e:	60fb      	str	r3, [r7, #12]
    1980:	e009      	b.n	1996 <GPIO_GetInstance+0x22>
    1982:	4a0d      	ldr	r2, [pc, #52]	; (19b8 <GPIO_GetInstance+0x44>)
    1984:	68fb      	ldr	r3, [r7, #12]
    1986:	f852 3023 	ldr.w	r3, [r2, r3, lsl #2]
    198a:	687a      	ldr	r2, [r7, #4]
    198c:	429a      	cmp	r2, r3
    198e:	d006      	beq.n	199e <GPIO_GetInstance+0x2a>
    1990:	68fb      	ldr	r3, [r7, #12]
    1992:	3301      	adds	r3, #1
    1994:	60fb      	str	r3, [r7, #12]
    1996:	68fb      	ldr	r3, [r7, #12]
    1998:	2b09      	cmp	r3, #9
    199a:	d9f2      	bls.n	1982 <GPIO_GetInstance+0xe>
    199c:	e000      	b.n	19a0 <GPIO_GetInstance+0x2c>
    199e:	bf00      	nop
    19a0:	68fb      	ldr	r3, [r7, #12]
    19a2:	2b09      	cmp	r3, #9
    19a4:	d902      	bls.n	19ac <GPIO_GetInstance+0x38>
    19a6:	4805      	ldr	r0, [pc, #20]	; (19bc <GPIO_GetInstance+0x48>)
    19a8:	f003 fc92 	bl	52d0 <__assertion_failed>
    19ac:	68fb      	ldr	r3, [r7, #12]
    19ae:	4618      	mov	r0, r3
    19b0:	3710      	adds	r7, #16
    19b2:	46bd      	mov	sp, r7
    19b4:	bd80      	pop	{r7, pc}
    19b6:	bf00      	nop
    19b8:	0000893c 	.word	0x0000893c
    19bc:	000088d4 	.word	0x000088d4

000019c0 <GPIO_PinInit>:
    19c0:	b580      	push	{r7, lr}
    19c2:	b086      	sub	sp, #24
    19c4:	af00      	add	r7, sp, #0
    19c6:	60f8      	str	r0, [r7, #12]
    19c8:	60b9      	str	r1, [r7, #8]
    19ca:	607a      	str	r2, [r7, #4]
    19cc:	68f8      	ldr	r0, [r7, #12]
    19ce:	f7ff ffd1 	bl	1974 <GPIO_GetInstance>
    19d2:	6178      	str	r0, [r7, #20]
    19d4:	697b      	ldr	r3, [r7, #20]
    19d6:	2b05      	cmp	r3, #5
    19d8:	d80d      	bhi.n	19f6 <GPIO_PinInit+0x36>
    19da:	4a21      	ldr	r2, [pc, #132]	; (1a60 <GPIO_PinInit+0xa0>)
    19dc:	697b      	ldr	r3, [r7, #20]
    19de:	f932 3013 	ldrsh.w	r3, [r2, r3, lsl #1]
    19e2:	f1b3 3fff 	cmp.w	r3, #4294967295
    19e6:	d006      	beq.n	19f6 <GPIO_PinInit+0x36>
    19e8:	4a1d      	ldr	r2, [pc, #116]	; (1a60 <GPIO_PinInit+0xa0>)
    19ea:	697b      	ldr	r3, [r7, #20]
    19ec:	f932 3013 	ldrsh.w	r3, [r2, r3, lsl #1]
    19f0:	4618      	mov	r0, r3
    19f2:	f004 fbc2 	bl	617a <CLOCK_EnableClock>
    19f6:	68fb      	ldr	r3, [r7, #12]
    19f8:	695a      	ldr	r2, [r3, #20]
    19fa:	2101      	movs	r1, #1
    19fc:	68bb      	ldr	r3, [r7, #8]
    19fe:	fa01 f303 	lsl.w	r3, r1, r3
    1a02:	43db      	mvns	r3, r3
    1a04:	401a      	ands	r2, r3
    1a06:	68fb      	ldr	r3, [r7, #12]
    1a08:	615a      	str	r2, [r3, #20]
    1a0a:	687b      	ldr	r3, [r7, #4]
    1a0c:	781b      	ldrb	r3, [r3, #0]
    1a0e:	2b00      	cmp	r3, #0
    1a10:	d10a      	bne.n	1a28 <GPIO_PinInit+0x68>
    1a12:	68fb      	ldr	r3, [r7, #12]
    1a14:	685a      	ldr	r2, [r3, #4]
    1a16:	2101      	movs	r1, #1
    1a18:	68bb      	ldr	r3, [r7, #8]
    1a1a:	fa01 f303 	lsl.w	r3, r1, r3
    1a1e:	43db      	mvns	r3, r3
    1a20:	401a      	ands	r2, r3
    1a22:	68fb      	ldr	r3, [r7, #12]
    1a24:	605a      	str	r2, [r3, #4]
    1a26:	e00f      	b.n	1a48 <GPIO_PinInit+0x88>
    1a28:	687b      	ldr	r3, [r7, #4]
    1a2a:	785b      	ldrb	r3, [r3, #1]
    1a2c:	461a      	mov	r2, r3
    1a2e:	68b9      	ldr	r1, [r7, #8]
    1a30:	68f8      	ldr	r0, [r7, #12]
    1a32:	f000 f817 	bl	1a64 <GPIO_PinWrite>
    1a36:	68fb      	ldr	r3, [r7, #12]
    1a38:	685a      	ldr	r2, [r3, #4]
    1a3a:	2101      	movs	r1, #1
    1a3c:	68bb      	ldr	r3, [r7, #8]
    1a3e:	fa01 f303 	lsl.w	r3, r1, r3
    1a42:	431a      	orrs	r2, r3
    1a44:	68fb      	ldr	r3, [r7, #12]
    1a46:	605a      	str	r2, [r3, #4]
    1a48:	687b      	ldr	r3, [r7, #4]
    1a4a:	789b      	ldrb	r3, [r3, #2]
    1a4c:	461a      	mov	r2, r3
    1a4e:	68b9      	ldr	r1, [r7, #8]
    1a50:	68f8      	ldr	r0, [r7, #12]
    1a52:	f004 fba1 	bl	6198 <GPIO_SetPinInterruptConfig>
    1a56:	bf00      	nop
    1a58:	3718      	adds	r7, #24
    1a5a:	46bd      	mov	sp, r7
    1a5c:	bd80      	pop	{r7, pc}
    1a5e:	bf00      	nop
    1a60:	00008964 	.word	0x00008964

00001a64 <GPIO_PinWrite>:
    1a64:	b580      	push	{r7, lr}
    1a66:	b084      	sub	sp, #16
    1a68:	af00      	add	r7, sp, #0
    1a6a:	60f8      	str	r0, [r7, #12]
    1a6c:	60b9      	str	r1, [r7, #8]
    1a6e:	4613      	mov	r3, r2
    1a70:	71fb      	strb	r3, [r7, #7]
    1a72:	68bb      	ldr	r3, [r7, #8]
    1a74:	2b1f      	cmp	r3, #31
    1a76:	d902      	bls.n	1a7e <GPIO_PinWrite+0x1a>
    1a78:	480e      	ldr	r0, [pc, #56]	; (1ab4 <GPIO_PinWrite+0x50>)
    1a7a:	f003 fc29 	bl	52d0 <__assertion_failed>
    1a7e:	79fb      	ldrb	r3, [r7, #7]
    1a80:	2b00      	cmp	r3, #0
    1a82:	d10a      	bne.n	1a9a <GPIO_PinWrite+0x36>
    1a84:	68fb      	ldr	r3, [r7, #12]
    1a86:	681a      	ldr	r2, [r3, #0]
    1a88:	2101      	movs	r1, #1
    1a8a:	68bb      	ldr	r3, [r7, #8]
    1a8c:	fa01 f303 	lsl.w	r3, r1, r3
    1a90:	43db      	mvns	r3, r3
    1a92:	401a      	ands	r2, r3
    1a94:	68fb      	ldr	r3, [r7, #12]
    1a96:	601a      	str	r2, [r3, #0]
    1a98:	e008      	b.n	1aac <GPIO_PinWrite+0x48>
    1a9a:	68fb      	ldr	r3, [r7, #12]
    1a9c:	681a      	ldr	r2, [r3, #0]
    1a9e:	2101      	movs	r1, #1
    1aa0:	68bb      	ldr	r3, [r7, #8]
    1aa2:	fa01 f303 	lsl.w	r3, r1, r3
    1aa6:	431a      	orrs	r2, r3
    1aa8:	68fb      	ldr	r3, [r7, #12]
    1aaa:	601a      	str	r2, [r3, #0]
    1aac:	bf00      	nop
    1aae:	3710      	adds	r7, #16
    1ab0:	46bd      	mov	sp, r7
    1ab2:	bd80      	pop	{r7, pc}
    1ab4:	00008914 	.word	0x00008914

00001ab8 <GPIO_PinSetInterruptConfig>:
    1ab8:	b480      	push	{r7}
    1aba:	b087      	sub	sp, #28
    1abc:	af00      	add	r7, sp, #0
    1abe:	60f8      	str	r0, [r7, #12]
    1ac0:	60b9      	str	r1, [r7, #8]
    1ac2:	4613      	mov	r3, r2
    1ac4:	71fb      	strb	r3, [r7, #7]
    1ac6:	68bb      	ldr	r3, [r7, #8]
    1ac8:	613b      	str	r3, [r7, #16]
    1aca:	68fb      	ldr	r3, [r7, #12]
    1acc:	69da      	ldr	r2, [r3, #28]
    1ace:	2101      	movs	r1, #1
    1ad0:	68bb      	ldr	r3, [r7, #8]
    1ad2:	fa01 f303 	lsl.w	r3, r1, r3
    1ad6:	43db      	mvns	r3, r3
    1ad8:	401a      	ands	r2, r3
    1ada:	68fb      	ldr	r3, [r7, #12]
    1adc:	61da      	str	r2, [r3, #28]
    1ade:	68bb      	ldr	r3, [r7, #8]
    1ae0:	2b0f      	cmp	r3, #15
    1ae2:	d803      	bhi.n	1aec <GPIO_PinSetInterruptConfig+0x34>
    1ae4:	68fb      	ldr	r3, [r7, #12]
    1ae6:	330c      	adds	r3, #12
    1ae8:	617b      	str	r3, [r7, #20]
    1aea:	e005      	b.n	1af8 <GPIO_PinSetInterruptConfig+0x40>
    1aec:	68fb      	ldr	r3, [r7, #12]
    1aee:	3310      	adds	r3, #16
    1af0:	617b      	str	r3, [r7, #20]
    1af2:	693b      	ldr	r3, [r7, #16]
    1af4:	3b10      	subs	r3, #16
    1af6:	613b      	str	r3, [r7, #16]
    1af8:	79fb      	ldrb	r3, [r7, #7]
    1afa:	3b01      	subs	r3, #1
    1afc:	2b04      	cmp	r3, #4
    1afe:	d852      	bhi.n	1ba6 <GPIO_PinSetInterruptConfig+0xee>
    1b00:	a201      	add	r2, pc, #4	; (adr r2, 1b08 <GPIO_PinSetInterruptConfig+0x50>)
    1b02:	f852 f023 	ldr.w	pc, [r2, r3, lsl #2]
    1b06:	bf00      	nop
    1b08:	00001b1d 	.word	0x00001b1d
    1b0c:	00001b35 	.word	0x00001b35
    1b10:	00001b59 	.word	0x00001b59
    1b14:	00001b7d 	.word	0x00001b7d
    1b18:	00001b93 	.word	0x00001b93
    1b1c:	697b      	ldr	r3, [r7, #20]
    1b1e:	681a      	ldr	r2, [r3, #0]
    1b20:	693b      	ldr	r3, [r7, #16]
    1b22:	005b      	lsls	r3, r3, #1
    1b24:	2103      	movs	r1, #3
    1b26:	fa01 f303 	lsl.w	r3, r1, r3
    1b2a:	43db      	mvns	r3, r3
    1b2c:	401a      	ands	r2, r3
    1b2e:	697b      	ldr	r3, [r7, #20]
    1b30:	601a      	str	r2, [r3, #0]
    1b32:	e039      	b.n	1ba8 <GPIO_PinSetInterruptConfig+0xf0>
    1b34:	697b      	ldr	r3, [r7, #20]
    1b36:	681a      	ldr	r2, [r3, #0]
    1b38:	693b      	ldr	r3, [r7, #16]
    1b3a:	005b      	lsls	r3, r3, #1
    1b3c:	2103      	movs	r1, #3
    1b3e:	fa01 f303 	lsl.w	r3, r1, r3
    1b42:	43db      	mvns	r3, r3
    1b44:	401a      	ands	r2, r3
    1b46:	693b      	ldr	r3, [r7, #16]
    1b48:	005b      	lsls	r3, r3, #1
    1b4a:	2101      	movs	r1, #1
    1b4c:	fa01 f303 	lsl.w	r3, r1, r3
    1b50:	431a      	orrs	r2, r3
    1b52:	697b      	ldr	r3, [r7, #20]
    1b54:	601a      	str	r2, [r3, #0]
    1b56:	e027      	b.n	1ba8 <GPIO_PinSetInterruptConfig+0xf0>
    1b58:	697b      	ldr	r3, [r7, #20]
    1b5a:	681a      	ldr	r2, [r3, #0]
    1b5c:	693b      	ldr	r3, [r7, #16]
    1b5e:	005b      	lsls	r3, r3, #1
    1b60:	2103      	movs	r1, #3
    1b62:	fa01 f303 	lsl.w	r3, r1, r3
    1b66:	43db      	mvns	r3, r3
    1b68:	401a      	ands	r2, r3
    1b6a:	693b      	ldr	r3, [r7, #16]
    1b6c:	005b      	lsls	r3, r3, #1
    1b6e:	2102      	movs	r1, #2
    1b70:	fa01 f303 	lsl.w	r3, r1, r3
    1b74:	431a      	orrs	r2, r3
    1b76:	697b      	ldr	r3, [r7, #20]
    1b78:	601a      	str	r2, [r3, #0]
    1b7a:	e015      	b.n	1ba8 <GPIO_PinSetInterruptConfig+0xf0>
    1b7c:	697b      	ldr	r3, [r7, #20]
    1b7e:	681a      	ldr	r2, [r3, #0]
    1b80:	693b      	ldr	r3, [r7, #16]
    1b82:	005b      	lsls	r3, r3, #1
    1b84:	2103      	movs	r1, #3
    1b86:	fa01 f303 	lsl.w	r3, r1, r3
    1b8a:	431a      	orrs	r2, r3
    1b8c:	697b      	ldr	r3, [r7, #20]
    1b8e:	601a      	str	r2, [r3, #0]
    1b90:	e00a      	b.n	1ba8 <GPIO_PinSetInterruptConfig+0xf0>
    1b92:	68fb      	ldr	r3, [r7, #12]
    1b94:	69da      	ldr	r2, [r3, #28]
    1b96:	2101      	movs	r1, #1
    1b98:	68bb      	ldr	r3, [r7, #8]
    1b9a:	fa01 f303 	lsl.w	r3, r1, r3
    1b9e:	431a      	orrs	r2, r3
    1ba0:	68fb      	ldr	r3, [r7, #12]
    1ba2:	61da      	str	r2, [r3, #28]
    1ba4:	e000      	b.n	1ba8 <GPIO_PinSetInterruptConfig+0xf0>
    1ba6:	bf00      	nop
    1ba8:	bf00      	nop
    1baa:	371c      	adds	r7, #28
    1bac:	46bd      	mov	sp, r7
    1bae:	f85d 7b04 	ldr.w	r7, [sp], #4
    1bb2:	4770      	bx	lr

00001bb4 <__NVIC_EnableIRQ>:
    1bb4:	b480      	push	{r7}
    1bb6:	b083      	sub	sp, #12
    1bb8:	af00      	add	r7, sp, #0
    1bba:	4603      	mov	r3, r0
    1bbc:	80fb      	strh	r3, [r7, #6]
    1bbe:	f9b7 3006 	ldrsh.w	r3, [r7, #6]
    1bc2:	2b00      	cmp	r3, #0
    1bc4:	db0b      	blt.n	1bde <__NVIC_EnableIRQ+0x2a>
    1bc6:	88fb      	ldrh	r3, [r7, #6]
    1bc8:	f003 021f 	and.w	r2, r3, #31
    1bcc:	4907      	ldr	r1, [pc, #28]	; (1bec <__NVIC_EnableIRQ+0x38>)
    1bce:	f9b7 3006 	ldrsh.w	r3, [r7, #6]
    1bd2:	095b      	lsrs	r3, r3, #5
    1bd4:	2001      	movs	r0, #1
    1bd6:	fa00 f202 	lsl.w	r2, r0, r2
    1bda:	f841 2023 	str.w	r2, [r1, r3, lsl #2]
    1bde:	bf00      	nop
    1be0:	370c      	adds	r7, #12
    1be2:	46bd      	mov	sp, r7
    1be4:	f85d 7b04 	ldr.w	r7, [sp], #4
    1be8:	4770      	bx	lr
    1bea:	bf00      	nop
    1bec:	e000e100 	.word	0xe000e100

00001bf0 <CLOCK_ControlGate>:
    1bf0:	b580      	push	{r7, lr}
    1bf2:	b086      	sub	sp, #24
    1bf4:	af00      	add	r7, sp, #0
    1bf6:	4603      	mov	r3, r0
    1bf8:	460a      	mov	r2, r1
    1bfa:	80fb      	strh	r3, [r7, #6]
    1bfc:	4613      	mov	r3, r2
    1bfe:	717b      	strb	r3, [r7, #5]
    1c00:	f9b7 3006 	ldrsh.w	r3, [r7, #6]
    1c04:	0a1b      	lsrs	r3, r3, #8
    1c06:	617b      	str	r3, [r7, #20]
    1c08:	88fb      	ldrh	r3, [r7, #6]
    1c0a:	f003 031f 	and.w	r3, r3, #31
    1c0e:	613b      	str	r3, [r7, #16]
    1c10:	697b      	ldr	r3, [r7, #20]
    1c12:	2b07      	cmp	r3, #7
    1c14:	d902      	bls.n	1c1c <CLOCK_ControlGate+0x2c>
    1c16:	480d      	ldr	r0, [pc, #52]	; (1c4c <CLOCK_ControlGate+0x5c>)
    1c18:	f003 fb5a 	bl	52d0 <__assertion_failed>
    1c1c:	697b      	ldr	r3, [r7, #20]
    1c1e:	009a      	lsls	r2, r3, #2
    1c20:	4b0b      	ldr	r3, [pc, #44]	; (1c50 <CLOCK_ControlGate+0x60>)
    1c22:	4413      	add	r3, r2
    1c24:	60fb      	str	r3, [r7, #12]
    1c26:	68fb      	ldr	r3, [r7, #12]
    1c28:	681a      	ldr	r2, [r3, #0]
    1c2a:	2103      	movs	r1, #3
    1c2c:	693b      	ldr	r3, [r7, #16]
    1c2e:	fa01 f303 	lsl.w	r3, r1, r3
    1c32:	43db      	mvns	r3, r3
    1c34:	401a      	ands	r2, r3
    1c36:	7979      	ldrb	r1, [r7, #5]
    1c38:	693b      	ldr	r3, [r7, #16]
    1c3a:	fa01 f303 	lsl.w	r3, r1, r3
    1c3e:	431a      	orrs	r2, r3
    1c40:	68fb      	ldr	r3, [r7, #12]
    1c42:	601a      	str	r2, [r3, #0]
    1c44:	bf00      	nop
    1c46:	3718      	adds	r7, #24
    1c48:	46bd      	mov	sp, r7
    1c4a:	bd80      	pop	{r7, pc}
    1c4c:	00008970 	.word	0x00008970
    1c50:	400fc068 	.word	0x400fc068

00001c54 <LPSPI_GetInstance>:
    1c54:	b580      	push	{r7, lr}
    1c56:	b084      	sub	sp, #16
    1c58:	af00      	add	r7, sp, #0
    1c5a:	6078      	str	r0, [r7, #4]
    1c5c:	2300      	movs	r3, #0
    1c5e:	73fb      	strb	r3, [r7, #15]
    1c60:	2300      	movs	r3, #0
    1c62:	73fb      	strb	r3, [r7, #15]
    1c64:	e009      	b.n	1c7a <LPSPI_GetInstance+0x26>
    1c66:	7bfb      	ldrb	r3, [r7, #15]
    1c68:	4a0c      	ldr	r2, [pc, #48]	; (1c9c <LPSPI_GetInstance+0x48>)
    1c6a:	f852 3023 	ldr.w	r3, [r2, r3, lsl #2]
    1c6e:	687a      	ldr	r2, [r7, #4]
    1c70:	429a      	cmp	r2, r3
    1c72:	d006      	beq.n	1c82 <LPSPI_GetInstance+0x2e>
    1c74:	7bfb      	ldrb	r3, [r7, #15]
    1c76:	3301      	adds	r3, #1
    1c78:	73fb      	strb	r3, [r7, #15]
    1c7a:	7bfb      	ldrb	r3, [r7, #15]
    1c7c:	2b04      	cmp	r3, #4
    1c7e:	d9f2      	bls.n	1c66 <LPSPI_GetInstance+0x12>
    1c80:	e000      	b.n	1c84 <LPSPI_GetInstance+0x30>
    1c82:	bf00      	nop
    1c84:	7bfb      	ldrb	r3, [r7, #15]
    1c86:	2b04      	cmp	r3, #4
    1c88:	d902      	bls.n	1c90 <LPSPI_GetInstance+0x3c>
    1c8a:	4805      	ldr	r0, [pc, #20]	; (1ca0 <LPSPI_GetInstance+0x4c>)
    1c8c:	f003 fb20 	bl	52d0 <__assertion_failed>
    1c90:	7bfb      	ldrb	r3, [r7, #15]
    1c92:	4618      	mov	r0, r3
    1c94:	3710      	adds	r7, #16
    1c96:	46bd      	mov	sp, r7
    1c98:	bd80      	pop	{r7, pc}
    1c9a:	bf00      	nop
    1c9c:	00008f0c 	.word	0x00008f0c
    1ca0:	0000899c 	.word	0x0000899c

00001ca4 <LPSPI_SetDummyData>:
    1ca4:	b580      	push	{r7, lr}
    1ca6:	b084      	sub	sp, #16
    1ca8:	af00      	add	r7, sp, #0
    1caa:	6078      	str	r0, [r7, #4]
    1cac:	460b      	mov	r3, r1
    1cae:	70fb      	strb	r3, [r7, #3]
    1cb0:	6878      	ldr	r0, [r7, #4]
    1cb2:	f7ff ffcf 	bl	1c54 <LPSPI_GetInstance>
    1cb6:	60f8      	str	r0, [r7, #12]
    1cb8:	4a04      	ldr	r2, [pc, #16]	; (1ccc <LPSPI_SetDummyData+0x28>)
    1cba:	68fb      	ldr	r3, [r7, #12]
    1cbc:	4413      	add	r3, r2
    1cbe:	78fa      	ldrb	r2, [r7, #3]
    1cc0:	701a      	strb	r2, [r3, #0]
    1cc2:	bf00      	nop
    1cc4:	3710      	adds	r7, #16
    1cc6:	46bd      	mov	sp, r7
    1cc8:	bd80      	pop	{r7, pc}
    1cca:	bf00      	nop
    1ccc:	200000e4 	.word	0x200000e4

00001cd0 <LPSPI_MasterInit>:
    1cd0:	b580      	push	{r7, lr}
    1cd2:	b086      	sub	sp, #24
    1cd4:	af00      	add	r7, sp, #0
    1cd6:	60f8      	str	r0, [r7, #12]
    1cd8:	60b9      	str	r1, [r7, #8]
    1cda:	607a      	str	r2, [r7, #4]
    1cdc:	68bb      	ldr	r3, [r7, #8]
    1cde:	2b00      	cmp	r3, #0
    1ce0:	d102      	bne.n	1ce8 <LPSPI_MasterInit+0x18>
    1ce2:	483f      	ldr	r0, [pc, #252]	; (1de0 <LPSPI_MasterInit+0x110>)
    1ce4:	f003 faf4 	bl	52d0 <__assertion_failed>
    1ce8:	2300      	movs	r3, #0
    1cea:	613b      	str	r3, [r7, #16]
    1cec:	68f8      	ldr	r0, [r7, #12]
    1cee:	f7ff ffb1 	bl	1c54 <LPSPI_GetInstance>
    1cf2:	6178      	str	r0, [r7, #20]
    1cf4:	4a3b      	ldr	r2, [pc, #236]	; (1de4 <LPSPI_MasterInit+0x114>)
    1cf6:	697b      	ldr	r3, [r7, #20]
    1cf8:	f932 3013 	ldrsh.w	r3, [r2, r3, lsl #1]
    1cfc:	4618      	mov	r0, r3
    1cfe:	f004 fa5c 	bl	61ba <CLOCK_EnableClock>
    1d02:	2101      	movs	r1, #1
    1d04:	68f8      	ldr	r0, [r7, #12]
    1d06:	f004 fb13 	bl	6330 <LPSPI_SetMasterSlaveMode>
    1d0a:	68bb      	ldr	r3, [r7, #8]
    1d0c:	7e19      	ldrb	r1, [r3, #24]
    1d0e:	68bb      	ldr	r3, [r7, #8]
    1d10:	7e5b      	ldrb	r3, [r3, #25]
    1d12:	461a      	mov	r2, r3
    1d14:	68f8      	ldr	r0, [r7, #12]
    1d16:	f004 fb95 	bl	6444 <LPSPI_SetOnePcsPolarity>
    1d1a:	68fb      	ldr	r3, [r7, #12]
    1d1c:	6a5a      	ldr	r2, [r3, #36]	; 0x24
    1d1e:	4b32      	ldr	r3, [pc, #200]	; (1de8 <LPSPI_MasterInit+0x118>)
    1d20:	4013      	ands	r3, r2
    1d22:	68ba      	ldr	r2, [r7, #8]
    1d24:	7ed2      	ldrb	r2, [r2, #27]
    1d26:	0692      	lsls	r2, r2, #26
    1d28:	f002 6280 	and.w	r2, r2, #67108864	; 0x4000000
    1d2c:	431a      	orrs	r2, r3
    1d2e:	68bb      	ldr	r3, [r7, #8]
    1d30:	7e9b      	ldrb	r3, [r3, #26]
    1d32:	061b      	lsls	r3, r3, #24
    1d34:	f003 7340 	and.w	r3, r3, #50331648	; 0x3000000
    1d38:	431a      	orrs	r2, r3
    1d3a:	68fb      	ldr	r3, [r7, #12]
    1d3c:	625a      	str	r2, [r3, #36]	; 0x24
    1d3e:	68bb      	ldr	r3, [r7, #8]
    1d40:	6819      	ldr	r1, [r3, #0]
    1d42:	f107 0310 	add.w	r3, r7, #16
    1d46:	687a      	ldr	r2, [r7, #4]
    1d48:	68f8      	ldr	r0, [r7, #12]
    1d4a:	f000 f941 	bl	1fd0 <LPSPI_MasterSetBaudRate>
    1d4e:	2200      	movs	r2, #0
    1d50:	2100      	movs	r1, #0
    1d52:	68f8      	ldr	r0, [r7, #12]
    1d54:	f004 fb2d 	bl	63b2 <LPSPI_SetFifoWatermarks>
    1d58:	68bb      	ldr	r3, [r7, #8]
    1d5a:	7a1b      	ldrb	r3, [r3, #8]
    1d5c:	07da      	lsls	r2, r3, #31
    1d5e:	68bb      	ldr	r3, [r7, #8]
    1d60:	7a5b      	ldrb	r3, [r3, #9]
    1d62:	079b      	lsls	r3, r3, #30
    1d64:	f003 4380 	and.w	r3, r3, #1073741824	; 0x40000000
    1d68:	431a      	orrs	r2, r3
    1d6a:	68bb      	ldr	r3, [r7, #8]
    1d6c:	7a9b      	ldrb	r3, [r3, #10]
    1d6e:	05db      	lsls	r3, r3, #23
    1d70:	f403 0300 	and.w	r3, r3, #8388608	; 0x800000
    1d74:	431a      	orrs	r2, r3
    1d76:	68bb      	ldr	r3, [r7, #8]
    1d78:	685b      	ldr	r3, [r3, #4]
    1d7a:	3b01      	subs	r3, #1
    1d7c:	f3c3 030b 	ubfx	r3, r3, #0, #12
    1d80:	431a      	orrs	r2, r3
    1d82:	693b      	ldr	r3, [r7, #16]
    1d84:	06db      	lsls	r3, r3, #27
    1d86:	f003 5360 	and.w	r3, r3, #939524096	; 0x38000000
    1d8a:	431a      	orrs	r2, r3
    1d8c:	68bb      	ldr	r3, [r7, #8]
    1d8e:	7e1b      	ldrb	r3, [r3, #24]
    1d90:	061b      	lsls	r3, r3, #24
    1d92:	f003 7340 	and.w	r3, r3, #50331648	; 0x3000000
    1d96:	431a      	orrs	r2, r3
    1d98:	68fb      	ldr	r3, [r7, #12]
    1d9a:	661a      	str	r2, [r3, #96]	; 0x60
    1d9c:	2101      	movs	r1, #1
    1d9e:	68f8      	ldr	r0, [r7, #12]
    1da0:	f004 fa3f 	bl	6222 <LPSPI_Enable>
    1da4:	68bb      	ldr	r3, [r7, #8]
    1da6:	68d9      	ldr	r1, [r3, #12]
    1da8:	687b      	ldr	r3, [r7, #4]
    1daa:	2201      	movs	r2, #1
    1dac:	68f8      	ldr	r0, [r7, #12]
    1dae:	f7fe fae7 	bl	380 <LPSPI_MasterSetDelayTimes>
    1db2:	68bb      	ldr	r3, [r7, #8]
    1db4:	6919      	ldr	r1, [r3, #16]
    1db6:	687b      	ldr	r3, [r7, #4]
    1db8:	2202      	movs	r2, #2
    1dba:	68f8      	ldr	r0, [r7, #12]
    1dbc:	f7fe fae0 	bl	380 <LPSPI_MasterSetDelayTimes>
    1dc0:	68bb      	ldr	r3, [r7, #8]
    1dc2:	6959      	ldr	r1, [r3, #20]
    1dc4:	687b      	ldr	r3, [r7, #4]
    1dc6:	2203      	movs	r2, #3
    1dc8:	68f8      	ldr	r0, [r7, #12]
    1dca:	f7fe fad9 	bl	380 <LPSPI_MasterSetDelayTimes>
    1dce:	2100      	movs	r1, #0
    1dd0:	68f8      	ldr	r0, [r7, #12]
    1dd2:	f7ff ff67 	bl	1ca4 <LPSPI_SetDummyData>
    1dd6:	bf00      	nop
    1dd8:	3718      	adds	r7, #24
    1dda:	46bd      	mov	sp, r7
    1ddc:	bd80      	pop	{r7, pc}
    1dde:	bf00      	nop
    1de0:	000089e0 	.word	0x000089e0
    1de4:	00008f2c 	.word	0x00008f2c
    1de8:	f8fffff7 	.word	0xf8fffff7

00001dec <LPSPI_MasterGetDefaultConfig>:
    1dec:	b580      	push	{r7, lr}
    1dee:	b082      	sub	sp, #8
    1df0:	af00      	add	r7, sp, #0
    1df2:	6078      	str	r0, [r7, #4]
    1df4:	687b      	ldr	r3, [r7, #4]
    1df6:	2b00      	cmp	r3, #0
    1df8:	d102      	bne.n	1e00 <LPSPI_MasterGetDefaultConfig+0x14>
    1dfa:	481f      	ldr	r0, [pc, #124]	; (1e78 <LPSPI_MasterGetDefaultConfig+0x8c>)
    1dfc:	f003 fa68 	bl	52d0 <__assertion_failed>
    1e00:	221c      	movs	r2, #28
    1e02:	2100      	movs	r1, #0
    1e04:	6878      	ldr	r0, [r7, #4]
    1e06:	f005 f8b9 	bl	6f7c <memset>
    1e0a:	687b      	ldr	r3, [r7, #4]
    1e0c:	4a1b      	ldr	r2, [pc, #108]	; (1e7c <LPSPI_MasterGetDefaultConfig+0x90>)
    1e0e:	601a      	str	r2, [r3, #0]
    1e10:	687b      	ldr	r3, [r7, #4]
    1e12:	2208      	movs	r2, #8
    1e14:	605a      	str	r2, [r3, #4]
    1e16:	687b      	ldr	r3, [r7, #4]
    1e18:	2200      	movs	r2, #0
    1e1a:	721a      	strb	r2, [r3, #8]
    1e1c:	687b      	ldr	r3, [r7, #4]
    1e1e:	2200      	movs	r2, #0
    1e20:	725a      	strb	r2, [r3, #9]
    1e22:	687b      	ldr	r3, [r7, #4]
    1e24:	2200      	movs	r2, #0
    1e26:	729a      	strb	r2, [r3, #10]
    1e28:	687b      	ldr	r3, [r7, #4]
    1e2a:	681b      	ldr	r3, [r3, #0]
    1e2c:	4a14      	ldr	r2, [pc, #80]	; (1e80 <LPSPI_MasterGetDefaultConfig+0x94>)
    1e2e:	fbb2 f3f3 	udiv	r3, r2, r3
    1e32:	005a      	lsls	r2, r3, #1
    1e34:	687b      	ldr	r3, [r7, #4]
    1e36:	60da      	str	r2, [r3, #12]
    1e38:	687b      	ldr	r3, [r7, #4]
    1e3a:	681b      	ldr	r3, [r3, #0]
    1e3c:	4a10      	ldr	r2, [pc, #64]	; (1e80 <LPSPI_MasterGetDefaultConfig+0x94>)
    1e3e:	fbb2 f3f3 	udiv	r3, r2, r3
    1e42:	005a      	lsls	r2, r3, #1
    1e44:	687b      	ldr	r3, [r7, #4]
    1e46:	611a      	str	r2, [r3, #16]
    1e48:	687b      	ldr	r3, [r7, #4]
    1e4a:	681b      	ldr	r3, [r3, #0]
    1e4c:	4a0c      	ldr	r2, [pc, #48]	; (1e80 <LPSPI_MasterGetDefaultConfig+0x94>)
    1e4e:	fbb2 f3f3 	udiv	r3, r2, r3
    1e52:	005a      	lsls	r2, r3, #1
    1e54:	687b      	ldr	r3, [r7, #4]
    1e56:	615a      	str	r2, [r3, #20]
    1e58:	687b      	ldr	r3, [r7, #4]
    1e5a:	2200      	movs	r2, #0
    1e5c:	761a      	strb	r2, [r3, #24]
    1e5e:	687b      	ldr	r3, [r7, #4]
    1e60:	2200      	movs	r2, #0
    1e62:	765a      	strb	r2, [r3, #25]
    1e64:	687b      	ldr	r3, [r7, #4]
    1e66:	2200      	movs	r2, #0
    1e68:	769a      	strb	r2, [r3, #26]
    1e6a:	687b      	ldr	r3, [r7, #4]
    1e6c:	2200      	movs	r2, #0
    1e6e:	76da      	strb	r2, [r3, #27]
    1e70:	bf00      	nop
    1e72:	3708      	adds	r7, #8
    1e74:	46bd      	mov	sp, r7
    1e76:	bd80      	pop	{r7, pc}
    1e78:	00008a0c 	.word	0x00008a0c
    1e7c:	0007a120 	.word	0x0007a120
    1e80:	3b9aca00 	.word	0x3b9aca00

00001e84 <LPSPI_SlaveInit>:
    1e84:	b580      	push	{r7, lr}
    1e86:	b084      	sub	sp, #16
    1e88:	af00      	add	r7, sp, #0
    1e8a:	6078      	str	r0, [r7, #4]
    1e8c:	6039      	str	r1, [r7, #0]
    1e8e:	683b      	ldr	r3, [r7, #0]
    1e90:	2b00      	cmp	r3, #0
    1e92:	d102      	bne.n	1e9a <LPSPI_SlaveInit+0x16>
    1e94:	4829      	ldr	r0, [pc, #164]	; (1f3c <LPSPI_SlaveInit+0xb8>)
    1e96:	f003 fa1b 	bl	52d0 <__assertion_failed>
    1e9a:	6878      	ldr	r0, [r7, #4]
    1e9c:	f7ff feda 	bl	1c54 <LPSPI_GetInstance>
    1ea0:	60f8      	str	r0, [r7, #12]
    1ea2:	4a27      	ldr	r2, [pc, #156]	; (1f40 <LPSPI_SlaveInit+0xbc>)
    1ea4:	68fb      	ldr	r3, [r7, #12]
    1ea6:	f932 3013 	ldrsh.w	r3, [r2, r3, lsl #1]
    1eaa:	4618      	mov	r0, r3
    1eac:	f004 f985 	bl	61ba <CLOCK_EnableClock>
    1eb0:	2100      	movs	r1, #0
    1eb2:	6878      	ldr	r0, [r7, #4]
    1eb4:	f004 fa3c 	bl	6330 <LPSPI_SetMasterSlaveMode>
    1eb8:	683b      	ldr	r3, [r7, #0]
    1eba:	79d9      	ldrb	r1, [r3, #7]
    1ebc:	683b      	ldr	r3, [r7, #0]
    1ebe:	7a1b      	ldrb	r3, [r3, #8]
    1ec0:	461a      	mov	r2, r3
    1ec2:	6878      	ldr	r0, [r7, #4]
    1ec4:	f004 fabe 	bl	6444 <LPSPI_SetOnePcsPolarity>
    1ec8:	687b      	ldr	r3, [r7, #4]
    1eca:	6a5b      	ldr	r3, [r3, #36]	; 0x24
    1ecc:	f023 62e0 	bic.w	r2, r3, #117440512	; 0x7000000
    1ed0:	683b      	ldr	r3, [r7, #0]
    1ed2:	7a9b      	ldrb	r3, [r3, #10]
    1ed4:	069b      	lsls	r3, r3, #26
    1ed6:	f003 6380 	and.w	r3, r3, #67108864	; 0x4000000
    1eda:	431a      	orrs	r2, r3
    1edc:	683b      	ldr	r3, [r7, #0]
    1ede:	7a5b      	ldrb	r3, [r3, #9]
    1ee0:	061b      	lsls	r3, r3, #24
    1ee2:	f003 7340 	and.w	r3, r3, #50331648	; 0x3000000
    1ee6:	431a      	orrs	r2, r3
    1ee8:	687b      	ldr	r3, [r7, #4]
    1eea:	625a      	str	r2, [r3, #36]	; 0x24
    1eec:	2200      	movs	r2, #0
    1eee:	2100      	movs	r1, #0
    1ef0:	6878      	ldr	r0, [r7, #4]
    1ef2:	f004 fa5e 	bl	63b2 <LPSPI_SetFifoWatermarks>
    1ef6:	683b      	ldr	r3, [r7, #0]
    1ef8:	791b      	ldrb	r3, [r3, #4]
    1efa:	07da      	lsls	r2, r3, #31
    1efc:	683b      	ldr	r3, [r7, #0]
    1efe:	795b      	ldrb	r3, [r3, #5]
    1f00:	079b      	lsls	r3, r3, #30
    1f02:	f003 4380 	and.w	r3, r3, #1073741824	; 0x40000000
    1f06:	431a      	orrs	r2, r3
    1f08:	683b      	ldr	r3, [r7, #0]
    1f0a:	799b      	ldrb	r3, [r3, #6]
    1f0c:	05db      	lsls	r3, r3, #23
    1f0e:	f403 0300 	and.w	r3, r3, #8388608	; 0x800000
    1f12:	431a      	orrs	r2, r3
    1f14:	683b      	ldr	r3, [r7, #0]
    1f16:	681b      	ldr	r3, [r3, #0]
    1f18:	3b01      	subs	r3, #1
    1f1a:	f3c3 030b 	ubfx	r3, r3, #0, #12
    1f1e:	431a      	orrs	r2, r3
    1f20:	687b      	ldr	r3, [r7, #4]
    1f22:	661a      	str	r2, [r3, #96]	; 0x60
    1f24:	2100      	movs	r1, #0
    1f26:	6878      	ldr	r0, [r7, #4]
    1f28:	f7ff febc 	bl	1ca4 <LPSPI_SetDummyData>
    1f2c:	2101      	movs	r1, #1
    1f2e:	6878      	ldr	r0, [r7, #4]
    1f30:	f004 f977 	bl	6222 <LPSPI_Enable>
    1f34:	bf00      	nop
    1f36:	3710      	adds	r7, #16
    1f38:	46bd      	mov	sp, r7
    1f3a:	bd80      	pop	{r7, pc}
    1f3c:	00008a38 	.word	0x00008a38
    1f40:	00008f2c 	.word	0x00008f2c

00001f44 <LPSPI_SlaveGetDefaultConfig>:
    1f44:	b580      	push	{r7, lr}
    1f46:	b082      	sub	sp, #8
    1f48:	af00      	add	r7, sp, #0
    1f4a:	6078      	str	r0, [r7, #4]
    1f4c:	687b      	ldr	r3, [r7, #4]
    1f4e:	2b00      	cmp	r3, #0
    1f50:	d102      	bne.n	1f58 <LPSPI_SlaveGetDefaultConfig+0x14>
    1f52:	4812      	ldr	r0, [pc, #72]	; (1f9c <LPSPI_SlaveGetDefaultConfig+0x58>)
    1f54:	f003 f9bc 	bl	52d0 <__assertion_failed>
    1f58:	220c      	movs	r2, #12
    1f5a:	2100      	movs	r1, #0
    1f5c:	6878      	ldr	r0, [r7, #4]
    1f5e:	f005 f80d 	bl	6f7c <memset>
    1f62:	687b      	ldr	r3, [r7, #4]
    1f64:	2208      	movs	r2, #8
    1f66:	601a      	str	r2, [r3, #0]
    1f68:	687b      	ldr	r3, [r7, #4]
    1f6a:	2200      	movs	r2, #0
    1f6c:	711a      	strb	r2, [r3, #4]
    1f6e:	687b      	ldr	r3, [r7, #4]
    1f70:	2200      	movs	r2, #0
    1f72:	715a      	strb	r2, [r3, #5]
    1f74:	687b      	ldr	r3, [r7, #4]
    1f76:	2200      	movs	r2, #0
    1f78:	719a      	strb	r2, [r3, #6]
    1f7a:	687b      	ldr	r3, [r7, #4]
    1f7c:	2200      	movs	r2, #0
    1f7e:	71da      	strb	r2, [r3, #7]
    1f80:	687b      	ldr	r3, [r7, #4]
    1f82:	2200      	movs	r2, #0
    1f84:	721a      	strb	r2, [r3, #8]
    1f86:	687b      	ldr	r3, [r7, #4]
    1f88:	2200      	movs	r2, #0
    1f8a:	725a      	strb	r2, [r3, #9]
    1f8c:	687b      	ldr	r3, [r7, #4]
    1f8e:	2200      	movs	r2, #0
    1f90:	729a      	strb	r2, [r3, #10]
    1f92:	bf00      	nop
    1f94:	3708      	adds	r7, #8
    1f96:	46bd      	mov	sp, r7
    1f98:	bd80      	pop	{r7, pc}
    1f9a:	bf00      	nop
    1f9c:	00008a64 	.word	0x00008a64

00001fa0 <LPSPI_Deinit>:
    1fa0:	b580      	push	{r7, lr}
    1fa2:	b084      	sub	sp, #16
    1fa4:	af00      	add	r7, sp, #0
    1fa6:	6078      	str	r0, [r7, #4]
    1fa8:	6878      	ldr	r0, [r7, #4]
    1faa:	f004 fa32 	bl	6412 <LPSPI_Reset>
    1fae:	6878      	ldr	r0, [r7, #4]
    1fb0:	f7ff fe50 	bl	1c54 <LPSPI_GetInstance>
    1fb4:	60f8      	str	r0, [r7, #12]
    1fb6:	4a05      	ldr	r2, [pc, #20]	; (1fcc <LPSPI_Deinit+0x2c>)
    1fb8:	68fb      	ldr	r3, [r7, #12]
    1fba:	f932 3013 	ldrsh.w	r3, [r2, r3, lsl #1]
    1fbe:	4618      	mov	r0, r3
    1fc0:	f004 f90a 	bl	61d8 <CLOCK_DisableClock>
    1fc4:	bf00      	nop
    1fc6:	3710      	adds	r7, #16
    1fc8:	46bd      	mov	sp, r7
    1fca:	bd80      	pop	{r7, pc}
    1fcc:	00008f2c 	.word	0x00008f2c

00001fd0 <LPSPI_MasterSetBaudRate>:
    1fd0:	b580      	push	{r7, lr}
    1fd2:	b08e      	sub	sp, #56	; 0x38
    1fd4:	af00      	add	r7, sp, #0
    1fd6:	60f8      	str	r0, [r7, #12]
    1fd8:	60b9      	str	r1, [r7, #8]
    1fda:	607a      	str	r2, [r7, #4]
    1fdc:	603b      	str	r3, [r7, #0]
    1fde:	683b      	ldr	r3, [r7, #0]
    1fe0:	2b00      	cmp	r3, #0
    1fe2:	d102      	bne.n	1fea <LPSPI_MasterSetBaudRate+0x1a>
    1fe4:	4834      	ldr	r0, [pc, #208]	; (20b8 <LPSPI_MasterSetBaudRate+0xe8>)
    1fe6:	f003 f973 	bl	52d0 <__assertion_failed>
    1fea:	68f8      	ldr	r0, [r7, #12]
    1fec:	f004 f9b6 	bl	635c <LPSPI_IsMaster>
    1ff0:	4603      	mov	r3, r0
    1ff2:	f083 0301 	eor.w	r3, r3, #1
    1ff6:	b2db      	uxtb	r3, r3
    1ff8:	2b00      	cmp	r3, #0
    1ffa:	d105      	bne.n	2008 <LPSPI_MasterSetBaudRate+0x38>
    1ffc:	68fb      	ldr	r3, [r7, #12]
    1ffe:	691b      	ldr	r3, [r3, #16]
    2000:	f003 0301 	and.w	r3, r3, #1
    2004:	2b00      	cmp	r3, #0
    2006:	d001      	beq.n	200c <LPSPI_MasterSetBaudRate+0x3c>
    2008:	2300      	movs	r3, #0
    200a:	e050      	b.n	20ae <LPSPI_MasterSetBaudRate+0xde>
    200c:	68bb      	ldr	r3, [r7, #8]
    200e:	61fb      	str	r3, [r7, #28]
    2010:	f04f 33ff 	mov.w	r3, #4294967295
    2014:	623b      	str	r3, [r7, #32]
    2016:	2307      	movs	r3, #7
    2018:	633b      	str	r3, [r7, #48]	; 0x30
    201a:	23ff      	movs	r3, #255	; 0xff
    201c:	62bb      	str	r3, [r7, #40]	; 0x28
    201e:	2300      	movs	r3, #0
    2020:	627b      	str	r3, [r7, #36]	; 0x24
    2022:	2300      	movs	r3, #0
    2024:	637b      	str	r3, [r7, #52]	; 0x34
    2026:	e02f      	b.n	2088 <LPSPI_MasterSetBaudRate+0xb8>
    2028:	2300      	movs	r3, #0
    202a:	62fb      	str	r3, [r7, #44]	; 0x2c
    202c:	e023      	b.n	2076 <LPSPI_MasterSetBaudRate+0xa6>
    202e:	4a23      	ldr	r2, [pc, #140]	; (20bc <LPSPI_MasterSetBaudRate+0xec>)
    2030:	6b7b      	ldr	r3, [r7, #52]	; 0x34
    2032:	4413      	add	r3, r2
    2034:	781b      	ldrb	r3, [r3, #0]
    2036:	461a      	mov	r2, r3
    2038:	6afb      	ldr	r3, [r7, #44]	; 0x2c
    203a:	3302      	adds	r3, #2
    203c:	fb03 f302 	mul.w	r3, r3, r2
    2040:	687a      	ldr	r2, [r7, #4]
    2042:	fbb2 f3f3 	udiv	r3, r2, r3
    2046:	61bb      	str	r3, [r7, #24]
    2048:	69fa      	ldr	r2, [r7, #28]
    204a:	69bb      	ldr	r3, [r7, #24]
    204c:	429a      	cmp	r2, r3
    204e:	d30f      	bcc.n	2070 <LPSPI_MasterSetBaudRate+0xa0>
    2050:	69fa      	ldr	r2, [r7, #28]
    2052:	69bb      	ldr	r3, [r7, #24]
    2054:	1ad3      	subs	r3, r2, r3
    2056:	617b      	str	r3, [r7, #20]
    2058:	6a3a      	ldr	r2, [r7, #32]
    205a:	697b      	ldr	r3, [r7, #20]
    205c:	429a      	cmp	r2, r3
    205e:	d907      	bls.n	2070 <LPSPI_MasterSetBaudRate+0xa0>
    2060:	697b      	ldr	r3, [r7, #20]
    2062:	623b      	str	r3, [r7, #32]
    2064:	6b7b      	ldr	r3, [r7, #52]	; 0x34
    2066:	633b      	str	r3, [r7, #48]	; 0x30
    2068:	6afb      	ldr	r3, [r7, #44]	; 0x2c
    206a:	62bb      	str	r3, [r7, #40]	; 0x28
    206c:	69bb      	ldr	r3, [r7, #24]
    206e:	627b      	str	r3, [r7, #36]	; 0x24
    2070:	6afb      	ldr	r3, [r7, #44]	; 0x2c
    2072:	3301      	adds	r3, #1
    2074:	62fb      	str	r3, [r7, #44]	; 0x2c
    2076:	6afb      	ldr	r3, [r7, #44]	; 0x2c
    2078:	2bff      	cmp	r3, #255	; 0xff
    207a:	d802      	bhi.n	2082 <LPSPI_MasterSetBaudRate+0xb2>
    207c:	6a3b      	ldr	r3, [r7, #32]
    207e:	2b00      	cmp	r3, #0
    2080:	d1d5      	bne.n	202e <LPSPI_MasterSetBaudRate+0x5e>
    2082:	6b7b      	ldr	r3, [r7, #52]	; 0x34
    2084:	3301      	adds	r3, #1
    2086:	637b      	str	r3, [r7, #52]	; 0x34
    2088:	6b7b      	ldr	r3, [r7, #52]	; 0x34
    208a:	2b07      	cmp	r3, #7
    208c:	d802      	bhi.n	2094 <LPSPI_MasterSetBaudRate+0xc4>
    208e:	6a3b      	ldr	r3, [r7, #32]
    2090:	2b00      	cmp	r3, #0
    2092:	d1c9      	bne.n	2028 <LPSPI_MasterSetBaudRate+0x58>
    2094:	68fb      	ldr	r3, [r7, #12]
    2096:	6c1b      	ldr	r3, [r3, #64]	; 0x40
    2098:	f023 02ff 	bic.w	r2, r3, #255	; 0xff
    209c:	6abb      	ldr	r3, [r7, #40]	; 0x28
    209e:	b2db      	uxtb	r3, r3
    20a0:	431a      	orrs	r2, r3
    20a2:	68fb      	ldr	r3, [r7, #12]
    20a4:	641a      	str	r2, [r3, #64]	; 0x40
    20a6:	683b      	ldr	r3, [r7, #0]
    20a8:	6b3a      	ldr	r2, [r7, #48]	; 0x30
    20aa:	601a      	str	r2, [r3, #0]
    20ac:	6a7b      	ldr	r3, [r7, #36]	; 0x24
    20ae:	4618      	mov	r0, r3
    20b0:	3738      	adds	r7, #56	; 0x38
    20b2:	46bd      	mov	sp, r7
    20b4:	bd80      	pop	{r7, pc}
    20b6:	bf00      	nop
    20b8:	00008a90 	.word	0x00008a90
    20bc:	00008f04 	.word	0x00008f04

000020c0 <LPSPI_MasterSetDelayScaler>:
    20c0:	b580      	push	{r7, lr}
    20c2:	b084      	sub	sp, #16
    20c4:	af00      	add	r7, sp, #0
    20c6:	60f8      	str	r0, [r7, #12]
    20c8:	60b9      	str	r1, [r7, #8]
    20ca:	4613      	mov	r3, r2
    20cc:	71fb      	strb	r3, [r7, #7]
    20ce:	79fb      	ldrb	r3, [r7, #7]
    20d0:	2b02      	cmp	r3, #2
    20d2:	d00f      	beq.n	20f4 <LPSPI_MasterSetDelayScaler+0x34>
    20d4:	2b03      	cmp	r3, #3
    20d6:	d017      	beq.n	2108 <LPSPI_MasterSetDelayScaler+0x48>
    20d8:	2b01      	cmp	r3, #1
    20da:	d120      	bne.n	211e <LPSPI_MasterSetDelayScaler+0x5e>
    20dc:	68fb      	ldr	r3, [r7, #12]
    20de:	6c1b      	ldr	r3, [r3, #64]	; 0x40
    20e0:	f423 027f 	bic.w	r2, r3, #16711680	; 0xff0000
    20e4:	68bb      	ldr	r3, [r7, #8]
    20e6:	041b      	lsls	r3, r3, #16
    20e8:	f403 037f 	and.w	r3, r3, #16711680	; 0xff0000
    20ec:	431a      	orrs	r2, r3
    20ee:	68fb      	ldr	r3, [r7, #12]
    20f0:	641a      	str	r2, [r3, #64]	; 0x40
    20f2:	e017      	b.n	2124 <LPSPI_MasterSetDelayScaler+0x64>
    20f4:	68fb      	ldr	r3, [r7, #12]
    20f6:	6c1b      	ldr	r3, [r3, #64]	; 0x40
    20f8:	f023 427f 	bic.w	r2, r3, #4278190080	; 0xff000000
    20fc:	68bb      	ldr	r3, [r7, #8]
    20fe:	061b      	lsls	r3, r3, #24
    2100:	431a      	orrs	r2, r3
    2102:	68fb      	ldr	r3, [r7, #12]
    2104:	641a      	str	r2, [r3, #64]	; 0x40
    2106:	e00d      	b.n	2124 <LPSPI_MasterSetDelayScaler+0x64>
    2108:	68fb      	ldr	r3, [r7, #12]
    210a:	6c1b      	ldr	r3, [r3, #64]	; 0x40
    210c:	f423 427f 	bic.w	r2, r3, #65280	; 0xff00
    2110:	68bb      	ldr	r3, [r7, #8]
    2112:	021b      	lsls	r3, r3, #8
    2114:	b29b      	uxth	r3, r3
    2116:	431a      	orrs	r2, r3
    2118:	68fb      	ldr	r3, [r7, #12]
    211a:	641a      	str	r2, [r3, #64]	; 0x40
    211c:	e002      	b.n	2124 <LPSPI_MasterSetDelayScaler+0x64>
    211e:	4803      	ldr	r0, [pc, #12]	; (212c <LPSPI_MasterSetDelayScaler+0x6c>)
    2120:	f003 f8d6 	bl	52d0 <__assertion_failed>
    2124:	bf00      	nop
    2126:	3710      	adds	r7, #16
    2128:	46bd      	mov	sp, r7
    212a:	bd80      	pop	{r7, pc}
    212c:	00008ac0 	.word	0x00008ac0

00002130 <LPSPI_MasterTransferCreateHandle>:
    2130:	b580      	push	{r7, lr}
    2132:	b084      	sub	sp, #16
    2134:	af00      	add	r7, sp, #0
    2136:	60f8      	str	r0, [r7, #12]
    2138:	60b9      	str	r1, [r7, #8]
    213a:	607a      	str	r2, [r7, #4]
    213c:	603b      	str	r3, [r7, #0]
    213e:	68bb      	ldr	r3, [r7, #8]
    2140:	2b00      	cmp	r3, #0
    2142:	d102      	bne.n	214a <LPSPI_MasterTransferCreateHandle+0x1a>
    2144:	480e      	ldr	r0, [pc, #56]	; (2180 <LPSPI_MasterTransferCreateHandle+0x50>)
    2146:	f003 f8c3 	bl	52d0 <__assertion_failed>
    214a:	2234      	movs	r2, #52	; 0x34
    214c:	2100      	movs	r1, #0
    214e:	68b8      	ldr	r0, [r7, #8]
    2150:	f004 ff14 	bl	6f7c <memset>
    2154:	68f8      	ldr	r0, [r7, #12]
    2156:	f7ff fd7d 	bl	1c54 <LPSPI_GetInstance>
    215a:	4601      	mov	r1, r0
    215c:	4a09      	ldr	r2, [pc, #36]	; (2184 <LPSPI_MasterTransferCreateHandle+0x54>)
    215e:	68bb      	ldr	r3, [r7, #8]
    2160:	f842 3021 	str.w	r3, [r2, r1, lsl #2]
    2164:	4b08      	ldr	r3, [pc, #32]	; (2188 <LPSPI_MasterTransferCreateHandle+0x58>)
    2166:	4a09      	ldr	r2, [pc, #36]	; (218c <LPSPI_MasterTransferCreateHandle+0x5c>)
    2168:	601a      	str	r2, [r3, #0]
    216a:	68bb      	ldr	r3, [r7, #8]
    216c:	687a      	ldr	r2, [r7, #4]
    216e:	62da      	str	r2, [r3, #44]	; 0x2c
    2170:	68bb      	ldr	r3, [r7, #8]
    2172:	683a      	ldr	r2, [r7, #0]
    2174:	631a      	str	r2, [r3, #48]	; 0x30
    2176:	bf00      	nop
    2178:	3710      	adds	r7, #16
    217a:	46bd      	mov	sp, r7
    217c:	bd80      	pop	{r7, pc}
    217e:	bf00      	nop
    2180:	00008ae4 	.word	0x00008ae4
    2184:	200000c8 	.word	0x200000c8
    2188:	200000dc 	.word	0x200000dc
    218c:	000026ad 	.word	0x000026ad

00002190 <LPSPI_CheckTransferArgument>:
    2190:	b580      	push	{r7, lr}
    2192:	b084      	sub	sp, #16
    2194:	af00      	add	r7, sp, #0
    2196:	60f8      	str	r0, [r7, #12]
    2198:	60b9      	str	r1, [r7, #8]
    219a:	607a      	str	r2, [r7, #4]
    219c:	68fb      	ldr	r3, [r7, #12]
    219e:	2b00      	cmp	r3, #0
    21a0:	d102      	bne.n	21a8 <LPSPI_CheckTransferArgument+0x18>
    21a2:	4820      	ldr	r0, [pc, #128]	; (2224 <LPSPI_CheckTransferArgument+0x94>)
    21a4:	f003 f894 	bl	52d0 <__assertion_failed>
    21a8:	68fb      	ldr	r3, [r7, #12]
    21aa:	689b      	ldr	r3, [r3, #8]
    21ac:	2b00      	cmp	r3, #0
    21ae:	d101      	bne.n	21b4 <LPSPI_CheckTransferArgument+0x24>
    21b0:	2300      	movs	r3, #0
    21b2:	e033      	b.n	221c <LPSPI_CheckTransferArgument+0x8c>
    21b4:	68fb      	ldr	r3, [r7, #12]
    21b6:	681b      	ldr	r3, [r3, #0]
    21b8:	2b00      	cmp	r3, #0
    21ba:	d105      	bne.n	21c8 <LPSPI_CheckTransferArgument+0x38>
    21bc:	68fb      	ldr	r3, [r7, #12]
    21be:	685b      	ldr	r3, [r3, #4]
    21c0:	2b00      	cmp	r3, #0
    21c2:	d101      	bne.n	21c8 <LPSPI_CheckTransferArgument+0x38>
    21c4:	2300      	movs	r3, #0
    21c6:	e029      	b.n	221c <LPSPI_CheckTransferArgument+0x8c>
    21c8:	687b      	ldr	r3, [r7, #4]
    21ca:	2b04      	cmp	r3, #4
    21cc:	d80c      	bhi.n	21e8 <LPSPI_CheckTransferArgument+0x58>
    21ce:	68fb      	ldr	r3, [r7, #12]
    21d0:	689b      	ldr	r3, [r3, #8]
    21d2:	687a      	ldr	r2, [r7, #4]
    21d4:	fbb3 f2f2 	udiv	r2, r3, r2
    21d8:	6879      	ldr	r1, [r7, #4]
    21da:	fb01 f202 	mul.w	r2, r1, r2
    21de:	1a9b      	subs	r3, r3, r2
    21e0:	2b00      	cmp	r3, #0
    21e2:	d01a      	beq.n	221a <LPSPI_CheckTransferArgument+0x8a>
    21e4:	2300      	movs	r3, #0
    21e6:	e019      	b.n	221c <LPSPI_CheckTransferArgument+0x8c>
    21e8:	687b      	ldr	r3, [r7, #4]
    21ea:	f003 0303 	and.w	r3, r3, #3
    21ee:	2b00      	cmp	r3, #0
    21f0:	d006      	beq.n	2200 <LPSPI_CheckTransferArgument+0x70>
    21f2:	68fb      	ldr	r3, [r7, #12]
    21f4:	689b      	ldr	r3, [r3, #8]
    21f6:	687a      	ldr	r2, [r7, #4]
    21f8:	429a      	cmp	r2, r3
    21fa:	d00e      	beq.n	221a <LPSPI_CheckTransferArgument+0x8a>
    21fc:	2300      	movs	r3, #0
    21fe:	e00d      	b.n	221c <LPSPI_CheckTransferArgument+0x8c>
    2200:	68fb      	ldr	r3, [r7, #12]
    2202:	689b      	ldr	r3, [r3, #8]
    2204:	687a      	ldr	r2, [r7, #4]
    2206:	fbb3 f2f2 	udiv	r2, r3, r2
    220a:	6879      	ldr	r1, [r7, #4]
    220c:	fb01 f202 	mul.w	r2, r1, r2
    2210:	1a9b      	subs	r3, r3, r2
    2212:	2b00      	cmp	r3, #0
    2214:	d001      	beq.n	221a <LPSPI_CheckTransferArgument+0x8a>
    2216:	2300      	movs	r3, #0
    2218:	e000      	b.n	221c <LPSPI_CheckTransferArgument+0x8c>
    221a:	2301      	movs	r3, #1
    221c:	4618      	mov	r0, r3
    221e:	3710      	adds	r7, #16
    2220:	46bd      	mov	sp, r7
    2222:	bd80      	pop	{r7, pc}
    2224:	00008b08 	.word	0x00008b08

00002228 <LPSPI_MasterTransferNonBlocking>:
    2228:	b580      	push	{r7, lr}
    222a:	b08a      	sub	sp, #40	; 0x28
    222c:	af00      	add	r7, sp, #0
    222e:	60f8      	str	r0, [r7, #12]
    2230:	60b9      	str	r1, [r7, #8]
    2232:	607a      	str	r2, [r7, #4]
    2234:	68bb      	ldr	r3, [r7, #8]
    2236:	2b00      	cmp	r3, #0
    2238:	d102      	bne.n	2240 <LPSPI_MasterTransferNonBlocking+0x18>
    223a:	488d      	ldr	r0, [pc, #564]	; (2470 <LPSPI_MasterTransferNonBlocking+0x248>)
    223c:	f003 f848 	bl	52d0 <__assertion_failed>
    2240:	687b      	ldr	r3, [r7, #4]
    2242:	2b00      	cmp	r3, #0
    2244:	d102      	bne.n	224c <LPSPI_MasterTransferNonBlocking+0x24>
    2246:	488b      	ldr	r0, [pc, #556]	; (2474 <LPSPI_MasterTransferNonBlocking+0x24c>)
    2248:	f003 f842 	bl	52d0 <__assertion_failed>
    224c:	68fb      	ldr	r3, [r7, #12]
    224e:	6e1b      	ldr	r3, [r3, #96]	; 0x60
    2250:	f3c3 030b 	ubfx	r3, r3, #0, #12
    2254:	3301      	adds	r3, #1
    2256:	623b      	str	r3, [r7, #32]
    2258:	6a3b      	ldr	r3, [r7, #32]
    225a:	3307      	adds	r3, #7
    225c:	08db      	lsrs	r3, r3, #3
    225e:	61fb      	str	r3, [r7, #28]
    2260:	2300      	movs	r3, #0
    2262:	61bb      	str	r3, [r7, #24]
    2264:	68f8      	ldr	r0, [r7, #12]
    2266:	f7ff fcf5 	bl	1c54 <LPSPI_GetInstance>
    226a:	4602      	mov	r2, r0
    226c:	4b82      	ldr	r3, [pc, #520]	; (2478 <LPSPI_MasterTransferNonBlocking+0x250>)
    226e:	5c9b      	ldrb	r3, [r3, r2]
    2270:	75fb      	strb	r3, [r7, #23]
    2272:	69fa      	ldr	r2, [r7, #28]
    2274:	6a39      	ldr	r1, [r7, #32]
    2276:	6878      	ldr	r0, [r7, #4]
    2278:	f7ff ff8a 	bl	2190 <LPSPI_CheckTransferArgument>
    227c:	4603      	mov	r3, r0
    227e:	f083 0301 	eor.w	r3, r3, #1
    2282:	b2db      	uxtb	r3, r3
    2284:	2b00      	cmp	r3, #0
    2286:	d001      	beq.n	228c <LPSPI_MasterTransferNonBlocking+0x64>
    2288:	2304      	movs	r3, #4
    228a:	e136      	b.n	24fa <LPSPI_MasterTransferNonBlocking+0x2d2>
    228c:	68bb      	ldr	r3, [r7, #8]
    228e:	f893 3028 	ldrb.w	r3, [r3, #40]	; 0x28
    2292:	b2db      	uxtb	r3, r3
    2294:	2b01      	cmp	r3, #1
    2296:	d102      	bne.n	229e <LPSPI_MasterTransferNonBlocking+0x76>
    2298:	f44f 73c8 	mov.w	r3, #400	; 0x190
    229c:	e12d      	b.n	24fa <LPSPI_MasterTransferNonBlocking+0x2d2>
    229e:	68bb      	ldr	r3, [r7, #8]
    22a0:	2201      	movs	r2, #1
    22a2:	f883 2028 	strb.w	r2, [r3, #40]	; 0x28
    22a6:	2300      	movs	r3, #0
    22a8:	f887 3027 	strb.w	r3, [r7, #39]	; 0x27
    22ac:	687b      	ldr	r3, [r7, #4]
    22ae:	68db      	ldr	r3, [r3, #12]
    22b0:	091b      	lsrs	r3, r3, #4
    22b2:	f003 030f 	and.w	r3, r3, #15
    22b6:	613b      	str	r3, [r7, #16]
    22b8:	687b      	ldr	r3, [r7, #4]
    22ba:	681a      	ldr	r2, [r3, #0]
    22bc:	68bb      	ldr	r3, [r7, #8]
    22be:	609a      	str	r2, [r3, #8]
    22c0:	687b      	ldr	r3, [r7, #4]
    22c2:	685a      	ldr	r2, [r3, #4]
    22c4:	68bb      	ldr	r3, [r7, #8]
    22c6:	60da      	str	r2, [r3, #12]
    22c8:	687b      	ldr	r3, [r7, #4]
    22ca:	689a      	ldr	r2, [r3, #8]
    22cc:	68bb      	ldr	r3, [r7, #8]
    22ce:	611a      	str	r2, [r3, #16]
    22d0:	687b      	ldr	r3, [r7, #4]
    22d2:	689a      	ldr	r2, [r3, #8]
    22d4:	68bb      	ldr	r3, [r7, #8]
    22d6:	615a      	str	r2, [r3, #20]
    22d8:	687b      	ldr	r3, [r7, #4]
    22da:	689a      	ldr	r2, [r3, #8]
    22dc:	68bb      	ldr	r3, [r7, #8]
    22de:	621a      	str	r2, [r3, #32]
    22e0:	68bb      	ldr	r3, [r7, #8]
    22e2:	2200      	movs	r2, #0
    22e4:	705a      	strb	r2, [r3, #1]
    22e6:	687b      	ldr	r3, [r7, #4]
    22e8:	689a      	ldr	r2, [r3, #8]
    22ea:	69fb      	ldr	r3, [r7, #28]
    22ec:	fbb2 f3f3 	udiv	r3, r2, r3
    22f0:	69fa      	ldr	r2, [r7, #28]
    22f2:	3203      	adds	r2, #3
    22f4:	0892      	lsrs	r2, r2, #2
    22f6:	fb02 f203 	mul.w	r2, r2, r3
    22fa:	68bb      	ldr	r3, [r7, #8]
    22fc:	619a      	str	r2, [r3, #24]
    22fe:	68bb      	ldr	r3, [r7, #8]
    2300:	699a      	ldr	r2, [r3, #24]
    2302:	68bb      	ldr	r3, [r7, #8]
    2304:	61da      	str	r2, [r3, #28]
    2306:	7dfa      	ldrb	r2, [r7, #23]
    2308:	7dfb      	ldrb	r3, [r7, #23]
    230a:	021b      	lsls	r3, r3, #8
    230c:	431a      	orrs	r2, r3
    230e:	7dfb      	ldrb	r3, [r7, #23]
    2310:	041b      	lsls	r3, r3, #16
    2312:	431a      	orrs	r2, r3
    2314:	7dfb      	ldrb	r3, [r7, #23]
    2316:	061b      	lsls	r3, r3, #24
    2318:	431a      	orrs	r2, r3
    231a:	68bb      	ldr	r3, [r7, #8]
    231c:	625a      	str	r2, [r3, #36]	; 0x24
    231e:	68f8      	ldr	r0, [r7, #12]
    2320:	f003 ffa7 	bl	6272 <LPSPI_GetRxFifoSize>
    2324:	4603      	mov	r3, r0
    2326:	b2da      	uxtb	r2, r3
    2328:	68bb      	ldr	r3, [r7, #8]
    232a:	70da      	strb	r2, [r3, #3]
    232c:	687b      	ldr	r3, [r7, #4]
    232e:	68db      	ldr	r3, [r3, #12]
    2330:	f403 1380 	and.w	r3, r3, #1048576	; 0x100000
    2334:	2b00      	cmp	r3, #0
    2336:	bf14      	ite	ne
    2338:	2301      	movne	r3, #1
    233a:	2300      	moveq	r3, #0
    233c:	b2da      	uxtb	r2, r3
    233e:	68bb      	ldr	r3, [r7, #8]
    2340:	701a      	strb	r2, [r3, #0]
    2342:	687b      	ldr	r3, [r7, #4]
    2344:	68db      	ldr	r3, [r3, #12]
    2346:	f403 0380 	and.w	r3, r3, #4194304	; 0x400000
    234a:	2b00      	cmp	r3, #0
    234c:	bf14      	ite	ne
    234e:	2301      	movne	r3, #1
    2350:	2300      	moveq	r3, #0
    2352:	b2da      	uxtb	r2, r3
    2354:	68bb      	ldr	r3, [r7, #8]
    2356:	709a      	strb	r2, [r3, #2]
    2358:	68bb      	ldr	r3, [r7, #8]
    235a:	78db      	ldrb	r3, [r3, #3]
    235c:	b2db      	uxtb	r3, r3
    235e:	2b01      	cmp	r3, #1
    2360:	d90a      	bls.n	2378 <LPSPI_MasterTransferNonBlocking+0x150>
    2362:	2301      	movs	r3, #1
    2364:	f887 3026 	strb.w	r3, [r7, #38]	; 0x26
    2368:	68bb      	ldr	r3, [r7, #8]
    236a:	78db      	ldrb	r3, [r3, #3]
    236c:	b2db      	uxtb	r3, r3
    236e:	3b02      	subs	r3, #2
    2370:	b2da      	uxtb	r2, r3
    2372:	68bb      	ldr	r3, [r7, #8]
    2374:	711a      	strb	r2, [r3, #4]
    2376:	e005      	b.n	2384 <LPSPI_MasterTransferNonBlocking+0x15c>
    2378:	2300      	movs	r3, #0
    237a:	f887 3026 	strb.w	r3, [r7, #38]	; 0x26
    237e:	68bb      	ldr	r3, [r7, #8]
    2380:	2200      	movs	r2, #0
    2382:	711a      	strb	r2, [r3, #4]
    2384:	f897 1026 	ldrb.w	r1, [r7, #38]	; 0x26
    2388:	68bb      	ldr	r3, [r7, #8]
    238a:	791b      	ldrb	r3, [r3, #4]
    238c:	b2db      	uxtb	r3, r3
    238e:	461a      	mov	r2, r3
    2390:	68f8      	ldr	r0, [r7, #12]
    2392:	f004 f80e 	bl	63b2 <LPSPI_SetFifoWatermarks>
    2396:	2100      	movs	r1, #0
    2398:	68f8      	ldr	r0, [r7, #12]
    239a:	f003 ff42 	bl	6222 <LPSPI_Enable>
    239e:	68fb      	ldr	r3, [r7, #12]
    23a0:	6a5b      	ldr	r3, [r3, #36]	; 0x24
    23a2:	f023 0208 	bic.w	r2, r3, #8
    23a6:	68fb      	ldr	r3, [r7, #12]
    23a8:	625a      	str	r2, [r3, #36]	; 0x24
    23aa:	68fb      	ldr	r3, [r7, #12]
    23ac:	6a5b      	ldr	r3, [r3, #36]	; 0x24
    23ae:	61bb      	str	r3, [r7, #24]
    23b0:	69bb      	ldr	r3, [r7, #24]
    23b2:	f003 7340 	and.w	r3, r3, #50331648	; 0x3000000
    23b6:	61bb      	str	r3, [r7, #24]
    23b8:	69bb      	ldr	r3, [r7, #24]
    23ba:	f1b3 7f80 	cmp.w	r3, #16777216	; 0x1000000
    23be:	d003      	beq.n	23c8 <LPSPI_MasterTransferNonBlocking+0x1a0>
    23c0:	69bb      	ldr	r3, [r7, #24]
    23c2:	f1b3 7f00 	cmp.w	r3, #33554432	; 0x2000000
    23c6:	d113      	bne.n	23f0 <LPSPI_MasterTransferNonBlocking+0x1c8>
    23c8:	68bb      	ldr	r3, [r7, #8]
    23ca:	689b      	ldr	r3, [r3, #8]
    23cc:	2b00      	cmp	r3, #0
    23ce:	d105      	bne.n	23dc <LPSPI_MasterTransferNonBlocking+0x1b4>
    23d0:	68fb      	ldr	r3, [r7, #12]
    23d2:	6a5b      	ldr	r3, [r3, #36]	; 0x24
    23d4:	f043 6280 	orr.w	r2, r3, #67108864	; 0x4000000
    23d8:	68fb      	ldr	r3, [r7, #12]
    23da:	625a      	str	r2, [r3, #36]	; 0x24
    23dc:	68bb      	ldr	r3, [r7, #8]
    23de:	689b      	ldr	r3, [r3, #8]
    23e0:	2b00      	cmp	r3, #0
    23e2:	d005      	beq.n	23f0 <LPSPI_MasterTransferNonBlocking+0x1c8>
    23e4:	68bb      	ldr	r3, [r7, #8]
    23e6:	68db      	ldr	r3, [r3, #12]
    23e8:	2b00      	cmp	r3, #0
    23ea:	d001      	beq.n	23f0 <LPSPI_MasterTransferNonBlocking+0x1c8>
    23ec:	2304      	movs	r3, #4
    23ee:	e084      	b.n	24fa <LPSPI_MasterTransferNonBlocking+0x2d2>
    23f0:	2101      	movs	r1, #1
    23f2:	68f8      	ldr	r0, [r7, #12]
    23f4:	f003 ff15 	bl	6222 <LPSPI_Enable>
    23f8:	2201      	movs	r2, #1
    23fa:	2101      	movs	r1, #1
    23fc:	68f8      	ldr	r0, [r7, #12]
    23fe:	f003 ffc0 	bl	6382 <LPSPI_FlushFifo>
    2402:	491e      	ldr	r1, [pc, #120]	; (247c <LPSPI_MasterTransferNonBlocking+0x254>)
    2404:	68f8      	ldr	r0, [r7, #12]
    2406:	f003 ff62 	bl	62ce <LPSPI_ClearStatusFlags>
    240a:	f643 7103 	movw	r1, #16131	; 0x3f03
    240e:	68f8      	ldr	r0, [r7, #12]
    2410:	f003 ff7c 	bl	630c <LPSPI_DisableInterrupts>
    2414:	68bb      	ldr	r3, [r7, #8]
    2416:	68db      	ldr	r3, [r3, #12]
    2418:	2b00      	cmp	r3, #0
    241a:	d105      	bne.n	2428 <LPSPI_MasterTransferNonBlocking+0x200>
    241c:	2301      	movs	r3, #1
    241e:	f887 3027 	strb.w	r3, [r7, #39]	; 0x27
    2422:	68bb      	ldr	r3, [r7, #8]
    2424:	2200      	movs	r2, #0
    2426:	615a      	str	r2, [r3, #20]
    2428:	68fb      	ldr	r3, [r7, #12]
    242a:	6e1b      	ldr	r3, [r3, #96]	; 0x60
    242c:	f023 724e 	bic.w	r2, r3, #54001664	; 0x3380000
    2430:	68bb      	ldr	r3, [r7, #8]
    2432:	781b      	ldrb	r3, [r3, #0]
    2434:	b2db      	uxtb	r3, r3
    2436:	055b      	lsls	r3, r3, #21
    2438:	f403 1300 	and.w	r3, r3, #2097152	; 0x200000
    243c:	431a      	orrs	r2, r3
    243e:	f897 3027 	ldrb.w	r3, [r7, #39]	; 0x27
    2442:	04db      	lsls	r3, r3, #19
    2444:	f403 2300 	and.w	r3, r3, #524288	; 0x80000
    2448:	431a      	orrs	r2, r3
    244a:	693b      	ldr	r3, [r7, #16]
    244c:	061b      	lsls	r3, r3, #24
    244e:	f003 7340 	and.w	r3, r3, #50331648	; 0x3000000
    2452:	431a      	orrs	r2, r3
    2454:	68fb      	ldr	r3, [r7, #12]
    2456:	661a      	str	r2, [r3, #96]	; 0x60
    2458:	69fb      	ldr	r3, [r7, #28]
    245a:	2b04      	cmp	r3, #4
    245c:	d810      	bhi.n	2480 <LPSPI_MasterTransferNonBlocking+0x258>
    245e:	69fb      	ldr	r3, [r7, #28]
    2460:	b2da      	uxtb	r2, r3
    2462:	68bb      	ldr	r3, [r7, #8]
    2464:	715a      	strb	r2, [r3, #5]
    2466:	69fb      	ldr	r3, [r7, #28]
    2468:	b2da      	uxtb	r2, r3
    246a:	68bb      	ldr	r3, [r7, #8]
    246c:	719a      	strb	r2, [r3, #6]
    246e:	e00d      	b.n	248c <LPSPI_MasterTransferNonBlocking+0x264>
    2470:	00008b58 	.word	0x00008b58
    2474:	00008b7c 	.word	0x00008b7c
    2478:	200000e4 	.word	0x200000e4
    247c:	01003f03 	.word	0x01003f03
    2480:	68bb      	ldr	r3, [r7, #8]
    2482:	2204      	movs	r2, #4
    2484:	715a      	strb	r2, [r3, #5]
    2486:	68bb      	ldr	r3, [r7, #8]
    2488:	2204      	movs	r2, #4
    248a:	719a      	strb	r2, [r3, #6]
    248c:	68f8      	ldr	r0, [r7, #12]
    248e:	f7ff fbe1 	bl	1c54 <LPSPI_GetInstance>
    2492:	4602      	mov	r2, r0
    2494:	4b1b      	ldr	r3, [pc, #108]	; (2504 <LPSPI_MasterTransferNonBlocking+0x2dc>)
    2496:	f933 3012 	ldrsh.w	r3, [r3, r2, lsl #1]
    249a:	4618      	mov	r0, r3
    249c:	f003 feab 	bl	61f6 <EnableIRQ>
    24a0:	bf00      	nop
    24a2:	68f8      	ldr	r0, [r7, #12]
    24a4:	f003 fef6 	bl	6294 <LPSPI_GetTxFifoCount>
    24a8:	4603      	mov	r3, r0
    24aa:	2b00      	cmp	r3, #0
    24ac:	d1f9      	bne.n	24a2 <LPSPI_MasterTransferNonBlocking+0x27a>
    24ae:	68b9      	ldr	r1, [r7, #8]
    24b0:	68f8      	ldr	r0, [r7, #12]
    24b2:	f000 f829 	bl	2508 <LPSPI_MasterTransferFillUpTxFifo>
    24b6:	68bb      	ldr	r3, [r7, #8]
    24b8:	68db      	ldr	r3, [r3, #12]
    24ba:	2b00      	cmp	r3, #0
    24bc:	d018      	beq.n	24f0 <LPSPI_MasterTransferNonBlocking+0x2c8>
    24be:	68bb      	ldr	r3, [r7, #8]
    24c0:	69db      	ldr	r3, [r3, #28]
    24c2:	68ba      	ldr	r2, [r7, #8]
    24c4:	7912      	ldrb	r2, [r2, #4]
    24c6:	b2d2      	uxtb	r2, r2
    24c8:	4293      	cmp	r3, r2
    24ca:	d80c      	bhi.n	24e6 <LPSPI_MasterTransferNonBlocking+0x2be>
    24cc:	68fb      	ldr	r3, [r7, #12]
    24ce:	6d9b      	ldr	r3, [r3, #88]	; 0x58
    24d0:	f423 2270 	bic.w	r2, r3, #983040	; 0xf0000
    24d4:	68bb      	ldr	r3, [r7, #8]
    24d6:	69db      	ldr	r3, [r3, #28]
    24d8:	3b01      	subs	r3, #1
    24da:	041b      	lsls	r3, r3, #16
    24dc:	f403 2370 	and.w	r3, r3, #983040	; 0xf0000
    24e0:	431a      	orrs	r2, r3
    24e2:	68fb      	ldr	r3, [r7, #12]
    24e4:	659a      	str	r2, [r3, #88]	; 0x58
    24e6:	2102      	movs	r1, #2
    24e8:	68f8      	ldr	r0, [r7, #12]
    24ea:	f003 fefe 	bl	62ea <LPSPI_EnableInterrupts>
    24ee:	e003      	b.n	24f8 <LPSPI_MasterTransferNonBlocking+0x2d0>
    24f0:	2101      	movs	r1, #1
    24f2:	68f8      	ldr	r0, [r7, #12]
    24f4:	f003 fef9 	bl	62ea <LPSPI_EnableInterrupts>
    24f8:	2300      	movs	r3, #0
    24fa:	4618      	mov	r0, r3
    24fc:	3728      	adds	r7, #40	; 0x28
    24fe:	46bd      	mov	sp, r7
    2500:	bd80      	pop	{r7, pc}
    2502:	bf00      	nop
    2504:	00008f20 	.word	0x00008f20

00002508 <LPSPI_MasterTransferFillUpTxFifo>:
    2508:	b580      	push	{r7, lr}
    250a:	b084      	sub	sp, #16
    250c:	af00      	add	r7, sp, #0
    250e:	6078      	str	r0, [r7, #4]
    2510:	6039      	str	r1, [r7, #0]
    2512:	683b      	ldr	r3, [r7, #0]
    2514:	2b00      	cmp	r3, #0
    2516:	d102      	bne.n	251e <LPSPI_MasterTransferFillUpTxFifo+0x16>
    2518:	483e      	ldr	r0, [pc, #248]	; (2614 <LPSPI_MasterTransferFillUpTxFifo+0x10c>)
    251a:	f002 fed9 	bl	52d0 <__assertion_failed>
    251e:	2300      	movs	r3, #0
    2520:	60fb      	str	r3, [r7, #12]
    2522:	e059      	b.n	25d8 <LPSPI_MasterTransferFillUpTxFifo+0xd0>
    2524:	683b      	ldr	r3, [r7, #0]
    2526:	691b      	ldr	r3, [r3, #16]
    2528:	683a      	ldr	r2, [r7, #0]
    252a:	7952      	ldrb	r2, [r2, #5]
    252c:	b2d2      	uxtb	r2, r2
    252e:	4293      	cmp	r3, r2
    2530:	d204      	bcs.n	253c <LPSPI_MasterTransferFillUpTxFifo+0x34>
    2532:	683b      	ldr	r3, [r7, #0]
    2534:	691b      	ldr	r3, [r3, #16]
    2536:	b2da      	uxtb	r2, r3
    2538:	683b      	ldr	r3, [r7, #0]
    253a:	715a      	strb	r2, [r3, #5]
    253c:	683b      	ldr	r3, [r7, #0]
    253e:	689b      	ldr	r3, [r3, #8]
    2540:	2b00      	cmp	r3, #0
    2542:	d015      	beq.n	2570 <LPSPI_MasterTransferFillUpTxFifo+0x68>
    2544:	683b      	ldr	r3, [r7, #0]
    2546:	6898      	ldr	r0, [r3, #8]
    2548:	683b      	ldr	r3, [r7, #0]
    254a:	795b      	ldrb	r3, [r3, #5]
    254c:	b2db      	uxtb	r3, r3
    254e:	4619      	mov	r1, r3
    2550:	683b      	ldr	r3, [r7, #0]
    2552:	789b      	ldrb	r3, [r3, #2]
    2554:	b2db      	uxtb	r3, r3
    2556:	461a      	mov	r2, r3
    2558:	f000 fcde 	bl	2f18 <LPSPI_CombineWriteData>
    255c:	60f8      	str	r0, [r7, #12]
    255e:	683b      	ldr	r3, [r7, #0]
    2560:	795b      	ldrb	r3, [r3, #5]
    2562:	b2da      	uxtb	r2, r3
    2564:	683b      	ldr	r3, [r7, #0]
    2566:	689b      	ldr	r3, [r3, #8]
    2568:	441a      	add	r2, r3
    256a:	683b      	ldr	r3, [r7, #0]
    256c:	609a      	str	r2, [r3, #8]
    256e:	e002      	b.n	2576 <LPSPI_MasterTransferFillUpTxFifo+0x6e>
    2570:	683b      	ldr	r3, [r7, #0]
    2572:	6a5b      	ldr	r3, [r3, #36]	; 0x24
    2574:	60fb      	str	r3, [r7, #12]
    2576:	68f9      	ldr	r1, [r7, #12]
    2578:	6878      	ldr	r0, [r7, #4]
    257a:	f003 ff30 	bl	63de <LPSPI_WriteData>
    257e:	683b      	ldr	r3, [r7, #0]
    2580:	699b      	ldr	r3, [r3, #24]
    2582:	1e5a      	subs	r2, r3, #1
    2584:	683b      	ldr	r3, [r7, #0]
    2586:	619a      	str	r2, [r3, #24]
    2588:	683b      	ldr	r3, [r7, #0]
    258a:	795b      	ldrb	r3, [r3, #5]
    258c:	b2da      	uxtb	r2, r3
    258e:	683b      	ldr	r3, [r7, #0]
    2590:	691b      	ldr	r3, [r3, #16]
    2592:	1a9a      	subs	r2, r3, r2
    2594:	683b      	ldr	r3, [r7, #0]
    2596:	611a      	str	r2, [r3, #16]
    2598:	683b      	ldr	r3, [r7, #0]
    259a:	691b      	ldr	r3, [r3, #16]
    259c:	2b00      	cmp	r3, #0
    259e:	d11b      	bne.n	25d8 <LPSPI_MasterTransferFillUpTxFifo+0xd0>
    25a0:	683b      	ldr	r3, [r7, #0]
    25a2:	781b      	ldrb	r3, [r3, #0]
    25a4:	b2db      	uxtb	r3, r3
    25a6:	2b00      	cmp	r3, #0
    25a8:	d02e      	beq.n	2608 <LPSPI_MasterTransferFillUpTxFifo+0x100>
    25aa:	6878      	ldr	r0, [r7, #4]
    25ac:	f003 fe72 	bl	6294 <LPSPI_GetTxFifoCount>
    25b0:	4602      	mov	r2, r0
    25b2:	683b      	ldr	r3, [r7, #0]
    25b4:	78db      	ldrb	r3, [r3, #3]
    25b6:	b2db      	uxtb	r3, r3
    25b8:	429a      	cmp	r2, r3
    25ba:	d209      	bcs.n	25d0 <LPSPI_MasterTransferFillUpTxFifo+0xc8>
    25bc:	687b      	ldr	r3, [r7, #4]
    25be:	6e1b      	ldr	r3, [r3, #96]	; 0x60
    25c0:	f423 1280 	bic.w	r2, r3, #1048576	; 0x100000
    25c4:	687b      	ldr	r3, [r7, #4]
    25c6:	661a      	str	r2, [r3, #96]	; 0x60
    25c8:	683b      	ldr	r3, [r7, #0]
    25ca:	2200      	movs	r2, #0
    25cc:	705a      	strb	r2, [r3, #1]
    25ce:	e01b      	b.n	2608 <LPSPI_MasterTransferFillUpTxFifo+0x100>
    25d0:	683b      	ldr	r3, [r7, #0]
    25d2:	2201      	movs	r2, #1
    25d4:	705a      	strb	r2, [r3, #1]
    25d6:	e017      	b.n	2608 <LPSPI_MasterTransferFillUpTxFifo+0x100>
    25d8:	6878      	ldr	r0, [r7, #4]
    25da:	f003 fe5b 	bl	6294 <LPSPI_GetTxFifoCount>
    25de:	4602      	mov	r2, r0
    25e0:	683b      	ldr	r3, [r7, #0]
    25e2:	78db      	ldrb	r3, [r3, #3]
    25e4:	b2db      	uxtb	r3, r3
    25e6:	429a      	cmp	r2, r3
    25e8:	d20f      	bcs.n	260a <LPSPI_MasterTransferFillUpTxFifo+0x102>
    25ea:	683b      	ldr	r3, [r7, #0]
    25ec:	69da      	ldr	r2, [r3, #28]
    25ee:	683b      	ldr	r3, [r7, #0]
    25f0:	699b      	ldr	r3, [r3, #24]
    25f2:	1ad3      	subs	r3, r2, r3
    25f4:	683a      	ldr	r2, [r7, #0]
    25f6:	78d2      	ldrb	r2, [r2, #3]
    25f8:	b2d2      	uxtb	r2, r2
    25fa:	4293      	cmp	r3, r2
    25fc:	d392      	bcc.n	2524 <LPSPI_MasterTransferFillUpTxFifo+0x1c>
    25fe:	683b      	ldr	r3, [r7, #0]
    2600:	68db      	ldr	r3, [r3, #12]
    2602:	2b00      	cmp	r3, #0
    2604:	d08e      	beq.n	2524 <LPSPI_MasterTransferFillUpTxFifo+0x1c>
    2606:	e000      	b.n	260a <LPSPI_MasterTransferFillUpTxFifo+0x102>
    2608:	bf00      	nop
    260a:	bf00      	nop
    260c:	3710      	adds	r7, #16
    260e:	46bd      	mov	sp, r7
    2610:	bd80      	pop	{r7, pc}
    2612:	bf00      	nop
    2614:	00008ba4 	.word	0x00008ba4

00002618 <LPSPI_MasterTransferComplete>:
    2618:	b590      	push	{r4, r7, lr}
    261a:	b083      	sub	sp, #12
    261c:	af00      	add	r7, sp, #0
    261e:	6078      	str	r0, [r7, #4]
    2620:	6039      	str	r1, [r7, #0]
    2622:	683b      	ldr	r3, [r7, #0]
    2624:	2b00      	cmp	r3, #0
    2626:	d102      	bne.n	262e <LPSPI_MasterTransferComplete+0x16>
    2628:	480d      	ldr	r0, [pc, #52]	; (2660 <LPSPI_MasterTransferComplete+0x48>)
    262a:	f002 fe51 	bl	52d0 <__assertion_failed>
    262e:	f643 7103 	movw	r1, #16131	; 0x3f03
    2632:	6878      	ldr	r0, [r7, #4]
    2634:	f003 fe6a 	bl	630c <LPSPI_DisableInterrupts>
    2638:	683b      	ldr	r3, [r7, #0]
    263a:	2200      	movs	r2, #0
    263c:	f883 2028 	strb.w	r2, [r3, #40]	; 0x28
    2640:	683b      	ldr	r3, [r7, #0]
    2642:	6adb      	ldr	r3, [r3, #44]	; 0x2c
    2644:	2b00      	cmp	r3, #0
    2646:	d007      	beq.n	2658 <LPSPI_MasterTransferComplete+0x40>
    2648:	683b      	ldr	r3, [r7, #0]
    264a:	6adc      	ldr	r4, [r3, #44]	; 0x2c
    264c:	683b      	ldr	r3, [r7, #0]
    264e:	6b1b      	ldr	r3, [r3, #48]	; 0x30
    2650:	2200      	movs	r2, #0
    2652:	6839      	ldr	r1, [r7, #0]
    2654:	6878      	ldr	r0, [r7, #4]
    2656:	47a0      	blx	r4
    2658:	bf00      	nop
    265a:	370c      	adds	r7, #12
    265c:	46bd      	mov	sp, r7
    265e:	bd90      	pop	{r4, r7, pc}
    2660:	00008bcc 	.word	0x00008bcc

00002664 <LPSPI_MasterTransferAbort>:
    2664:	b580      	push	{r7, lr}
    2666:	b082      	sub	sp, #8
    2668:	af00      	add	r7, sp, #0
    266a:	6078      	str	r0, [r7, #4]
    266c:	6039      	str	r1, [r7, #0]
    266e:	683b      	ldr	r3, [r7, #0]
    2670:	2b00      	cmp	r3, #0
    2672:	d102      	bne.n	267a <LPSPI_MasterTransferAbort+0x16>
    2674:	480c      	ldr	r0, [pc, #48]	; (26a8 <LPSPI_MasterTransferAbort+0x44>)
    2676:	f002 fe2b 	bl	52d0 <__assertion_failed>
    267a:	f643 7103 	movw	r1, #16131	; 0x3f03
    267e:	6878      	ldr	r0, [r7, #4]
    2680:	f003 fe44 	bl	630c <LPSPI_DisableInterrupts>
    2684:	6878      	ldr	r0, [r7, #4]
    2686:	f003 fec4 	bl	6412 <LPSPI_Reset>
    268a:	683b      	ldr	r3, [r7, #0]
    268c:	2200      	movs	r2, #0
    268e:	f883 2028 	strb.w	r2, [r3, #40]	; 0x28
    2692:	683b      	ldr	r3, [r7, #0]
    2694:	2200      	movs	r2, #0
    2696:	611a      	str	r2, [r3, #16]
    2698:	683b      	ldr	r3, [r7, #0]
    269a:	2200      	movs	r2, #0
    269c:	615a      	str	r2, [r3, #20]
    269e:	bf00      	nop
    26a0:	3708      	adds	r7, #8
    26a2:	46bd      	mov	sp, r7
    26a4:	bd80      	pop	{r7, pc}
    26a6:	bf00      	nop
    26a8:	00008c1c 	.word	0x00008c1c

000026ac <LPSPI_MasterTransferHandleIRQ>:
    26ac:	b580      	push	{r7, lr}
    26ae:	b084      	sub	sp, #16
    26b0:	af00      	add	r7, sp, #0
    26b2:	6078      	str	r0, [r7, #4]
    26b4:	6039      	str	r1, [r7, #0]
    26b6:	683b      	ldr	r3, [r7, #0]
    26b8:	2b00      	cmp	r3, #0
    26ba:	d102      	bne.n	26c2 <LPSPI_MasterTransferHandleIRQ+0x16>
    26bc:	4862      	ldr	r0, [pc, #392]	; (2848 <LPSPI_MasterTransferHandleIRQ+0x19c>)
    26be:	f002 fe07 	bl	52d0 <__assertion_failed>
    26c2:	683b      	ldr	r3, [r7, #0]
    26c4:	68db      	ldr	r3, [r3, #12]
    26c6:	2b00      	cmp	r3, #0
    26c8:	d065      	beq.n	2796 <LPSPI_MasterTransferHandleIRQ+0xea>
    26ca:	683b      	ldr	r3, [r7, #0]
    26cc:	695b      	ldr	r3, [r3, #20]
    26ce:	2b00      	cmp	r3, #0
    26d0:	d047      	beq.n	2762 <LPSPI_MasterTransferHandleIRQ+0xb6>
    26d2:	2102      	movs	r1, #2
    26d4:	6878      	ldr	r0, [r7, #4]
    26d6:	f003 fe19 	bl	630c <LPSPI_DisableInterrupts>
    26da:	e030      	b.n	273e <LPSPI_MasterTransferHandleIRQ+0x92>
    26dc:	6878      	ldr	r0, [r7, #4]
    26de:	f003 fe8c 	bl	63fa <LPSPI_ReadData>
    26e2:	60f8      	str	r0, [r7, #12]
    26e4:	683b      	ldr	r3, [r7, #0]
    26e6:	69db      	ldr	r3, [r3, #28]
    26e8:	1e5a      	subs	r2, r3, #1
    26ea:	683b      	ldr	r3, [r7, #0]
    26ec:	61da      	str	r2, [r3, #28]
    26ee:	683b      	ldr	r3, [r7, #0]
    26f0:	695b      	ldr	r3, [r3, #20]
    26f2:	683a      	ldr	r2, [r7, #0]
    26f4:	7992      	ldrb	r2, [r2, #6]
    26f6:	b2d2      	uxtb	r2, r2
    26f8:	4293      	cmp	r3, r2
    26fa:	d204      	bcs.n	2706 <LPSPI_MasterTransferHandleIRQ+0x5a>
    26fc:	683b      	ldr	r3, [r7, #0]
    26fe:	695b      	ldr	r3, [r3, #20]
    2700:	b2da      	uxtb	r2, r3
    2702:	683b      	ldr	r3, [r7, #0]
    2704:	719a      	strb	r2, [r3, #6]
    2706:	683b      	ldr	r3, [r7, #0]
    2708:	68d8      	ldr	r0, [r3, #12]
    270a:	683b      	ldr	r3, [r7, #0]
    270c:	799b      	ldrb	r3, [r3, #6]
    270e:	b2db      	uxtb	r3, r3
    2710:	461a      	mov	r2, r3
    2712:	683b      	ldr	r3, [r7, #0]
    2714:	789b      	ldrb	r3, [r3, #2]
    2716:	b2db      	uxtb	r3, r3
    2718:	68f9      	ldr	r1, [r7, #12]
    271a:	f000 fcdb 	bl	30d4 <LPSPI_SeparateReadData>
    271e:	683b      	ldr	r3, [r7, #0]
    2720:	799b      	ldrb	r3, [r3, #6]
    2722:	b2da      	uxtb	r2, r3
    2724:	683b      	ldr	r3, [r7, #0]
    2726:	68db      	ldr	r3, [r3, #12]
    2728:	441a      	add	r2, r3
    272a:	683b      	ldr	r3, [r7, #0]
    272c:	60da      	str	r2, [r3, #12]
    272e:	683b      	ldr	r3, [r7, #0]
    2730:	799b      	ldrb	r3, [r3, #6]
    2732:	b2da      	uxtb	r2, r3
    2734:	683b      	ldr	r3, [r7, #0]
    2736:	695b      	ldr	r3, [r3, #20]
    2738:	1a9a      	subs	r2, r3, r2
    273a:	683b      	ldr	r3, [r7, #0]
    273c:	615a      	str	r2, [r3, #20]
    273e:	6878      	ldr	r0, [r7, #4]
    2740:	f003 fdb6 	bl	62b0 <LPSPI_GetRxFifoCount>
    2744:	4603      	mov	r3, r0
    2746:	2b00      	cmp	r3, #0
    2748:	d003      	beq.n	2752 <LPSPI_MasterTransferHandleIRQ+0xa6>
    274a:	683b      	ldr	r3, [r7, #0]
    274c:	695b      	ldr	r3, [r3, #20]
    274e:	2b00      	cmp	r3, #0
    2750:	d1c4      	bne.n	26dc <LPSPI_MasterTransferHandleIRQ+0x30>
    2752:	683b      	ldr	r3, [r7, #0]
    2754:	695b      	ldr	r3, [r3, #20]
    2756:	2b00      	cmp	r3, #0
    2758:	d003      	beq.n	2762 <LPSPI_MasterTransferHandleIRQ+0xb6>
    275a:	2102      	movs	r1, #2
    275c:	6878      	ldr	r0, [r7, #4]
    275e:	f003 fdc4 	bl	62ea <LPSPI_EnableInterrupts>
    2762:	683b      	ldr	r3, [r7, #0]
    2764:	69db      	ldr	r3, [r3, #28]
    2766:	683a      	ldr	r2, [r7, #0]
    2768:	7912      	ldrb	r2, [r2, #4]
    276a:	b2d2      	uxtb	r2, r2
    276c:	4293      	cmp	r3, r2
    276e:	d812      	bhi.n	2796 <LPSPI_MasterTransferHandleIRQ+0xea>
    2770:	687b      	ldr	r3, [r7, #4]
    2772:	6d9b      	ldr	r3, [r3, #88]	; 0x58
    2774:	f423 2270 	bic.w	r2, r3, #983040	; 0xf0000
    2778:	683b      	ldr	r3, [r7, #0]
    277a:	69db      	ldr	r3, [r3, #28]
    277c:	2b01      	cmp	r3, #1
    277e:	d906      	bls.n	278e <LPSPI_MasterTransferHandleIRQ+0xe2>
    2780:	683b      	ldr	r3, [r7, #0]
    2782:	69db      	ldr	r3, [r3, #28]
    2784:	3b01      	subs	r3, #1
    2786:	041b      	lsls	r3, r3, #16
    2788:	f403 2370 	and.w	r3, r3, #983040	; 0xf0000
    278c:	e000      	b.n	2790 <LPSPI_MasterTransferHandleIRQ+0xe4>
    278e:	2300      	movs	r3, #0
    2790:	431a      	orrs	r2, r3
    2792:	687b      	ldr	r3, [r7, #4]
    2794:	659a      	str	r2, [r3, #88]	; 0x58
    2796:	683b      	ldr	r3, [r7, #0]
    2798:	691b      	ldr	r3, [r3, #16]
    279a:	2b00      	cmp	r3, #0
    279c:	d004      	beq.n	27a8 <LPSPI_MasterTransferHandleIRQ+0xfc>
    279e:	6839      	ldr	r1, [r7, #0]
    27a0:	6878      	ldr	r0, [r7, #4]
    27a2:	f7ff feb1 	bl	2508 <LPSPI_MasterTransferFillUpTxFifo>
    27a6:	e01b      	b.n	27e0 <LPSPI_MasterTransferHandleIRQ+0x134>
    27a8:	6878      	ldr	r0, [r7, #4]
    27aa:	f003 fd73 	bl	6294 <LPSPI_GetTxFifoCount>
    27ae:	4602      	mov	r2, r0
    27b0:	683b      	ldr	r3, [r7, #0]
    27b2:	78db      	ldrb	r3, [r3, #3]
    27b4:	b2db      	uxtb	r3, r3
    27b6:	429a      	cmp	r2, r3
    27b8:	d212      	bcs.n	27e0 <LPSPI_MasterTransferHandleIRQ+0x134>
    27ba:	683b      	ldr	r3, [r7, #0]
    27bc:	781b      	ldrb	r3, [r3, #0]
    27be:	b2db      	uxtb	r3, r3
    27c0:	2b00      	cmp	r3, #0
    27c2:	d00d      	beq.n	27e0 <LPSPI_MasterTransferHandleIRQ+0x134>
    27c4:	683b      	ldr	r3, [r7, #0]
    27c6:	785b      	ldrb	r3, [r3, #1]
    27c8:	b2db      	uxtb	r3, r3
    27ca:	2b00      	cmp	r3, #0
    27cc:	d008      	beq.n	27e0 <LPSPI_MasterTransferHandleIRQ+0x134>
    27ce:	687b      	ldr	r3, [r7, #4]
    27d0:	6e1b      	ldr	r3, [r3, #96]	; 0x60
    27d2:	f423 1280 	bic.w	r2, r3, #1048576	; 0x100000
    27d6:	687b      	ldr	r3, [r7, #4]
    27d8:	661a      	str	r2, [r3, #96]	; 0x60
    27da:	683b      	ldr	r3, [r7, #0]
    27dc:	2200      	movs	r2, #0
    27de:	705a      	strb	r2, [r3, #1]
    27e0:	683b      	ldr	r3, [r7, #0]
    27e2:	691b      	ldr	r3, [r3, #16]
    27e4:	2b00      	cmp	r3, #0
    27e6:	d12a      	bne.n	283e <LPSPI_MasterTransferHandleIRQ+0x192>
    27e8:	683b      	ldr	r3, [r7, #0]
    27ea:	695b      	ldr	r3, [r3, #20]
    27ec:	2b00      	cmp	r3, #0
    27ee:	d126      	bne.n	283e <LPSPI_MasterTransferHandleIRQ+0x192>
    27f0:	683b      	ldr	r3, [r7, #0]
    27f2:	785b      	ldrb	r3, [r3, #1]
    27f4:	b2db      	uxtb	r3, r3
    27f6:	f083 0301 	eor.w	r3, r3, #1
    27fa:	b2db      	uxtb	r3, r3
    27fc:	2b00      	cmp	r3, #0
    27fe:	d01e      	beq.n	283e <LPSPI_MasterTransferHandleIRQ+0x192>
    2800:	683b      	ldr	r3, [r7, #0]
    2802:	68db      	ldr	r3, [r3, #12]
    2804:	2b00      	cmp	r3, #0
    2806:	d116      	bne.n	2836 <LPSPI_MasterTransferHandleIRQ+0x18a>
    2808:	6878      	ldr	r0, [r7, #4]
    280a:	f003 fd26 	bl	625a <LPSPI_GetStatusFlags>
    280e:	4603      	mov	r3, r0
    2810:	f403 6380 	and.w	r3, r3, #1024	; 0x400
    2814:	2b00      	cmp	r3, #0
    2816:	d004      	beq.n	2822 <LPSPI_MasterTransferHandleIRQ+0x176>
    2818:	6839      	ldr	r1, [r7, #0]
    281a:	6878      	ldr	r0, [r7, #4]
    281c:	f7ff fefc 	bl	2618 <LPSPI_MasterTransferComplete>
    2820:	e00d      	b.n	283e <LPSPI_MasterTransferHandleIRQ+0x192>
    2822:	f44f 6180 	mov.w	r1, #1024	; 0x400
    2826:	6878      	ldr	r0, [r7, #4]
    2828:	f003 fd5f 	bl	62ea <LPSPI_EnableInterrupts>
    282c:	2103      	movs	r1, #3
    282e:	6878      	ldr	r0, [r7, #4]
    2830:	f003 fd6c 	bl	630c <LPSPI_DisableInterrupts>
    2834:	e003      	b.n	283e <LPSPI_MasterTransferHandleIRQ+0x192>
    2836:	6839      	ldr	r1, [r7, #0]
    2838:	6878      	ldr	r0, [r7, #4]
    283a:	f7ff feed 	bl	2618 <LPSPI_MasterTransferComplete>
    283e:	bf00      	nop
    2840:	3710      	adds	r7, #16
    2842:	46bd      	mov	sp, r7
    2844:	bd80      	pop	{r7, pc}
    2846:	bf00      	nop
    2848:	00008c44 	.word	0x00008c44

0000284c <LPSPI_SlaveTransferCreateHandle>:
    284c:	b580      	push	{r7, lr}
    284e:	b084      	sub	sp, #16
    2850:	af00      	add	r7, sp, #0
    2852:	60f8      	str	r0, [r7, #12]
    2854:	60b9      	str	r1, [r7, #8]
    2856:	607a      	str	r2, [r7, #4]
    2858:	603b      	str	r3, [r7, #0]
    285a:	68bb      	ldr	r3, [r7, #8]
    285c:	2b00      	cmp	r3, #0
    285e:	d102      	bne.n	2866 <LPSPI_SlaveTransferCreateHandle+0x1a>
    2860:	480e      	ldr	r0, [pc, #56]	; (289c <LPSPI_SlaveTransferCreateHandle+0x50>)
    2862:	f002 fd35 	bl	52d0 <__assertion_failed>
    2866:	2234      	movs	r2, #52	; 0x34
    2868:	2100      	movs	r1, #0
    286a:	68b8      	ldr	r0, [r7, #8]
    286c:	f004 fb86 	bl	6f7c <memset>
    2870:	68f8      	ldr	r0, [r7, #12]
    2872:	f7ff f9ef 	bl	1c54 <LPSPI_GetInstance>
    2876:	4601      	mov	r1, r0
    2878:	4a09      	ldr	r2, [pc, #36]	; (28a0 <LPSPI_SlaveTransferCreateHandle+0x54>)
    287a:	68bb      	ldr	r3, [r7, #8]
    287c:	f842 3021 	str.w	r3, [r2, r1, lsl #2]
    2880:	4b08      	ldr	r3, [pc, #32]	; (28a4 <LPSPI_SlaveTransferCreateHandle+0x58>)
    2882:	4a09      	ldr	r2, [pc, #36]	; (28a8 <LPSPI_SlaveTransferCreateHandle+0x5c>)
    2884:	601a      	str	r2, [r3, #0]
    2886:	68bb      	ldr	r3, [r7, #8]
    2888:	687a      	ldr	r2, [r7, #4]
    288a:	62da      	str	r2, [r3, #44]	; 0x2c
    288c:	68bb      	ldr	r3, [r7, #8]
    288e:	683a      	ldr	r2, [r7, #0]
    2890:	631a      	str	r2, [r3, #48]	; 0x30
    2892:	bf00      	nop
    2894:	3710      	adds	r7, #16
    2896:	46bd      	mov	sp, r7
    2898:	bd80      	pop	{r7, pc}
    289a:	bf00      	nop
    289c:	00008c6c 	.word	0x00008c6c
    28a0:	200000c8 	.word	0x200000c8
    28a4:	200000e0 	.word	0x200000e0
    28a8:	00002cc9 	.word	0x00002cc9

000028ac <LPSPI_SlaveTransferNonBlocking>:
    28ac:	b580      	push	{r7, lr}
    28ae:	b08a      	sub	sp, #40	; 0x28
    28b0:	af00      	add	r7, sp, #0
    28b2:	60f8      	str	r0, [r7, #12]
    28b4:	60b9      	str	r1, [r7, #8]
    28b6:	607a      	str	r2, [r7, #4]
    28b8:	68bb      	ldr	r3, [r7, #8]
    28ba:	2b00      	cmp	r3, #0
    28bc:	d102      	bne.n	28c4 <LPSPI_SlaveTransferNonBlocking+0x18>
    28be:	48ab      	ldr	r0, [pc, #684]	; (2b6c <LPSPI_SlaveTransferNonBlocking+0x2c0>)
    28c0:	f002 fd06 	bl	52d0 <__assertion_failed>
    28c4:	687b      	ldr	r3, [r7, #4]
    28c6:	2b00      	cmp	r3, #0
    28c8:	d102      	bne.n	28d0 <LPSPI_SlaveTransferNonBlocking+0x24>
    28ca:	48a9      	ldr	r0, [pc, #676]	; (2b70 <LPSPI_SlaveTransferNonBlocking+0x2c4>)
    28cc:	f002 fd00 	bl	52d0 <__assertion_failed>
    28d0:	68fb      	ldr	r3, [r7, #12]
    28d2:	6e1b      	ldr	r3, [r3, #96]	; 0x60
    28d4:	f3c3 030b 	ubfx	r3, r3, #0, #12
    28d8:	3301      	adds	r3, #1
    28da:	623b      	str	r3, [r7, #32]
    28dc:	6a3b      	ldr	r3, [r7, #32]
    28de:	3307      	adds	r3, #7
    28e0:	08db      	lsrs	r3, r3, #3
    28e2:	61fb      	str	r3, [r7, #28]
    28e4:	2300      	movs	r3, #0
    28e6:	61bb      	str	r3, [r7, #24]
    28e8:	69fa      	ldr	r2, [r7, #28]
    28ea:	6a39      	ldr	r1, [r7, #32]
    28ec:	6878      	ldr	r0, [r7, #4]
    28ee:	f7ff fc4f 	bl	2190 <LPSPI_CheckTransferArgument>
    28f2:	4603      	mov	r3, r0
    28f4:	f083 0301 	eor.w	r3, r3, #1
    28f8:	b2db      	uxtb	r3, r3
    28fa:	2b00      	cmp	r3, #0
    28fc:	d001      	beq.n	2902 <LPSPI_SlaveTransferNonBlocking+0x56>
    28fe:	2304      	movs	r3, #4
    2900:	e130      	b.n	2b64 <LPSPI_SlaveTransferNonBlocking+0x2b8>
    2902:	68bb      	ldr	r3, [r7, #8]
    2904:	f893 3024 	ldrb.w	r3, [r3, #36]	; 0x24
    2908:	b2db      	uxtb	r3, r3
    290a:	2b01      	cmp	r3, #1
    290c:	d102      	bne.n	2914 <LPSPI_SlaveTransferNonBlocking+0x68>
    290e:	f44f 73c8 	mov.w	r3, #400	; 0x190
    2912:	e127      	b.n	2b64 <LPSPI_SlaveTransferNonBlocking+0x2b8>
    2914:	68bb      	ldr	r3, [r7, #8]
    2916:	2201      	movs	r2, #1
    2918:	f883 2024 	strb.w	r2, [r3, #36]	; 0x24
    291c:	2300      	movs	r3, #0
    291e:	f887 3027 	strb.w	r3, [r7, #39]	; 0x27
    2922:	2300      	movs	r3, #0
    2924:	f887 3026 	strb.w	r3, [r7, #38]	; 0x26
    2928:	687b      	ldr	r3, [r7, #4]
    292a:	68db      	ldr	r3, [r3, #12]
    292c:	091b      	lsrs	r3, r3, #4
    292e:	f003 030f 	and.w	r3, r3, #15
    2932:	617b      	str	r3, [r7, #20]
    2934:	687b      	ldr	r3, [r7, #4]
    2936:	681a      	ldr	r2, [r3, #0]
    2938:	68bb      	ldr	r3, [r7, #8]
    293a:	609a      	str	r2, [r3, #8]
    293c:	687b      	ldr	r3, [r7, #4]
    293e:	685a      	ldr	r2, [r3, #4]
    2940:	68bb      	ldr	r3, [r7, #8]
    2942:	60da      	str	r2, [r3, #12]
    2944:	687b      	ldr	r3, [r7, #4]
    2946:	689a      	ldr	r2, [r3, #8]
    2948:	68bb      	ldr	r3, [r7, #8]
    294a:	611a      	str	r2, [r3, #16]
    294c:	687b      	ldr	r3, [r7, #4]
    294e:	689a      	ldr	r2, [r3, #8]
    2950:	68bb      	ldr	r3, [r7, #8]
    2952:	615a      	str	r2, [r3, #20]
    2954:	687b      	ldr	r3, [r7, #4]
    2956:	689a      	ldr	r2, [r3, #8]
    2958:	68bb      	ldr	r3, [r7, #8]
    295a:	621a      	str	r2, [r3, #32]
    295c:	687b      	ldr	r3, [r7, #4]
    295e:	689a      	ldr	r2, [r3, #8]
    2960:	69fb      	ldr	r3, [r7, #28]
    2962:	fbb2 f3f3 	udiv	r3, r2, r3
    2966:	69fa      	ldr	r2, [r7, #28]
    2968:	3203      	adds	r2, #3
    296a:	0892      	lsrs	r2, r2, #2
    296c:	fb02 f203 	mul.w	r2, r2, r3
    2970:	68bb      	ldr	r3, [r7, #8]
    2972:	619a      	str	r2, [r3, #24]
    2974:	68bb      	ldr	r3, [r7, #8]
    2976:	699a      	ldr	r2, [r3, #24]
    2978:	68bb      	ldr	r3, [r7, #8]
    297a:	61da      	str	r2, [r3, #28]
    297c:	68f8      	ldr	r0, [r7, #12]
    297e:	f003 fc78 	bl	6272 <LPSPI_GetRxFifoSize>
    2982:	4603      	mov	r3, r0
    2984:	b2da      	uxtb	r2, r3
    2986:	68bb      	ldr	r3, [r7, #8]
    2988:	705a      	strb	r2, [r3, #1]
    298a:	687b      	ldr	r3, [r7, #4]
    298c:	68db      	ldr	r3, [r3, #12]
    298e:	f403 0380 	and.w	r3, r3, #4194304	; 0x400000
    2992:	2b00      	cmp	r3, #0
    2994:	bf14      	ite	ne
    2996:	2301      	movne	r3, #1
    2998:	2300      	moveq	r3, #0
    299a:	b2da      	uxtb	r2, r3
    299c:	68bb      	ldr	r3, [r7, #8]
    299e:	701a      	strb	r2, [r3, #0]
    29a0:	68bb      	ldr	r3, [r7, #8]
    29a2:	785b      	ldrb	r3, [r3, #1]
    29a4:	b2db      	uxtb	r3, r3
    29a6:	2b01      	cmp	r3, #1
    29a8:	d90a      	bls.n	29c0 <LPSPI_SlaveTransferNonBlocking+0x114>
    29aa:	2301      	movs	r3, #1
    29ac:	f887 3025 	strb.w	r3, [r7, #37]	; 0x25
    29b0:	68bb      	ldr	r3, [r7, #8]
    29b2:	785b      	ldrb	r3, [r3, #1]
    29b4:	b2db      	uxtb	r3, r3
    29b6:	3b02      	subs	r3, #2
    29b8:	b2da      	uxtb	r2, r3
    29ba:	68bb      	ldr	r3, [r7, #8]
    29bc:	709a      	strb	r2, [r3, #2]
    29be:	e005      	b.n	29cc <LPSPI_SlaveTransferNonBlocking+0x120>
    29c0:	2300      	movs	r3, #0
    29c2:	f887 3025 	strb.w	r3, [r7, #37]	; 0x25
    29c6:	68bb      	ldr	r3, [r7, #8]
    29c8:	2200      	movs	r2, #0
    29ca:	709a      	strb	r2, [r3, #2]
    29cc:	f897 1025 	ldrb.w	r1, [r7, #37]	; 0x25
    29d0:	68bb      	ldr	r3, [r7, #8]
    29d2:	789b      	ldrb	r3, [r3, #2]
    29d4:	b2db      	uxtb	r3, r3
    29d6:	461a      	mov	r2, r3
    29d8:	68f8      	ldr	r0, [r7, #12]
    29da:	f003 fcea 	bl	63b2 <LPSPI_SetFifoWatermarks>
    29de:	68fb      	ldr	r3, [r7, #12]
    29e0:	6a5b      	ldr	r3, [r3, #36]	; 0x24
    29e2:	61bb      	str	r3, [r7, #24]
    29e4:	69bb      	ldr	r3, [r7, #24]
    29e6:	f003 7340 	and.w	r3, r3, #50331648	; 0x3000000
    29ea:	61bb      	str	r3, [r7, #24]
    29ec:	69bb      	ldr	r3, [r7, #24]
    29ee:	f1b3 7f80 	cmp.w	r3, #16777216	; 0x1000000
    29f2:	d003      	beq.n	29fc <LPSPI_SlaveTransferNonBlocking+0x150>
    29f4:	69bb      	ldr	r3, [r7, #24]
    29f6:	f1b3 7f00 	cmp.w	r3, #33554432	; 0x2000000
    29fa:	d11b      	bne.n	2a34 <LPSPI_SlaveTransferNonBlocking+0x188>
    29fc:	68bb      	ldr	r3, [r7, #8]
    29fe:	689b      	ldr	r3, [r3, #8]
    2a00:	2b00      	cmp	r3, #0
    2a02:	d10d      	bne.n	2a20 <LPSPI_SlaveTransferNonBlocking+0x174>
    2a04:	2100      	movs	r1, #0
    2a06:	68f8      	ldr	r0, [r7, #12]
    2a08:	f003 fc0b 	bl	6222 <LPSPI_Enable>
    2a0c:	68fb      	ldr	r3, [r7, #12]
    2a0e:	6a5b      	ldr	r3, [r3, #36]	; 0x24
    2a10:	f043 6280 	orr.w	r2, r3, #67108864	; 0x4000000
    2a14:	68fb      	ldr	r3, [r7, #12]
    2a16:	625a      	str	r2, [r3, #36]	; 0x24
    2a18:	2101      	movs	r1, #1
    2a1a:	68f8      	ldr	r0, [r7, #12]
    2a1c:	f003 fc01 	bl	6222 <LPSPI_Enable>
    2a20:	68bb      	ldr	r3, [r7, #8]
    2a22:	689b      	ldr	r3, [r3, #8]
    2a24:	2b00      	cmp	r3, #0
    2a26:	d005      	beq.n	2a34 <LPSPI_SlaveTransferNonBlocking+0x188>
    2a28:	68bb      	ldr	r3, [r7, #8]
    2a2a:	68db      	ldr	r3, [r3, #12]
    2a2c:	2b00      	cmp	r3, #0
    2a2e:	d001      	beq.n	2a34 <LPSPI_SlaveTransferNonBlocking+0x188>
    2a30:	2304      	movs	r3, #4
    2a32:	e097      	b.n	2b64 <LPSPI_SlaveTransferNonBlocking+0x2b8>
    2a34:	2201      	movs	r2, #1
    2a36:	2101      	movs	r1, #1
    2a38:	68f8      	ldr	r0, [r7, #12]
    2a3a:	f003 fca2 	bl	6382 <LPSPI_FlushFifo>
    2a3e:	494d      	ldr	r1, [pc, #308]	; (2b74 <LPSPI_SlaveTransferNonBlocking+0x2c8>)
    2a40:	68f8      	ldr	r0, [r7, #12]
    2a42:	f003 fc44 	bl	62ce <LPSPI_ClearStatusFlags>
    2a46:	f643 7103 	movw	r1, #16131	; 0x3f03
    2a4a:	68f8      	ldr	r0, [r7, #12]
    2a4c:	f003 fc5e 	bl	630c <LPSPI_DisableInterrupts>
    2a50:	68bb      	ldr	r3, [r7, #8]
    2a52:	68db      	ldr	r3, [r3, #12]
    2a54:	2b00      	cmp	r3, #0
    2a56:	d105      	bne.n	2a64 <LPSPI_SlaveTransferNonBlocking+0x1b8>
    2a58:	2301      	movs	r3, #1
    2a5a:	f887 3027 	strb.w	r3, [r7, #39]	; 0x27
    2a5e:	68bb      	ldr	r3, [r7, #8]
    2a60:	2200      	movs	r2, #0
    2a62:	615a      	str	r2, [r3, #20]
    2a64:	68bb      	ldr	r3, [r7, #8]
    2a66:	689b      	ldr	r3, [r3, #8]
    2a68:	2b00      	cmp	r3, #0
    2a6a:	d105      	bne.n	2a78 <LPSPI_SlaveTransferNonBlocking+0x1cc>
    2a6c:	2301      	movs	r3, #1
    2a6e:	f887 3026 	strb.w	r3, [r7, #38]	; 0x26
    2a72:	68bb      	ldr	r3, [r7, #8]
    2a74:	2200      	movs	r2, #0
    2a76:	611a      	str	r2, [r3, #16]
    2a78:	68fb      	ldr	r3, [r7, #12]
    2a7a:	6e1b      	ldr	r3, [r3, #96]	; 0x60
    2a7c:	f023 724f 	bic.w	r2, r3, #54263808	; 0x33c0000
    2a80:	f897 3027 	ldrb.w	r3, [r7, #39]	; 0x27
    2a84:	04db      	lsls	r3, r3, #19
    2a86:	f403 2300 	and.w	r3, r3, #524288	; 0x80000
    2a8a:	431a      	orrs	r2, r3
    2a8c:	f897 3026 	ldrb.w	r3, [r7, #38]	; 0x26
    2a90:	049b      	lsls	r3, r3, #18
    2a92:	f403 2380 	and.w	r3, r3, #262144	; 0x40000
    2a96:	431a      	orrs	r2, r3
    2a98:	697b      	ldr	r3, [r7, #20]
    2a9a:	061b      	lsls	r3, r3, #24
    2a9c:	f003 7340 	and.w	r3, r3, #50331648	; 0x3000000
    2aa0:	431a      	orrs	r2, r3
    2aa2:	68fb      	ldr	r3, [r7, #12]
    2aa4:	661a      	str	r2, [r3, #96]	; 0x60
    2aa6:	69fb      	ldr	r3, [r7, #28]
    2aa8:	2b04      	cmp	r3, #4
    2aaa:	d808      	bhi.n	2abe <LPSPI_SlaveTransferNonBlocking+0x212>
    2aac:	69fb      	ldr	r3, [r7, #28]
    2aae:	b2da      	uxtb	r2, r3
    2ab0:	68bb      	ldr	r3, [r7, #8]
    2ab2:	70da      	strb	r2, [r3, #3]
    2ab4:	69fb      	ldr	r3, [r7, #28]
    2ab6:	b2da      	uxtb	r2, r3
    2ab8:	68bb      	ldr	r3, [r7, #8]
    2aba:	711a      	strb	r2, [r3, #4]
    2abc:	e005      	b.n	2aca <LPSPI_SlaveTransferNonBlocking+0x21e>
    2abe:	68bb      	ldr	r3, [r7, #8]
    2ac0:	2204      	movs	r2, #4
    2ac2:	70da      	strb	r2, [r3, #3]
    2ac4:	68bb      	ldr	r3, [r7, #8]
    2ac6:	2204      	movs	r2, #4
    2ac8:	711a      	strb	r2, [r3, #4]
    2aca:	68f8      	ldr	r0, [r7, #12]
    2acc:	f7ff f8c2 	bl	1c54 <LPSPI_GetInstance>
    2ad0:	4602      	mov	r2, r0
    2ad2:	4b29      	ldr	r3, [pc, #164]	; (2b78 <LPSPI_SlaveTransferNonBlocking+0x2cc>)
    2ad4:	f933 3012 	ldrsh.w	r3, [r3, r2, lsl #1]
    2ad8:	4618      	mov	r0, r3
    2ada:	f003 fb8c 	bl	61f6 <EnableIRQ>
    2ade:	bf00      	nop
    2ae0:	68f8      	ldr	r0, [r7, #12]
    2ae2:	f003 fbd7 	bl	6294 <LPSPI_GetTxFifoCount>
    2ae6:	4603      	mov	r3, r0
    2ae8:	2b00      	cmp	r3, #0
    2aea:	d1f9      	bne.n	2ae0 <LPSPI_SlaveTransferNonBlocking+0x234>
    2aec:	68bb      	ldr	r3, [r7, #8]
    2aee:	689b      	ldr	r3, [r3, #8]
    2af0:	2b00      	cmp	r3, #0
    2af2:	d003      	beq.n	2afc <LPSPI_SlaveTransferNonBlocking+0x250>
    2af4:	68b9      	ldr	r1, [r7, #8]
    2af6:	68f8      	ldr	r0, [r7, #12]
    2af8:	f000 f840 	bl	2b7c <LPSPI_SlaveTransferFillUpTxFifo>
    2afc:	68bb      	ldr	r3, [r7, #8]
    2afe:	68db      	ldr	r3, [r3, #12]
    2b00:	2b00      	cmp	r3, #0
    2b02:	d018      	beq.n	2b36 <LPSPI_SlaveTransferNonBlocking+0x28a>
    2b04:	68bb      	ldr	r3, [r7, #8]
    2b06:	69db      	ldr	r3, [r3, #28]
    2b08:	68ba      	ldr	r2, [r7, #8]
    2b0a:	7892      	ldrb	r2, [r2, #2]
    2b0c:	b2d2      	uxtb	r2, r2
    2b0e:	4293      	cmp	r3, r2
    2b10:	d80c      	bhi.n	2b2c <LPSPI_SlaveTransferNonBlocking+0x280>
    2b12:	68fb      	ldr	r3, [r7, #12]
    2b14:	6d9b      	ldr	r3, [r3, #88]	; 0x58
    2b16:	f423 2270 	bic.w	r2, r3, #983040	; 0xf0000
    2b1a:	68bb      	ldr	r3, [r7, #8]
    2b1c:	69db      	ldr	r3, [r3, #28]
    2b1e:	3b01      	subs	r3, #1
    2b20:	041b      	lsls	r3, r3, #16
    2b22:	f403 2370 	and.w	r3, r3, #983040	; 0xf0000
    2b26:	431a      	orrs	r2, r3
    2b28:	68fb      	ldr	r3, [r7, #12]
    2b2a:	659a      	str	r2, [r3, #88]	; 0x58
    2b2c:	2102      	movs	r1, #2
    2b2e:	68f8      	ldr	r0, [r7, #12]
    2b30:	f003 fbdb 	bl	62ea <LPSPI_EnableInterrupts>
    2b34:	e003      	b.n	2b3e <LPSPI_SlaveTransferNonBlocking+0x292>
    2b36:	2101      	movs	r1, #1
    2b38:	68f8      	ldr	r0, [r7, #12]
    2b3a:	f003 fbd6 	bl	62ea <LPSPI_EnableInterrupts>
    2b3e:	68bb      	ldr	r3, [r7, #8]
    2b40:	68db      	ldr	r3, [r3, #12]
    2b42:	2b00      	cmp	r3, #0
    2b44:	d004      	beq.n	2b50 <LPSPI_SlaveTransferNonBlocking+0x2a4>
    2b46:	f44f 5180 	mov.w	r1, #4096	; 0x1000
    2b4a:	68f8      	ldr	r0, [r7, #12]
    2b4c:	f003 fbcd 	bl	62ea <LPSPI_EnableInterrupts>
    2b50:	68bb      	ldr	r3, [r7, #8]
    2b52:	689b      	ldr	r3, [r3, #8]
    2b54:	2b00      	cmp	r3, #0
    2b56:	d004      	beq.n	2b62 <LPSPI_SlaveTransferNonBlocking+0x2b6>
    2b58:	f44f 6100 	mov.w	r1, #2048	; 0x800
    2b5c:	68f8      	ldr	r0, [r7, #12]
    2b5e:	f003 fbc4 	bl	62ea <LPSPI_EnableInterrupts>
    2b62:	2300      	movs	r3, #0
    2b64:	4618      	mov	r0, r3
    2b66:	3728      	adds	r7, #40	; 0x28
    2b68:	46bd      	mov	sp, r7
    2b6a:	bd80      	pop	{r7, pc}
    2b6c:	00008c94 	.word	0x00008c94
    2b70:	00008cbc 	.word	0x00008cbc
    2b74:	01003f03 	.word	0x01003f03
    2b78:	00008f20 	.word	0x00008f20

00002b7c <LPSPI_SlaveTransferFillUpTxFifo>:
    2b7c:	b580      	push	{r7, lr}
    2b7e:	b084      	sub	sp, #16
    2b80:	af00      	add	r7, sp, #0
    2b82:	6078      	str	r0, [r7, #4]
    2b84:	6039      	str	r1, [r7, #0]
    2b86:	683b      	ldr	r3, [r7, #0]
    2b88:	2b00      	cmp	r3, #0
    2b8a:	d102      	bne.n	2b92 <LPSPI_SlaveTransferFillUpTxFifo+0x16>
    2b8c:	4822      	ldr	r0, [pc, #136]	; (2c18 <LPSPI_SlaveTransferFillUpTxFifo+0x9c>)
    2b8e:	f002 fb9f 	bl	52d0 <__assertion_failed>
    2b92:	2300      	movs	r3, #0
    2b94:	60fb      	str	r3, [r7, #12]
    2b96:	e030      	b.n	2bfa <LPSPI_SlaveTransferFillUpTxFifo+0x7e>
    2b98:	683b      	ldr	r3, [r7, #0]
    2b9a:	691b      	ldr	r3, [r3, #16]
    2b9c:	683a      	ldr	r2, [r7, #0]
    2b9e:	78d2      	ldrb	r2, [r2, #3]
    2ba0:	b2d2      	uxtb	r2, r2
    2ba2:	4293      	cmp	r3, r2
    2ba4:	d204      	bcs.n	2bb0 <LPSPI_SlaveTransferFillUpTxFifo+0x34>
    2ba6:	683b      	ldr	r3, [r7, #0]
    2ba8:	691b      	ldr	r3, [r3, #16]
    2baa:	b2da      	uxtb	r2, r3
    2bac:	683b      	ldr	r3, [r7, #0]
    2bae:	70da      	strb	r2, [r3, #3]
    2bb0:	683b      	ldr	r3, [r7, #0]
    2bb2:	6898      	ldr	r0, [r3, #8]
    2bb4:	683b      	ldr	r3, [r7, #0]
    2bb6:	78db      	ldrb	r3, [r3, #3]
    2bb8:	b2db      	uxtb	r3, r3
    2bba:	4619      	mov	r1, r3
    2bbc:	683b      	ldr	r3, [r7, #0]
    2bbe:	781b      	ldrb	r3, [r3, #0]
    2bc0:	b2db      	uxtb	r3, r3
    2bc2:	461a      	mov	r2, r3
    2bc4:	f000 f9a8 	bl	2f18 <LPSPI_CombineWriteData>
    2bc8:	60f8      	str	r0, [r7, #12]
    2bca:	683b      	ldr	r3, [r7, #0]
    2bcc:	78db      	ldrb	r3, [r3, #3]
    2bce:	b2da      	uxtb	r2, r3
    2bd0:	683b      	ldr	r3, [r7, #0]
    2bd2:	689b      	ldr	r3, [r3, #8]
    2bd4:	441a      	add	r2, r3
    2bd6:	683b      	ldr	r3, [r7, #0]
    2bd8:	609a      	str	r2, [r3, #8]
    2bda:	683b      	ldr	r3, [r7, #0]
    2bdc:	78db      	ldrb	r3, [r3, #3]
    2bde:	b2da      	uxtb	r2, r3
    2be0:	683b      	ldr	r3, [r7, #0]
    2be2:	691b      	ldr	r3, [r3, #16]
    2be4:	1a9a      	subs	r2, r3, r2
    2be6:	683b      	ldr	r3, [r7, #0]
    2be8:	611a      	str	r2, [r3, #16]
    2bea:	68f9      	ldr	r1, [r7, #12]
    2bec:	6878      	ldr	r0, [r7, #4]
    2bee:	f003 fbf6 	bl	63de <LPSPI_WriteData>
    2bf2:	683b      	ldr	r3, [r7, #0]
    2bf4:	691b      	ldr	r3, [r3, #16]
    2bf6:	2b00      	cmp	r3, #0
    2bf8:	d009      	beq.n	2c0e <LPSPI_SlaveTransferFillUpTxFifo+0x92>
    2bfa:	6878      	ldr	r0, [r7, #4]
    2bfc:	f003 fb4a 	bl	6294 <LPSPI_GetTxFifoCount>
    2c00:	4602      	mov	r2, r0
    2c02:	683b      	ldr	r3, [r7, #0]
    2c04:	785b      	ldrb	r3, [r3, #1]
    2c06:	b2db      	uxtb	r3, r3
    2c08:	429a      	cmp	r2, r3
    2c0a:	d3c5      	bcc.n	2b98 <LPSPI_SlaveTransferFillUpTxFifo+0x1c>
    2c0c:	e000      	b.n	2c10 <LPSPI_SlaveTransferFillUpTxFifo+0x94>
    2c0e:	bf00      	nop
    2c10:	bf00      	nop
    2c12:	3710      	adds	r7, #16
    2c14:	46bd      	mov	sp, r7
    2c16:	bd80      	pop	{r7, pc}
    2c18:	00008ce4 	.word	0x00008ce4

00002c1c <LPSPI_SlaveTransferComplete>:
    2c1c:	b590      	push	{r4, r7, lr}
    2c1e:	b085      	sub	sp, #20
    2c20:	af00      	add	r7, sp, #0
    2c22:	6078      	str	r0, [r7, #4]
    2c24:	6039      	str	r1, [r7, #0]
    2c26:	683b      	ldr	r3, [r7, #0]
    2c28:	2b00      	cmp	r3, #0
    2c2a:	d102      	bne.n	2c32 <LPSPI_SlaveTransferComplete+0x16>
    2c2c:	4814      	ldr	r0, [pc, #80]	; (2c80 <LPSPI_SlaveTransferComplete+0x64>)
    2c2e:	f002 fb4f 	bl	52d0 <__assertion_failed>
    2c32:	2300      	movs	r3, #0
    2c34:	60fb      	str	r3, [r7, #12]
    2c36:	f643 7103 	movw	r1, #16131	; 0x3f03
    2c3a:	6878      	ldr	r0, [r7, #4]
    2c3c:	f003 fb66 	bl	630c <LPSPI_DisableInterrupts>
    2c40:	683b      	ldr	r3, [r7, #0]
    2c42:	f893 3024 	ldrb.w	r3, [r3, #36]	; 0x24
    2c46:	b2db      	uxtb	r3, r3
    2c48:	2b02      	cmp	r3, #2
    2c4a:	d103      	bne.n	2c54 <LPSPI_SlaveTransferComplete+0x38>
    2c4c:	f240 1391 	movw	r3, #401	; 0x191
    2c50:	60fb      	str	r3, [r7, #12]
    2c52:	e001      	b.n	2c58 <LPSPI_SlaveTransferComplete+0x3c>
    2c54:	2300      	movs	r3, #0
    2c56:	60fb      	str	r3, [r7, #12]
    2c58:	683b      	ldr	r3, [r7, #0]
    2c5a:	2200      	movs	r2, #0
    2c5c:	f883 2024 	strb.w	r2, [r3, #36]	; 0x24
    2c60:	683b      	ldr	r3, [r7, #0]
    2c62:	6adb      	ldr	r3, [r3, #44]	; 0x2c
    2c64:	2b00      	cmp	r3, #0
    2c66:	d007      	beq.n	2c78 <LPSPI_SlaveTransferComplete+0x5c>
    2c68:	683b      	ldr	r3, [r7, #0]
    2c6a:	6adc      	ldr	r4, [r3, #44]	; 0x2c
    2c6c:	683b      	ldr	r3, [r7, #0]
    2c6e:	6b1b      	ldr	r3, [r3, #48]	; 0x30
    2c70:	68fa      	ldr	r2, [r7, #12]
    2c72:	6839      	ldr	r1, [r7, #0]
    2c74:	6878      	ldr	r0, [r7, #4]
    2c76:	47a0      	blx	r4
    2c78:	bf00      	nop
    2c7a:	3714      	adds	r7, #20
    2c7c:	46bd      	mov	sp, r7
    2c7e:	bd90      	pop	{r4, r7, pc}
    2c80:	00008d0c 	.word	0x00008d0c

00002c84 <LPSPI_SlaveTransferAbort>:
    2c84:	b580      	push	{r7, lr}
    2c86:	b082      	sub	sp, #8
    2c88:	af00      	add	r7, sp, #0
    2c8a:	6078      	str	r0, [r7, #4]
    2c8c:	6039      	str	r1, [r7, #0]
    2c8e:	683b      	ldr	r3, [r7, #0]
    2c90:	2b00      	cmp	r3, #0
    2c92:	d102      	bne.n	2c9a <LPSPI_SlaveTransferAbort+0x16>
    2c94:	480b      	ldr	r0, [pc, #44]	; (2cc4 <LPSPI_SlaveTransferAbort+0x40>)
    2c96:	f002 fb1b 	bl	52d0 <__assertion_failed>
    2c9a:	2103      	movs	r1, #3
    2c9c:	6878      	ldr	r0, [r7, #4]
    2c9e:	f003 fb35 	bl	630c <LPSPI_DisableInterrupts>
    2ca2:	6878      	ldr	r0, [r7, #4]
    2ca4:	f003 fbb5 	bl	6412 <LPSPI_Reset>
    2ca8:	683b      	ldr	r3, [r7, #0]
    2caa:	2200      	movs	r2, #0
    2cac:	f883 2024 	strb.w	r2, [r3, #36]	; 0x24
    2cb0:	683b      	ldr	r3, [r7, #0]
    2cb2:	2200      	movs	r2, #0
    2cb4:	611a      	str	r2, [r3, #16]
    2cb6:	683b      	ldr	r3, [r7, #0]
    2cb8:	2200      	movs	r2, #0
    2cba:	615a      	str	r2, [r3, #20]
    2cbc:	bf00      	nop
    2cbe:	3708      	adds	r7, #8
    2cc0:	46bd      	mov	sp, r7
    2cc2:	bd80      	pop	{r7, pc}
    2cc4:	00008d5c 	.word	0x00008d5c

00002cc8 <LPSPI_SlaveTransferHandleIRQ>:
    2cc8:	b580      	push	{r7, lr}
    2cca:	b084      	sub	sp, #16
    2ccc:	af00      	add	r7, sp, #0
    2cce:	6078      	str	r0, [r7, #4]
    2cd0:	6039      	str	r1, [r7, #0]
    2cd2:	683b      	ldr	r3, [r7, #0]
    2cd4:	2b00      	cmp	r3, #0
    2cd6:	d102      	bne.n	2cde <LPSPI_SlaveTransferHandleIRQ+0x16>
    2cd8:	488e      	ldr	r0, [pc, #568]	; (2f14 <LPSPI_SlaveTransferHandleIRQ+0x24c>)
    2cda:	f002 faf9 	bl	52d0 <__assertion_failed>
    2cde:	683b      	ldr	r3, [r7, #0]
    2ce0:	68db      	ldr	r3, [r3, #12]
    2ce2:	2b00      	cmp	r3, #0
    2ce4:	f000 8092 	beq.w	2e0c <LPSPI_SlaveTransferHandleIRQ+0x144>
    2ce8:	683b      	ldr	r3, [r7, #0]
    2cea:	695b      	ldr	r3, [r3, #20]
    2cec:	2b00      	cmp	r3, #0
    2cee:	d072      	beq.n	2dd6 <LPSPI_SlaveTransferHandleIRQ+0x10e>
    2cf0:	e069      	b.n	2dc6 <LPSPI_SlaveTransferHandleIRQ+0xfe>
    2cf2:	6878      	ldr	r0, [r7, #4]
    2cf4:	f003 fb81 	bl	63fa <LPSPI_ReadData>
    2cf8:	60f8      	str	r0, [r7, #12]
    2cfa:	683b      	ldr	r3, [r7, #0]
    2cfc:	69db      	ldr	r3, [r3, #28]
    2cfe:	1e5a      	subs	r2, r3, #1
    2d00:	683b      	ldr	r3, [r7, #0]
    2d02:	61da      	str	r2, [r3, #28]
    2d04:	683b      	ldr	r3, [r7, #0]
    2d06:	695b      	ldr	r3, [r3, #20]
    2d08:	683a      	ldr	r2, [r7, #0]
    2d0a:	7912      	ldrb	r2, [r2, #4]
    2d0c:	b2d2      	uxtb	r2, r2
    2d0e:	4293      	cmp	r3, r2
    2d10:	d204      	bcs.n	2d1c <LPSPI_SlaveTransferHandleIRQ+0x54>
    2d12:	683b      	ldr	r3, [r7, #0]
    2d14:	695b      	ldr	r3, [r3, #20]
    2d16:	b2da      	uxtb	r2, r3
    2d18:	683b      	ldr	r3, [r7, #0]
    2d1a:	711a      	strb	r2, [r3, #4]
    2d1c:	683b      	ldr	r3, [r7, #0]
    2d1e:	68d8      	ldr	r0, [r3, #12]
    2d20:	683b      	ldr	r3, [r7, #0]
    2d22:	791b      	ldrb	r3, [r3, #4]
    2d24:	b2db      	uxtb	r3, r3
    2d26:	461a      	mov	r2, r3
    2d28:	683b      	ldr	r3, [r7, #0]
    2d2a:	781b      	ldrb	r3, [r3, #0]
    2d2c:	b2db      	uxtb	r3, r3
    2d2e:	68f9      	ldr	r1, [r7, #12]
    2d30:	f000 f9d0 	bl	30d4 <LPSPI_SeparateReadData>
    2d34:	683b      	ldr	r3, [r7, #0]
    2d36:	791b      	ldrb	r3, [r3, #4]
    2d38:	b2da      	uxtb	r2, r3
    2d3a:	683b      	ldr	r3, [r7, #0]
    2d3c:	68db      	ldr	r3, [r3, #12]
    2d3e:	441a      	add	r2, r3
    2d40:	683b      	ldr	r3, [r7, #0]
    2d42:	60da      	str	r2, [r3, #12]
    2d44:	683b      	ldr	r3, [r7, #0]
    2d46:	791b      	ldrb	r3, [r3, #4]
    2d48:	b2da      	uxtb	r2, r3
    2d4a:	683b      	ldr	r3, [r7, #0]
    2d4c:	695b      	ldr	r3, [r3, #20]
    2d4e:	1a9a      	subs	r2, r3, r2
    2d50:	683b      	ldr	r3, [r7, #0]
    2d52:	615a      	str	r2, [r3, #20]
    2d54:	683b      	ldr	r3, [r7, #0]
    2d56:	691b      	ldr	r3, [r3, #16]
    2d58:	2b00      	cmp	r3, #0
    2d5a:	d030      	beq.n	2dbe <LPSPI_SlaveTransferHandleIRQ+0xf6>
    2d5c:	683b      	ldr	r3, [r7, #0]
    2d5e:	689b      	ldr	r3, [r3, #8]
    2d60:	2b00      	cmp	r3, #0
    2d62:	d02c      	beq.n	2dbe <LPSPI_SlaveTransferHandleIRQ+0xf6>
    2d64:	683b      	ldr	r3, [r7, #0]
    2d66:	691b      	ldr	r3, [r3, #16]
    2d68:	683a      	ldr	r2, [r7, #0]
    2d6a:	78d2      	ldrb	r2, [r2, #3]
    2d6c:	b2d2      	uxtb	r2, r2
    2d6e:	4293      	cmp	r3, r2
    2d70:	d204      	bcs.n	2d7c <LPSPI_SlaveTransferHandleIRQ+0xb4>
    2d72:	683b      	ldr	r3, [r7, #0]
    2d74:	691b      	ldr	r3, [r3, #16]
    2d76:	b2da      	uxtb	r2, r3
    2d78:	683b      	ldr	r3, [r7, #0]
    2d7a:	70da      	strb	r2, [r3, #3]
    2d7c:	683b      	ldr	r3, [r7, #0]
    2d7e:	6898      	ldr	r0, [r3, #8]
    2d80:	683b      	ldr	r3, [r7, #0]
    2d82:	78db      	ldrb	r3, [r3, #3]
    2d84:	b2db      	uxtb	r3, r3
    2d86:	4619      	mov	r1, r3
    2d88:	683b      	ldr	r3, [r7, #0]
    2d8a:	781b      	ldrb	r3, [r3, #0]
    2d8c:	b2db      	uxtb	r3, r3
    2d8e:	461a      	mov	r2, r3
    2d90:	f000 f8c2 	bl	2f18 <LPSPI_CombineWriteData>
    2d94:	60b8      	str	r0, [r7, #8]
    2d96:	683b      	ldr	r3, [r7, #0]
    2d98:	78db      	ldrb	r3, [r3, #3]
    2d9a:	b2da      	uxtb	r2, r3
    2d9c:	683b      	ldr	r3, [r7, #0]
    2d9e:	689b      	ldr	r3, [r3, #8]
    2da0:	441a      	add	r2, r3
    2da2:	683b      	ldr	r3, [r7, #0]
    2da4:	609a      	str	r2, [r3, #8]
    2da6:	683b      	ldr	r3, [r7, #0]
    2da8:	78db      	ldrb	r3, [r3, #3]
    2daa:	b2da      	uxtb	r2, r3
    2dac:	683b      	ldr	r3, [r7, #0]
    2dae:	691b      	ldr	r3, [r3, #16]
    2db0:	1a9a      	subs	r2, r3, r2
    2db2:	683b      	ldr	r3, [r7, #0]
    2db4:	611a      	str	r2, [r3, #16]
    2db6:	68b9      	ldr	r1, [r7, #8]
    2db8:	6878      	ldr	r0, [r7, #4]
    2dba:	f003 fb10 	bl	63de <LPSPI_WriteData>
    2dbe:	683b      	ldr	r3, [r7, #0]
    2dc0:	695b      	ldr	r3, [r3, #20]
    2dc2:	2b00      	cmp	r3, #0
    2dc4:	d006      	beq.n	2dd4 <LPSPI_SlaveTransferHandleIRQ+0x10c>
    2dc6:	6878      	ldr	r0, [r7, #4]
    2dc8:	f003 fa72 	bl	62b0 <LPSPI_GetRxFifoCount>
    2dcc:	4603      	mov	r3, r0
    2dce:	2b00      	cmp	r3, #0
    2dd0:	d18f      	bne.n	2cf2 <LPSPI_SlaveTransferHandleIRQ+0x2a>
    2dd2:	e000      	b.n	2dd6 <LPSPI_SlaveTransferHandleIRQ+0x10e>
    2dd4:	bf00      	nop
    2dd6:	683b      	ldr	r3, [r7, #0]
    2dd8:	69db      	ldr	r3, [r3, #28]
    2dda:	683a      	ldr	r2, [r7, #0]
    2ddc:	7892      	ldrb	r2, [r2, #2]
    2dde:	b2d2      	uxtb	r2, r2
    2de0:	4293      	cmp	r3, r2
    2de2:	d821      	bhi.n	2e28 <LPSPI_SlaveTransferHandleIRQ+0x160>
    2de4:	687b      	ldr	r3, [r7, #4]
    2de6:	6d9b      	ldr	r3, [r3, #88]	; 0x58
    2de8:	f423 2270 	bic.w	r2, r3, #983040	; 0xf0000
    2dec:	683b      	ldr	r3, [r7, #0]
    2dee:	69db      	ldr	r3, [r3, #28]
    2df0:	2b01      	cmp	r3, #1
    2df2:	d906      	bls.n	2e02 <LPSPI_SlaveTransferHandleIRQ+0x13a>
    2df4:	683b      	ldr	r3, [r7, #0]
    2df6:	69db      	ldr	r3, [r3, #28]
    2df8:	3b01      	subs	r3, #1
    2dfa:	041b      	lsls	r3, r3, #16
    2dfc:	f403 2370 	and.w	r3, r3, #983040	; 0xf0000
    2e00:	e000      	b.n	2e04 <LPSPI_SlaveTransferHandleIRQ+0x13c>
    2e02:	2300      	movs	r3, #0
    2e04:	431a      	orrs	r2, r3
    2e06:	687b      	ldr	r3, [r7, #4]
    2e08:	659a      	str	r2, [r3, #88]	; 0x58
    2e0a:	e00d      	b.n	2e28 <LPSPI_SlaveTransferHandleIRQ+0x160>
    2e0c:	683b      	ldr	r3, [r7, #0]
    2e0e:	691b      	ldr	r3, [r3, #16]
    2e10:	2b00      	cmp	r3, #0
    2e12:	d008      	beq.n	2e26 <LPSPI_SlaveTransferHandleIRQ+0x15e>
    2e14:	683b      	ldr	r3, [r7, #0]
    2e16:	689b      	ldr	r3, [r3, #8]
    2e18:	2b00      	cmp	r3, #0
    2e1a:	d004      	beq.n	2e26 <LPSPI_SlaveTransferHandleIRQ+0x15e>
    2e1c:	6839      	ldr	r1, [r7, #0]
    2e1e:	6878      	ldr	r0, [r7, #4]
    2e20:	f7ff feac 	bl	2b7c <LPSPI_SlaveTransferFillUpTxFifo>
    2e24:	e000      	b.n	2e28 <LPSPI_SlaveTransferHandleIRQ+0x160>
    2e26:	bf00      	nop
    2e28:	683b      	ldr	r3, [r7, #0]
    2e2a:	691b      	ldr	r3, [r3, #16]
    2e2c:	2b00      	cmp	r3, #0
    2e2e:	d12d      	bne.n	2e8c <LPSPI_SlaveTransferHandleIRQ+0x1c4>
    2e30:	683b      	ldr	r3, [r7, #0]
    2e32:	695b      	ldr	r3, [r3, #20]
    2e34:	2b00      	cmp	r3, #0
    2e36:	d129      	bne.n	2e8c <LPSPI_SlaveTransferHandleIRQ+0x1c4>
    2e38:	683b      	ldr	r3, [r7, #0]
    2e3a:	68db      	ldr	r3, [r3, #12]
    2e3c:	2b00      	cmp	r3, #0
    2e3e:	d121      	bne.n	2e84 <LPSPI_SlaveTransferHandleIRQ+0x1bc>
    2e40:	6878      	ldr	r0, [r7, #4]
    2e42:	f003 fa0a 	bl	625a <LPSPI_GetStatusFlags>
    2e46:	4603      	mov	r3, r0
    2e48:	f403 7300 	and.w	r3, r3, #512	; 0x200
    2e4c:	2b00      	cmp	r3, #0
    2e4e:	d00a      	beq.n	2e66 <LPSPI_SlaveTransferHandleIRQ+0x19e>
    2e50:	6878      	ldr	r0, [r7, #4]
    2e52:	f003 fa1f 	bl	6294 <LPSPI_GetTxFifoCount>
    2e56:	4603      	mov	r3, r0
    2e58:	2b00      	cmp	r3, #0
    2e5a:	d104      	bne.n	2e66 <LPSPI_SlaveTransferHandleIRQ+0x19e>
    2e5c:	6839      	ldr	r1, [r7, #0]
    2e5e:	6878      	ldr	r0, [r7, #4]
    2e60:	f7ff fedc 	bl	2c1c <LPSPI_SlaveTransferComplete>
    2e64:	e012      	b.n	2e8c <LPSPI_SlaveTransferHandleIRQ+0x1c4>
    2e66:	f44f 7100 	mov.w	r1, #512	; 0x200
    2e6a:	6878      	ldr	r0, [r7, #4]
    2e6c:	f003 fa2f 	bl	62ce <LPSPI_ClearStatusFlags>
    2e70:	f44f 7100 	mov.w	r1, #512	; 0x200
    2e74:	6878      	ldr	r0, [r7, #4]
    2e76:	f003 fa38 	bl	62ea <LPSPI_EnableInterrupts>
    2e7a:	2103      	movs	r1, #3
    2e7c:	6878      	ldr	r0, [r7, #4]
    2e7e:	f003 fa45 	bl	630c <LPSPI_DisableInterrupts>
    2e82:	e003      	b.n	2e8c <LPSPI_SlaveTransferHandleIRQ+0x1c4>
    2e84:	6839      	ldr	r1, [r7, #0]
    2e86:	6878      	ldr	r0, [r7, #4]
    2e88:	f7ff fec8 	bl	2c1c <LPSPI_SlaveTransferComplete>
    2e8c:	6878      	ldr	r0, [r7, #4]
    2e8e:	f003 f9e4 	bl	625a <LPSPI_GetStatusFlags>
    2e92:	4603      	mov	r3, r0
    2e94:	f403 6300 	and.w	r3, r3, #2048	; 0x800
    2e98:	2b00      	cmp	r3, #0
    2e9a:	d017      	beq.n	2ecc <LPSPI_SlaveTransferHandleIRQ+0x204>
    2e9c:	687b      	ldr	r3, [r7, #4]
    2e9e:	699b      	ldr	r3, [r3, #24]
    2ea0:	f403 6300 	and.w	r3, r3, #2048	; 0x800
    2ea4:	2b00      	cmp	r3, #0
    2ea6:	d011      	beq.n	2ecc <LPSPI_SlaveTransferHandleIRQ+0x204>
    2ea8:	f44f 6100 	mov.w	r1, #2048	; 0x800
    2eac:	6878      	ldr	r0, [r7, #4]
    2eae:	f003 fa0e 	bl	62ce <LPSPI_ClearStatusFlags>
    2eb2:	683b      	ldr	r3, [r7, #0]
    2eb4:	689b      	ldr	r3, [r3, #8]
    2eb6:	2b00      	cmp	r3, #0
    2eb8:	d003      	beq.n	2ec2 <LPSPI_SlaveTransferHandleIRQ+0x1fa>
    2eba:	683b      	ldr	r3, [r7, #0]
    2ebc:	2202      	movs	r2, #2
    2ebe:	f883 2024 	strb.w	r2, [r3, #36]	; 0x24
    2ec2:	683b      	ldr	r3, [r7, #0]
    2ec4:	6a9b      	ldr	r3, [r3, #40]	; 0x28
    2ec6:	1c5a      	adds	r2, r3, #1
    2ec8:	683b      	ldr	r3, [r7, #0]
    2eca:	629a      	str	r2, [r3, #40]	; 0x28
    2ecc:	6878      	ldr	r0, [r7, #4]
    2ece:	f003 f9c4 	bl	625a <LPSPI_GetStatusFlags>
    2ed2:	4603      	mov	r3, r0
    2ed4:	f403 5380 	and.w	r3, r3, #4096	; 0x1000
    2ed8:	2b00      	cmp	r3, #0
    2eda:	d017      	beq.n	2f0c <LPSPI_SlaveTransferHandleIRQ+0x244>
    2edc:	687b      	ldr	r3, [r7, #4]
    2ede:	699b      	ldr	r3, [r3, #24]
    2ee0:	f403 5380 	and.w	r3, r3, #4096	; 0x1000
    2ee4:	2b00      	cmp	r3, #0
    2ee6:	d011      	beq.n	2f0c <LPSPI_SlaveTransferHandleIRQ+0x244>
    2ee8:	f44f 5180 	mov.w	r1, #4096	; 0x1000
    2eec:	6878      	ldr	r0, [r7, #4]
    2eee:	f003 f9ee 	bl	62ce <LPSPI_ClearStatusFlags>
    2ef2:	683b      	ldr	r3, [r7, #0]
    2ef4:	689b      	ldr	r3, [r3, #8]
    2ef6:	2b00      	cmp	r3, #0
    2ef8:	d003      	beq.n	2f02 <LPSPI_SlaveTransferHandleIRQ+0x23a>
    2efa:	683b      	ldr	r3, [r7, #0]
    2efc:	2202      	movs	r2, #2
    2efe:	f883 2024 	strb.w	r2, [r3, #36]	; 0x24
    2f02:	683b      	ldr	r3, [r7, #0]
    2f04:	6a9b      	ldr	r3, [r3, #40]	; 0x28
    2f06:	1c5a      	adds	r2, r3, #1
    2f08:	683b      	ldr	r3, [r7, #0]
    2f0a:	629a      	str	r2, [r3, #40]	; 0x28
    2f0c:	bf00      	nop
    2f0e:	3710      	adds	r7, #16
    2f10:	46bd      	mov	sp, r7
    2f12:	bd80      	pop	{r7, pc}
    2f14:	00008d84 	.word	0x00008d84

00002f18 <LPSPI_CombineWriteData>:
    2f18:	b580      	push	{r7, lr}
    2f1a:	b086      	sub	sp, #24
    2f1c:	af00      	add	r7, sp, #0
    2f1e:	60f8      	str	r0, [r7, #12]
    2f20:	60b9      	str	r1, [r7, #8]
    2f22:	4613      	mov	r3, r2
    2f24:	71fb      	strb	r3, [r7, #7]
    2f26:	68fb      	ldr	r3, [r7, #12]
    2f28:	2b00      	cmp	r3, #0
    2f2a:	d102      	bne.n	2f32 <LPSPI_CombineWriteData+0x1a>
    2f2c:	4867      	ldr	r0, [pc, #412]	; (30cc <LPSPI_CombineWriteData+0x1b4>)
    2f2e:	f002 f9cf 	bl	52d0 <__assertion_failed>
    2f32:	2300      	movs	r3, #0
    2f34:	617b      	str	r3, [r7, #20]
    2f36:	68bb      	ldr	r3, [r7, #8]
    2f38:	3b01      	subs	r3, #1
    2f3a:	2b03      	cmp	r3, #3
    2f3c:	f200 80be 	bhi.w	30bc <LPSPI_CombineWriteData+0x1a4>
    2f40:	a201      	add	r2, pc, #4	; (adr r2, 2f48 <LPSPI_CombineWriteData+0x30>)
    2f42:	f852 f023 	ldr.w	pc, [r2, r3, lsl #2]
    2f46:	bf00      	nop
    2f48:	00002f59 	.word	0x00002f59
    2f4c:	00002f67 	.word	0x00002f67
    2f50:	00002fb5 	.word	0x00002fb5
    2f54:	00003027 	.word	0x00003027
    2f58:	68fb      	ldr	r3, [r7, #12]
    2f5a:	781b      	ldrb	r3, [r3, #0]
    2f5c:	617b      	str	r3, [r7, #20]
    2f5e:	68fb      	ldr	r3, [r7, #12]
    2f60:	3301      	adds	r3, #1
    2f62:	60fb      	str	r3, [r7, #12]
    2f64:	e0ad      	b.n	30c2 <LPSPI_CombineWriteData+0x1aa>
    2f66:	79fb      	ldrb	r3, [r7, #7]
    2f68:	f083 0301 	eor.w	r3, r3, #1
    2f6c:	b2db      	uxtb	r3, r3
    2f6e:	2b00      	cmp	r3, #0
    2f70:	d00f      	beq.n	2f92 <LPSPI_CombineWriteData+0x7a>
    2f72:	68fb      	ldr	r3, [r7, #12]
    2f74:	781b      	ldrb	r3, [r3, #0]
    2f76:	617b      	str	r3, [r7, #20]
    2f78:	68fb      	ldr	r3, [r7, #12]
    2f7a:	3301      	adds	r3, #1
    2f7c:	60fb      	str	r3, [r7, #12]
    2f7e:	68fb      	ldr	r3, [r7, #12]
    2f80:	781b      	ldrb	r3, [r3, #0]
    2f82:	021b      	lsls	r3, r3, #8
    2f84:	697a      	ldr	r2, [r7, #20]
    2f86:	4313      	orrs	r3, r2
    2f88:	617b      	str	r3, [r7, #20]
    2f8a:	68fb      	ldr	r3, [r7, #12]
    2f8c:	3301      	adds	r3, #1
    2f8e:	60fb      	str	r3, [r7, #12]
    2f90:	e097      	b.n	30c2 <LPSPI_CombineWriteData+0x1aa>
    2f92:	68fb      	ldr	r3, [r7, #12]
    2f94:	781b      	ldrb	r3, [r3, #0]
    2f96:	021b      	lsls	r3, r3, #8
    2f98:	617b      	str	r3, [r7, #20]
    2f9a:	68fb      	ldr	r3, [r7, #12]
    2f9c:	3301      	adds	r3, #1
    2f9e:	60fb      	str	r3, [r7, #12]
    2fa0:	68fb      	ldr	r3, [r7, #12]
    2fa2:	781b      	ldrb	r3, [r3, #0]
    2fa4:	461a      	mov	r2, r3
    2fa6:	697b      	ldr	r3, [r7, #20]
    2fa8:	4313      	orrs	r3, r2
    2faa:	617b      	str	r3, [r7, #20]
    2fac:	68fb      	ldr	r3, [r7, #12]
    2fae:	3301      	adds	r3, #1
    2fb0:	60fb      	str	r3, [r7, #12]
    2fb2:	e086      	b.n	30c2 <LPSPI_CombineWriteData+0x1aa>
    2fb4:	79fb      	ldrb	r3, [r7, #7]
    2fb6:	f083 0301 	eor.w	r3, r3, #1
    2fba:	b2db      	uxtb	r3, r3
    2fbc:	2b00      	cmp	r3, #0
    2fbe:	d018      	beq.n	2ff2 <LPSPI_CombineWriteData+0xda>
    2fc0:	68fb      	ldr	r3, [r7, #12]
    2fc2:	781b      	ldrb	r3, [r3, #0]
    2fc4:	617b      	str	r3, [r7, #20]
    2fc6:	68fb      	ldr	r3, [r7, #12]
    2fc8:	3301      	adds	r3, #1
    2fca:	60fb      	str	r3, [r7, #12]
    2fcc:	68fb      	ldr	r3, [r7, #12]
    2fce:	781b      	ldrb	r3, [r3, #0]
    2fd0:	021b      	lsls	r3, r3, #8
    2fd2:	697a      	ldr	r2, [r7, #20]
    2fd4:	4313      	orrs	r3, r2
    2fd6:	617b      	str	r3, [r7, #20]
    2fd8:	68fb      	ldr	r3, [r7, #12]
    2fda:	3301      	adds	r3, #1
    2fdc:	60fb      	str	r3, [r7, #12]
    2fde:	68fb      	ldr	r3, [r7, #12]
    2fe0:	781b      	ldrb	r3, [r3, #0]
    2fe2:	041b      	lsls	r3, r3, #16
    2fe4:	697a      	ldr	r2, [r7, #20]
    2fe6:	4313      	orrs	r3, r2
    2fe8:	617b      	str	r3, [r7, #20]
    2fea:	68fb      	ldr	r3, [r7, #12]
    2fec:	3301      	adds	r3, #1
    2fee:	60fb      	str	r3, [r7, #12]
    2ff0:	e067      	b.n	30c2 <LPSPI_CombineWriteData+0x1aa>
    2ff2:	68fb      	ldr	r3, [r7, #12]
    2ff4:	781b      	ldrb	r3, [r3, #0]
    2ff6:	041b      	lsls	r3, r3, #16
    2ff8:	617b      	str	r3, [r7, #20]
    2ffa:	68fb      	ldr	r3, [r7, #12]
    2ffc:	3301      	adds	r3, #1
    2ffe:	60fb      	str	r3, [r7, #12]
    3000:	68fb      	ldr	r3, [r7, #12]
    3002:	781b      	ldrb	r3, [r3, #0]
    3004:	021b      	lsls	r3, r3, #8
    3006:	697a      	ldr	r2, [r7, #20]
    3008:	4313      	orrs	r3, r2
    300a:	617b      	str	r3, [r7, #20]
    300c:	68fb      	ldr	r3, [r7, #12]
    300e:	3301      	adds	r3, #1
    3010:	60fb      	str	r3, [r7, #12]
    3012:	68fb      	ldr	r3, [r7, #12]
    3014:	781b      	ldrb	r3, [r3, #0]
    3016:	461a      	mov	r2, r3
    3018:	697b      	ldr	r3, [r7, #20]
    301a:	4313      	orrs	r3, r2
    301c:	617b      	str	r3, [r7, #20]
    301e:	68fb      	ldr	r3, [r7, #12]
    3020:	3301      	adds	r3, #1
    3022:	60fb      	str	r3, [r7, #12]
    3024:	e04d      	b.n	30c2 <LPSPI_CombineWriteData+0x1aa>
    3026:	79fb      	ldrb	r3, [r7, #7]
    3028:	f083 0301 	eor.w	r3, r3, #1
    302c:	b2db      	uxtb	r3, r3
    302e:	2b00      	cmp	r3, #0
    3030:	d021      	beq.n	3076 <LPSPI_CombineWriteData+0x15e>
    3032:	68fb      	ldr	r3, [r7, #12]
    3034:	781b      	ldrb	r3, [r3, #0]
    3036:	617b      	str	r3, [r7, #20]
    3038:	68fb      	ldr	r3, [r7, #12]
    303a:	3301      	adds	r3, #1
    303c:	60fb      	str	r3, [r7, #12]
    303e:	68fb      	ldr	r3, [r7, #12]
    3040:	781b      	ldrb	r3, [r3, #0]
    3042:	021b      	lsls	r3, r3, #8
    3044:	697a      	ldr	r2, [r7, #20]
    3046:	4313      	orrs	r3, r2
    3048:	617b      	str	r3, [r7, #20]
    304a:	68fb      	ldr	r3, [r7, #12]
    304c:	3301      	adds	r3, #1
    304e:	60fb      	str	r3, [r7, #12]
    3050:	68fb      	ldr	r3, [r7, #12]
    3052:	781b      	ldrb	r3, [r3, #0]
    3054:	041b      	lsls	r3, r3, #16
    3056:	697a      	ldr	r2, [r7, #20]
    3058:	4313      	orrs	r3, r2
    305a:	617b      	str	r3, [r7, #20]
    305c:	68fb      	ldr	r3, [r7, #12]
    305e:	3301      	adds	r3, #1
    3060:	60fb      	str	r3, [r7, #12]
    3062:	68fb      	ldr	r3, [r7, #12]
    3064:	781b      	ldrb	r3, [r3, #0]
    3066:	061b      	lsls	r3, r3, #24
    3068:	697a      	ldr	r2, [r7, #20]
    306a:	4313      	orrs	r3, r2
    306c:	617b      	str	r3, [r7, #20]
    306e:	68fb      	ldr	r3, [r7, #12]
    3070:	3301      	adds	r3, #1
    3072:	60fb      	str	r3, [r7, #12]
    3074:	e025      	b.n	30c2 <LPSPI_CombineWriteData+0x1aa>
    3076:	68fb      	ldr	r3, [r7, #12]
    3078:	781b      	ldrb	r3, [r3, #0]
    307a:	061b      	lsls	r3, r3, #24
    307c:	617b      	str	r3, [r7, #20]
    307e:	68fb      	ldr	r3, [r7, #12]
    3080:	3301      	adds	r3, #1
    3082:	60fb      	str	r3, [r7, #12]
    3084:	68fb      	ldr	r3, [r7, #12]
    3086:	781b      	ldrb	r3, [r3, #0]
    3088:	041b      	lsls	r3, r3, #16
    308a:	697a      	ldr	r2, [r7, #20]
    308c:	4313      	orrs	r3, r2
    308e:	617b      	str	r3, [r7, #20]
    3090:	68fb      	ldr	r3, [r7, #12]
    3092:	3301      	adds	r3, #1
    3094:	60fb      	str	r3, [r7, #12]
    3096:	68fb      	ldr	r3, [r7, #12]
    3098:	781b      	ldrb	r3, [r3, #0]
    309a:	021b      	lsls	r3, r3, #8
    309c:	697a      	ldr	r2, [r7, #20]
    309e:	4313      	orrs	r3, r2
    30a0:	617b      	str	r3, [r7, #20]
    30a2:	68fb      	ldr	r3, [r7, #12]
    30a4:	3301      	adds	r3, #1
    30a6:	60fb      	str	r3, [r7, #12]
    30a8:	68fb      	ldr	r3, [r7, #12]
    30aa:	781b      	ldrb	r3, [r3, #0]
    30ac:	461a      	mov	r2, r3
    30ae:	697b      	ldr	r3, [r7, #20]
    30b0:	4313      	orrs	r3, r2
    30b2:	617b      	str	r3, [r7, #20]
    30b4:	68fb      	ldr	r3, [r7, #12]
    30b6:	3301      	adds	r3, #1
    30b8:	60fb      	str	r3, [r7, #12]
    30ba:	e002      	b.n	30c2 <LPSPI_CombineWriteData+0x1aa>
    30bc:	4804      	ldr	r0, [pc, #16]	; (30d0 <LPSPI_CombineWriteData+0x1b8>)
    30be:	f002 f907 	bl	52d0 <__assertion_failed>
    30c2:	697b      	ldr	r3, [r7, #20]
    30c4:	4618      	mov	r0, r3
    30c6:	3718      	adds	r7, #24
    30c8:	46bd      	mov	sp, r7
    30ca:	bd80      	pop	{r7, pc}
    30cc:	00008dac 	.word	0x00008dac
    30d0:	00008dd4 	.word	0x00008dd4

000030d4 <LPSPI_SeparateReadData>:
    30d4:	b580      	push	{r7, lr}
    30d6:	b084      	sub	sp, #16
    30d8:	af00      	add	r7, sp, #0
    30da:	60f8      	str	r0, [r7, #12]
    30dc:	60b9      	str	r1, [r7, #8]
    30de:	607a      	str	r2, [r7, #4]
    30e0:	70fb      	strb	r3, [r7, #3]
    30e2:	68fb      	ldr	r3, [r7, #12]
    30e4:	2b00      	cmp	r3, #0
    30e6:	d102      	bne.n	30ee <LPSPI_SeparateReadData+0x1a>
    30e8:	4862      	ldr	r0, [pc, #392]	; (3274 <LPSPI_SeparateReadData+0x1a0>)
    30ea:	f002 f8f1 	bl	52d0 <__assertion_failed>
    30ee:	687b      	ldr	r3, [r7, #4]
    30f0:	3b01      	subs	r3, #1
    30f2:	2b03      	cmp	r3, #3
    30f4:	f200 80b6 	bhi.w	3264 <LPSPI_SeparateReadData+0x190>
    30f8:	a201      	add	r2, pc, #4	; (adr r2, 3100 <LPSPI_SeparateReadData+0x2c>)
    30fa:	f852 f023 	ldr.w	pc, [r2, r3, lsl #2]
    30fe:	bf00      	nop
    3100:	00003111 	.word	0x00003111
    3104:	00003121 	.word	0x00003121
    3108:	0000316d 	.word	0x0000316d
    310c:	000031d9 	.word	0x000031d9
    3110:	68bb      	ldr	r3, [r7, #8]
    3112:	b2da      	uxtb	r2, r3
    3114:	68fb      	ldr	r3, [r7, #12]
    3116:	701a      	strb	r2, [r3, #0]
    3118:	68fb      	ldr	r3, [r7, #12]
    311a:	3301      	adds	r3, #1
    311c:	60fb      	str	r3, [r7, #12]
    311e:	e0a4      	b.n	326a <LPSPI_SeparateReadData+0x196>
    3120:	78fb      	ldrb	r3, [r7, #3]
    3122:	f083 0301 	eor.w	r3, r3, #1
    3126:	b2db      	uxtb	r3, r3
    3128:	2b00      	cmp	r3, #0
    312a:	d00f      	beq.n	314c <LPSPI_SeparateReadData+0x78>
    312c:	68bb      	ldr	r3, [r7, #8]
    312e:	b2da      	uxtb	r2, r3
    3130:	68fb      	ldr	r3, [r7, #12]
    3132:	701a      	strb	r2, [r3, #0]
    3134:	68fb      	ldr	r3, [r7, #12]
    3136:	3301      	adds	r3, #1
    3138:	60fb      	str	r3, [r7, #12]
    313a:	68bb      	ldr	r3, [r7, #8]
    313c:	0a1b      	lsrs	r3, r3, #8
    313e:	b2da      	uxtb	r2, r3
    3140:	68fb      	ldr	r3, [r7, #12]
    3142:	701a      	strb	r2, [r3, #0]
    3144:	68fb      	ldr	r3, [r7, #12]
    3146:	3301      	adds	r3, #1
    3148:	60fb      	str	r3, [r7, #12]
    314a:	e08e      	b.n	326a <LPSPI_SeparateReadData+0x196>
    314c:	68bb      	ldr	r3, [r7, #8]
    314e:	0a1b      	lsrs	r3, r3, #8
    3150:	b2da      	uxtb	r2, r3
    3152:	68fb      	ldr	r3, [r7, #12]
    3154:	701a      	strb	r2, [r3, #0]
    3156:	68fb      	ldr	r3, [r7, #12]
    3158:	3301      	adds	r3, #1
    315a:	60fb      	str	r3, [r7, #12]
    315c:	68bb      	ldr	r3, [r7, #8]
    315e:	b2da      	uxtb	r2, r3
    3160:	68fb      	ldr	r3, [r7, #12]
    3162:	701a      	strb	r2, [r3, #0]
    3164:	68fb      	ldr	r3, [r7, #12]
    3166:	3301      	adds	r3, #1
    3168:	60fb      	str	r3, [r7, #12]
    316a:	e07e      	b.n	326a <LPSPI_SeparateReadData+0x196>
    316c:	78fb      	ldrb	r3, [r7, #3]
    316e:	f083 0301 	eor.w	r3, r3, #1
    3172:	b2db      	uxtb	r3, r3
    3174:	2b00      	cmp	r3, #0
    3176:	d017      	beq.n	31a8 <LPSPI_SeparateReadData+0xd4>
    3178:	68bb      	ldr	r3, [r7, #8]
    317a:	b2da      	uxtb	r2, r3
    317c:	68fb      	ldr	r3, [r7, #12]
    317e:	701a      	strb	r2, [r3, #0]
    3180:	68fb      	ldr	r3, [r7, #12]
    3182:	3301      	adds	r3, #1
    3184:	60fb      	str	r3, [r7, #12]
    3186:	68bb      	ldr	r3, [r7, #8]
    3188:	0a1b      	lsrs	r3, r3, #8
    318a:	b2da      	uxtb	r2, r3
    318c:	68fb      	ldr	r3, [r7, #12]
    318e:	701a      	strb	r2, [r3, #0]
    3190:	68fb      	ldr	r3, [r7, #12]
    3192:	3301      	adds	r3, #1
    3194:	60fb      	str	r3, [r7, #12]
    3196:	68bb      	ldr	r3, [r7, #8]
    3198:	0c1b      	lsrs	r3, r3, #16
    319a:	b2da      	uxtb	r2, r3
    319c:	68fb      	ldr	r3, [r7, #12]
    319e:	701a      	strb	r2, [r3, #0]
    31a0:	68fb      	ldr	r3, [r7, #12]
    31a2:	3301      	adds	r3, #1
    31a4:	60fb      	str	r3, [r7, #12]
    31a6:	e060      	b.n	326a <LPSPI_SeparateReadData+0x196>
    31a8:	68bb      	ldr	r3, [r7, #8]
    31aa:	0c1b      	lsrs	r3, r3, #16
    31ac:	b2da      	uxtb	r2, r3
    31ae:	68fb      	ldr	r3, [r7, #12]
    31b0:	701a      	strb	r2, [r3, #0]
    31b2:	68fb      	ldr	r3, [r7, #12]
    31b4:	3301      	adds	r3, #1
    31b6:	60fb      	str	r3, [r7, #12]
    31b8:	68bb      	ldr	r3, [r7, #8]
    31ba:	0a1b      	lsrs	r3, r3, #8
    31bc:	b2da      	uxtb	r2, r3
    31be:	68fb      	ldr	r3, [r7, #12]
    31c0:	701a      	strb	r2, [r3, #0]
    31c2:	68fb      	ldr	r3, [r7, #12]
    31c4:	3301      	adds	r3, #1
    31c6:	60fb      	str	r3, [r7, #12]
    31c8:	68bb      	ldr	r3, [r7, #8]
    31ca:	b2da      	uxtb	r2, r3
    31cc:	68fb      	ldr	r3, [r7, #12]
    31ce:	701a      	strb	r2, [r3, #0]
    31d0:	68fb      	ldr	r3, [r7, #12]
    31d2:	3301      	adds	r3, #1
    31d4:	60fb      	str	r3, [r7, #12]
    31d6:	e048      	b.n	326a <LPSPI_SeparateReadData+0x196>
    31d8:	78fb      	ldrb	r3, [r7, #3]
    31da:	f083 0301 	eor.w	r3, r3, #1
    31de:	b2db      	uxtb	r3, r3
    31e0:	2b00      	cmp	r3, #0
    31e2:	d01f      	beq.n	3224 <LPSPI_SeparateReadData+0x150>
    31e4:	68bb      	ldr	r3, [r7, #8]
    31e6:	b2da      	uxtb	r2, r3
    31e8:	68fb      	ldr	r3, [r7, #12]
    31ea:	701a      	strb	r2, [r3, #0]
    31ec:	68fb      	ldr	r3, [r7, #12]
    31ee:	3301      	adds	r3, #1
    31f0:	60fb      	str	r3, [r7, #12]
    31f2:	68bb      	ldr	r3, [r7, #8]
    31f4:	0a1b      	lsrs	r3, r3, #8
    31f6:	b2da      	uxtb	r2, r3
    31f8:	68fb      	ldr	r3, [r7, #12]
    31fa:	701a      	strb	r2, [r3, #0]
    31fc:	68fb      	ldr	r3, [r7, #12]
    31fe:	3301      	adds	r3, #1
    3200:	60fb      	str	r3, [r7, #12]
    3202:	68bb      	ldr	r3, [r7, #8]
    3204:	0c1b      	lsrs	r3, r3, #16
    3206:	b2da      	uxtb	r2, r3
    3208:	68fb      	ldr	r3, [r7, #12]
    320a:	701a      	strb	r2, [r3, #0]
    320c:	68fb      	ldr	r3, [r7, #12]
    320e:	3301      	adds	r3, #1
    3210:	60fb      	str	r3, [r7, #12]
    3212:	68bb      	ldr	r3, [r7, #8]
    3214:	0e1b      	lsrs	r3, r3, #24
    3216:	b2da      	uxtb	r2, r3
    3218:	68fb      	ldr	r3, [r7, #12]
    321a:	701a      	strb	r2, [r3, #0]
    321c:	68fb      	ldr	r3, [r7, #12]
    321e:	3301      	adds	r3, #1
    3220:	60fb      	str	r3, [r7, #12]
    3222:	e022      	b.n	326a <LPSPI_SeparateReadData+0x196>
    3224:	68bb      	ldr	r3, [r7, #8]
    3226:	0e1b      	lsrs	r3, r3, #24
    3228:	b2da      	uxtb	r2, r3
    322a:	68fb      	ldr	r3, [r7, #12]
    322c:	701a      	strb	r2, [r3, #0]
    322e:	68fb      	ldr	r3, [r7, #12]
    3230:	3301      	adds	r3, #1
    3232:	60fb      	str	r3, [r7, #12]
    3234:	68bb      	ldr	r3, [r7, #8]
    3236:	0c1b      	lsrs	r3, r3, #16
    3238:	b2da      	uxtb	r2, r3
    323a:	68fb      	ldr	r3, [r7, #12]
    323c:	701a      	strb	r2, [r3, #0]
    323e:	68fb      	ldr	r3, [r7, #12]
    3240:	3301      	adds	r3, #1
    3242:	60fb      	str	r3, [r7, #12]
    3244:	68bb      	ldr	r3, [r7, #8]
    3246:	0a1b      	lsrs	r3, r3, #8
    3248:	b2da      	uxtb	r2, r3
    324a:	68fb      	ldr	r3, [r7, #12]
    324c:	701a      	strb	r2, [r3, #0]
    324e:	68fb      	ldr	r3, [r7, #12]
    3250:	3301      	adds	r3, #1
    3252:	60fb      	str	r3, [r7, #12]
    3254:	68bb      	ldr	r3, [r7, #8]
    3256:	b2da      	uxtb	r2, r3
    3258:	68fb      	ldr	r3, [r7, #12]
    325a:	701a      	strb	r2, [r3, #0]
    325c:	68fb      	ldr	r3, [r7, #12]
    325e:	3301      	adds	r3, #1
    3260:	60fb      	str	r3, [r7, #12]
    3262:	e002      	b.n	326a <LPSPI_SeparateReadData+0x196>
    3264:	4804      	ldr	r0, [pc, #16]	; (3278 <LPSPI_SeparateReadData+0x1a4>)
    3266:	f002 f833 	bl	52d0 <__assertion_failed>
    326a:	bf00      	nop
    326c:	3710      	adds	r7, #16
    326e:	46bd      	mov	sp, r7
    3270:	bd80      	pop	{r7, pc}
    3272:	bf00      	nop
    3274:	00008df8 	.word	0x00008df8
    3278:	00008e20 	.word	0x00008e20

0000327c <LPSPI_CommonIRQHandler>:
    327c:	b580      	push	{r7, lr}
    327e:	b082      	sub	sp, #8
    3280:	af00      	add	r7, sp, #0
    3282:	6078      	str	r0, [r7, #4]
    3284:	6039      	str	r1, [r7, #0]
    3286:	6878      	ldr	r0, [r7, #4]
    3288:	f003 f868 	bl	635c <LPSPI_IsMaster>
    328c:	4603      	mov	r3, r0
    328e:	2b00      	cmp	r3, #0
    3290:	d005      	beq.n	329e <LPSPI_CommonIRQHandler+0x22>
    3292:	4b07      	ldr	r3, [pc, #28]	; (32b0 <LPSPI_CommonIRQHandler+0x34>)
    3294:	681b      	ldr	r3, [r3, #0]
    3296:	6839      	ldr	r1, [r7, #0]
    3298:	6878      	ldr	r0, [r7, #4]
    329a:	4798      	blx	r3
    329c:	e004      	b.n	32a8 <LPSPI_CommonIRQHandler+0x2c>
    329e:	4b05      	ldr	r3, [pc, #20]	; (32b4 <LPSPI_CommonIRQHandler+0x38>)
    32a0:	681b      	ldr	r3, [r3, #0]
    32a2:	6839      	ldr	r1, [r7, #0]
    32a4:	6878      	ldr	r0, [r7, #4]
    32a6:	4798      	blx	r3
    32a8:	bf00      	nop
    32aa:	3708      	adds	r7, #8
    32ac:	46bd      	mov	sp, r7
    32ae:	bd80      	pop	{r7, pc}
    32b0:	200000dc 	.word	0x200000dc
    32b4:	200000e0 	.word	0x200000e0

000032b8 <LPSPI1_DriverIRQHandler>:
    32b8:	b580      	push	{r7, lr}
    32ba:	af00      	add	r7, sp, #0
    32bc:	4b07      	ldr	r3, [pc, #28]	; (32dc <LPSPI1_DriverIRQHandler+0x24>)
    32be:	685b      	ldr	r3, [r3, #4]
    32c0:	2b00      	cmp	r3, #0
    32c2:	d102      	bne.n	32ca <LPSPI1_DriverIRQHandler+0x12>
    32c4:	4806      	ldr	r0, [pc, #24]	; (32e0 <LPSPI1_DriverIRQHandler+0x28>)
    32c6:	f002 f803 	bl	52d0 <__assertion_failed>
    32ca:	4b04      	ldr	r3, [pc, #16]	; (32dc <LPSPI1_DriverIRQHandler+0x24>)
    32cc:	685b      	ldr	r3, [r3, #4]
    32ce:	4619      	mov	r1, r3
    32d0:	4804      	ldr	r0, [pc, #16]	; (32e4 <LPSPI1_DriverIRQHandler+0x2c>)
    32d2:	f7ff ffd3 	bl	327c <LPSPI_CommonIRQHandler>
    32d6:	bf00      	nop
    32d8:	bd80      	pop	{r7, pc}
    32da:	bf00      	nop
    32dc:	200000c8 	.word	0x200000c8
    32e0:	00008e44 	.word	0x00008e44
    32e4:	40394000 	.word	0x40394000

000032e8 <LPSPI2_DriverIRQHandler>:
    32e8:	b580      	push	{r7, lr}
    32ea:	af00      	add	r7, sp, #0
    32ec:	4b07      	ldr	r3, [pc, #28]	; (330c <LPSPI2_DriverIRQHandler+0x24>)
    32ee:	689b      	ldr	r3, [r3, #8]
    32f0:	2b00      	cmp	r3, #0
    32f2:	d102      	bne.n	32fa <LPSPI2_DriverIRQHandler+0x12>
    32f4:	4806      	ldr	r0, [pc, #24]	; (3310 <LPSPI2_DriverIRQHandler+0x28>)
    32f6:	f001 ffeb 	bl	52d0 <__assertion_failed>
    32fa:	4b04      	ldr	r3, [pc, #16]	; (330c <LPSPI2_DriverIRQHandler+0x24>)
    32fc:	689b      	ldr	r3, [r3, #8]
    32fe:	4619      	mov	r1, r3
    3300:	4804      	ldr	r0, [pc, #16]	; (3314 <LPSPI2_DriverIRQHandler+0x2c>)
    3302:	f7ff ffbb 	bl	327c <LPSPI_CommonIRQHandler>
    3306:	bf00      	nop
    3308:	bd80      	pop	{r7, pc}
    330a:	bf00      	nop
    330c:	200000c8 	.word	0x200000c8
    3310:	00008e74 	.word	0x00008e74
    3314:	40398000 	.word	0x40398000

00003318 <LPSPI3_DriverIRQHandler>:
    3318:	b580      	push	{r7, lr}
    331a:	af00      	add	r7, sp, #0
    331c:	4b07      	ldr	r3, [pc, #28]	; (333c <LPSPI3_DriverIRQHandler+0x24>)
    331e:	68db      	ldr	r3, [r3, #12]
    3320:	2b00      	cmp	r3, #0
    3322:	d102      	bne.n	332a <LPSPI3_DriverIRQHandler+0x12>
    3324:	4806      	ldr	r0, [pc, #24]	; (3340 <LPSPI3_DriverIRQHandler+0x28>)
    3326:	f001 ffd3 	bl	52d0 <__assertion_failed>
    332a:	4b04      	ldr	r3, [pc, #16]	; (333c <LPSPI3_DriverIRQHandler+0x24>)
    332c:	68db      	ldr	r3, [r3, #12]
    332e:	4619      	mov	r1, r3
    3330:	4804      	ldr	r0, [pc, #16]	; (3344 <LPSPI3_DriverIRQHandler+0x2c>)
    3332:	f7ff ffa3 	bl	327c <LPSPI_CommonIRQHandler>
    3336:	bf00      	nop
    3338:	bd80      	pop	{r7, pc}
    333a:	bf00      	nop
    333c:	200000c8 	.word	0x200000c8
    3340:	00008ea4 	.word	0x00008ea4
    3344:	4039c000 	.word	0x4039c000

00003348 <LPSPI4_DriverIRQHandler>:
    3348:	b580      	push	{r7, lr}
    334a:	af00      	add	r7, sp, #0
    334c:	4b07      	ldr	r3, [pc, #28]	; (336c <LPSPI4_DriverIRQHandler+0x24>)
    334e:	691b      	ldr	r3, [r3, #16]
    3350:	2b00      	cmp	r3, #0
    3352:	d102      	bne.n	335a <LPSPI4_DriverIRQHandler+0x12>
    3354:	4806      	ldr	r0, [pc, #24]	; (3370 <LPSPI4_DriverIRQHandler+0x28>)
    3356:	f001 ffbb 	bl	52d0 <__assertion_failed>
    335a:	4b04      	ldr	r3, [pc, #16]	; (336c <LPSPI4_DriverIRQHandler+0x24>)
    335c:	691b      	ldr	r3, [r3, #16]
    335e:	4619      	mov	r1, r3
    3360:	4804      	ldr	r0, [pc, #16]	; (3374 <LPSPI4_DriverIRQHandler+0x2c>)
    3362:	f7ff ff8b 	bl	327c <LPSPI_CommonIRQHandler>
    3366:	bf00      	nop
    3368:	bd80      	pop	{r7, pc}
    336a:	bf00      	nop
    336c:	200000c8 	.word	0x200000c8
    3370:	00008ed4 	.word	0x00008ed4
    3374:	403a0000 	.word	0x403a0000

00003378 <CLOCK_ControlGate>:
    3378:	b580      	push	{r7, lr}
    337a:	b086      	sub	sp, #24
    337c:	af00      	add	r7, sp, #0
    337e:	4603      	mov	r3, r0
    3380:	460a      	mov	r2, r1
    3382:	80fb      	strh	r3, [r7, #6]
    3384:	4613      	mov	r3, r2
    3386:	717b      	strb	r3, [r7, #5]
    3388:	f9b7 3006 	ldrsh.w	r3, [r7, #6]
    338c:	0a1b      	lsrs	r3, r3, #8
    338e:	617b      	str	r3, [r7, #20]
    3390:	88fb      	ldrh	r3, [r7, #6]
    3392:	f003 031f 	and.w	r3, r3, #31
    3396:	613b      	str	r3, [r7, #16]
    3398:	697b      	ldr	r3, [r7, #20]
    339a:	2b07      	cmp	r3, #7
    339c:	d902      	bls.n	33a4 <CLOCK_ControlGate+0x2c>
    339e:	480d      	ldr	r0, [pc, #52]	; (33d4 <CLOCK_ControlGate+0x5c>)
    33a0:	f001 ff96 	bl	52d0 <__assertion_failed>
    33a4:	697b      	ldr	r3, [r7, #20]
    33a6:	009a      	lsls	r2, r3, #2
    33a8:	4b0b      	ldr	r3, [pc, #44]	; (33d8 <CLOCK_ControlGate+0x60>)
    33aa:	4413      	add	r3, r2
    33ac:	60fb      	str	r3, [r7, #12]
    33ae:	68fb      	ldr	r3, [r7, #12]
    33b0:	681a      	ldr	r2, [r3, #0]
    33b2:	2103      	movs	r1, #3
    33b4:	693b      	ldr	r3, [r7, #16]
    33b6:	fa01 f303 	lsl.w	r3, r1, r3
    33ba:	43db      	mvns	r3, r3
    33bc:	401a      	ands	r2, r3
    33be:	7979      	ldrb	r1, [r7, #5]
    33c0:	693b      	ldr	r3, [r7, #16]
    33c2:	fa01 f303 	lsl.w	r3, r1, r3
    33c6:	431a      	orrs	r2, r3
    33c8:	68fb      	ldr	r3, [r7, #12]
    33ca:	601a      	str	r2, [r3, #0]
    33cc:	bf00      	nop
    33ce:	3718      	adds	r7, #24
    33d0:	46bd      	mov	sp, r7
    33d2:	bd80      	pop	{r7, pc}
    33d4:	00008f38 	.word	0x00008f38
    33d8:	400fc068 	.word	0x400fc068

000033dc <LPSPIx_GetVersion>:
    33dc:	b480      	push	{r7}
    33de:	b083      	sub	sp, #12
    33e0:	af00      	add	r7, sp, #0
    33e2:	4b08      	ldr	r3, [pc, #32]	; (3404 <LPSPIx_GetVersion+0x28>)
    33e4:	681b      	ldr	r3, [r3, #0]
    33e6:	607b      	str	r3, [r7, #4]
    33e8:	2300      	movs	r3, #0
    33ea:	88ba      	ldrh	r2, [r7, #4]
    33ec:	f362 030f 	bfi	r3, r2, #0, #16
    33f0:	88fa      	ldrh	r2, [r7, #6]
    33f2:	f362 431f 	bfi	r3, r2, #16, #16
    33f6:	4618      	mov	r0, r3
    33f8:	370c      	adds	r7, #12
    33fa:	46bd      	mov	sp, r7
    33fc:	f85d 7b04 	ldr.w	r7, [sp], #4
    3400:	4770      	bx	lr
    3402:	bf00      	nop
    3404:	00008f70 	.word	0x00008f70

00003408 <LPSPI_InterruptPowerControl>:
    3408:	b580      	push	{r7, lr}
    340a:	b082      	sub	sp, #8
    340c:	af00      	add	r7, sp, #0
    340e:	4603      	mov	r3, r0
    3410:	6039      	str	r1, [r7, #0]
    3412:	71fb      	strb	r3, [r7, #7]
    3414:	79fb      	ldrb	r3, [r7, #7]
    3416:	2b01      	cmp	r3, #1
    3418:	d013      	beq.n	3442 <LPSPI_InterruptPowerControl+0x3a>
    341a:	2b02      	cmp	r3, #2
    341c:	d014      	beq.n	3448 <LPSPI_InterruptPowerControl+0x40>
    341e:	2b00      	cmp	r3, #0
    3420:	d130      	bne.n	3484 <LPSPI_InterruptPowerControl+0x7c>
    3422:	683b      	ldr	r3, [r7, #0]
    3424:	7c1b      	ldrb	r3, [r3, #16]
    3426:	f003 0302 	and.w	r3, r3, #2
    342a:	2b00      	cmp	r3, #0
    342c:	d02d      	beq.n	348a <LPSPI_InterruptPowerControl+0x82>
    342e:	683b      	ldr	r3, [r7, #0]
    3430:	681b      	ldr	r3, [r3, #0]
    3432:	681b      	ldr	r3, [r3, #0]
    3434:	4618      	mov	r0, r3
    3436:	f7fe fdb3 	bl	1fa0 <LPSPI_Deinit>
    343a:	683b      	ldr	r3, [r7, #0]
    343c:	2201      	movs	r2, #1
    343e:	741a      	strb	r2, [r3, #16]
    3440:	e023      	b.n	348a <LPSPI_InterruptPowerControl+0x82>
    3442:	f06f 0303 	mvn.w	r3, #3
    3446:	e024      	b.n	3492 <LPSPI_InterruptPowerControl+0x8a>
    3448:	683b      	ldr	r3, [r7, #0]
    344a:	7c1b      	ldrb	r3, [r3, #16]
    344c:	2b00      	cmp	r3, #0
    344e:	d102      	bne.n	3456 <LPSPI_InterruptPowerControl+0x4e>
    3450:	f04f 33ff 	mov.w	r3, #4294967295
    3454:	e01d      	b.n	3492 <LPSPI_InterruptPowerControl+0x8a>
    3456:	683b      	ldr	r3, [r7, #0]
    3458:	7c1b      	ldrb	r3, [r3, #16]
    345a:	f003 0302 	and.w	r3, r3, #2
    345e:	2b00      	cmp	r3, #0
    3460:	d115      	bne.n	348e <LPSPI_InterruptPowerControl+0x86>
    3462:	683b      	ldr	r3, [r7, #0]
    3464:	681b      	ldr	r3, [r3, #0]
    3466:	685b      	ldr	r3, [r3, #4]
    3468:	4a0c      	ldr	r2, [pc, #48]	; (349c <LPSPI_InterruptPowerControl+0x94>)
    346a:	f932 3013 	ldrsh.w	r3, [r2, r3, lsl #1]
    346e:	4618      	mov	r0, r3
    3470:	f003 f80a 	bl	6488 <CLOCK_EnableClock>
    3474:	683b      	ldr	r3, [r7, #0]
    3476:	7c1b      	ldrb	r3, [r3, #16]
    3478:	f043 0302 	orr.w	r3, r3, #2
    347c:	b2da      	uxtb	r2, r3
    347e:	683b      	ldr	r3, [r7, #0]
    3480:	741a      	strb	r2, [r3, #16]
    3482:	e005      	b.n	3490 <LPSPI_InterruptPowerControl+0x88>
    3484:	f06f 0303 	mvn.w	r3, #3
    3488:	e003      	b.n	3492 <LPSPI_InterruptPowerControl+0x8a>
    348a:	bf00      	nop
    348c:	e000      	b.n	3490 <LPSPI_InterruptPowerControl+0x88>
    348e:	bf00      	nop
    3490:	2300      	movs	r3, #0
    3492:	4618      	mov	r0, r3
    3494:	3708      	adds	r7, #8
    3496:	46bd      	mov	sp, r7
    3498:	bd80      	pop	{r7, pc}
    349a:	bf00      	nop
    349c:	00008f64 	.word	0x00008f64

000034a0 <LPSPI_InterruptControl>:
    34a0:	b590      	push	{r4, r7, lr}
    34a2:	b087      	sub	sp, #28
    34a4:	af00      	add	r7, sp, #0
    34a6:	60f8      	str	r0, [r7, #12]
    34a8:	60b9      	str	r1, [r7, #8]
    34aa:	607a      	str	r2, [r7, #4]
    34ac:	687b      	ldr	r3, [r7, #4]
    34ae:	7c1b      	ldrb	r3, [r3, #16]
    34b0:	f003 0302 	and.w	r3, r3, #2
    34b4:	2b00      	cmp	r3, #0
    34b6:	d102      	bne.n	34be <LPSPI_InterruptControl+0x1e>
    34b8:	f04f 33ff 	mov.w	r3, #4294967295
    34bc:	e11a      	b.n	36f4 <LPSPI_InterruptControl+0x254>
    34be:	68fb      	ldr	r3, [r7, #12]
    34c0:	b2db      	uxtb	r3, r3
    34c2:	2b14      	cmp	r3, #20
    34c4:	f200 810b 	bhi.w	36de <LPSPI_InterruptControl+0x23e>
    34c8:	a201      	add	r2, pc, #4	; (adr r2, 34d0 <LPSPI_InterruptControl+0x30>)
    34ca:	f852 f023 	ldr.w	pc, [r2, r3, lsl #2]
    34ce:	bf00      	nop
    34d0:	00003525 	.word	0x00003525
    34d4:	00003537 	.word	0x00003537
    34d8:	00003563 	.word	0x00003563
    34dc:	0000368d 	.word	0x0000368d
    34e0:	000036b9 	.word	0x000036b9
    34e4:	000036df 	.word	0x000036df
    34e8:	000036df 	.word	0x000036df
    34ec:	000036df 	.word	0x000036df
    34f0:	000036df 	.word	0x000036df
    34f4:	000036df 	.word	0x000036df
    34f8:	000036df 	.word	0x000036df
    34fc:	000036df 	.word	0x000036df
    3500:	000036df 	.word	0x000036df
    3504:	000036df 	.word	0x000036df
    3508:	000036df 	.word	0x000036df
    350c:	000036df 	.word	0x000036df
    3510:	00003589 	.word	0x00003589
    3514:	000035f9 	.word	0x000035f9
    3518:	0000365f 	.word	0x0000365f
    351c:	0000361d 	.word	0x0000361d
    3520:	00003623 	.word	0x00003623
    3524:	687b      	ldr	r3, [r7, #4]
    3526:	681b      	ldr	r3, [r3, #0]
    3528:	681b      	ldr	r3, [r3, #0]
    352a:	2100      	movs	r1, #0
    352c:	4618      	mov	r0, r3
    352e:	f002 ffba 	bl	64a6 <LPSPI_Enable>
    3532:	2300      	movs	r3, #0
    3534:	e0de      	b.n	36f4 <LPSPI_InterruptControl+0x254>
    3536:	687b      	ldr	r3, [r7, #4]
    3538:	681b      	ldr	r3, [r3, #0]
    353a:	681b      	ldr	r3, [r3, #0]
    353c:	2101      	movs	r1, #1
    353e:	4618      	mov	r0, r3
    3540:	f002 ffcd 	bl	64de <LPSPI_SetMasterSlaveMode>
    3544:	687b      	ldr	r3, [r7, #4]
    3546:	681b      	ldr	r3, [r3, #0]
    3548:	6818      	ldr	r0, [r3, #0]
    354a:	687b      	ldr	r3, [r7, #4]
    354c:	685b      	ldr	r3, [r3, #4]
    354e:	4619      	mov	r1, r3
    3550:	687b      	ldr	r3, [r7, #4]
    3552:	689b      	ldr	r3, [r3, #8]
    3554:	4a69      	ldr	r2, [pc, #420]	; (36fc <LPSPI_InterruptControl+0x25c>)
    3556:	f7fe fdeb 	bl	2130 <LPSPI_MasterTransferCreateHandle>
    355a:	687b      	ldr	r3, [r7, #4]
    355c:	68ba      	ldr	r2, [r7, #8]
    355e:	60da      	str	r2, [r3, #12]
    3560:	e0be      	b.n	36e0 <LPSPI_InterruptControl+0x240>
    3562:	687b      	ldr	r3, [r7, #4]
    3564:	681b      	ldr	r3, [r3, #0]
    3566:	681b      	ldr	r3, [r3, #0]
    3568:	2100      	movs	r1, #0
    356a:	4618      	mov	r0, r3
    356c:	f002 ffb7 	bl	64de <LPSPI_SetMasterSlaveMode>
    3570:	687b      	ldr	r3, [r7, #4]
    3572:	681b      	ldr	r3, [r3, #0]
    3574:	6818      	ldr	r0, [r3, #0]
    3576:	687b      	ldr	r3, [r7, #4]
    3578:	685b      	ldr	r3, [r3, #4]
    357a:	4619      	mov	r1, r3
    357c:	687b      	ldr	r3, [r7, #4]
    357e:	689b      	ldr	r3, [r3, #8]
    3580:	4a5f      	ldr	r2, [pc, #380]	; (3700 <LPSPI_InterruptControl+0x260>)
    3582:	f7ff f963 	bl	284c <LPSPI_SlaveTransferCreateHandle>
    3586:	e0ab      	b.n	36e0 <LPSPI_InterruptControl+0x240>
    3588:	2300      	movs	r3, #0
    358a:	617b      	str	r3, [r7, #20]
    358c:	687b      	ldr	r3, [r7, #4]
    358e:	681b      	ldr	r3, [r3, #0]
    3590:	681b      	ldr	r3, [r3, #0]
    3592:	2100      	movs	r1, #0
    3594:	4618      	mov	r0, r3
    3596:	f002 ff86 	bl	64a6 <LPSPI_Enable>
    359a:	687b      	ldr	r3, [r7, #4]
    359c:	681b      	ldr	r3, [r3, #0]
    359e:	681b      	ldr	r3, [r3, #0]
    35a0:	4618      	mov	r0, r3
    35a2:	f002 ffb2 	bl	650a <LPSPI_IsMaster>
    35a6:	4603      	mov	r3, r0
    35a8:	f083 0301 	eor.w	r3, r3, #1
    35ac:	b2db      	uxtb	r3, r3
    35ae:	2b00      	cmp	r3, #0
    35b0:	d002      	beq.n	35b8 <LPSPI_InterruptControl+0x118>
    35b2:	f06f 0303 	mvn.w	r3, #3
    35b6:	e09d      	b.n	36f4 <LPSPI_InterruptControl+0x254>
    35b8:	687b      	ldr	r3, [r7, #4]
    35ba:	681b      	ldr	r3, [r3, #0]
    35bc:	681c      	ldr	r4, [r3, #0]
    35be:	687b      	ldr	r3, [r7, #4]
    35c0:	681b      	ldr	r3, [r3, #0]
    35c2:	689b      	ldr	r3, [r3, #8]
    35c4:	4798      	blx	r3
    35c6:	4602      	mov	r2, r0
    35c8:	f107 0314 	add.w	r3, r7, #20
    35cc:	68b9      	ldr	r1, [r7, #8]
    35ce:	4620      	mov	r0, r4
    35d0:	f7fe fcfe 	bl	1fd0 <LPSPI_MasterSetBaudRate>
    35d4:	4603      	mov	r3, r0
    35d6:	2b00      	cmp	r3, #0
    35d8:	d102      	bne.n	35e0 <LPSPI_InterruptControl+0x140>
    35da:	f04f 33ff 	mov.w	r3, #4294967295
    35de:	e089      	b.n	36f4 <LPSPI_InterruptControl+0x254>
    35e0:	687b      	ldr	r3, [r7, #4]
    35e2:	681b      	ldr	r3, [r3, #0]
    35e4:	681b      	ldr	r3, [r3, #0]
    35e6:	2101      	movs	r1, #1
    35e8:	4618      	mov	r0, r3
    35ea:	f002 ff5c 	bl	64a6 <LPSPI_Enable>
    35ee:	687b      	ldr	r3, [r7, #4]
    35f0:	68ba      	ldr	r2, [r7, #8]
    35f2:	60da      	str	r2, [r3, #12]
    35f4:	2300      	movs	r3, #0
    35f6:	e07d      	b.n	36f4 <LPSPI_InterruptControl+0x254>
    35f8:	687b      	ldr	r3, [r7, #4]
    35fa:	681b      	ldr	r3, [r3, #0]
    35fc:	681b      	ldr	r3, [r3, #0]
    35fe:	4618      	mov	r0, r3
    3600:	f002 ff83 	bl	650a <LPSPI_IsMaster>
    3604:	4603      	mov	r3, r0
    3606:	f083 0301 	eor.w	r3, r3, #1
    360a:	b2db      	uxtb	r3, r3
    360c:	2b00      	cmp	r3, #0
    360e:	d002      	beq.n	3616 <LPSPI_InterruptControl+0x176>
    3610:	f06f 0303 	mvn.w	r3, #3
    3614:	e06e      	b.n	36f4 <LPSPI_InterruptControl+0x254>
    3616:	687b      	ldr	r3, [r7, #4]
    3618:	68db      	ldr	r3, [r3, #12]
    361a:	e06b      	b.n	36f4 <LPSPI_InterruptControl+0x254>
    361c:	f06f 0303 	mvn.w	r3, #3
    3620:	e068      	b.n	36f4 <LPSPI_InterruptControl+0x254>
    3622:	687b      	ldr	r3, [r7, #4]
    3624:	681b      	ldr	r3, [r3, #0]
    3626:	681b      	ldr	r3, [r3, #0]
    3628:	4618      	mov	r0, r3
    362a:	f002 ff6e 	bl	650a <LPSPI_IsMaster>
    362e:	4603      	mov	r3, r0
    3630:	2b00      	cmp	r3, #0
    3632:	d009      	beq.n	3648 <LPSPI_InterruptControl+0x1a8>
    3634:	687b      	ldr	r3, [r7, #4]
    3636:	681b      	ldr	r3, [r3, #0]
    3638:	681a      	ldr	r2, [r3, #0]
    363a:	687b      	ldr	r3, [r7, #4]
    363c:	685b      	ldr	r3, [r3, #4]
    363e:	4619      	mov	r1, r3
    3640:	4610      	mov	r0, r2
    3642:	f7ff f80f 	bl	2664 <LPSPI_MasterTransferAbort>
    3646:	e008      	b.n	365a <LPSPI_InterruptControl+0x1ba>
    3648:	687b      	ldr	r3, [r7, #4]
    364a:	681b      	ldr	r3, [r3, #0]
    364c:	681a      	ldr	r2, [r3, #0]
    364e:	687b      	ldr	r3, [r7, #4]
    3650:	685b      	ldr	r3, [r3, #4]
    3652:	4619      	mov	r1, r3
    3654:	4610      	mov	r0, r2
    3656:	f7ff fb15 	bl	2c84 <LPSPI_SlaveTransferAbort>
    365a:	2300      	movs	r3, #0
    365c:	e04a      	b.n	36f4 <LPSPI_InterruptControl+0x254>
    365e:	687b      	ldr	r3, [r7, #4]
    3660:	681b      	ldr	r3, [r3, #0]
    3662:	681b      	ldr	r3, [r3, #0]
    3664:	4618      	mov	r0, r3
    3666:	f002 ff50 	bl	650a <LPSPI_IsMaster>
    366a:	4603      	mov	r3, r0
    366c:	2b00      	cmp	r3, #0
    366e:	d00a      	beq.n	3686 <LPSPI_InterruptControl+0x1e6>
    3670:	687b      	ldr	r3, [r7, #4]
    3672:	681b      	ldr	r3, [r3, #0]
    3674:	681b      	ldr	r3, [r3, #0]
    3676:	68ba      	ldr	r2, [r7, #8]
    3678:	b2d2      	uxtb	r2, r2
    367a:	4611      	mov	r1, r2
    367c:	4618      	mov	r0, r3
    367e:	f7fe fb11 	bl	1ca4 <LPSPI_SetDummyData>
    3682:	2300      	movs	r3, #0
    3684:	e036      	b.n	36f4 <LPSPI_InterruptControl+0x254>
    3686:	f06f 0303 	mvn.w	r3, #3
    368a:	e033      	b.n	36f4 <LPSPI_InterruptControl+0x254>
    368c:	687b      	ldr	r3, [r7, #4]
    368e:	681b      	ldr	r3, [r3, #0]
    3690:	681b      	ldr	r3, [r3, #0]
    3692:	2101      	movs	r1, #1
    3694:	4618      	mov	r0, r3
    3696:	f002 ff22 	bl	64de <LPSPI_SetMasterSlaveMode>
    369a:	687b      	ldr	r3, [r7, #4]
    369c:	681b      	ldr	r3, [r3, #0]
    369e:	6818      	ldr	r0, [r3, #0]
    36a0:	687b      	ldr	r3, [r7, #4]
    36a2:	685b      	ldr	r3, [r3, #4]
    36a4:	4619      	mov	r1, r3
    36a6:	687b      	ldr	r3, [r7, #4]
    36a8:	689b      	ldr	r3, [r3, #8]
    36aa:	4a14      	ldr	r2, [pc, #80]	; (36fc <LPSPI_InterruptControl+0x25c>)
    36ac:	f7fe fd40 	bl	2130 <LPSPI_MasterTransferCreateHandle>
    36b0:	687b      	ldr	r3, [r7, #4]
    36b2:	68ba      	ldr	r2, [r7, #8]
    36b4:	60da      	str	r2, [r3, #12]
    36b6:	e013      	b.n	36e0 <LPSPI_InterruptControl+0x240>
    36b8:	687b      	ldr	r3, [r7, #4]
    36ba:	681b      	ldr	r3, [r3, #0]
    36bc:	681b      	ldr	r3, [r3, #0]
    36be:	2100      	movs	r1, #0
    36c0:	4618      	mov	r0, r3
    36c2:	f002 ff0c 	bl	64de <LPSPI_SetMasterSlaveMode>
    36c6:	687b      	ldr	r3, [r7, #4]
    36c8:	681b      	ldr	r3, [r3, #0]
    36ca:	6818      	ldr	r0, [r3, #0]
    36cc:	687b      	ldr	r3, [r7, #4]
    36ce:	685b      	ldr	r3, [r3, #4]
    36d0:	4619      	mov	r1, r3
    36d2:	687b      	ldr	r3, [r7, #4]
    36d4:	689b      	ldr	r3, [r3, #8]
    36d6:	4a0a      	ldr	r2, [pc, #40]	; (3700 <LPSPI_InterruptControl+0x260>)
    36d8:	f7ff f8b8 	bl	284c <LPSPI_SlaveTransferCreateHandle>
    36dc:	e000      	b.n	36e0 <LPSPI_InterruptControl+0x240>
    36de:	bf00      	nop
    36e0:	687b      	ldr	r3, [r7, #4]
    36e2:	68d9      	ldr	r1, [r3, #12]
    36e4:	687b      	ldr	r3, [r7, #4]
    36e6:	681a      	ldr	r2, [r3, #0]
    36e8:	687b      	ldr	r3, [r7, #4]
    36ea:	3310      	adds	r3, #16
    36ec:	68f8      	ldr	r0, [r7, #12]
    36ee:	f002 ff1f 	bl	6530 <LPSPI_CommonControl>
    36f2:	4603      	mov	r3, r0
    36f4:	4618      	mov	r0, r3
    36f6:	371c      	adds	r7, #28
    36f8:	46bd      	mov	sp, r7
    36fa:	bd90      	pop	{r4, r7, pc}
    36fc:	000068d1 	.word	0x000068d1
    3700:	0000691b 	.word	0x0000691b

00003704 <LPSPI4_InterruptInitialize>:
    3704:	b580      	push	{r7, lr}
    3706:	b082      	sub	sp, #8
    3708:	af00      	add	r7, sp, #0
    370a:	6078      	str	r0, [r7, #4]
    370c:	f003 fc20 	bl	6f50 <LPSPI4_InitPins>
    3710:	4904      	ldr	r1, [pc, #16]	; (3724 <LPSPI4_InterruptInitialize+0x20>)
    3712:	6878      	ldr	r0, [r7, #4]
    3714:	f003 f925 	bl	6962 <LPSPI_InterruptInitialize>
    3718:	4603      	mov	r3, r0
    371a:	4618      	mov	r0, r3
    371c:	3708      	adds	r7, #8
    371e:	46bd      	mov	sp, r7
    3720:	bd80      	pop	{r7, pc}
    3722:	bf00      	nop
    3724:	20000000 	.word	0x20000000

00003728 <LPSPI4_InterruptUninitialize>:
    3728:	b580      	push	{r7, lr}
    372a:	af00      	add	r7, sp, #0
    372c:	f003 fc17 	bl	6f5e <LPSPI4_DeinitPins>
    3730:	4802      	ldr	r0, [pc, #8]	; (373c <LPSPI4_InterruptUninitialize+0x14>)
    3732:	f003 f92e 	bl	6992 <LPSPI_InterruptUninitialize>
    3736:	4603      	mov	r3, r0
    3738:	4618      	mov	r0, r3
    373a:	bd80      	pop	{r7, pc}
    373c:	20000000 	.word	0x20000000

00003740 <LPSPI4_InterruptPowerControl>:
    3740:	b580      	push	{r7, lr}
    3742:	b082      	sub	sp, #8
    3744:	af00      	add	r7, sp, #0
    3746:	4603      	mov	r3, r0
    3748:	71fb      	strb	r3, [r7, #7]
    374a:	79fb      	ldrb	r3, [r7, #7]
    374c:	4904      	ldr	r1, [pc, #16]	; (3760 <LPSPI4_InterruptPowerControl+0x20>)
    374e:	4618      	mov	r0, r3
    3750:	f7ff fe5a 	bl	3408 <LPSPI_InterruptPowerControl>
    3754:	4603      	mov	r3, r0
    3756:	4618      	mov	r0, r3
    3758:	3708      	adds	r7, #8
    375a:	46bd      	mov	sp, r7
    375c:	bd80      	pop	{r7, pc}
    375e:	bf00      	nop
    3760:	20000000 	.word	0x20000000

00003764 <LPSPI4_InterruptSend>:
    3764:	b580      	push	{r7, lr}
    3766:	b082      	sub	sp, #8
    3768:	af00      	add	r7, sp, #0
    376a:	6078      	str	r0, [r7, #4]
    376c:	6039      	str	r1, [r7, #0]
    376e:	4a05      	ldr	r2, [pc, #20]	; (3784 <LPSPI4_InterruptSend+0x20>)
    3770:	6839      	ldr	r1, [r7, #0]
    3772:	6878      	ldr	r0, [r7, #4]
    3774:	f003 f91b 	bl	69ae <LPSPI_InterruptSend>
    3778:	4603      	mov	r3, r0
    377a:	4618      	mov	r0, r3
    377c:	3708      	adds	r7, #8
    377e:	46bd      	mov	sp, r7
    3780:	bd80      	pop	{r7, pc}
    3782:	bf00      	nop
    3784:	20000000 	.word	0x20000000

00003788 <LPSPI4_InterruptReceive>:
    3788:	b580      	push	{r7, lr}
    378a:	b082      	sub	sp, #8
    378c:	af00      	add	r7, sp, #0
    378e:	6078      	str	r0, [r7, #4]
    3790:	6039      	str	r1, [r7, #0]
    3792:	4a05      	ldr	r2, [pc, #20]	; (37a8 <LPSPI4_InterruptReceive+0x20>)
    3794:	6839      	ldr	r1, [r7, #0]
    3796:	6878      	ldr	r0, [r7, #4]
    3798:	f003 f96c 	bl	6a74 <LPSPI_InterruptReceive>
    379c:	4603      	mov	r3, r0
    379e:	4618      	mov	r0, r3
    37a0:	3708      	adds	r7, #8
    37a2:	46bd      	mov	sp, r7
    37a4:	bd80      	pop	{r7, pc}
    37a6:	bf00      	nop
    37a8:	20000000 	.word	0x20000000

000037ac <LPSPI4_InterruptTransfer>:
    37ac:	b580      	push	{r7, lr}
    37ae:	b084      	sub	sp, #16
    37b0:	af00      	add	r7, sp, #0
    37b2:	60f8      	str	r0, [r7, #12]
    37b4:	60b9      	str	r1, [r7, #8]
    37b6:	607a      	str	r2, [r7, #4]
    37b8:	4b05      	ldr	r3, [pc, #20]	; (37d0 <LPSPI4_InterruptTransfer+0x24>)
    37ba:	687a      	ldr	r2, [r7, #4]
    37bc:	68b9      	ldr	r1, [r7, #8]
    37be:	68f8      	ldr	r0, [r7, #12]
    37c0:	f003 f9bb 	bl	6b3a <LPSPI_InterruptTransfer>
    37c4:	4603      	mov	r3, r0
    37c6:	4618      	mov	r0, r3
    37c8:	3710      	adds	r7, #16
    37ca:	46bd      	mov	sp, r7
    37cc:	bd80      	pop	{r7, pc}
    37ce:	bf00      	nop
    37d0:	20000000 	.word	0x20000000

000037d4 <LPSPI4_InterruptGetCount>:
    37d4:	b580      	push	{r7, lr}
    37d6:	af00      	add	r7, sp, #0
    37d8:	4802      	ldr	r0, [pc, #8]	; (37e4 <LPSPI4_InterruptGetCount+0x10>)
    37da:	f003 fa12 	bl	6c02 <LPSPI_InterruptGetCount>
    37de:	4603      	mov	r3, r0
    37e0:	4618      	mov	r0, r3
    37e2:	bd80      	pop	{r7, pc}
    37e4:	20000000 	.word	0x20000000

000037e8 <LPSPI4_InterruptControl>:
    37e8:	b580      	push	{r7, lr}
    37ea:	b082      	sub	sp, #8
    37ec:	af00      	add	r7, sp, #0
    37ee:	6078      	str	r0, [r7, #4]
    37f0:	6039      	str	r1, [r7, #0]
    37f2:	4a05      	ldr	r2, [pc, #20]	; (3808 <LPSPI4_InterruptControl+0x20>)
    37f4:	6839      	ldr	r1, [r7, #0]
    37f6:	6878      	ldr	r0, [r7, #4]
    37f8:	f7ff fe52 	bl	34a0 <LPSPI_InterruptControl>
    37fc:	4603      	mov	r3, r0
    37fe:	4618      	mov	r0, r3
    3800:	3708      	adds	r7, #8
    3802:	46bd      	mov	sp, r7
    3804:	bd80      	pop	{r7, pc}
    3806:	bf00      	nop
    3808:	20000000 	.word	0x20000000

0000380c <LPSPI4_InterruptGetStatus>:
    380c:	b580      	push	{r7, lr}
    380e:	af00      	add	r7, sp, #0
    3810:	4802      	ldr	r0, [pc, #8]	; (381c <LPSPI4_InterruptGetStatus+0x10>)
    3812:	f003 fa16 	bl	6c42 <LPSPI_InterruptGetStatus>
    3816:	4603      	mov	r3, r0
    3818:	4618      	mov	r0, r3
    381a:	bd80      	pop	{r7, pc}
    381c:	20000000 	.word	0x20000000

00003820 <CLOCK_ControlGate>:
    3820:	b580      	push	{r7, lr}
    3822:	b086      	sub	sp, #24
    3824:	af00      	add	r7, sp, #0
    3826:	4603      	mov	r3, r0
    3828:	460a      	mov	r2, r1
    382a:	80fb      	strh	r3, [r7, #6]
    382c:	4613      	mov	r3, r2
    382e:	717b      	strb	r3, [r7, #5]
    3830:	f9b7 3006 	ldrsh.w	r3, [r7, #6]
    3834:	0a1b      	lsrs	r3, r3, #8
    3836:	617b      	str	r3, [r7, #20]
    3838:	88fb      	ldrh	r3, [r7, #6]
    383a:	f003 031f 	and.w	r3, r3, #31
    383e:	613b      	str	r3, [r7, #16]
    3840:	697b      	ldr	r3, [r7, #20]
    3842:	2b07      	cmp	r3, #7
    3844:	d902      	bls.n	384c <CLOCK_ControlGate+0x2c>
    3846:	480d      	ldr	r0, [pc, #52]	; (387c <CLOCK_ControlGate+0x5c>)
    3848:	f001 fd42 	bl	52d0 <__assertion_failed>
    384c:	697b      	ldr	r3, [r7, #20]
    384e:	009a      	lsls	r2, r3, #2
    3850:	4b0b      	ldr	r3, [pc, #44]	; (3880 <CLOCK_ControlGate+0x60>)
    3852:	4413      	add	r3, r2
    3854:	60fb      	str	r3, [r7, #12]
    3856:	68fb      	ldr	r3, [r7, #12]
    3858:	681a      	ldr	r2, [r3, #0]
    385a:	2103      	movs	r1, #3
    385c:	693b      	ldr	r3, [r7, #16]
    385e:	fa01 f303 	lsl.w	r3, r1, r3
    3862:	43db      	mvns	r3, r3
    3864:	401a      	ands	r2, r3
    3866:	7979      	ldrb	r1, [r7, #5]
    3868:	693b      	ldr	r3, [r7, #16]
    386a:	fa01 f303 	lsl.w	r3, r1, r3
    386e:	431a      	orrs	r2, r3
    3870:	68fb      	ldr	r3, [r7, #12]
    3872:	601a      	str	r2, [r3, #0]
    3874:	bf00      	nop
    3876:	3718      	adds	r7, #24
    3878:	46bd      	mov	sp, r7
    387a:	bd80      	pop	{r7, pc}
    387c:	00008fac 	.word	0x00008fac
    3880:	400fc068 	.word	0x400fc068

00003884 <LPUART_GetInstance>:
    3884:	b580      	push	{r7, lr}
    3886:	b084      	sub	sp, #16
    3888:	af00      	add	r7, sp, #0
    388a:	6078      	str	r0, [r7, #4]
    388c:	2300      	movs	r3, #0
    388e:	60fb      	str	r3, [r7, #12]
    3890:	e009      	b.n	38a6 <LPUART_GetInstance+0x22>
    3892:	4a0d      	ldr	r2, [pc, #52]	; (38c8 <LPUART_GetInstance+0x44>)
    3894:	68fb      	ldr	r3, [r7, #12]
    3896:	f852 3023 	ldr.w	r3, [r2, r3, lsl #2]
    389a:	687a      	ldr	r2, [r7, #4]
    389c:	429a      	cmp	r2, r3
    389e:	d006      	beq.n	38ae <LPUART_GetInstance+0x2a>
    38a0:	68fb      	ldr	r3, [r7, #12]
    38a2:	3301      	adds	r3, #1
    38a4:	60fb      	str	r3, [r7, #12]
    38a6:	68fb      	ldr	r3, [r7, #12]
    38a8:	2b08      	cmp	r3, #8
    38aa:	d9f2      	bls.n	3892 <LPUART_GetInstance+0xe>
    38ac:	e000      	b.n	38b0 <LPUART_GetInstance+0x2c>
    38ae:	bf00      	nop
    38b0:	68fb      	ldr	r3, [r7, #12]
    38b2:	2b08      	cmp	r3, #8
    38b4:	d902      	bls.n	38bc <LPUART_GetInstance+0x38>
    38b6:	4805      	ldr	r0, [pc, #20]	; (38cc <LPUART_GetInstance+0x48>)
    38b8:	f001 fd0a 	bl	52d0 <__assertion_failed>
    38bc:	68fb      	ldr	r3, [r7, #12]
    38be:	4618      	mov	r0, r3
    38c0:	3710      	adds	r7, #16
    38c2:	46bd      	mov	sp, r7
    38c4:	bd80      	pop	{r7, pc}
    38c6:	bf00      	nop
    38c8:	00009660 	.word	0x00009660
    38cc:	00008fd8 	.word	0x00008fd8

000038d0 <LPUART_Init>:
    38d0:	b580      	push	{r7, lr}
    38d2:	b08c      	sub	sp, #48	; 0x30
    38d4:	af00      	add	r7, sp, #0
    38d6:	60f8      	str	r0, [r7, #12]
    38d8:	60b9      	str	r1, [r7, #8]
    38da:	607a      	str	r2, [r7, #4]
    38dc:	68bb      	ldr	r3, [r7, #8]
    38de:	2b00      	cmp	r3, #0
    38e0:	d102      	bne.n	38e8 <LPUART_Init+0x18>
    38e2:	489f      	ldr	r0, [pc, #636]	; (3b60 <LPUART_Init+0x290>)
    38e4:	f001 fcf4 	bl	52d0 <__assertion_failed>
    38e8:	68bb      	ldr	r3, [r7, #8]
    38ea:	681b      	ldr	r3, [r3, #0]
    38ec:	2b00      	cmp	r3, #0
    38ee:	d102      	bne.n	38f6 <LPUART_Init+0x26>
    38f0:	489c      	ldr	r0, [pc, #624]	; (3b64 <LPUART_Init+0x294>)
    38f2:	f001 fced 	bl	52d0 <__assertion_failed>
    38f6:	68bb      	ldr	r3, [r7, #8]
    38f8:	7a1b      	ldrb	r3, [r3, #8]
    38fa:	2b04      	cmp	r3, #4
    38fc:	d902      	bls.n	3904 <LPUART_Init+0x34>
    38fe:	489a      	ldr	r0, [pc, #616]	; (3b68 <LPUART_Init+0x298>)
    3900:	f001 fce6 	bl	52d0 <__assertion_failed>
    3904:	68bb      	ldr	r3, [r7, #8]
    3906:	7a5b      	ldrb	r3, [r3, #9]
    3908:	2b04      	cmp	r3, #4
    390a:	d902      	bls.n	3912 <LPUART_Init+0x42>
    390c:	4897      	ldr	r0, [pc, #604]	; (3b6c <LPUART_Init+0x29c>)
    390e:	f001 fcdf 	bl	52d0 <__assertion_failed>
    3912:	68bb      	ldr	r3, [r7, #8]
    3914:	681b      	ldr	r3, [r3, #0]
    3916:	61bb      	str	r3, [r7, #24]
    3918:	2300      	movs	r3, #0
    391a:	627b      	str	r3, [r7, #36]	; 0x24
    391c:	2300      	movs	r3, #0
    391e:	857b      	strh	r3, [r7, #42]	; 0x2a
    3920:	2304      	movs	r3, #4
    3922:	623b      	str	r3, [r7, #32]
    3924:	e044      	b.n	39b0 <LPUART_Init+0xe0>
    3926:	68bb      	ldr	r3, [r7, #8]
    3928:	681b      	ldr	r3, [r3, #0]
    392a:	6a3a      	ldr	r2, [r7, #32]
    392c:	fb02 f303 	mul.w	r3, r2, r3
    3930:	687a      	ldr	r2, [r7, #4]
    3932:	fbb2 f3f3 	udiv	r3, r2, r3
    3936:	853b      	strh	r3, [r7, #40]	; 0x28
    3938:	8d3b      	ldrh	r3, [r7, #40]	; 0x28
    393a:	2b00      	cmp	r3, #0
    393c:	d101      	bne.n	3942 <LPUART_Init+0x72>
    393e:	2301      	movs	r3, #1
    3940:	853b      	strh	r3, [r7, #40]	; 0x28
    3942:	8d3b      	ldrh	r3, [r7, #40]	; 0x28
    3944:	6a3a      	ldr	r2, [r7, #32]
    3946:	fb02 f303 	mul.w	r3, r2, r3
    394a:	687a      	ldr	r2, [r7, #4]
    394c:	fbb2 f3f3 	udiv	r3, r2, r3
    3950:	617b      	str	r3, [r7, #20]
    3952:	68bb      	ldr	r3, [r7, #8]
    3954:	681b      	ldr	r3, [r3, #0]
    3956:	697a      	ldr	r2, [r7, #20]
    3958:	1ad3      	subs	r3, r2, r3
    395a:	61fb      	str	r3, [r7, #28]
    395c:	68bb      	ldr	r3, [r7, #8]
    395e:	681a      	ldr	r2, [r3, #0]
    3960:	8d3b      	ldrh	r3, [r7, #40]	; 0x28
    3962:	3301      	adds	r3, #1
    3964:	6a39      	ldr	r1, [r7, #32]
    3966:	fb01 f303 	mul.w	r3, r1, r3
    396a:	6879      	ldr	r1, [r7, #4]
    396c:	fbb1 f3f3 	udiv	r3, r1, r3
    3970:	1ad3      	subs	r3, r2, r3
    3972:	69fa      	ldr	r2, [r7, #28]
    3974:	429a      	cmp	r2, r3
    3976:	d90e      	bls.n	3996 <LPUART_Init+0xc6>
    3978:	68bb      	ldr	r3, [r7, #8]
    397a:	681a      	ldr	r2, [r3, #0]
    397c:	8d3b      	ldrh	r3, [r7, #40]	; 0x28
    397e:	3301      	adds	r3, #1
    3980:	6a39      	ldr	r1, [r7, #32]
    3982:	fb01 f303 	mul.w	r3, r1, r3
    3986:	6879      	ldr	r1, [r7, #4]
    3988:	fbb1 f3f3 	udiv	r3, r1, r3
    398c:	1ad3      	subs	r3, r2, r3
    398e:	61fb      	str	r3, [r7, #28]
    3990:	8d3b      	ldrh	r3, [r7, #40]	; 0x28
    3992:	3301      	adds	r3, #1
    3994:	853b      	strh	r3, [r7, #40]	; 0x28
    3996:	69fa      	ldr	r2, [r7, #28]
    3998:	69bb      	ldr	r3, [r7, #24]
    399a:	429a      	cmp	r2, r3
    399c:	d805      	bhi.n	39aa <LPUART_Init+0xda>
    399e:	69fb      	ldr	r3, [r7, #28]
    39a0:	61bb      	str	r3, [r7, #24]
    39a2:	6a3b      	ldr	r3, [r7, #32]
    39a4:	627b      	str	r3, [r7, #36]	; 0x24
    39a6:	8d3b      	ldrh	r3, [r7, #40]	; 0x28
    39a8:	857b      	strh	r3, [r7, #42]	; 0x2a
    39aa:	6a3b      	ldr	r3, [r7, #32]
    39ac:	3301      	adds	r3, #1
    39ae:	623b      	str	r3, [r7, #32]
    39b0:	6a3b      	ldr	r3, [r7, #32]
    39b2:	2b20      	cmp	r3, #32
    39b4:	d9b7      	bls.n	3926 <LPUART_Init+0x56>
    39b6:	68bb      	ldr	r3, [r7, #8]
    39b8:	681b      	ldr	r3, [r3, #0]
    39ba:	4a6d      	ldr	r2, [pc, #436]	; (3b70 <LPUART_Init+0x2a0>)
    39bc:	fba2 2303 	umull	r2, r3, r2, r3
    39c0:	095a      	lsrs	r2, r3, #5
    39c2:	4613      	mov	r3, r2
    39c4:	005b      	lsls	r3, r3, #1
    39c6:	4413      	add	r3, r2
    39c8:	69ba      	ldr	r2, [r7, #24]
    39ca:	429a      	cmp	r2, r3
    39cc:	d902      	bls.n	39d4 <LPUART_Init+0x104>
    39ce:	f240 5321 	movw	r3, #1313	; 0x521
    39d2:	e0f8      	b.n	3bc6 <LPUART_Init+0x2f6>
    39d4:	68f8      	ldr	r0, [r7, #12]
    39d6:	f7ff ff55 	bl	3884 <LPUART_GetInstance>
    39da:	6138      	str	r0, [r7, #16]
    39dc:	4a65      	ldr	r2, [pc, #404]	; (3b74 <LPUART_Init+0x2a4>)
    39de:	693b      	ldr	r3, [r7, #16]
    39e0:	f932 3013 	ldrsh.w	r3, [r2, r3, lsl #1]
    39e4:	4618      	mov	r0, r3
    39e6:	f003 f985 	bl	6cf4 <CLOCK_EnableClock>
    39ea:	68f8      	ldr	r0, [r7, #12]
    39ec:	f003 f991 	bl	6d12 <LPUART_SoftwareReset>
    39f0:	68fb      	ldr	r3, [r7, #12]
    39f2:	691b      	ldr	r3, [r3, #16]
    39f4:	62fb      	str	r3, [r7, #44]	; 0x2c
    39f6:	6a7b      	ldr	r3, [r7, #36]	; 0x24
    39f8:	2b03      	cmp	r3, #3
    39fa:	d906      	bls.n	3a0a <LPUART_Init+0x13a>
    39fc:	6a7b      	ldr	r3, [r7, #36]	; 0x24
    39fe:	2b07      	cmp	r3, #7
    3a00:	d803      	bhi.n	3a0a <LPUART_Init+0x13a>
    3a02:	6afb      	ldr	r3, [r7, #44]	; 0x2c
    3a04:	f443 3300 	orr.w	r3, r3, #131072	; 0x20000
    3a08:	62fb      	str	r3, [r7, #44]	; 0x2c
    3a0a:	6afb      	ldr	r3, [r7, #44]	; 0x2c
    3a0c:	f023 53f8 	bic.w	r3, r3, #520093696	; 0x1f000000
    3a10:	62fb      	str	r3, [r7, #44]	; 0x2c
    3a12:	6a7b      	ldr	r3, [r7, #36]	; 0x24
    3a14:	3b01      	subs	r3, #1
    3a16:	061b      	lsls	r3, r3, #24
    3a18:	f003 53f8 	and.w	r3, r3, #520093696	; 0x1f000000
    3a1c:	6afa      	ldr	r2, [r7, #44]	; 0x2c
    3a1e:	4313      	orrs	r3, r2
    3a20:	62fb      	str	r3, [r7, #44]	; 0x2c
    3a22:	6afa      	ldr	r2, [r7, #44]	; 0x2c
    3a24:	4b54      	ldr	r3, [pc, #336]	; (3b78 <LPUART_Init+0x2a8>)
    3a26:	4013      	ands	r3, r2
    3a28:	62fb      	str	r3, [r7, #44]	; 0x2c
    3a2a:	8d7b      	ldrh	r3, [r7, #42]	; 0x2a
    3a2c:	f3c3 020c 	ubfx	r2, r3, #0, #13
    3a30:	6afb      	ldr	r3, [r7, #44]	; 0x2c
    3a32:	431a      	orrs	r2, r3
    3a34:	68fb      	ldr	r3, [r7, #12]
    3a36:	611a      	str	r2, [r3, #16]
    3a38:	68fb      	ldr	r3, [r7, #12]
    3a3a:	691b      	ldr	r3, [r3, #16]
    3a3c:	f023 5200 	bic.w	r2, r3, #536870912	; 0x20000000
    3a40:	68fb      	ldr	r3, [r7, #12]
    3a42:	611a      	str	r2, [r3, #16]
    3a44:	68fb      	ldr	r3, [r7, #12]
    3a46:	699a      	ldr	r2, [r3, #24]
    3a48:	4b4c      	ldr	r3, [pc, #304]	; (3b7c <LPUART_Init+0x2ac>)
    3a4a:	4013      	ands	r3, r2
    3a4c:	62fb      	str	r3, [r7, #44]	; 0x2c
    3a4e:	68bb      	ldr	r3, [r7, #8]
    3a50:	791b      	ldrb	r3, [r3, #4]
    3a52:	461a      	mov	r2, r3
    3a54:	68bb      	ldr	r3, [r7, #8]
    3a56:	7bdb      	ldrb	r3, [r3, #15]
    3a58:	021b      	lsls	r3, r3, #8
    3a5a:	f403 63e0 	and.w	r3, r3, #1792	; 0x700
    3a5e:	431a      	orrs	r2, r3
    3a60:	68bb      	ldr	r3, [r7, #8]
    3a62:	7b9b      	ldrb	r3, [r3, #14]
    3a64:	009b      	lsls	r3, r3, #2
    3a66:	f003 0304 	and.w	r3, r3, #4
    3a6a:	4313      	orrs	r3, r2
    3a6c:	6afa      	ldr	r2, [r7, #44]	; 0x2c
    3a6e:	4313      	orrs	r3, r2
    3a70:	62fb      	str	r3, [r7, #44]	; 0x2c
    3a72:	68bb      	ldr	r3, [r7, #8]
    3a74:	795b      	ldrb	r3, [r3, #5]
    3a76:	2b01      	cmp	r3, #1
    3a78:	d10d      	bne.n	3a96 <LPUART_Init+0x1c6>
    3a7a:	68bb      	ldr	r3, [r7, #8]
    3a7c:	791b      	ldrb	r3, [r3, #4]
    3a7e:	2b00      	cmp	r3, #0
    3a80:	d004      	beq.n	3a8c <LPUART_Init+0x1bc>
    3a82:	6afb      	ldr	r3, [r7, #44]	; 0x2c
    3a84:	f423 6300 	bic.w	r3, r3, #2048	; 0x800
    3a88:	62fb      	str	r3, [r7, #44]	; 0x2c
    3a8a:	e00c      	b.n	3aa6 <LPUART_Init+0x1d6>
    3a8c:	6afb      	ldr	r3, [r7, #44]	; 0x2c
    3a8e:	f443 6300 	orr.w	r3, r3, #2048	; 0x800
    3a92:	62fb      	str	r3, [r7, #44]	; 0x2c
    3a94:	e007      	b.n	3aa6 <LPUART_Init+0x1d6>
    3a96:	68bb      	ldr	r3, [r7, #8]
    3a98:	791b      	ldrb	r3, [r3, #4]
    3a9a:	2b00      	cmp	r3, #0
    3a9c:	d003      	beq.n	3aa6 <LPUART_Init+0x1d6>
    3a9e:	6afb      	ldr	r3, [r7, #44]	; 0x2c
    3aa0:	f043 0310 	orr.w	r3, r3, #16
    3aa4:	62fb      	str	r3, [r7, #44]	; 0x2c
    3aa6:	68fb      	ldr	r3, [r7, #12]
    3aa8:	6afa      	ldr	r2, [r7, #44]	; 0x2c
    3aaa:	619a      	str	r2, [r3, #24]
    3aac:	68fb      	ldr	r3, [r7, #12]
    3aae:	691b      	ldr	r3, [r3, #16]
    3ab0:	f423 5300 	bic.w	r3, r3, #8192	; 0x2000
    3ab4:	62fb      	str	r3, [r7, #44]	; 0x2c
    3ab6:	68bb      	ldr	r3, [r7, #8]
    3ab8:	79db      	ldrb	r3, [r3, #7]
    3aba:	035b      	lsls	r3, r3, #13
    3abc:	f403 5200 	and.w	r2, r3, #8192	; 0x2000
    3ac0:	6afb      	ldr	r3, [r7, #44]	; 0x2c
    3ac2:	431a      	orrs	r2, r3
    3ac4:	68fb      	ldr	r3, [r7, #12]
    3ac6:	611a      	str	r2, [r3, #16]
    3ac8:	68bb      	ldr	r3, [r7, #8]
    3aca:	7a5b      	ldrb	r3, [r3, #9]
    3acc:	041b      	lsls	r3, r3, #16
    3ace:	68ba      	ldr	r2, [r7, #8]
    3ad0:	7a12      	ldrb	r2, [r2, #8]
    3ad2:	431a      	orrs	r2, r3
    3ad4:	68fb      	ldr	r3, [r7, #12]
    3ad6:	62da      	str	r2, [r3, #44]	; 0x2c
    3ad8:	68fb      	ldr	r3, [r7, #12]
    3ada:	6a9b      	ldr	r3, [r3, #40]	; 0x28
    3adc:	f043 0288 	orr.w	r2, r3, #136	; 0x88
    3ae0:	68fb      	ldr	r3, [r7, #12]
    3ae2:	629a      	str	r2, [r3, #40]	; 0x28
    3ae4:	68fb      	ldr	r3, [r7, #12]
    3ae6:	6a9b      	ldr	r3, [r3, #40]	; 0x28
    3ae8:	f443 4240 	orr.w	r2, r3, #49152	; 0xc000
    3aec:	68fb      	ldr	r3, [r7, #12]
    3aee:	629a      	str	r2, [r3, #40]	; 0x28
    3af0:	4b23      	ldr	r3, [pc, #140]	; (3b80 <LPUART_Init+0x2b0>)
    3af2:	62fb      	str	r3, [r7, #44]	; 0x2c
    3af4:	6afb      	ldr	r3, [r7, #44]	; 0x2c
    3af6:	f043 4300 	orr.w	r3, r3, #2147483648	; 0x80000000
    3afa:	62fb      	str	r3, [r7, #44]	; 0x2c
    3afc:	6afb      	ldr	r3, [r7, #44]	; 0x2c
    3afe:	f443 4340 	orr.w	r3, r3, #49152	; 0xc000
    3b02:	62fb      	str	r3, [r7, #44]	; 0x2c
    3b04:	68fb      	ldr	r3, [r7, #12]
    3b06:	6a5a      	ldr	r2, [r3, #36]	; 0x24
    3b08:	68bb      	ldr	r3, [r7, #8]
    3b0a:	7b5b      	ldrb	r3, [r3, #13]
    3b0c:	011b      	lsls	r3, r3, #4
    3b0e:	f003 0110 	and.w	r1, r3, #16
    3b12:	68bb      	ldr	r3, [r7, #8]
    3b14:	7b1b      	ldrb	r3, [r3, #12]
    3b16:	015b      	lsls	r3, r3, #5
    3b18:	f003 0320 	and.w	r3, r3, #32
    3b1c:	430b      	orrs	r3, r1
    3b1e:	431a      	orrs	r2, r3
    3b20:	68fb      	ldr	r3, [r7, #12]
    3b22:	625a      	str	r2, [r3, #36]	; 0x24
    3b24:	68bb      	ldr	r3, [r7, #8]
    3b26:	7a9b      	ldrb	r3, [r3, #10]
    3b28:	2b00      	cmp	r3, #0
    3b2a:	d005      	beq.n	3b38 <LPUART_Init+0x268>
    3b2c:	68fb      	ldr	r3, [r7, #12]
    3b2e:	6a5b      	ldr	r3, [r3, #36]	; 0x24
    3b30:	f043 0208 	orr.w	r2, r3, #8
    3b34:	68fb      	ldr	r3, [r7, #12]
    3b36:	625a      	str	r2, [r3, #36]	; 0x24
    3b38:	68bb      	ldr	r3, [r7, #8]
    3b3a:	7adb      	ldrb	r3, [r3, #11]
    3b3c:	2b00      	cmp	r3, #0
    3b3e:	d005      	beq.n	3b4c <LPUART_Init+0x27c>
    3b40:	68fb      	ldr	r3, [r7, #12]
    3b42:	6a5b      	ldr	r3, [r3, #36]	; 0x24
    3b44:	f043 0201 	orr.w	r2, r3, #1
    3b48:	68fb      	ldr	r3, [r7, #12]
    3b4a:	625a      	str	r2, [r3, #36]	; 0x24
    3b4c:	68bb      	ldr	r3, [r7, #8]
    3b4e:	799b      	ldrb	r3, [r3, #6]
    3b50:	2b00      	cmp	r3, #0
    3b52:	d017      	beq.n	3b84 <LPUART_Init+0x2b4>
    3b54:	6afb      	ldr	r3, [r7, #44]	; 0x2c
    3b56:	f043 5300 	orr.w	r3, r3, #536870912	; 0x20000000
    3b5a:	62fb      	str	r3, [r7, #44]	; 0x2c
    3b5c:	e016      	b.n	3b8c <LPUART_Init+0x2bc>
    3b5e:	bf00      	nop
    3b60:	000090d4 	.word	0x000090d4
    3b64:	00009104 	.word	0x00009104
    3b68:	0000913c 	.word	0x0000913c
    3b6c:	000091a4 	.word	0x000091a4
    3b70:	51eb851f 	.word	0x51eb851f
    3b74:	00009684 	.word	0x00009684
    3b78:	ffffe000 	.word	0xffffe000
    3b7c:	fffff8e8 	.word	0xfffff8e8
    3b80:	401f0000 	.word	0x401f0000
    3b84:	6afb      	ldr	r3, [r7, #44]	; 0x2c
    3b86:	f023 5300 	bic.w	r3, r3, #536870912	; 0x20000000
    3b8a:	62fb      	str	r3, [r7, #44]	; 0x2c
    3b8c:	68fb      	ldr	r3, [r7, #12]
    3b8e:	695a      	ldr	r2, [r3, #20]
    3b90:	6afb      	ldr	r3, [r7, #44]	; 0x2c
    3b92:	431a      	orrs	r2, r3
    3b94:	68fb      	ldr	r3, [r7, #12]
    3b96:	615a      	str	r2, [r3, #20]
    3b98:	68fb      	ldr	r3, [r7, #12]
    3b9a:	699b      	ldr	r3, [r3, #24]
    3b9c:	62fb      	str	r3, [r7, #44]	; 0x2c
    3b9e:	68bb      	ldr	r3, [r7, #8]
    3ba0:	7c1b      	ldrb	r3, [r3, #16]
    3ba2:	2b00      	cmp	r3, #0
    3ba4:	d003      	beq.n	3bae <LPUART_Init+0x2de>
    3ba6:	6afb      	ldr	r3, [r7, #44]	; 0x2c
    3ba8:	f443 2300 	orr.w	r3, r3, #524288	; 0x80000
    3bac:	62fb      	str	r3, [r7, #44]	; 0x2c
    3bae:	68bb      	ldr	r3, [r7, #8]
    3bb0:	7c5b      	ldrb	r3, [r3, #17]
    3bb2:	2b00      	cmp	r3, #0
    3bb4:	d003      	beq.n	3bbe <LPUART_Init+0x2ee>
    3bb6:	6afb      	ldr	r3, [r7, #44]	; 0x2c
    3bb8:	f443 2380 	orr.w	r3, r3, #262144	; 0x40000
    3bbc:	62fb      	str	r3, [r7, #44]	; 0x2c
    3bbe:	68fb      	ldr	r3, [r7, #12]
    3bc0:	6afa      	ldr	r2, [r7, #44]	; 0x2c
    3bc2:	619a      	str	r2, [r3, #24]
    3bc4:	2300      	movs	r3, #0
    3bc6:	4618      	mov	r0, r3
    3bc8:	3730      	adds	r7, #48	; 0x30
    3bca:	46bd      	mov	sp, r7
    3bcc:	bd80      	pop	{r7, pc}
    3bce:	bf00      	nop

00003bd0 <LPUART_GetDefaultConfig>:
    3bd0:	b580      	push	{r7, lr}
    3bd2:	b082      	sub	sp, #8
    3bd4:	af00      	add	r7, sp, #0
    3bd6:	6078      	str	r0, [r7, #4]
    3bd8:	687b      	ldr	r3, [r7, #4]
    3bda:	2b00      	cmp	r3, #0
    3bdc:	d102      	bne.n	3be4 <LPUART_GetDefaultConfig+0x14>
    3bde:	481d      	ldr	r0, [pc, #116]	; (3c54 <LPUART_GetDefaultConfig+0x84>)
    3be0:	f001 fb76 	bl	52d0 <__assertion_failed>
    3be4:	2214      	movs	r2, #20
    3be6:	2100      	movs	r1, #0
    3be8:	6878      	ldr	r0, [r7, #4]
    3bea:	f003 f9c7 	bl	6f7c <memset>
    3bee:	687b      	ldr	r3, [r7, #4]
    3bf0:	f44f 32e1 	mov.w	r2, #115200	; 0x1c200
    3bf4:	601a      	str	r2, [r3, #0]
    3bf6:	687b      	ldr	r3, [r7, #4]
    3bf8:	2200      	movs	r2, #0
    3bfa:	711a      	strb	r2, [r3, #4]
    3bfc:	687b      	ldr	r3, [r7, #4]
    3bfe:	2200      	movs	r2, #0
    3c00:	715a      	strb	r2, [r3, #5]
    3c02:	687b      	ldr	r3, [r7, #4]
    3c04:	2200      	movs	r2, #0
    3c06:	719a      	strb	r2, [r3, #6]
    3c08:	687b      	ldr	r3, [r7, #4]
    3c0a:	2200      	movs	r2, #0
    3c0c:	71da      	strb	r2, [r3, #7]
    3c0e:	687b      	ldr	r3, [r7, #4]
    3c10:	2200      	movs	r2, #0
    3c12:	721a      	strb	r2, [r3, #8]
    3c14:	687b      	ldr	r3, [r7, #4]
    3c16:	2200      	movs	r2, #0
    3c18:	725a      	strb	r2, [r3, #9]
    3c1a:	687b      	ldr	r3, [r7, #4]
    3c1c:	2200      	movs	r2, #0
    3c1e:	729a      	strb	r2, [r3, #10]
    3c20:	687b      	ldr	r3, [r7, #4]
    3c22:	2200      	movs	r2, #0
    3c24:	72da      	strb	r2, [r3, #11]
    3c26:	687b      	ldr	r3, [r7, #4]
    3c28:	2200      	movs	r2, #0
    3c2a:	735a      	strb	r2, [r3, #13]
    3c2c:	687b      	ldr	r3, [r7, #4]
    3c2e:	2200      	movs	r2, #0
    3c30:	731a      	strb	r2, [r3, #12]
    3c32:	687b      	ldr	r3, [r7, #4]
    3c34:	2200      	movs	r2, #0
    3c36:	739a      	strb	r2, [r3, #14]
    3c38:	687b      	ldr	r3, [r7, #4]
    3c3a:	2200      	movs	r2, #0
    3c3c:	73da      	strb	r2, [r3, #15]
    3c3e:	687b      	ldr	r3, [r7, #4]
    3c40:	2200      	movs	r2, #0
    3c42:	741a      	strb	r2, [r3, #16]
    3c44:	687b      	ldr	r3, [r7, #4]
    3c46:	2200      	movs	r2, #0
    3c48:	745a      	strb	r2, [r3, #17]
    3c4a:	bf00      	nop
    3c4c:	3708      	adds	r7, #8
    3c4e:	46bd      	mov	sp, r7
    3c50:	bd80      	pop	{r7, pc}
    3c52:	bf00      	nop
    3c54:	0000920c 	.word	0x0000920c

00003c58 <LPUART_WriteBlocking>:
    3c58:	b580      	push	{r7, lr}
    3c5a:	b086      	sub	sp, #24
    3c5c:	af00      	add	r7, sp, #0
    3c5e:	60f8      	str	r0, [r7, #12]
    3c60:	60b9      	str	r1, [r7, #8]
    3c62:	607a      	str	r2, [r7, #4]
    3c64:	68bb      	ldr	r3, [r7, #8]
    3c66:	2b00      	cmp	r3, #0
    3c68:	d102      	bne.n	3c70 <LPUART_WriteBlocking+0x18>
    3c6a:	4810      	ldr	r0, [pc, #64]	; (3cac <LPUART_WriteBlocking+0x54>)
    3c6c:	f001 fb30 	bl	52d0 <__assertion_failed>
    3c70:	68bb      	ldr	r3, [r7, #8]
    3c72:	617b      	str	r3, [r7, #20]
    3c74:	687b      	ldr	r3, [r7, #4]
    3c76:	613b      	str	r3, [r7, #16]
    3c78:	e011      	b.n	3c9e <LPUART_WriteBlocking+0x46>
    3c7a:	bf00      	nop
    3c7c:	68fb      	ldr	r3, [r7, #12]
    3c7e:	695b      	ldr	r3, [r3, #20]
    3c80:	f403 0300 	and.w	r3, r3, #8388608	; 0x800000
    3c84:	2b00      	cmp	r3, #0
    3c86:	d0f9      	beq.n	3c7c <LPUART_WriteBlocking+0x24>
    3c88:	697b      	ldr	r3, [r7, #20]
    3c8a:	781b      	ldrb	r3, [r3, #0]
    3c8c:	461a      	mov	r2, r3
    3c8e:	68fb      	ldr	r3, [r7, #12]
    3c90:	61da      	str	r2, [r3, #28]
    3c92:	697b      	ldr	r3, [r7, #20]
    3c94:	3301      	adds	r3, #1
    3c96:	617b      	str	r3, [r7, #20]
    3c98:	693b      	ldr	r3, [r7, #16]
    3c9a:	3b01      	subs	r3, #1
    3c9c:	613b      	str	r3, [r7, #16]
    3c9e:	693b      	ldr	r3, [r7, #16]
    3ca0:	2b00      	cmp	r3, #0
    3ca2:	d1ea      	bne.n	3c7a <LPUART_WriteBlocking+0x22>
    3ca4:	bf00      	nop
    3ca6:	3718      	adds	r7, #24
    3ca8:	46bd      	mov	sp, r7
    3caa:	bd80      	pop	{r7, pc}
    3cac:	0000926c 	.word	0x0000926c

00003cb0 <LPUART1_DriverIRQHandler>:
    3cb0:	b580      	push	{r7, lr}
    3cb2:	af00      	add	r7, sp, #0
    3cb4:	4b04      	ldr	r3, [pc, #16]	; (3cc8 <LPUART1_DriverIRQHandler+0x18>)
    3cb6:	681b      	ldr	r3, [r3, #0]
    3cb8:	4a04      	ldr	r2, [pc, #16]	; (3ccc <LPUART1_DriverIRQHandler+0x1c>)
    3cba:	6852      	ldr	r2, [r2, #4]
    3cbc:	4611      	mov	r1, r2
    3cbe:	4804      	ldr	r0, [pc, #16]	; (3cd0 <LPUART1_DriverIRQHandler+0x20>)
    3cc0:	4798      	blx	r3
    3cc2:	bf00      	nop
    3cc4:	bd80      	pop	{r7, pc}
    3cc6:	bf00      	nop
    3cc8:	20000144 	.word	0x20000144
    3ccc:	20000120 	.word	0x20000120
    3cd0:	40184000 	.word	0x40184000

00003cd4 <LPUART2_DriverIRQHandler>:
    3cd4:	b580      	push	{r7, lr}
    3cd6:	af00      	add	r7, sp, #0
    3cd8:	4b04      	ldr	r3, [pc, #16]	; (3cec <LPUART2_DriverIRQHandler+0x18>)
    3cda:	681b      	ldr	r3, [r3, #0]
    3cdc:	4a04      	ldr	r2, [pc, #16]	; (3cf0 <LPUART2_DriverIRQHandler+0x1c>)
    3cde:	6892      	ldr	r2, [r2, #8]
    3ce0:	4611      	mov	r1, r2
    3ce2:	4804      	ldr	r0, [pc, #16]	; (3cf4 <LPUART2_DriverIRQHandler+0x20>)
    3ce4:	4798      	blx	r3
    3ce6:	bf00      	nop
    3ce8:	bd80      	pop	{r7, pc}
    3cea:	bf00      	nop
    3cec:	20000144 	.word	0x20000144
    3cf0:	20000120 	.word	0x20000120
    3cf4:	40188000 	.word	0x40188000

00003cf8 <LPUART3_DriverIRQHandler>:
    3cf8:	b580      	push	{r7, lr}
    3cfa:	af00      	add	r7, sp, #0
    3cfc:	4b04      	ldr	r3, [pc, #16]	; (3d10 <LPUART3_DriverIRQHandler+0x18>)
    3cfe:	681b      	ldr	r3, [r3, #0]
    3d00:	4a04      	ldr	r2, [pc, #16]	; (3d14 <LPUART3_DriverIRQHandler+0x1c>)
    3d02:	68d2      	ldr	r2, [r2, #12]
    3d04:	4611      	mov	r1, r2
    3d06:	4804      	ldr	r0, [pc, #16]	; (3d18 <LPUART3_DriverIRQHandler+0x20>)
    3d08:	4798      	blx	r3
    3d0a:	bf00      	nop
    3d0c:	bd80      	pop	{r7, pc}
    3d0e:	bf00      	nop
    3d10:	20000144 	.word	0x20000144
    3d14:	20000120 	.word	0x20000120
    3d18:	4018c000 	.word	0x4018c000

00003d1c <LPUART4_DriverIRQHandler>:
    3d1c:	b580      	push	{r7, lr}
    3d1e:	af00      	add	r7, sp, #0
    3d20:	4b04      	ldr	r3, [pc, #16]	; (3d34 <LPUART4_DriverIRQHandler+0x18>)
    3d22:	681b      	ldr	r3, [r3, #0]
    3d24:	4a04      	ldr	r2, [pc, #16]	; (3d38 <LPUART4_DriverIRQHandler+0x1c>)
    3d26:	6912      	ldr	r2, [r2, #16]
    3d28:	4611      	mov	r1, r2
    3d2a:	4804      	ldr	r0, [pc, #16]	; (3d3c <LPUART4_DriverIRQHandler+0x20>)
    3d2c:	4798      	blx	r3
    3d2e:	bf00      	nop
    3d30:	bd80      	pop	{r7, pc}
    3d32:	bf00      	nop
    3d34:	20000144 	.word	0x20000144
    3d38:	20000120 	.word	0x20000120
    3d3c:	40190000 	.word	0x40190000

00003d40 <LPUART5_DriverIRQHandler>:
    3d40:	b580      	push	{r7, lr}
    3d42:	af00      	add	r7, sp, #0
    3d44:	4b04      	ldr	r3, [pc, #16]	; (3d58 <LPUART5_DriverIRQHandler+0x18>)
    3d46:	681b      	ldr	r3, [r3, #0]
    3d48:	4a04      	ldr	r2, [pc, #16]	; (3d5c <LPUART5_DriverIRQHandler+0x1c>)
    3d4a:	6952      	ldr	r2, [r2, #20]
    3d4c:	4611      	mov	r1, r2
    3d4e:	4804      	ldr	r0, [pc, #16]	; (3d60 <LPUART5_DriverIRQHandler+0x20>)
    3d50:	4798      	blx	r3
    3d52:	bf00      	nop
    3d54:	bd80      	pop	{r7, pc}
    3d56:	bf00      	nop
    3d58:	20000144 	.word	0x20000144
    3d5c:	20000120 	.word	0x20000120
    3d60:	40194000 	.word	0x40194000

00003d64 <LPUART6_DriverIRQHandler>:
    3d64:	b580      	push	{r7, lr}
    3d66:	af00      	add	r7, sp, #0
    3d68:	4b04      	ldr	r3, [pc, #16]	; (3d7c <LPUART6_DriverIRQHandler+0x18>)
    3d6a:	681b      	ldr	r3, [r3, #0]
    3d6c:	4a04      	ldr	r2, [pc, #16]	; (3d80 <LPUART6_DriverIRQHandler+0x1c>)
    3d6e:	6992      	ldr	r2, [r2, #24]
    3d70:	4611      	mov	r1, r2
    3d72:	4804      	ldr	r0, [pc, #16]	; (3d84 <LPUART6_DriverIRQHandler+0x20>)
    3d74:	4798      	blx	r3
    3d76:	bf00      	nop
    3d78:	bd80      	pop	{r7, pc}
    3d7a:	bf00      	nop
    3d7c:	20000144 	.word	0x20000144
    3d80:	20000120 	.word	0x20000120
    3d84:	40198000 	.word	0x40198000

00003d88 <LPUART7_DriverIRQHandler>:
    3d88:	b580      	push	{r7, lr}
    3d8a:	af00      	add	r7, sp, #0
    3d8c:	4b04      	ldr	r3, [pc, #16]	; (3da0 <LPUART7_DriverIRQHandler+0x18>)
    3d8e:	681b      	ldr	r3, [r3, #0]
    3d90:	4a04      	ldr	r2, [pc, #16]	; (3da4 <LPUART7_DriverIRQHandler+0x1c>)
    3d92:	69d2      	ldr	r2, [r2, #28]
    3d94:	4611      	mov	r1, r2
    3d96:	4804      	ldr	r0, [pc, #16]	; (3da8 <LPUART7_DriverIRQHandler+0x20>)
    3d98:	4798      	blx	r3
    3d9a:	bf00      	nop
    3d9c:	bd80      	pop	{r7, pc}
    3d9e:	bf00      	nop
    3da0:	20000144 	.word	0x20000144
    3da4:	20000120 	.word	0x20000120
    3da8:	4019c000 	.word	0x4019c000

00003dac <LPUART8_DriverIRQHandler>:
    3dac:	b580      	push	{r7, lr}
    3dae:	af00      	add	r7, sp, #0
    3db0:	4b04      	ldr	r3, [pc, #16]	; (3dc4 <LPUART8_DriverIRQHandler+0x18>)
    3db2:	681b      	ldr	r3, [r3, #0]
    3db4:	4a04      	ldr	r2, [pc, #16]	; (3dc8 <LPUART8_DriverIRQHandler+0x1c>)
    3db6:	6a12      	ldr	r2, [r2, #32]
    3db8:	4611      	mov	r1, r2
    3dba:	4804      	ldr	r0, [pc, #16]	; (3dcc <LPUART8_DriverIRQHandler+0x20>)
    3dbc:	4798      	blx	r3
    3dbe:	bf00      	nop
    3dc0:	bd80      	pop	{r7, pc}
    3dc2:	bf00      	nop
    3dc4:	20000144 	.word	0x20000144
    3dc8:	20000120 	.word	0x20000120
    3dcc:	401a0000 	.word	0x401a0000

00003dd0 <SCB_EnableICache>:
    3dd0:	b480      	push	{r7}
    3dd2:	af00      	add	r7, sp, #0
    3dd4:	f3bf 8f4f 	dsb	sy
    3dd8:	f3bf 8f6f 	isb	sy
    3ddc:	4b0b      	ldr	r3, [pc, #44]	; (3e0c <SCB_EnableICache+0x3c>)
    3dde:	2200      	movs	r2, #0
    3de0:	f8c3 2250 	str.w	r2, [r3, #592]	; 0x250
    3de4:	f3bf 8f4f 	dsb	sy
    3de8:	f3bf 8f6f 	isb	sy
    3dec:	4b07      	ldr	r3, [pc, #28]	; (3e0c <SCB_EnableICache+0x3c>)
    3dee:	695b      	ldr	r3, [r3, #20]
    3df0:	4a06      	ldr	r2, [pc, #24]	; (3e0c <SCB_EnableICache+0x3c>)
    3df2:	f443 3300 	orr.w	r3, r3, #131072	; 0x20000
    3df6:	6153      	str	r3, [r2, #20]
    3df8:	f3bf 8f4f 	dsb	sy
    3dfc:	f3bf 8f6f 	isb	sy
    3e00:	bf00      	nop
    3e02:	46bd      	mov	sp, r7
    3e04:	f85d 7b04 	ldr.w	r7, [sp], #4
    3e08:	4770      	bx	lr
    3e0a:	bf00      	nop
    3e0c:	e000ed00 	.word	0xe000ed00

00003e10 <SCB_EnableDCache>:
    3e10:	b480      	push	{r7}
    3e12:	b085      	sub	sp, #20
    3e14:	af00      	add	r7, sp, #0
    3e16:	4b1d      	ldr	r3, [pc, #116]	; (3e8c <SCB_EnableDCache+0x7c>)
    3e18:	2200      	movs	r2, #0
    3e1a:	f8c3 2084 	str.w	r2, [r3, #132]	; 0x84
    3e1e:	f3bf 8f4f 	dsb	sy
    3e22:	4b1a      	ldr	r3, [pc, #104]	; (3e8c <SCB_EnableDCache+0x7c>)
    3e24:	f8d3 3080 	ldr.w	r3, [r3, #128]	; 0x80
    3e28:	607b      	str	r3, [r7, #4]
    3e2a:	687b      	ldr	r3, [r7, #4]
    3e2c:	0b5b      	lsrs	r3, r3, #13
    3e2e:	f3c3 030e 	ubfx	r3, r3, #0, #15
    3e32:	60fb      	str	r3, [r7, #12]
    3e34:	687b      	ldr	r3, [r7, #4]
    3e36:	08db      	lsrs	r3, r3, #3
    3e38:	f3c3 0309 	ubfx	r3, r3, #0, #10
    3e3c:	60bb      	str	r3, [r7, #8]
    3e3e:	68fb      	ldr	r3, [r7, #12]
    3e40:	015a      	lsls	r2, r3, #5
    3e42:	f643 73e0 	movw	r3, #16352	; 0x3fe0
    3e46:	4013      	ands	r3, r2
    3e48:	68ba      	ldr	r2, [r7, #8]
    3e4a:	0792      	lsls	r2, r2, #30
    3e4c:	490f      	ldr	r1, [pc, #60]	; (3e8c <SCB_EnableDCache+0x7c>)
    3e4e:	4313      	orrs	r3, r2
    3e50:	f8c1 3260 	str.w	r3, [r1, #608]	; 0x260
    3e54:	68bb      	ldr	r3, [r7, #8]
    3e56:	1e5a      	subs	r2, r3, #1
    3e58:	60ba      	str	r2, [r7, #8]
    3e5a:	2b00      	cmp	r3, #0
    3e5c:	d1ef      	bne.n	3e3e <SCB_EnableDCache+0x2e>
    3e5e:	68fb      	ldr	r3, [r7, #12]
    3e60:	1e5a      	subs	r2, r3, #1
    3e62:	60fa      	str	r2, [r7, #12]
    3e64:	2b00      	cmp	r3, #0
    3e66:	d1e5      	bne.n	3e34 <SCB_EnableDCache+0x24>
    3e68:	f3bf 8f4f 	dsb	sy
    3e6c:	4b07      	ldr	r3, [pc, #28]	; (3e8c <SCB_EnableDCache+0x7c>)
    3e6e:	695b      	ldr	r3, [r3, #20]
    3e70:	4a06      	ldr	r2, [pc, #24]	; (3e8c <SCB_EnableDCache+0x7c>)
    3e72:	f443 3380 	orr.w	r3, r3, #65536	; 0x10000
    3e76:	6153      	str	r3, [r2, #20]
    3e78:	f3bf 8f4f 	dsb	sy
    3e7c:	f3bf 8f6f 	isb	sy
    3e80:	bf00      	nop
    3e82:	3714      	adds	r7, #20
    3e84:	46bd      	mov	sp, r7
    3e86:	f85d 7b04 	ldr.w	r7, [sp], #4
    3e8a:	4770      	bx	lr
    3e8c:	e000ed00 	.word	0xe000ed00

00003e90 <SystemInit>:
    3e90:	b580      	push	{r7, lr}
    3e92:	af00      	add	r7, sp, #0
    3e94:	4b34      	ldr	r3, [pc, #208]	; (3f68 <SystemInit+0xd8>)
    3e96:	f8d3 3088 	ldr.w	r3, [r3, #136]	; 0x88
    3e9a:	4a33      	ldr	r2, [pc, #204]	; (3f68 <SystemInit+0xd8>)
    3e9c:	f443 0370 	orr.w	r3, r3, #15728640	; 0xf00000
    3ea0:	f8c2 3088 	str.w	r3, [r2, #136]	; 0x88
    3ea4:	4b30      	ldr	r3, [pc, #192]	; (3f68 <SystemInit+0xd8>)
    3ea6:	4a31      	ldr	r2, [pc, #196]	; (3f6c <SystemInit+0xdc>)
    3ea8:	609a      	str	r2, [r3, #8]
    3eaa:	4b31      	ldr	r3, [pc, #196]	; (3f70 <SystemInit+0xe0>)
    3eac:	891b      	ldrh	r3, [r3, #8]
    3eae:	b29b      	uxth	r3, r3
    3eb0:	4a2f      	ldr	r2, [pc, #188]	; (3f70 <SystemInit+0xe0>)
    3eb2:	f023 0301 	bic.w	r3, r3, #1
    3eb6:	b29b      	uxth	r3, r3
    3eb8:	8113      	strh	r3, [r2, #8]
    3eba:	4b2e      	ldr	r3, [pc, #184]	; (3f74 <SystemInit+0xe4>)
    3ebc:	891b      	ldrh	r3, [r3, #8]
    3ebe:	b29b      	uxth	r3, r3
    3ec0:	4a2c      	ldr	r2, [pc, #176]	; (3f74 <SystemInit+0xe4>)
    3ec2:	f023 0301 	bic.w	r3, r3, #1
    3ec6:	b29b      	uxth	r3, r3
    3ec8:	8113      	strh	r3, [r2, #8]
    3eca:	4b29      	ldr	r3, [pc, #164]	; (3f70 <SystemInit+0xe0>)
    3ecc:	881b      	ldrh	r3, [r3, #0]
    3ece:	b29b      	uxth	r3, r3
    3ed0:	f003 0304 	and.w	r3, r3, #4
    3ed4:	2b00      	cmp	r3, #0
    3ed6:	d007      	beq.n	3ee8 <SystemInit+0x58>
    3ed8:	4b25      	ldr	r3, [pc, #148]	; (3f70 <SystemInit+0xe0>)
    3eda:	881b      	ldrh	r3, [r3, #0]
    3edc:	b29b      	uxth	r3, r3
    3ede:	4a24      	ldr	r2, [pc, #144]	; (3f70 <SystemInit+0xe0>)
    3ee0:	f023 0304 	bic.w	r3, r3, #4
    3ee4:	b29b      	uxth	r3, r3
    3ee6:	8013      	strh	r3, [r2, #0]
    3ee8:	4b22      	ldr	r3, [pc, #136]	; (3f74 <SystemInit+0xe4>)
    3eea:	881b      	ldrh	r3, [r3, #0]
    3eec:	b29b      	uxth	r3, r3
    3eee:	f003 0304 	and.w	r3, r3, #4
    3ef2:	2b00      	cmp	r3, #0
    3ef4:	d007      	beq.n	3f06 <SystemInit+0x76>
    3ef6:	4b1f      	ldr	r3, [pc, #124]	; (3f74 <SystemInit+0xe4>)
    3ef8:	881b      	ldrh	r3, [r3, #0]
    3efa:	b29b      	uxth	r3, r3
    3efc:	4a1d      	ldr	r2, [pc, #116]	; (3f74 <SystemInit+0xe4>)
    3efe:	f023 0304 	bic.w	r3, r3, #4
    3f02:	b29b      	uxth	r3, r3
    3f04:	8013      	strh	r3, [r2, #0]
    3f06:	4b1c      	ldr	r3, [pc, #112]	; (3f78 <SystemInit+0xe8>)
    3f08:	4a1c      	ldr	r2, [pc, #112]	; (3f7c <SystemInit+0xec>)
    3f0a:	605a      	str	r2, [r3, #4]
    3f0c:	4b1a      	ldr	r3, [pc, #104]	; (3f78 <SystemInit+0xe8>)
    3f0e:	f64f 72ff 	movw	r2, #65535	; 0xffff
    3f12:	609a      	str	r2, [r3, #8]
    3f14:	4b18      	ldr	r3, [pc, #96]	; (3f78 <SystemInit+0xe8>)
    3f16:	681b      	ldr	r3, [r3, #0]
    3f18:	f023 03a0 	bic.w	r3, r3, #160	; 0xa0
    3f1c:	4a16      	ldr	r2, [pc, #88]	; (3f78 <SystemInit+0xe8>)
    3f1e:	f043 0320 	orr.w	r3, r3, #32
    3f22:	6013      	str	r3, [r2, #0]
    3f24:	4b16      	ldr	r3, [pc, #88]	; (3f80 <SystemInit+0xf0>)
    3f26:	681b      	ldr	r3, [r3, #0]
    3f28:	f003 0301 	and.w	r3, r3, #1
    3f2c:	2b00      	cmp	r3, #0
    3f2e:	d005      	beq.n	3f3c <SystemInit+0xac>
    3f30:	4b13      	ldr	r3, [pc, #76]	; (3f80 <SystemInit+0xf0>)
    3f32:	681b      	ldr	r3, [r3, #0]
    3f34:	4a12      	ldr	r2, [pc, #72]	; (3f80 <SystemInit+0xf0>)
    3f36:	f023 0301 	bic.w	r3, r3, #1
    3f3a:	6013      	str	r3, [r2, #0]
    3f3c:	4b0a      	ldr	r3, [pc, #40]	; (3f68 <SystemInit+0xd8>)
    3f3e:	695b      	ldr	r3, [r3, #20]
    3f40:	f403 3300 	and.w	r3, r3, #131072	; 0x20000
    3f44:	f5b3 3f00 	cmp.w	r3, #131072	; 0x20000
    3f48:	d001      	beq.n	3f4e <SystemInit+0xbe>
    3f4a:	f7ff ff41 	bl	3dd0 <SCB_EnableICache>
    3f4e:	4b06      	ldr	r3, [pc, #24]	; (3f68 <SystemInit+0xd8>)
    3f50:	695b      	ldr	r3, [r3, #20]
    3f52:	f403 3380 	and.w	r3, r3, #65536	; 0x10000
    3f56:	f5b3 3f80 	cmp.w	r3, #65536	; 0x10000
    3f5a:	d001      	beq.n	3f60 <SystemInit+0xd0>
    3f5c:	f7ff ff58 	bl	3e10 <SCB_EnableDCache>
    3f60:	f002 feed 	bl	6d3e <SystemInitHook>
    3f64:	bf00      	nop
    3f66:	bd80      	pop	{r7, pc}
    3f68:	e000ed00 	.word	0xe000ed00
    3f6c:	00000000 	.word	0x00000000
    3f70:	400b8000 	.word	0x400b8000
    3f74:	400d0000 	.word	0x400d0000
    3f78:	400bc000 	.word	0x400bc000
    3f7c:	d928c520 	.word	0xd928c520
    3f80:	e000e010 	.word	0xe000e010

00003f84 <HAL_UartInit>:
    3f84:	b580      	push	{r7, lr}
    3f86:	b08a      	sub	sp, #40	; 0x28
    3f88:	af00      	add	r7, sp, #0
    3f8a:	6078      	str	r0, [r7, #4]
    3f8c:	6039      	str	r1, [r7, #0]
    3f8e:	687b      	ldr	r3, [r7, #4]
    3f90:	2b00      	cmp	r3, #0
    3f92:	d102      	bne.n	3f9a <HAL_UartInit+0x16>
    3f94:	4836      	ldr	r0, [pc, #216]	; (4070 <HAL_UartInit+0xec>)
    3f96:	f001 f99b 	bl	52d0 <__assertion_failed>
    3f9a:	683b      	ldr	r3, [r7, #0]
    3f9c:	2b00      	cmp	r3, #0
    3f9e:	d102      	bne.n	3fa6 <HAL_UartInit+0x22>
    3fa0:	4834      	ldr	r0, [pc, #208]	; (4074 <HAL_UartInit+0xf0>)
    3fa2:	f001 f995 	bl	52d0 <__assertion_failed>
    3fa6:	683b      	ldr	r3, [r7, #0]
    3fa8:	7b1b      	ldrb	r3, [r3, #12]
    3faa:	2b08      	cmp	r3, #8
    3fac:	d902      	bls.n	3fb4 <HAL_UartInit+0x30>
    3fae:	4832      	ldr	r0, [pc, #200]	; (4078 <HAL_UartInit+0xf4>)
    3fb0:	f001 f98e 	bl	52d0 <__assertion_failed>
    3fb4:	683b      	ldr	r3, [r7, #0]
    3fb6:	7b1b      	ldrb	r3, [r3, #12]
    3fb8:	461a      	mov	r2, r3
    3fba:	4b30      	ldr	r3, [pc, #192]	; (407c <HAL_UartInit+0xf8>)
    3fbc:	f853 3022 	ldr.w	r3, [r3, r2, lsl #2]
    3fc0:	2b00      	cmp	r3, #0
    3fc2:	d102      	bne.n	3fca <HAL_UartInit+0x46>
    3fc4:	482e      	ldr	r0, [pc, #184]	; (4080 <HAL_UartInit+0xfc>)
    3fc6:	f001 f983 	bl	52d0 <__assertion_failed>
    3fca:	f107 030c 	add.w	r3, r7, #12
    3fce:	4618      	mov	r0, r3
    3fd0:	f7ff fdfe 	bl	3bd0 <LPUART_GetDefaultConfig>
    3fd4:	683b      	ldr	r3, [r7, #0]
    3fd6:	685b      	ldr	r3, [r3, #4]
    3fd8:	60fb      	str	r3, [r7, #12]
    3fda:	683b      	ldr	r3, [r7, #0]
    3fdc:	7a1b      	ldrb	r3, [r3, #8]
    3fde:	2b01      	cmp	r3, #1
    3fe0:	d102      	bne.n	3fe8 <HAL_UartInit+0x64>
    3fe2:	2302      	movs	r3, #2
    3fe4:	743b      	strb	r3, [r7, #16]
    3fe6:	e008      	b.n	3ffa <HAL_UartInit+0x76>
    3fe8:	683b      	ldr	r3, [r7, #0]
    3fea:	7a1b      	ldrb	r3, [r3, #8]
    3fec:	2b02      	cmp	r3, #2
    3fee:	d102      	bne.n	3ff6 <HAL_UartInit+0x72>
    3ff0:	2303      	movs	r3, #3
    3ff2:	743b      	strb	r3, [r7, #16]
    3ff4:	e001      	b.n	3ffa <HAL_UartInit+0x76>
    3ff6:	2300      	movs	r3, #0
    3ff8:	743b      	strb	r3, [r7, #16]
    3ffa:	683b      	ldr	r3, [r7, #0]
    3ffc:	7a5b      	ldrb	r3, [r3, #9]
    3ffe:	2b01      	cmp	r3, #1
    4000:	d102      	bne.n	4008 <HAL_UartInit+0x84>
    4002:	2301      	movs	r3, #1
    4004:	74fb      	strb	r3, [r7, #19]
    4006:	e001      	b.n	400c <HAL_UartInit+0x88>
    4008:	2300      	movs	r3, #0
    400a:	74fb      	strb	r3, [r7, #19]
    400c:	683b      	ldr	r3, [r7, #0]
    400e:	7a9b      	ldrb	r3, [r3, #10]
    4010:	2b00      	cmp	r3, #0
    4012:	bf14      	ite	ne
    4014:	2301      	movne	r3, #1
    4016:	2300      	moveq	r3, #0
    4018:	b2db      	uxtb	r3, r3
    401a:	777b      	strb	r3, [r7, #29]
    401c:	683b      	ldr	r3, [r7, #0]
    401e:	7adb      	ldrb	r3, [r3, #11]
    4020:	2b00      	cmp	r3, #0
    4022:	bf14      	ite	ne
    4024:	2301      	movne	r3, #1
    4026:	2300      	moveq	r3, #0
    4028:	b2db      	uxtb	r3, r3
    402a:	773b      	strb	r3, [r7, #28]
    402c:	683b      	ldr	r3, [r7, #0]
    402e:	7b1b      	ldrb	r3, [r3, #12]
    4030:	461a      	mov	r2, r3
    4032:	4b12      	ldr	r3, [pc, #72]	; (407c <HAL_UartInit+0xf8>)
    4034:	f853 0022 	ldr.w	r0, [r3, r2, lsl #2]
    4038:	683b      	ldr	r3, [r7, #0]
    403a:	681a      	ldr	r2, [r3, #0]
    403c:	f107 030c 	add.w	r3, r7, #12
    4040:	4619      	mov	r1, r3
    4042:	f7ff fc45 	bl	38d0 <LPUART_Init>
    4046:	6278      	str	r0, [r7, #36]	; 0x24
    4048:	6a7b      	ldr	r3, [r7, #36]	; 0x24
    404a:	2b00      	cmp	r3, #0
    404c:	d004      	beq.n	4058 <HAL_UartInit+0xd4>
    404e:	6a78      	ldr	r0, [r7, #36]	; 0x24
    4050:	f002 fe7c 	bl	6d4c <HAL_UartGetStatus>
    4054:	4603      	mov	r3, r0
    4056:	e006      	b.n	4066 <HAL_UartInit+0xe2>
    4058:	687b      	ldr	r3, [r7, #4]
    405a:	623b      	str	r3, [r7, #32]
    405c:	683b      	ldr	r3, [r7, #0]
    405e:	7b1a      	ldrb	r2, [r3, #12]
    4060:	6a3b      	ldr	r3, [r7, #32]
    4062:	701a      	strb	r2, [r3, #0]
    4064:	2300      	movs	r3, #0
    4066:	4618      	mov	r0, r3
    4068:	3728      	adds	r7, #40	; 0x28
    406a:	46bd      	mov	sp, r7
    406c:	bd80      	pop	{r7, pc}
    406e:	bf00      	nop
    4070:	000096bc 	.word	0x000096bc
    4074:	000096ec 	.word	0x000096ec
    4078:	0000971c 	.word	0x0000971c
    407c:	00009698 	.word	0x00009698
    4080:	00009790 	.word	0x00009790

00004084 <HAL_UartSendBlocking>:
    4084:	b580      	push	{r7, lr}
    4086:	b086      	sub	sp, #24
    4088:	af00      	add	r7, sp, #0
    408a:	60f8      	str	r0, [r7, #12]
    408c:	60b9      	str	r1, [r7, #8]
    408e:	607a      	str	r2, [r7, #4]
    4090:	68fb      	ldr	r3, [r7, #12]
    4092:	2b00      	cmp	r3, #0
    4094:	d102      	bne.n	409c <HAL_UartSendBlocking+0x18>
    4096:	4810      	ldr	r0, [pc, #64]	; (40d8 <HAL_UartSendBlocking+0x54>)
    4098:	f001 f91a 	bl	52d0 <__assertion_failed>
    409c:	68bb      	ldr	r3, [r7, #8]
    409e:	2b00      	cmp	r3, #0
    40a0:	d102      	bne.n	40a8 <HAL_UartSendBlocking+0x24>
    40a2:	480e      	ldr	r0, [pc, #56]	; (40dc <HAL_UartSendBlocking+0x58>)
    40a4:	f001 f914 	bl	52d0 <__assertion_failed>
    40a8:	687b      	ldr	r3, [r7, #4]
    40aa:	2b00      	cmp	r3, #0
    40ac:	d102      	bne.n	40b4 <HAL_UartSendBlocking+0x30>
    40ae:	480c      	ldr	r0, [pc, #48]	; (40e0 <HAL_UartSendBlocking+0x5c>)
    40b0:	f001 f90e 	bl	52d0 <__assertion_failed>
    40b4:	68fb      	ldr	r3, [r7, #12]
    40b6:	617b      	str	r3, [r7, #20]
    40b8:	697b      	ldr	r3, [r7, #20]
    40ba:	781b      	ldrb	r3, [r3, #0]
    40bc:	461a      	mov	r2, r3
    40be:	4b09      	ldr	r3, [pc, #36]	; (40e4 <HAL_UartSendBlocking+0x60>)
    40c0:	f853 3022 	ldr.w	r3, [r3, r2, lsl #2]
    40c4:	687a      	ldr	r2, [r7, #4]
    40c6:	68b9      	ldr	r1, [r7, #8]
    40c8:	4618      	mov	r0, r3
    40ca:	f7ff fdc5 	bl	3c58 <LPUART_WriteBlocking>
    40ce:	2300      	movs	r3, #0
    40d0:	4618      	mov	r0, r3
    40d2:	3718      	adds	r7, #24
    40d4:	46bd      	mov	sp, r7
    40d6:	bd80      	pop	{r7, pc}
    40d8:	000098a0 	.word	0x000098a0
    40dc:	000098d0 	.word	0x000098d0
    40e0:	00009900 	.word	0x00009900
    40e4:	00009698 	.word	0x00009698

000040e8 <SerialManager_Write>:
    40e8:	b580      	push	{r7, lr}
    40ea:	b086      	sub	sp, #24
    40ec:	af00      	add	r7, sp, #0
    40ee:	60f8      	str	r0, [r7, #12]
    40f0:	60b9      	str	r1, [r7, #8]
    40f2:	607a      	str	r2, [r7, #4]
    40f4:	68fb      	ldr	r3, [r7, #12]
    40f6:	2b00      	cmp	r3, #0
    40f8:	d102      	bne.n	4100 <SerialManager_Write+0x18>
    40fa:	4812      	ldr	r0, [pc, #72]	; (4144 <SerialManager_Write+0x5c>)
    40fc:	f001 f8e8 	bl	52d0 <__assertion_failed>
    4100:	68bb      	ldr	r3, [r7, #8]
    4102:	2b00      	cmp	r3, #0
    4104:	d102      	bne.n	410c <SerialManager_Write+0x24>
    4106:	4810      	ldr	r0, [pc, #64]	; (4148 <SerialManager_Write+0x60>)
    4108:	f001 f8e2 	bl	52d0 <__assertion_failed>
    410c:	687b      	ldr	r3, [r7, #4]
    410e:	2b00      	cmp	r3, #0
    4110:	d102      	bne.n	4118 <SerialManager_Write+0x30>
    4112:	480e      	ldr	r0, [pc, #56]	; (414c <SerialManager_Write+0x64>)
    4114:	f001 f8dc 	bl	52d0 <__assertion_failed>
    4118:	68fb      	ldr	r3, [r7, #12]
    411a:	617b      	str	r3, [r7, #20]
    411c:	697b      	ldr	r3, [r7, #20]
    411e:	681b      	ldr	r3, [r3, #0]
    4120:	613b      	str	r3, [r7, #16]
    4122:	693b      	ldr	r3, [r7, #16]
    4124:	2b00      	cmp	r3, #0
    4126:	d102      	bne.n	412e <SerialManager_Write+0x46>
    4128:	4809      	ldr	r0, [pc, #36]	; (4150 <SerialManager_Write+0x68>)
    412a:	f001 f8d1 	bl	52d0 <__assertion_failed>
    412e:	687b      	ldr	r3, [r7, #4]
    4130:	68ba      	ldr	r2, [r7, #8]
    4132:	6979      	ldr	r1, [r7, #20]
    4134:	6938      	ldr	r0, [r7, #16]
    4136:	f002 fe1a 	bl	6d6e <SerialManager_StartWriting>
    413a:	4603      	mov	r3, r0
    413c:	4618      	mov	r0, r3
    413e:	3718      	adds	r7, #24
    4140:	46bd      	mov	sp, r7
    4142:	bd80      	pop	{r7, pc}
    4144:	00009930 	.word	0x00009930
    4148:	00009970 	.word	0x00009970
    414c:	000099ac 	.word	0x000099ac
    4150:	000099e8 	.word	0x000099e8

00004154 <SerialManager_Init>:
    4154:	b580      	push	{r7, lr}
    4156:	b084      	sub	sp, #16
    4158:	af00      	add	r7, sp, #0
    415a:	6078      	str	r0, [r7, #4]
    415c:	6039      	str	r1, [r7, #0]
    415e:	f243 5321 	movw	r3, #13601	; 0x3521
    4162:	81fb      	strh	r3, [r7, #14]
    4164:	683b      	ldr	r3, [r7, #0]
    4166:	2b00      	cmp	r3, #0
    4168:	d102      	bne.n	4170 <SerialManager_Init+0x1c>
    416a:	4815      	ldr	r0, [pc, #84]	; (41c0 <SerialManager_Init+0x6c>)
    416c:	f001 f8b0 	bl	52d0 <__assertion_failed>
    4170:	687b      	ldr	r3, [r7, #4]
    4172:	2b00      	cmp	r3, #0
    4174:	d102      	bne.n	417c <SerialManager_Init+0x28>
    4176:	4813      	ldr	r0, [pc, #76]	; (41c4 <SerialManager_Init+0x70>)
    4178:	f001 f8aa 	bl	52d0 <__assertion_failed>
    417c:	687b      	ldr	r3, [r7, #4]
    417e:	60bb      	str	r3, [r7, #8]
    4180:	2210      	movs	r2, #16
    4182:	2100      	movs	r1, #0
    4184:	68b8      	ldr	r0, [r7, #8]
    4186:	f002 fef9 	bl	6f7c <memset>
    418a:	683b      	ldr	r3, [r7, #0]
    418c:	7a1a      	ldrb	r2, [r3, #8]
    418e:	68bb      	ldr	r3, [r7, #8]
    4190:	731a      	strb	r2, [r3, #12]
    4192:	683b      	ldr	r3, [r7, #0]
    4194:	7a1b      	ldrb	r3, [r3, #8]
    4196:	2b01      	cmp	r3, #1
    4198:	d10b      	bne.n	41b2 <SerialManager_Init+0x5e>
    419a:	68bb      	ldr	r3, [r7, #8]
    419c:	f103 0208 	add.w	r2, r3, #8
    41a0:	683b      	ldr	r3, [r7, #0]
    41a2:	68db      	ldr	r3, [r3, #12]
    41a4:	4619      	mov	r1, r3
    41a6:	4610      	mov	r0, r2
    41a8:	f000 f86a 	bl	4280 <Serial_UartInit>
    41ac:	4603      	mov	r3, r0
    41ae:	81fb      	strh	r3, [r7, #14]
    41b0:	e000      	b.n	41b4 <SerialManager_Init+0x60>
    41b2:	bf00      	nop
    41b4:	89fb      	ldrh	r3, [r7, #14]
    41b6:	4618      	mov	r0, r3
    41b8:	3710      	adds	r7, #16
    41ba:	46bd      	mov	sp, r7
    41bc:	bd80      	pop	{r7, pc}
    41be:	bf00      	nop
    41c0:	00009b18 	.word	0x00009b18
    41c4:	00009b54 	.word	0x00009b54

000041c8 <SerialManager_OpenWriteHandle>:
    41c8:	b580      	push	{r7, lr}
    41ca:	b084      	sub	sp, #16
    41cc:	af00      	add	r7, sp, #0
    41ce:	6078      	str	r0, [r7, #4]
    41d0:	6039      	str	r1, [r7, #0]
    41d2:	687b      	ldr	r3, [r7, #4]
    41d4:	2b00      	cmp	r3, #0
    41d6:	d102      	bne.n	41de <SerialManager_OpenWriteHandle+0x16>
    41d8:	480f      	ldr	r0, [pc, #60]	; (4218 <SerialManager_OpenWriteHandle+0x50>)
    41da:	f001 f879 	bl	52d0 <__assertion_failed>
    41de:	683b      	ldr	r3, [r7, #0]
    41e0:	2b00      	cmp	r3, #0
    41e2:	d102      	bne.n	41ea <SerialManager_OpenWriteHandle+0x22>
    41e4:	480d      	ldr	r0, [pc, #52]	; (421c <SerialManager_OpenWriteHandle+0x54>)
    41e6:	f001 f873 	bl	52d0 <__assertion_failed>
    41ea:	687b      	ldr	r3, [r7, #4]
    41ec:	60fb      	str	r3, [r7, #12]
    41ee:	683b      	ldr	r3, [r7, #0]
    41f0:	60bb      	str	r3, [r7, #8]
    41f2:	2204      	movs	r2, #4
    41f4:	2100      	movs	r1, #0
    41f6:	6838      	ldr	r0, [r7, #0]
    41f8:	f002 fec0 	bl	6f7c <memset>
    41fc:	68fb      	ldr	r3, [r7, #12]
    41fe:	685b      	ldr	r3, [r3, #4]
    4200:	1c5a      	adds	r2, r3, #1
    4202:	68fb      	ldr	r3, [r7, #12]
    4204:	605a      	str	r2, [r3, #4]
    4206:	68bb      	ldr	r3, [r7, #8]
    4208:	68fa      	ldr	r2, [r7, #12]
    420a:	601a      	str	r2, [r3, #0]
    420c:	2300      	movs	r3, #0
    420e:	4618      	mov	r0, r3
    4210:	3710      	adds	r7, #16
    4212:	46bd      	mov	sp, r7
    4214:	bd80      	pop	{r7, pc}
    4216:	bf00      	nop
    4218:	00009bd4 	.word	0x00009bd4
    421c:	00009c14 	.word	0x00009c14

00004220 <SerialManager_OpenReadHandle>:
    4220:	b580      	push	{r7, lr}
    4222:	b084      	sub	sp, #16
    4224:	af00      	add	r7, sp, #0
    4226:	6078      	str	r0, [r7, #4]
    4228:	6039      	str	r1, [r7, #0]
    422a:	687b      	ldr	r3, [r7, #4]
    422c:	2b00      	cmp	r3, #0
    422e:	d102      	bne.n	4236 <SerialManager_OpenReadHandle+0x16>
    4230:	4811      	ldr	r0, [pc, #68]	; (4278 <SerialManager_OpenReadHandle+0x58>)
    4232:	f001 f84d 	bl	52d0 <__assertion_failed>
    4236:	683b      	ldr	r3, [r7, #0]
    4238:	2b00      	cmp	r3, #0
    423a:	d102      	bne.n	4242 <SerialManager_OpenReadHandle+0x22>
    423c:	480f      	ldr	r0, [pc, #60]	; (427c <SerialManager_OpenReadHandle+0x5c>)
    423e:	f001 f847 	bl	52d0 <__assertion_failed>
    4242:	687b      	ldr	r3, [r7, #4]
    4244:	60fb      	str	r3, [r7, #12]
    4246:	683b      	ldr	r3, [r7, #0]
    4248:	60bb      	str	r3, [r7, #8]
    424a:	68fb      	ldr	r3, [r7, #12]
    424c:	681b      	ldr	r3, [r3, #0]
    424e:	2b00      	cmp	r3, #0
    4250:	d002      	beq.n	4258 <SerialManager_OpenReadHandle+0x38>
    4252:	f243 5322 	movw	r3, #13602	; 0x3522
    4256:	e00b      	b.n	4270 <SerialManager_OpenReadHandle+0x50>
    4258:	2204      	movs	r2, #4
    425a:	2100      	movs	r1, #0
    425c:	6838      	ldr	r0, [r7, #0]
    425e:	f002 fe8d 	bl	6f7c <memset>
    4262:	68fb      	ldr	r3, [r7, #12]
    4264:	68ba      	ldr	r2, [r7, #8]
    4266:	601a      	str	r2, [r3, #0]
    4268:	68bb      	ldr	r3, [r7, #8]
    426a:	68fa      	ldr	r2, [r7, #12]
    426c:	601a      	str	r2, [r3, #0]
    426e:	2300      	movs	r3, #0
    4270:	4618      	mov	r0, r3
    4272:	3710      	adds	r7, #16
    4274:	46bd      	mov	sp, r7
    4276:	bd80      	pop	{r7, pc}
    4278:	00009cd0 	.word	0x00009cd0
    427c:	00009d14 	.word	0x00009d14

00004280 <Serial_UartInit>:
    4280:	b580      	push	{r7, lr}
    4282:	b088      	sub	sp, #32
    4284:	af00      	add	r7, sp, #0
    4286:	6078      	str	r0, [r7, #4]
    4288:	6039      	str	r1, [r7, #0]
    428a:	683b      	ldr	r3, [r7, #0]
    428c:	2b00      	cmp	r3, #0
    428e:	d102      	bne.n	4296 <Serial_UartInit+0x16>
    4290:	4819      	ldr	r0, [pc, #100]	; (42f8 <Serial_UartInit+0x78>)
    4292:	f001 f81d 	bl	52d0 <__assertion_failed>
    4296:	687b      	ldr	r3, [r7, #4]
    4298:	2b00      	cmp	r3, #0
    429a:	d102      	bne.n	42a2 <Serial_UartInit+0x22>
    429c:	4817      	ldr	r0, [pc, #92]	; (42fc <Serial_UartInit+0x7c>)
    429e:	f001 f817 	bl	52d0 <__assertion_failed>
    42a2:	683b      	ldr	r3, [r7, #0]
    42a4:	61fb      	str	r3, [r7, #28]
    42a6:	687b      	ldr	r3, [r7, #4]
    42a8:	61bb      	str	r3, [r7, #24]
    42aa:	69fb      	ldr	r3, [r7, #28]
    42ac:	685b      	ldr	r3, [r3, #4]
    42ae:	60fb      	str	r3, [r7, #12]
    42b0:	69fb      	ldr	r3, [r7, #28]
    42b2:	7a1b      	ldrb	r3, [r3, #8]
    42b4:	743b      	strb	r3, [r7, #16]
    42b6:	69fb      	ldr	r3, [r7, #28]
    42b8:	7a5b      	ldrb	r3, [r3, #9]
    42ba:	747b      	strb	r3, [r7, #17]
    42bc:	69fb      	ldr	r3, [r7, #28]
    42be:	7adb      	ldrb	r3, [r3, #11]
    42c0:	74bb      	strb	r3, [r7, #18]
    42c2:	69fb      	ldr	r3, [r7, #28]
    42c4:	7b1b      	ldrb	r3, [r3, #12]
    42c6:	74fb      	strb	r3, [r7, #19]
    42c8:	69fb      	ldr	r3, [r7, #28]
    42ca:	681b      	ldr	r3, [r3, #0]
    42cc:	60bb      	str	r3, [r7, #8]
    42ce:	69fb      	ldr	r3, [r7, #28]
    42d0:	7a9b      	ldrb	r3, [r3, #10]
    42d2:	753b      	strb	r3, [r7, #20]
    42d4:	69bb      	ldr	r3, [r7, #24]
    42d6:	f107 0208 	add.w	r2, r7, #8
    42da:	4611      	mov	r1, r2
    42dc:	4618      	mov	r0, r3
    42de:	f7ff fe51 	bl	3f84 <HAL_UartInit>
    42e2:	4603      	mov	r3, r0
    42e4:	2b00      	cmp	r3, #0
    42e6:	d002      	beq.n	42ee <Serial_UartInit+0x6e>
    42e8:	f243 5321 	movw	r3, #13601	; 0x3521
    42ec:	e000      	b.n	42f0 <Serial_UartInit+0x70>
    42ee:	2300      	movs	r3, #0
    42f0:	4618      	mov	r0, r3
    42f2:	3720      	adds	r7, #32
    42f4:	46bd      	mov	sp, r7
    42f6:	bd80      	pop	{r7, pc}
    42f8:	00009e58 	.word	0x00009e58
    42fc:	00009e9c 	.word	0x00009e9c

00004300 <Serial_UartWrite>:
    4300:	b580      	push	{r7, lr}
    4302:	b086      	sub	sp, #24
    4304:	af00      	add	r7, sp, #0
    4306:	60f8      	str	r0, [r7, #12]
    4308:	60b9      	str	r1, [r7, #8]
    430a:	607a      	str	r2, [r7, #4]
    430c:	68fb      	ldr	r3, [r7, #12]
    430e:	2b00      	cmp	r3, #0
    4310:	d102      	bne.n	4318 <Serial_UartWrite+0x18>
    4312:	480e      	ldr	r0, [pc, #56]	; (434c <Serial_UartWrite+0x4c>)
    4314:	f000 ffdc 	bl	52d0 <__assertion_failed>
    4318:	68bb      	ldr	r3, [r7, #8]
    431a:	2b00      	cmp	r3, #0
    431c:	d102      	bne.n	4324 <Serial_UartWrite+0x24>
    431e:	480c      	ldr	r0, [pc, #48]	; (4350 <Serial_UartWrite+0x50>)
    4320:	f000 ffd6 	bl	52d0 <__assertion_failed>
    4324:	687b      	ldr	r3, [r7, #4]
    4326:	2b00      	cmp	r3, #0
    4328:	d102      	bne.n	4330 <Serial_UartWrite+0x30>
    432a:	480a      	ldr	r0, [pc, #40]	; (4354 <Serial_UartWrite+0x54>)
    432c:	f000 ffd0 	bl	52d0 <__assertion_failed>
    4330:	68fb      	ldr	r3, [r7, #12]
    4332:	617b      	str	r3, [r7, #20]
    4334:	697b      	ldr	r3, [r7, #20]
    4336:	687a      	ldr	r2, [r7, #4]
    4338:	68b9      	ldr	r1, [r7, #8]
    433a:	4618      	mov	r0, r3
    433c:	f7ff fea2 	bl	4084 <HAL_UartSendBlocking>
    4340:	4603      	mov	r3, r0
    4342:	4618      	mov	r0, r3
    4344:	3718      	adds	r7, #24
    4346:	46bd      	mov	sp, r7
    4348:	bd80      	pop	{r7, pc}
    434a:	bf00      	nop
    434c:	00009f24 	.word	0x00009f24
    4350:	00009f68 	.word	0x00009f68
    4354:	00009fa4 	.word	0x00009fa4

00004358 <ARM_MPU_Enable>:
    4358:	b480      	push	{r7}
    435a:	b083      	sub	sp, #12
    435c:	af00      	add	r7, sp, #0
    435e:	6078      	str	r0, [r7, #4]
    4360:	f3bf 8f4f 	dsb	sy
    4364:	f3bf 8f6f 	isb	sy
    4368:	4a08      	ldr	r2, [pc, #32]	; (438c <ARM_MPU_Enable+0x34>)
    436a:	687b      	ldr	r3, [r7, #4]
    436c:	f043 0301 	orr.w	r3, r3, #1
    4370:	6053      	str	r3, [r2, #4]
    4372:	4b07      	ldr	r3, [pc, #28]	; (4390 <ARM_MPU_Enable+0x38>)
    4374:	6a5b      	ldr	r3, [r3, #36]	; 0x24
    4376:	4a06      	ldr	r2, [pc, #24]	; (4390 <ARM_MPU_Enable+0x38>)
    4378:	f443 3380 	orr.w	r3, r3, #65536	; 0x10000
    437c:	6253      	str	r3, [r2, #36]	; 0x24
    437e:	bf00      	nop
    4380:	370c      	adds	r7, #12
    4382:	46bd      	mov	sp, r7
    4384:	f85d 7b04 	ldr.w	r7, [sp], #4
    4388:	4770      	bx	lr
    438a:	bf00      	nop
    438c:	e000ed90 	.word	0xe000ed90
    4390:	e000ed00 	.word	0xe000ed00

00004394 <ARM_MPU_Disable>:
    4394:	b480      	push	{r7}
    4396:	af00      	add	r7, sp, #0
    4398:	f3bf 8f4f 	dsb	sy
    439c:	f3bf 8f6f 	isb	sy
    43a0:	4b08      	ldr	r3, [pc, #32]	; (43c4 <ARM_MPU_Disable+0x30>)
    43a2:	6a5b      	ldr	r3, [r3, #36]	; 0x24
    43a4:	4a07      	ldr	r2, [pc, #28]	; (43c4 <ARM_MPU_Disable+0x30>)
    43a6:	f423 3380 	bic.w	r3, r3, #65536	; 0x10000
    43aa:	6253      	str	r3, [r2, #36]	; 0x24
    43ac:	4b06      	ldr	r3, [pc, #24]	; (43c8 <ARM_MPU_Disable+0x34>)
    43ae:	685b      	ldr	r3, [r3, #4]
    43b0:	4a05      	ldr	r2, [pc, #20]	; (43c8 <ARM_MPU_Disable+0x34>)
    43b2:	f023 0301 	bic.w	r3, r3, #1
    43b6:	6053      	str	r3, [r2, #4]
    43b8:	bf00      	nop
    43ba:	46bd      	mov	sp, r7
    43bc:	f85d 7b04 	ldr.w	r7, [sp], #4
    43c0:	4770      	bx	lr
    43c2:	bf00      	nop
    43c4:	e000ed00 	.word	0xe000ed00
    43c8:	e000ed90 	.word	0xe000ed90

000043cc <SCB_EnableICache>:
    43cc:	b480      	push	{r7}
    43ce:	af00      	add	r7, sp, #0
    43d0:	f3bf 8f4f 	dsb	sy
    43d4:	f3bf 8f6f 	isb	sy
    43d8:	4b0b      	ldr	r3, [pc, #44]	; (4408 <SCB_EnableICache+0x3c>)
    43da:	2200      	movs	r2, #0
    43dc:	f8c3 2250 	str.w	r2, [r3, #592]	; 0x250
    43e0:	f3bf 8f4f 	dsb	sy
    43e4:	f3bf 8f6f 	isb	sy
    43e8:	4b07      	ldr	r3, [pc, #28]	; (4408 <SCB_EnableICache+0x3c>)
    43ea:	695b      	ldr	r3, [r3, #20]
    43ec:	4a06      	ldr	r2, [pc, #24]	; (4408 <SCB_EnableICache+0x3c>)
    43ee:	f443 3300 	orr.w	r3, r3, #131072	; 0x20000
    43f2:	6153      	str	r3, [r2, #20]
    43f4:	f3bf 8f4f 	dsb	sy
    43f8:	f3bf 8f6f 	isb	sy
    43fc:	bf00      	nop
    43fe:	46bd      	mov	sp, r7
    4400:	f85d 7b04 	ldr.w	r7, [sp], #4
    4404:	4770      	bx	lr
    4406:	bf00      	nop
    4408:	e000ed00 	.word	0xe000ed00

0000440c <SCB_DisableICache>:
    440c:	b480      	push	{r7}
    440e:	af00      	add	r7, sp, #0
    4410:	f3bf 8f4f 	dsb	sy
    4414:	f3bf 8f6f 	isb	sy
    4418:	4b09      	ldr	r3, [pc, #36]	; (4440 <SCB_DisableICache+0x34>)
    441a:	695b      	ldr	r3, [r3, #20]
    441c:	4a08      	ldr	r2, [pc, #32]	; (4440 <SCB_DisableICache+0x34>)
    441e:	f423 3300 	bic.w	r3, r3, #131072	; 0x20000
    4422:	6153      	str	r3, [r2, #20]
    4424:	4b06      	ldr	r3, [pc, #24]	; (4440 <SCB_DisableICache+0x34>)
    4426:	2200      	movs	r2, #0
    4428:	f8c3 2250 	str.w	r2, [r3, #592]	; 0x250
    442c:	f3bf 8f4f 	dsb	sy
    4430:	f3bf 8f6f 	isb	sy
    4434:	bf00      	nop
    4436:	46bd      	mov	sp, r7
    4438:	f85d 7b04 	ldr.w	r7, [sp], #4
    443c:	4770      	bx	lr
    443e:	bf00      	nop
    4440:	e000ed00 	.word	0xe000ed00

00004444 <SCB_EnableDCache>:
    4444:	b480      	push	{r7}
    4446:	b085      	sub	sp, #20
    4448:	af00      	add	r7, sp, #0
    444a:	4b1d      	ldr	r3, [pc, #116]	; (44c0 <SCB_EnableDCache+0x7c>)
    444c:	2200      	movs	r2, #0
    444e:	f8c3 2084 	str.w	r2, [r3, #132]	; 0x84
    4452:	f3bf 8f4f 	dsb	sy
    4456:	4b1a      	ldr	r3, [pc, #104]	; (44c0 <SCB_EnableDCache+0x7c>)
    4458:	f8d3 3080 	ldr.w	r3, [r3, #128]	; 0x80
    445c:	607b      	str	r3, [r7, #4]
    445e:	687b      	ldr	r3, [r7, #4]
    4460:	0b5b      	lsrs	r3, r3, #13
    4462:	f3c3 030e 	ubfx	r3, r3, #0, #15
    4466:	60fb      	str	r3, [r7, #12]
    4468:	687b      	ldr	r3, [r7, #4]
    446a:	08db      	lsrs	r3, r3, #3
    446c:	f3c3 0309 	ubfx	r3, r3, #0, #10
    4470:	60bb      	str	r3, [r7, #8]
    4472:	68fb      	ldr	r3, [r7, #12]
    4474:	015a      	lsls	r2, r3, #5
    4476:	f643 73e0 	movw	r3, #16352	; 0x3fe0
    447a:	4013      	ands	r3, r2
    447c:	68ba      	ldr	r2, [r7, #8]
    447e:	0792      	lsls	r2, r2, #30
    4480:	490f      	ldr	r1, [pc, #60]	; (44c0 <SCB_EnableDCache+0x7c>)
    4482:	4313      	orrs	r3, r2
    4484:	f8c1 3260 	str.w	r3, [r1, #608]	; 0x260
    4488:	68bb      	ldr	r3, [r7, #8]
    448a:	1e5a      	subs	r2, r3, #1
    448c:	60ba      	str	r2, [r7, #8]
    448e:	2b00      	cmp	r3, #0
    4490:	d1ef      	bne.n	4472 <SCB_EnableDCache+0x2e>
    4492:	68fb      	ldr	r3, [r7, #12]
    4494:	1e5a      	subs	r2, r3, #1
    4496:	60fa      	str	r2, [r7, #12]
    4498:	2b00      	cmp	r3, #0
    449a:	d1e5      	bne.n	4468 <SCB_EnableDCache+0x24>
    449c:	f3bf 8f4f 	dsb	sy
    44a0:	4b07      	ldr	r3, [pc, #28]	; (44c0 <SCB_EnableDCache+0x7c>)
    44a2:	695b      	ldr	r3, [r3, #20]
    44a4:	4a06      	ldr	r2, [pc, #24]	; (44c0 <SCB_EnableDCache+0x7c>)
    44a6:	f443 3380 	orr.w	r3, r3, #65536	; 0x10000
    44aa:	6153      	str	r3, [r2, #20]
    44ac:	f3bf 8f4f 	dsb	sy
    44b0:	f3bf 8f6f 	isb	sy
    44b4:	bf00      	nop
    44b6:	3714      	adds	r7, #20
    44b8:	46bd      	mov	sp, r7
    44ba:	f85d 7b04 	ldr.w	r7, [sp], #4
    44be:	4770      	bx	lr
    44c0:	e000ed00 	.word	0xe000ed00

000044c4 <SCB_DisableDCache>:
    44c4:	b4f0      	push	{r4, r5, r6, r7}
    44c6:	af00      	add	r7, sp, #0
    44c8:	4b17      	ldr	r3, [pc, #92]	; (4528 <SCB_DisableDCache+0x64>)
    44ca:	2200      	movs	r2, #0
    44cc:	f8c3 2084 	str.w	r2, [r3, #132]	; 0x84
    44d0:	f3bf 8f4f 	dsb	sy
    44d4:	4b14      	ldr	r3, [pc, #80]	; (4528 <SCB_DisableDCache+0x64>)
    44d6:	695b      	ldr	r3, [r3, #20]
    44d8:	4a13      	ldr	r2, [pc, #76]	; (4528 <SCB_DisableDCache+0x64>)
    44da:	f423 3380 	bic.w	r3, r3, #65536	; 0x10000
    44de:	6153      	str	r3, [r2, #20]
    44e0:	f3bf 8f4f 	dsb	sy
    44e4:	4b10      	ldr	r3, [pc, #64]	; (4528 <SCB_DisableDCache+0x64>)
    44e6:	f8d3 6080 	ldr.w	r6, [r3, #128]	; 0x80
    44ea:	0b73      	lsrs	r3, r6, #13
    44ec:	f3c3 040e 	ubfx	r4, r3, #0, #15
    44f0:	08f3      	lsrs	r3, r6, #3
    44f2:	f3c3 0509 	ubfx	r5, r3, #0, #10
    44f6:	0162      	lsls	r2, r4, #5
    44f8:	f643 73e0 	movw	r3, #16352	; 0x3fe0
    44fc:	4013      	ands	r3, r2
    44fe:	07aa      	lsls	r2, r5, #30
    4500:	4909      	ldr	r1, [pc, #36]	; (4528 <SCB_DisableDCache+0x64>)
    4502:	4313      	orrs	r3, r2
    4504:	f8c1 3274 	str.w	r3, [r1, #628]	; 0x274
    4508:	462b      	mov	r3, r5
    450a:	1e5d      	subs	r5, r3, #1
    450c:	2b00      	cmp	r3, #0
    450e:	d1f2      	bne.n	44f6 <SCB_DisableDCache+0x32>
    4510:	4623      	mov	r3, r4
    4512:	1e5c      	subs	r4, r3, #1
    4514:	2b00      	cmp	r3, #0
    4516:	d1eb      	bne.n	44f0 <SCB_DisableDCache+0x2c>
    4518:	f3bf 8f4f 	dsb	sy
    451c:	f3bf 8f6f 	isb	sy
    4520:	bf00      	nop
    4522:	46bd      	mov	sp, r7
    4524:	bcf0      	pop	{r4, r5, r6, r7}
    4526:	4770      	bx	lr
    4528:	e000ed00 	.word	0xe000ed00

0000452c <CLOCK_GetMux>:
    452c:	b480      	push	{r7}
    452e:	b083      	sub	sp, #12
    4530:	af00      	add	r7, sp, #0
    4532:	6078      	str	r0, [r7, #4]
    4534:	687b      	ldr	r3, [r7, #4]
    4536:	b2da      	uxtb	r2, r3
    4538:	4b0c      	ldr	r3, [pc, #48]	; (456c <CLOCK_GetMux+0x40>)
    453a:	4413      	add	r3, r2
    453c:	681a      	ldr	r2, [r3, #0]
    453e:	687b      	ldr	r3, [r7, #4]
    4540:	135b      	asrs	r3, r3, #13
    4542:	f3c3 010c 	ubfx	r1, r3, #0, #13
    4546:	687b      	ldr	r3, [r7, #4]
    4548:	121b      	asrs	r3, r3, #8
    454a:	f003 031f 	and.w	r3, r3, #31
    454e:	fa01 f303 	lsl.w	r3, r1, r3
    4552:	401a      	ands	r2, r3
    4554:	687b      	ldr	r3, [r7, #4]
    4556:	121b      	asrs	r3, r3, #8
    4558:	f003 031f 	and.w	r3, r3, #31
    455c:	fa22 f303 	lsr.w	r3, r2, r3
    4560:	4618      	mov	r0, r3
    4562:	370c      	adds	r7, #12
    4564:	46bd      	mov	sp, r7
    4566:	f85d 7b04 	ldr.w	r7, [sp], #4
    456a:	4770      	bx	lr
    456c:	400fc000 	.word	0x400fc000

00004570 <CLOCK_GetDiv>:
    4570:	b480      	push	{r7}
    4572:	b083      	sub	sp, #12
    4574:	af00      	add	r7, sp, #0
    4576:	6078      	str	r0, [r7, #4]
    4578:	687b      	ldr	r3, [r7, #4]
    457a:	b2da      	uxtb	r2, r3
    457c:	4b0c      	ldr	r3, [pc, #48]	; (45b0 <CLOCK_GetDiv+0x40>)
    457e:	4413      	add	r3, r2
    4580:	681a      	ldr	r2, [r3, #0]
    4582:	687b      	ldr	r3, [r7, #4]
    4584:	135b      	asrs	r3, r3, #13
    4586:	f3c3 010c 	ubfx	r1, r3, #0, #13
    458a:	687b      	ldr	r3, [r7, #4]
    458c:	121b      	asrs	r3, r3, #8
    458e:	f003 031f 	and.w	r3, r3, #31
    4592:	fa01 f303 	lsl.w	r3, r1, r3
    4596:	401a      	ands	r2, r3
    4598:	687b      	ldr	r3, [r7, #4]
    459a:	121b      	asrs	r3, r3, #8
    459c:	f003 031f 	and.w	r3, r3, #31
    45a0:	fa22 f303 	lsr.w	r3, r2, r3
    45a4:	4618      	mov	r0, r3
    45a6:	370c      	adds	r7, #12
    45a8:	46bd      	mov	sp, r7
    45aa:	f85d 7b04 	ldr.w	r7, [sp], #4
    45ae:	4770      	bx	lr
    45b0:	400fc000 	.word	0x400fc000

000045b4 <CLOCK_GetOscFreq>:
    45b4:	b480      	push	{r7}
    45b6:	af00      	add	r7, sp, #0
    45b8:	4b07      	ldr	r3, [pc, #28]	; (45d8 <CLOCK_GetOscFreq+0x24>)
    45ba:	f8d3 3270 	ldr.w	r3, [r3, #624]	; 0x270
    45be:	f003 0310 	and.w	r3, r3, #16
    45c2:	2b00      	cmp	r3, #0
    45c4:	d102      	bne.n	45cc <CLOCK_GetOscFreq+0x18>
    45c6:	4b05      	ldr	r3, [pc, #20]	; (45dc <CLOCK_GetOscFreq+0x28>)
    45c8:	681b      	ldr	r3, [r3, #0]
    45ca:	e000      	b.n	45ce <CLOCK_GetOscFreq+0x1a>
    45cc:	4b04      	ldr	r3, [pc, #16]	; (45e0 <CLOCK_GetOscFreq+0x2c>)
    45ce:	4618      	mov	r0, r3
    45d0:	46bd      	mov	sp, r7
    45d2:	f85d 7b04 	ldr.w	r7, [sp], #4
    45d6:	4770      	bx	lr
    45d8:	400d8000 	.word	0x400d8000
    45dc:	20000040 	.word	0x20000040
    45e0:	016e3600 	.word	0x016e3600

000045e4 <BOARD_DebugConsoleSrcFreq>:
    45e4:	b590      	push	{r4, r7, lr}
    45e6:	b083      	sub	sp, #12
    45e8:	af00      	add	r7, sp, #0
    45ea:	4813      	ldr	r0, [pc, #76]	; (4638 <BOARD_DebugConsoleSrcFreq+0x54>)
    45ec:	f7ff ff9e 	bl	452c <CLOCK_GetMux>
    45f0:	4603      	mov	r3, r0
    45f2:	2b00      	cmp	r3, #0
    45f4:	d110      	bne.n	4618 <BOARD_DebugConsoleSrcFreq+0x34>
    45f6:	4811      	ldr	r0, [pc, #68]	; (463c <BOARD_DebugConsoleSrcFreq+0x58>)
    45f8:	f7fc fc90 	bl	f1c <CLOCK_GetPllFreq>
    45fc:	4602      	mov	r2, r0
    45fe:	4b10      	ldr	r3, [pc, #64]	; (4640 <BOARD_DebugConsoleSrcFreq+0x5c>)
    4600:	fba3 2302 	umull	r2, r3, r3, r2
    4604:	089c      	lsrs	r4, r3, #2
    4606:	480f      	ldr	r0, [pc, #60]	; (4644 <BOARD_DebugConsoleSrcFreq+0x60>)
    4608:	f7ff ffb2 	bl	4570 <CLOCK_GetDiv>
    460c:	4603      	mov	r3, r0
    460e:	3301      	adds	r3, #1
    4610:	fbb4 f3f3 	udiv	r3, r4, r3
    4614:	607b      	str	r3, [r7, #4]
    4616:	e00a      	b.n	462e <BOARD_DebugConsoleSrcFreq+0x4a>
    4618:	f7ff ffcc 	bl	45b4 <CLOCK_GetOscFreq>
    461c:	4604      	mov	r4, r0
    461e:	4809      	ldr	r0, [pc, #36]	; (4644 <BOARD_DebugConsoleSrcFreq+0x60>)
    4620:	f7ff ffa6 	bl	4570 <CLOCK_GetDiv>
    4624:	4603      	mov	r3, r0
    4626:	3301      	adds	r3, #1
    4628:	fbb4 f3f3 	udiv	r3, r4, r3
    462c:	607b      	str	r3, [r7, #4]
    462e:	687b      	ldr	r3, [r7, #4]
    4630:	4618      	mov	r0, r3
    4632:	370c      	adds	r7, #12
    4634:	46bd      	mov	sp, r7
    4636:	bd90      	pop	{r4, r7, pc}
    4638:	80002624 	.word	0x80002624
    463c:	0010000d 	.word	0x0010000d
    4640:	aaaaaaab 	.word	0xaaaaaaab
    4644:	8007e024 	.word	0x8007e024

00004648 <BOARD_ConfigMPU>:
    4648:	b580      	push	{r7, lr}
    464a:	af00      	add	r7, sp, #0
    464c:	4b2c      	ldr	r3, [pc, #176]	; (4700 <BOARD_ConfigMPU+0xb8>)
    464e:	695b      	ldr	r3, [r3, #20]
    4650:	f403 3300 	and.w	r3, r3, #131072	; 0x20000
    4654:	f5b3 3f00 	cmp.w	r3, #131072	; 0x20000
    4658:	d101      	bne.n	465e <BOARD_ConfigMPU+0x16>
    465a:	f7ff fed7 	bl	440c <SCB_DisableICache>
    465e:	4b28      	ldr	r3, [pc, #160]	; (4700 <BOARD_ConfigMPU+0xb8>)
    4660:	695b      	ldr	r3, [r3, #20]
    4662:	f403 3380 	and.w	r3, r3, #65536	; 0x10000
    4666:	f5b3 3f80 	cmp.w	r3, #65536	; 0x10000
    466a:	d101      	bne.n	4670 <BOARD_ConfigMPU+0x28>
    466c:	f7ff ff2a 	bl	44c4 <SCB_DisableDCache>
    4670:	f7ff fe90 	bl	4394 <ARM_MPU_Disable>
    4674:	4b23      	ldr	r3, [pc, #140]	; (4704 <BOARD_ConfigMPU+0xbc>)
    4676:	4a24      	ldr	r2, [pc, #144]	; (4708 <BOARD_ConfigMPU+0xc0>)
    4678:	60da      	str	r2, [r3, #12]
    467a:	4b22      	ldr	r3, [pc, #136]	; (4704 <BOARD_ConfigMPU+0xbc>)
    467c:	4a23      	ldr	r2, [pc, #140]	; (470c <BOARD_ConfigMPU+0xc4>)
    467e:	611a      	str	r2, [r3, #16]
    4680:	4b20      	ldr	r3, [pc, #128]	; (4704 <BOARD_ConfigMPU+0xbc>)
    4682:	4a23      	ldr	r2, [pc, #140]	; (4710 <BOARD_ConfigMPU+0xc8>)
    4684:	60da      	str	r2, [r3, #12]
    4686:	4b1f      	ldr	r3, [pc, #124]	; (4704 <BOARD_ConfigMPU+0xbc>)
    4688:	4a22      	ldr	r2, [pc, #136]	; (4714 <BOARD_ConfigMPU+0xcc>)
    468a:	611a      	str	r2, [r3, #16]
    468c:	4b1d      	ldr	r3, [pc, #116]	; (4704 <BOARD_ConfigMPU+0xbc>)
    468e:	4a22      	ldr	r2, [pc, #136]	; (4718 <BOARD_ConfigMPU+0xd0>)
    4690:	60da      	str	r2, [r3, #12]
    4692:	4b1c      	ldr	r3, [pc, #112]	; (4704 <BOARD_ConfigMPU+0xbc>)
    4694:	4a21      	ldr	r2, [pc, #132]	; (471c <BOARD_ConfigMPU+0xd4>)
    4696:	611a      	str	r2, [r3, #16]
    4698:	4b1a      	ldr	r3, [pc, #104]	; (4704 <BOARD_ConfigMPU+0xbc>)
    469a:	2213      	movs	r2, #19
    469c:	60da      	str	r2, [r3, #12]
    469e:	4b19      	ldr	r3, [pc, #100]	; (4704 <BOARD_ConfigMPU+0xbc>)
    46a0:	4a1c      	ldr	r2, [pc, #112]	; (4714 <BOARD_ConfigMPU+0xcc>)
    46a2:	611a      	str	r2, [r3, #16]
    46a4:	4b17      	ldr	r3, [pc, #92]	; (4704 <BOARD_ConfigMPU+0xbc>)
    46a6:	2214      	movs	r2, #20
    46a8:	60da      	str	r2, [r3, #12]
    46aa:	4b16      	ldr	r3, [pc, #88]	; (4704 <BOARD_ConfigMPU+0xbc>)
    46ac:	4a1c      	ldr	r2, [pc, #112]	; (4720 <BOARD_ConfigMPU+0xd8>)
    46ae:	611a      	str	r2, [r3, #16]
    46b0:	4b14      	ldr	r3, [pc, #80]	; (4704 <BOARD_ConfigMPU+0xbc>)
    46b2:	4a1c      	ldr	r2, [pc, #112]	; (4724 <BOARD_ConfigMPU+0xdc>)
    46b4:	60da      	str	r2, [r3, #12]
    46b6:	4b13      	ldr	r3, [pc, #76]	; (4704 <BOARD_ConfigMPU+0xbc>)
    46b8:	4a19      	ldr	r2, [pc, #100]	; (4720 <BOARD_ConfigMPU+0xd8>)
    46ba:	611a      	str	r2, [r3, #16]
    46bc:	4b11      	ldr	r3, [pc, #68]	; (4704 <BOARD_ConfigMPU+0xbc>)
    46be:	4a1a      	ldr	r2, [pc, #104]	; (4728 <BOARD_ConfigMPU+0xe0>)
    46c0:	60da      	str	r2, [r3, #12]
    46c2:	4b10      	ldr	r3, [pc, #64]	; (4704 <BOARD_ConfigMPU+0xbc>)
    46c4:	4a19      	ldr	r2, [pc, #100]	; (472c <BOARD_ConfigMPU+0xe4>)
    46c6:	611a      	str	r2, [r3, #16]
    46c8:	4b0e      	ldr	r3, [pc, #56]	; (4704 <BOARD_ConfigMPU+0xbc>)
    46ca:	4a19      	ldr	r2, [pc, #100]	; (4730 <BOARD_ConfigMPU+0xe8>)
    46cc:	60da      	str	r2, [r3, #12]
    46ce:	4b0d      	ldr	r3, [pc, #52]	; (4704 <BOARD_ConfigMPU+0xbc>)
    46d0:	4a18      	ldr	r2, [pc, #96]	; (4734 <BOARD_ConfigMPU+0xec>)
    46d2:	611a      	str	r2, [r3, #16]
    46d4:	4b0b      	ldr	r3, [pc, #44]	; (4704 <BOARD_ConfigMPU+0xbc>)
    46d6:	4a18      	ldr	r2, [pc, #96]	; (4738 <BOARD_ConfigMPU+0xf0>)
    46d8:	60da      	str	r2, [r3, #12]
    46da:	4b0a      	ldr	r3, [pc, #40]	; (4704 <BOARD_ConfigMPU+0xbc>)
    46dc:	4a17      	ldr	r2, [pc, #92]	; (473c <BOARD_ConfigMPU+0xf4>)
    46de:	611a      	str	r2, [r3, #16]
    46e0:	4b08      	ldr	r3, [pc, #32]	; (4704 <BOARD_ConfigMPU+0xbc>)
    46e2:	4a17      	ldr	r2, [pc, #92]	; (4740 <BOARD_ConfigMPU+0xf8>)
    46e4:	60da      	str	r2, [r3, #12]
    46e6:	4b07      	ldr	r3, [pc, #28]	; (4704 <BOARD_ConfigMPU+0xbc>)
    46e8:	4a16      	ldr	r2, [pc, #88]	; (4744 <BOARD_ConfigMPU+0xfc>)
    46ea:	611a      	str	r2, [r3, #16]
    46ec:	2004      	movs	r0, #4
    46ee:	f7ff fe33 	bl	4358 <ARM_MPU_Enable>
    46f2:	f7ff fea7 	bl	4444 <SCB_EnableDCache>
    46f6:	f7ff fe69 	bl	43cc <SCB_EnableICache>
    46fa:	bf00      	nop
    46fc:	bd80      	pop	{r7, pc}
    46fe:	bf00      	nop
    4700:	e000ed00 	.word	0xe000ed00
    4704:	e000ed90 	.word	0xe000ed90
    4708:	c0000010 	.word	0xc0000010
    470c:	03100039 	.word	0x03100039
    4710:	80000011 	.word	0x80000011
    4714:	0310003b 	.word	0x0310003b
    4718:	60000012 	.word	0x60000012
    471c:	0603002d 	.word	0x0603002d
    4720:	03030021 	.word	0x03030021
    4724:	20000015 	.word	0x20000015
    4728:	20200016 	.word	0x20200016
    472c:	03030025 	.word	0x03030025
    4730:	20280017 	.word	0x20280017
    4734:	03030023 	.word	0x03030023
    4738:	80000018 	.word	0x80000018
    473c:	03030031 	.word	0x03030031
    4740:	81e00019 	.word	0x81e00019
    4744:	03080029 	.word	0x03080029

00004748 <CLOCK_SetMux>:
    4748:	b580      	push	{r7, lr}
    474a:	b084      	sub	sp, #16
    474c:	af00      	add	r7, sp, #0
    474e:	6078      	str	r0, [r7, #4]
    4750:	6039      	str	r1, [r7, #0]
    4752:	687b      	ldr	r3, [r7, #4]
    4754:	0e9b      	lsrs	r3, r3, #26
    4756:	60fb      	str	r3, [r7, #12]
    4758:	687b      	ldr	r3, [r7, #4]
    475a:	b2da      	uxtb	r2, r3
    475c:	4b1f      	ldr	r3, [pc, #124]	; (47dc <CLOCK_SetMux+0x94>)
    475e:	4413      	add	r3, r2
    4760:	681a      	ldr	r2, [r3, #0]
    4762:	687b      	ldr	r3, [r7, #4]
    4764:	135b      	asrs	r3, r3, #13
    4766:	f3c3 010c 	ubfx	r1, r3, #0, #13
    476a:	687b      	ldr	r3, [r7, #4]
    476c:	121b      	asrs	r3, r3, #8
    476e:	f003 031f 	and.w	r3, r3, #31
    4772:	fa01 f303 	lsl.w	r3, r1, r3
    4776:	43db      	mvns	r3, r3
    4778:	ea02 0103 	and.w	r1, r2, r3
    477c:	687b      	ldr	r3, [r7, #4]
    477e:	121b      	asrs	r3, r3, #8
    4780:	f003 031f 	and.w	r3, r3, #31
    4784:	683a      	ldr	r2, [r7, #0]
    4786:	409a      	lsls	r2, r3
    4788:	687b      	ldr	r3, [r7, #4]
    478a:	135b      	asrs	r3, r3, #13
    478c:	f3c3 000c 	ubfx	r0, r3, #0, #13
    4790:	687b      	ldr	r3, [r7, #4]
    4792:	121b      	asrs	r3, r3, #8
    4794:	f003 031f 	and.w	r3, r3, #31
    4798:	fa00 f303 	lsl.w	r3, r0, r3
    479c:	401a      	ands	r2, r3
    479e:	687b      	ldr	r3, [r7, #4]
    47a0:	b2d8      	uxtb	r0, r3
    47a2:	4b0e      	ldr	r3, [pc, #56]	; (47dc <CLOCK_SetMux+0x94>)
    47a4:	4403      	add	r3, r0
    47a6:	4618      	mov	r0, r3
    47a8:	ea41 0302 	orr.w	r3, r1, r2
    47ac:	6003      	str	r3, [r0, #0]
    47ae:	68fb      	ldr	r3, [r7, #12]
    47b0:	2b20      	cmp	r3, #32
    47b2:	d902      	bls.n	47ba <CLOCK_SetMux+0x72>
    47b4:	480a      	ldr	r0, [pc, #40]	; (47e0 <CLOCK_SetMux+0x98>)
    47b6:	f000 fd8b 	bl	52d0 <__assertion_failed>
    47ba:	68fb      	ldr	r3, [r7, #12]
    47bc:	2b20      	cmp	r3, #32
    47be:	d009      	beq.n	47d4 <CLOCK_SetMux+0x8c>
    47c0:	bf00      	nop
    47c2:	4b06      	ldr	r3, [pc, #24]	; (47dc <CLOCK_SetMux+0x94>)
    47c4:	6c9a      	ldr	r2, [r3, #72]	; 0x48
    47c6:	68fb      	ldr	r3, [r7, #12]
    47c8:	fa22 f303 	lsr.w	r3, r2, r3
    47cc:	f003 0301 	and.w	r3, r3, #1
    47d0:	2b00      	cmp	r3, #0
    47d2:	d1f6      	bne.n	47c2 <CLOCK_SetMux+0x7a>
    47d4:	bf00      	nop
    47d6:	3710      	adds	r7, #16
    47d8:	46bd      	mov	sp, r7
    47da:	bd80      	pop	{r7, pc}
    47dc:	400fc000 	.word	0x400fc000
    47e0:	0000a09c 	.word	0x0000a09c

000047e4 <CLOCK_SetDiv>:
    47e4:	b580      	push	{r7, lr}
    47e6:	b084      	sub	sp, #16
    47e8:	af00      	add	r7, sp, #0
    47ea:	6078      	str	r0, [r7, #4]
    47ec:	6039      	str	r1, [r7, #0]
    47ee:	687b      	ldr	r3, [r7, #4]
    47f0:	0e9b      	lsrs	r3, r3, #26
    47f2:	60fb      	str	r3, [r7, #12]
    47f4:	687b      	ldr	r3, [r7, #4]
    47f6:	b2da      	uxtb	r2, r3
    47f8:	4b1f      	ldr	r3, [pc, #124]	; (4878 <CLOCK_SetDiv+0x94>)
    47fa:	4413      	add	r3, r2
    47fc:	681a      	ldr	r2, [r3, #0]
    47fe:	687b      	ldr	r3, [r7, #4]
    4800:	135b      	asrs	r3, r3, #13
    4802:	f3c3 010c 	ubfx	r1, r3, #0, #13
    4806:	687b      	ldr	r3, [r7, #4]
    4808:	121b      	asrs	r3, r3, #8
    480a:	f003 031f 	and.w	r3, r3, #31
    480e:	fa01 f303 	lsl.w	r3, r1, r3
    4812:	43db      	mvns	r3, r3
    4814:	ea02 0103 	and.w	r1, r2, r3
    4818:	687b      	ldr	r3, [r7, #4]
    481a:	121b      	asrs	r3, r3, #8
    481c:	f003 031f 	and.w	r3, r3, #31
    4820:	683a      	ldr	r2, [r7, #0]
    4822:	409a      	lsls	r2, r3
    4824:	687b      	ldr	r3, [r7, #4]
    4826:	135b      	asrs	r3, r3, #13
    4828:	f3c3 000c 	ubfx	r0, r3, #0, #13
    482c:	687b      	ldr	r3, [r7, #4]
    482e:	121b      	asrs	r3, r3, #8
    4830:	f003 031f 	and.w	r3, r3, #31
    4834:	fa00 f303 	lsl.w	r3, r0, r3
    4838:	401a      	ands	r2, r3
    483a:	687b      	ldr	r3, [r7, #4]
    483c:	b2d8      	uxtb	r0, r3
    483e:	4b0e      	ldr	r3, [pc, #56]	; (4878 <CLOCK_SetDiv+0x94>)
    4840:	4403      	add	r3, r0
    4842:	4618      	mov	r0, r3
    4844:	ea41 0302 	orr.w	r3, r1, r2
    4848:	6003      	str	r3, [r0, #0]
    484a:	68fb      	ldr	r3, [r7, #12]
    484c:	2b20      	cmp	r3, #32
    484e:	d902      	bls.n	4856 <CLOCK_SetDiv+0x72>
    4850:	480a      	ldr	r0, [pc, #40]	; (487c <CLOCK_SetDiv+0x98>)
    4852:	f000 fd3d 	bl	52d0 <__assertion_failed>
    4856:	68fb      	ldr	r3, [r7, #12]
    4858:	2b20      	cmp	r3, #32
    485a:	d009      	beq.n	4870 <CLOCK_SetDiv+0x8c>
    485c:	bf00      	nop
    485e:	4b06      	ldr	r3, [pc, #24]	; (4878 <CLOCK_SetDiv+0x94>)
    4860:	6c9a      	ldr	r2, [r3, #72]	; 0x48
    4862:	68fb      	ldr	r3, [r7, #12]
    4864:	fa22 f303 	lsr.w	r3, r2, r3
    4868:	f003 0301 	and.w	r3, r3, #1
    486c:	2b00      	cmp	r3, #0
    486e:	d1f6      	bne.n	485e <CLOCK_SetDiv+0x7a>
    4870:	bf00      	nop
    4872:	3710      	adds	r7, #16
    4874:	46bd      	mov	sp, r7
    4876:	bd80      	pop	{r7, pc}
    4878:	400fc000 	.word	0x400fc000
    487c:	0000a0d8 	.word	0x0000a0d8

00004880 <CLOCK_ControlGate>:
    4880:	b580      	push	{r7, lr}
    4882:	b086      	sub	sp, #24
    4884:	af00      	add	r7, sp, #0
    4886:	4603      	mov	r3, r0
    4888:	460a      	mov	r2, r1
    488a:	80fb      	strh	r3, [r7, #6]
    488c:	4613      	mov	r3, r2
    488e:	717b      	strb	r3, [r7, #5]
    4890:	f9b7 3006 	ldrsh.w	r3, [r7, #6]
    4894:	0a1b      	lsrs	r3, r3, #8
    4896:	617b      	str	r3, [r7, #20]
    4898:	88fb      	ldrh	r3, [r7, #6]
    489a:	f003 031f 	and.w	r3, r3, #31
    489e:	613b      	str	r3, [r7, #16]
    48a0:	697b      	ldr	r3, [r7, #20]
    48a2:	2b07      	cmp	r3, #7
    48a4:	d902      	bls.n	48ac <CLOCK_ControlGate+0x2c>
    48a6:	480d      	ldr	r0, [pc, #52]	; (48dc <CLOCK_ControlGate+0x5c>)
    48a8:	f000 fd12 	bl	52d0 <__assertion_failed>
    48ac:	697b      	ldr	r3, [r7, #20]
    48ae:	009a      	lsls	r2, r3, #2
    48b0:	4b0b      	ldr	r3, [pc, #44]	; (48e0 <CLOCK_ControlGate+0x60>)
    48b2:	4413      	add	r3, r2
    48b4:	60fb      	str	r3, [r7, #12]
    48b6:	68fb      	ldr	r3, [r7, #12]
    48b8:	681a      	ldr	r2, [r3, #0]
    48ba:	2103      	movs	r1, #3
    48bc:	693b      	ldr	r3, [r7, #16]
    48be:	fa01 f303 	lsl.w	r3, r1, r3
    48c2:	43db      	mvns	r3, r3
    48c4:	401a      	ands	r2, r3
    48c6:	7979      	ldrb	r1, [r7, #5]
    48c8:	693b      	ldr	r3, [r7, #16]
    48ca:	fa01 f303 	lsl.w	r3, r1, r3
    48ce:	431a      	orrs	r2, r3
    48d0:	68fb      	ldr	r3, [r7, #12]
    48d2:	601a      	str	r2, [r3, #0]
    48d4:	bf00      	nop
    48d6:	3718      	adds	r7, #24
    48d8:	46bd      	mov	sp, r7
    48da:	bd80      	pop	{r7, pc}
    48dc:	0000a114 	.word	0x0000a114
    48e0:	400fc068 	.word	0x400fc068

000048e4 <CLOCK_SetXtalFreq>:
    48e4:	b480      	push	{r7}
    48e6:	b083      	sub	sp, #12
    48e8:	af00      	add	r7, sp, #0
    48ea:	6078      	str	r0, [r7, #4]
    48ec:	4a04      	ldr	r2, [pc, #16]	; (4900 <CLOCK_SetXtalFreq+0x1c>)
    48ee:	687b      	ldr	r3, [r7, #4]
    48f0:	6013      	str	r3, [r2, #0]
    48f2:	bf00      	nop
    48f4:	370c      	adds	r7, #12
    48f6:	46bd      	mov	sp, r7
    48f8:	f85d 7b04 	ldr.w	r7, [sp], #4
    48fc:	4770      	bx	lr
    48fe:	bf00      	nop
    4900:	20000040 	.word	0x20000040

00004904 <CLOCK_SetRtcXtalFreq>:
    4904:	b480      	push	{r7}
    4906:	b083      	sub	sp, #12
    4908:	af00      	add	r7, sp, #0
    490a:	6078      	str	r0, [r7, #4]
    490c:	4a04      	ldr	r2, [pc, #16]	; (4920 <CLOCK_SetRtcXtalFreq+0x1c>)
    490e:	687b      	ldr	r3, [r7, #4]
    4910:	6013      	str	r3, [r2, #0]
    4912:	bf00      	nop
    4914:	370c      	adds	r7, #12
    4916:	46bd      	mov	sp, r7
    4918:	f85d 7b04 	ldr.w	r7, [sp], #4
    491c:	4770      	bx	lr
    491e:	bf00      	nop
    4920:	20000044 	.word	0x20000044

00004924 <IOMUXC_EnableMode>:
    4924:	b480      	push	{r7}
    4926:	b085      	sub	sp, #20
    4928:	af00      	add	r7, sp, #0
    492a:	60f8      	str	r0, [r7, #12]
    492c:	60b9      	str	r1, [r7, #8]
    492e:	4613      	mov	r3, r2
    4930:	71fb      	strb	r3, [r7, #7]
    4932:	68ba      	ldr	r2, [r7, #8]
    4934:	4b0c      	ldr	r3, [pc, #48]	; (4968 <IOMUXC_EnableMode+0x44>)
    4936:	4013      	ands	r3, r2
    4938:	60bb      	str	r3, [r7, #8]
    493a:	79fb      	ldrb	r3, [r7, #7]
    493c:	2b00      	cmp	r3, #0
    493e:	d006      	beq.n	494e <IOMUXC_EnableMode+0x2a>
    4940:	68fb      	ldr	r3, [r7, #12]
    4942:	685a      	ldr	r2, [r3, #4]
    4944:	68bb      	ldr	r3, [r7, #8]
    4946:	431a      	orrs	r2, r3
    4948:	68fb      	ldr	r3, [r7, #12]
    494a:	605a      	str	r2, [r3, #4]
    494c:	e006      	b.n	495c <IOMUXC_EnableMode+0x38>
    494e:	68fb      	ldr	r3, [r7, #12]
    4950:	685a      	ldr	r2, [r3, #4]
    4952:	68bb      	ldr	r3, [r7, #8]
    4954:	43db      	mvns	r3, r3
    4956:	401a      	ands	r2, r3
    4958:	68fb      	ldr	r3, [r7, #12]
    495a:	605a      	str	r2, [r3, #4]
    495c:	bf00      	nop
    495e:	3714      	adds	r7, #20
    4960:	46bd      	mov	sp, r7
    4962:	f85d 7b04 	ldr.w	r7, [sp], #4
    4966:	4770      	bx	lr
    4968:	fffff000 	.word	0xfffff000

0000496c <IOMUXC_MQSConfig>:
    496c:	b480      	push	{r7}
    496e:	b085      	sub	sp, #20
    4970:	af00      	add	r7, sp, #0
    4972:	6078      	str	r0, [r7, #4]
    4974:	460b      	mov	r3, r1
    4976:	70fb      	strb	r3, [r7, #3]
    4978:	4613      	mov	r3, r2
    497a:	70bb      	strb	r3, [r7, #2]
    497c:	687b      	ldr	r3, [r7, #4]
    497e:	689a      	ldr	r2, [r3, #8]
    4980:	4b0a      	ldr	r3, [pc, #40]	; (49ac <IOMUXC_MQSConfig+0x40>)
    4982:	4013      	ands	r3, r2
    4984:	60fb      	str	r3, [r7, #12]
    4986:	78fb      	ldrb	r3, [r7, #3]
    4988:	069b      	lsls	r3, r3, #26
    498a:	f003 6280 	and.w	r2, r3, #67108864	; 0x4000000
    498e:	68fb      	ldr	r3, [r7, #12]
    4990:	431a      	orrs	r2, r3
    4992:	78bb      	ldrb	r3, [r7, #2]
    4994:	041b      	lsls	r3, r3, #16
    4996:	f403 037f 	and.w	r3, r3, #16711680	; 0xff0000
    499a:	431a      	orrs	r2, r3
    499c:	687b      	ldr	r3, [r7, #4]
    499e:	609a      	str	r2, [r3, #8]
    49a0:	bf00      	nop
    49a2:	3714      	adds	r7, #20
    49a4:	46bd      	mov	sp, r7
    49a6:	f85d 7b04 	ldr.w	r7, [sp], #4
    49aa:	4770      	bx	lr
    49ac:	fb00ffff 	.word	0xfb00ffff

000049b0 <BOARD_BootClockRUN>:
    49b0:	b580      	push	{r7, lr}
    49b2:	af00      	add	r7, sp, #0
    49b4:	f44f 4000 	mov.w	r0, #32768	; 0x8000
    49b8:	f7ff ffa4 	bl	4904 <CLOCK_SetRtcXtalFreq>
    49bc:	4bdc      	ldr	r3, [pc, #880]	; (4d30 <BOARD_BootClockRUN+0x380>)
    49be:	f8d3 32c0 	ldr.w	r3, [r3, #704]	; 0x2c0
    49c2:	4adb      	ldr	r2, [pc, #876]	; (4d30 <BOARD_BootClockRUN+0x380>)
    49c4:	f443 3380 	orr.w	r3, r3, #65536	; 0x10000
    49c8:	f8c2 32c0 	str.w	r3, [r2, #704]	; 0x2c0
    49cc:	4bd8      	ldr	r3, [pc, #864]	; (4d30 <BOARD_BootClockRUN+0x380>)
    49ce:	f8d3 32c0 	ldr.w	r3, [r3, #704]	; 0x2c0
    49d2:	4ad7      	ldr	r2, [pc, #860]	; (4d30 <BOARD_BootClockRUN+0x380>)
    49d4:	f423 3300 	bic.w	r3, r3, #131072	; 0x20000
    49d8:	f8c2 32c0 	str.w	r3, [r2, #704]	; 0x2c0
    49dc:	48d5      	ldr	r0, [pc, #852]	; (4d34 <BOARD_BootClockRUN+0x384>)
    49de:	f7ff ff81 	bl	48e4 <CLOCK_SetXtalFreq>
    49e2:	2000      	movs	r0, #0
    49e4:	f7fc f980 	bl	ce8 <CLOCK_InitExternalClk>
    49e8:	f7fc f9ce 	bl	d88 <CLOCK_InitRcOsc24M>
    49ec:	2001      	movs	r0, #1
    49ee:	f7fc f9b1 	bl	d54 <CLOCK_SwitchOsc>
    49f2:	4bd1      	ldr	r3, [pc, #836]	; (4d38 <BOARD_BootClockRUN+0x388>)
    49f4:	681b      	ldr	r3, [r3, #0]
    49f6:	f023 03ff 	bic.w	r3, r3, #255	; 0xff
    49fa:	4acf      	ldr	r2, [pc, #828]	; (4d38 <BOARD_BootClockRUN+0x388>)
    49fc:	f043 037f 	orr.w	r3, r3, #127	; 0x7f
    4a00:	6013      	str	r3, [r2, #0]
    4a02:	2101      	movs	r1, #1
    4a04:	48cd      	ldr	r0, [pc, #820]	; (4d3c <BOARD_BootClockRUN+0x38c>)
    4a06:	f7ff fe9f 	bl	4748 <CLOCK_SetMux>
    4a0a:	2101      	movs	r1, #1
    4a0c:	48cc      	ldr	r0, [pc, #816]	; (4d40 <BOARD_BootClockRUN+0x390>)
    4a0e:	f7ff fe9b 	bl	4748 <CLOCK_SetMux>
    4a12:	4bcc      	ldr	r3, [pc, #816]	; (4d44 <BOARD_BootClockRUN+0x394>)
    4a14:	68db      	ldr	r3, [r3, #12]
    4a16:	f023 031f 	bic.w	r3, r3, #31
    4a1a:	4aca      	ldr	r2, [pc, #808]	; (4d44 <BOARD_BootClockRUN+0x394>)
    4a1c:	f043 0313 	orr.w	r3, r3, #19
    4a20:	60d3      	str	r3, [r2, #12]
    4a22:	bf00      	nop
    4a24:	4bc7      	ldr	r3, [pc, #796]	; (4d44 <BOARD_BootClockRUN+0x394>)
    4a26:	681b      	ldr	r3, [r3, #0]
    4a28:	f003 4300 	and.w	r3, r3, #2147483648	; 0x80000000
    4a2c:	f1b3 4f00 	cmp.w	r3, #2147483648	; 0x80000000
    4a30:	d1f8      	bne.n	4a24 <BOARD_BootClockRUN+0x74>
    4a32:	2100      	movs	r1, #0
    4a34:	48c4      	ldr	r0, [pc, #784]	; (4d48 <BOARD_BootClockRUN+0x398>)
    4a36:	f7ff fed5 	bl	47e4 <CLOCK_SetDiv>
    4a3a:	f44f 7088 	mov.w	r0, #272	; 0x110
    4a3e:	f002 f9dc 	bl	6dfa <CLOCK_DisableClock>
    4a42:	f44f 7084 	mov.w	r0, #264	; 0x108
    4a46:	f002 f9d8 	bl	6dfa <CLOCK_DisableClock>
    4a4a:	f240 2016 	movw	r0, #534	; 0x216
    4a4e:	f002 f9d4 	bl	6dfa <CLOCK_DisableClock>
    4a52:	f44f 7006 	mov.w	r0, #536	; 0x218
    4a56:	f002 f9d0 	bl	6dfa <CLOCK_DisableClock>
    4a5a:	f240 200e 	movw	r0, #526	; 0x20e
    4a5e:	f002 f9cc 	bl	6dfa <CLOCK_DisableClock>
    4a62:	2103      	movs	r1, #3
    4a64:	48b9      	ldr	r0, [pc, #740]	; (4d4c <BOARD_BootClockRUN+0x39c>)
    4a66:	f7ff febd 	bl	47e4 <CLOCK_SetDiv>
    4a6a:	2101      	movs	r1, #1
    4a6c:	48b8      	ldr	r0, [pc, #736]	; (4d50 <BOARD_BootClockRUN+0x3a0>)
    4a6e:	f7ff feb9 	bl	47e4 <CLOCK_SetDiv>
    4a72:	2100      	movs	r1, #0
    4a74:	48b7      	ldr	r0, [pc, #732]	; (4d54 <BOARD_BootClockRUN+0x3a4>)
    4a76:	f7ff feb5 	bl	47e4 <CLOCK_SetDiv>
    4a7a:	f44f 708a 	mov.w	r0, #276	; 0x114
    4a7e:	f002 f9bc 	bl	6dfa <CLOCK_DisableClock>
    4a82:	f44f 708b 	mov.w	r0, #278	; 0x116
    4a86:	f002 f9b8 	bl	6dfa <CLOCK_DisableClock>
    4a8a:	2018      	movs	r0, #24
    4a8c:	f002 f9b5 	bl	6dfa <CLOCK_DisableClock>
    4a90:	201a      	movs	r0, #26
    4a92:	f002 f9b2 	bl	6dfa <CLOCK_DisableClock>
    4a96:	f44f 7086 	mov.w	r0, #268	; 0x10c
    4a9a:	f002 f9ae 	bl	6dfa <CLOCK_DisableClock>
    4a9e:	2101      	movs	r1, #1
    4aa0:	48ad      	ldr	r0, [pc, #692]	; (4d58 <BOARD_BootClockRUN+0x3a8>)
    4aa2:	f7ff fe9f 	bl	47e4 <CLOCK_SetDiv>
    4aa6:	f240 6002 	movw	r0, #1538	; 0x602
    4aaa:	f002 f9a6 	bl	6dfa <CLOCK_DisableClock>
    4aae:	2101      	movs	r1, #1
    4ab0:	48aa      	ldr	r0, [pc, #680]	; (4d5c <BOARD_BootClockRUN+0x3ac>)
    4ab2:	f7ff fe97 	bl	47e4 <CLOCK_SetDiv>
    4ab6:	2100      	movs	r1, #0
    4ab8:	48a9      	ldr	r0, [pc, #676]	; (4d60 <BOARD_BootClockRUN+0x3b0>)
    4aba:	f7ff fe45 	bl	4748 <CLOCK_SetMux>
    4abe:	f240 6004 	movw	r0, #1540	; 0x604
    4ac2:	f002 f99a 	bl	6dfa <CLOCK_DisableClock>
    4ac6:	2101      	movs	r1, #1
    4ac8:	48a6      	ldr	r0, [pc, #664]	; (4d64 <BOARD_BootClockRUN+0x3b4>)
    4aca:	f7ff fe8b 	bl	47e4 <CLOCK_SetDiv>
    4ace:	2100      	movs	r1, #0
    4ad0:	48a5      	ldr	r0, [pc, #660]	; (4d68 <BOARD_BootClockRUN+0x3b8>)
    4ad2:	f7ff fe39 	bl	4748 <CLOCK_SetMux>
    4ad6:	f44f 7041 	mov.w	r0, #772	; 0x304
    4ada:	f002 f98e 	bl	6dfa <CLOCK_DisableClock>
    4ade:	2107      	movs	r1, #7
    4ae0:	f24f 0014 	movw	r0, #61460	; 0xf014
    4ae4:	f7ff fe7e 	bl	47e4 <CLOCK_SetDiv>
    4ae8:	2100      	movs	r1, #0
    4aea:	48a0      	ldr	r0, [pc, #640]	; (4d6c <BOARD_BootClockRUN+0x3bc>)
    4aec:	f7ff fe2c 	bl	4748 <CLOCK_SetMux>
    4af0:	2100      	movs	r1, #0
    4af2:	489f      	ldr	r0, [pc, #636]	; (4d70 <BOARD_BootClockRUN+0x3c0>)
    4af4:	f7ff fe28 	bl	4748 <CLOCK_SetMux>
    4af8:	f240 7002 	movw	r0, #1794	; 0x702
    4afc:	f002 f97d 	bl	6dfa <CLOCK_DisableClock>
    4b00:	2101      	movs	r1, #1
    4b02:	489c      	ldr	r0, [pc, #624]	; (4d74 <BOARD_BootClockRUN+0x3c4>)
    4b04:	f7ff fe6e 	bl	47e4 <CLOCK_SetDiv>
    4b08:	2101      	movs	r1, #1
    4b0a:	489b      	ldr	r0, [pc, #620]	; (4d78 <BOARD_BootClockRUN+0x3c8>)
    4b0c:	f7ff fe1c 	bl	4748 <CLOCK_SetMux>
    4b10:	f240 2002 	movw	r0, #514	; 0x202
    4b14:	f002 f971 	bl	6dfa <CLOCK_DisableClock>
    4b18:	2101      	movs	r1, #1
    4b1a:	4898      	ldr	r0, [pc, #608]	; (4d7c <BOARD_BootClockRUN+0x3cc>)
    4b1c:	f7ff fe62 	bl	47e4 <CLOCK_SetDiv>
    4b20:	2100      	movs	r1, #0
    4b22:	4897      	ldr	r0, [pc, #604]	; (4d80 <BOARD_BootClockRUN+0x3d0>)
    4b24:	f7ff fe10 	bl	4748 <CLOCK_SetMux>
    4b28:	f44f 7080 	mov.w	r0, #256	; 0x100
    4b2c:	f002 f965 	bl	6dfa <CLOCK_DisableClock>
    4b30:	f44f 7081 	mov.w	r0, #258	; 0x102
    4b34:	f002 f961 	bl	6dfa <CLOCK_DisableClock>
    4b38:	f44f 7082 	mov.w	r0, #260	; 0x104
    4b3c:	f002 f95d 	bl	6dfa <CLOCK_DisableClock>
    4b40:	f44f 7083 	mov.w	r0, #262	; 0x106
    4b44:	f002 f959 	bl	6dfa <CLOCK_DisableClock>
    4b48:	2102      	movs	r1, #2
    4b4a:	488e      	ldr	r0, [pc, #568]	; (4d84 <BOARD_BootClockRUN+0x3d4>)
    4b4c:	f7ff fe4a 	bl	47e4 <CLOCK_SetDiv>
    4b50:	2102      	movs	r1, #2
    4b52:	488d      	ldr	r0, [pc, #564]	; (4d88 <BOARD_BootClockRUN+0x3d8>)
    4b54:	f7ff fdf8 	bl	4748 <CLOCK_SetMux>
    4b58:	2016      	movs	r0, #22
    4b5a:	f002 f94e 	bl	6dfa <CLOCK_DisableClock>
    4b5e:	2102      	movs	r1, #2
    4b60:	488a      	ldr	r0, [pc, #552]	; (4d8c <BOARD_BootClockRUN+0x3dc>)
    4b62:	f7ff fe3f 	bl	47e4 <CLOCK_SetDiv>
    4b66:	2102      	movs	r1, #2
    4b68:	4889      	ldr	r0, [pc, #548]	; (4d90 <BOARD_BootClockRUN+0x3e0>)
    4b6a:	f7ff fded 	bl	4748 <CLOCK_SetMux>
    4b6e:	f240 5012 	movw	r0, #1298	; 0x512
    4b72:	f002 f942 	bl	6dfa <CLOCK_DisableClock>
    4b76:	2103      	movs	r1, #3
    4b78:	4886      	ldr	r0, [pc, #536]	; (4d94 <BOARD_BootClockRUN+0x3e4>)
    4b7a:	f7ff fe33 	bl	47e4 <CLOCK_SetDiv>
    4b7e:	2101      	movs	r1, #1
    4b80:	4885      	ldr	r0, [pc, #532]	; (4d98 <BOARD_BootClockRUN+0x3e8>)
    4b82:	f7ff fe2f 	bl	47e4 <CLOCK_SetDiv>
    4b86:	2100      	movs	r1, #0
    4b88:	4884      	ldr	r0, [pc, #528]	; (4d9c <BOARD_BootClockRUN+0x3ec>)
    4b8a:	f7ff fddd 	bl	4748 <CLOCK_SetMux>
    4b8e:	f240 5014 	movw	r0, #1300	; 0x514
    4b92:	f002 f932 	bl	6dfa <CLOCK_DisableClock>
    4b96:	2103      	movs	r1, #3
    4b98:	4881      	ldr	r0, [pc, #516]	; (4da0 <BOARD_BootClockRUN+0x3f0>)
    4b9a:	f7ff fe23 	bl	47e4 <CLOCK_SetDiv>
    4b9e:	2101      	movs	r1, #1
    4ba0:	4880      	ldr	r0, [pc, #512]	; (4da4 <BOARD_BootClockRUN+0x3f4>)
    4ba2:	f7ff fe1f 	bl	47e4 <CLOCK_SetDiv>
    4ba6:	2100      	movs	r1, #0
    4ba8:	487f      	ldr	r0, [pc, #508]	; (4da8 <BOARD_BootClockRUN+0x3f8>)
    4baa:	f7ff fdcd 	bl	4748 <CLOCK_SetMux>
    4bae:	f240 5016 	movw	r0, #1302	; 0x516
    4bb2:	f002 f922 	bl	6dfa <CLOCK_DisableClock>
    4bb6:	2103      	movs	r1, #3
    4bb8:	487c      	ldr	r0, [pc, #496]	; (4dac <BOARD_BootClockRUN+0x3fc>)
    4bba:	f7ff fe13 	bl	47e4 <CLOCK_SetDiv>
    4bbe:	2101      	movs	r1, #1
    4bc0:	487b      	ldr	r0, [pc, #492]	; (4db0 <BOARD_BootClockRUN+0x400>)
    4bc2:	f7ff fe0f 	bl	47e4 <CLOCK_SetDiv>
    4bc6:	2100      	movs	r1, #0
    4bc8:	487a      	ldr	r0, [pc, #488]	; (4db4 <BOARD_BootClockRUN+0x404>)
    4bca:	f7ff fdbd 	bl	4748 <CLOCK_SetMux>
    4bce:	f240 2006 	movw	r0, #518	; 0x206
    4bd2:	f002 f912 	bl	6dfa <CLOCK_DisableClock>
    4bd6:	f44f 7002 	mov.w	r0, #520	; 0x208
    4bda:	f002 f90e 	bl	6dfa <CLOCK_DisableClock>
    4bde:	f240 200a 	movw	r0, #522	; 0x20a
    4be2:	f002 f90a 	bl	6dfa <CLOCK_DisableClock>
    4be6:	2100      	movs	r1, #0
    4be8:	4873      	ldr	r0, [pc, #460]	; (4db8 <BOARD_BootClockRUN+0x408>)
    4bea:	f7ff fdfb 	bl	47e4 <CLOCK_SetDiv>
    4bee:	2100      	movs	r1, #0
    4bf0:	4872      	ldr	r0, [pc, #456]	; (4dbc <BOARD_BootClockRUN+0x40c>)
    4bf2:	f7ff fda9 	bl	4748 <CLOCK_SetMux>
    4bf6:	200e      	movs	r0, #14
    4bf8:	f002 f8ff 	bl	6dfa <CLOCK_DisableClock>
    4bfc:	2012      	movs	r0, #18
    4bfe:	f002 f8fc 	bl	6dfa <CLOCK_DisableClock>
    4c02:	f240 7006 	movw	r0, #1798	; 0x706
    4c06:	f002 f8f8 	bl	6dfa <CLOCK_DisableClock>
    4c0a:	2010      	movs	r0, #16
    4c0c:	f002 f8f5 	bl	6dfa <CLOCK_DisableClock>
    4c10:	2014      	movs	r0, #20
    4c12:	f002 f8f2 	bl	6dfa <CLOCK_DisableClock>
    4c16:	f44f 60e1 	mov.w	r0, #1800	; 0x708
    4c1a:	f002 f8ee 	bl	6dfa <CLOCK_DisableClock>
    4c1e:	2101      	movs	r1, #1
    4c20:	4867      	ldr	r0, [pc, #412]	; (4dc0 <BOARD_BootClockRUN+0x410>)
    4c22:	f7ff fddf 	bl	47e4 <CLOCK_SetDiv>
    4c26:	2102      	movs	r1, #2
    4c28:	4866      	ldr	r0, [pc, #408]	; (4dc4 <BOARD_BootClockRUN+0x414>)
    4c2a:	f7ff fd8d 	bl	4748 <CLOCK_SetMux>
    4c2e:	f44f 60a3 	mov.w	r0, #1304	; 0x518
    4c32:	f002 f8e2 	bl	6dfa <CLOCK_DisableClock>
    4c36:	201c      	movs	r0, #28
    4c38:	f002 f8df 	bl	6dfa <CLOCK_DisableClock>
    4c3c:	200c      	movs	r0, #12
    4c3e:	f002 f8dc 	bl	6dfa <CLOCK_DisableClock>
    4c42:	f44f 708c 	mov.w	r0, #280	; 0x118
    4c46:	f002 f8d8 	bl	6dfa <CLOCK_DisableClock>
    4c4a:	f240 3002 	movw	r0, #770	; 0x302
    4c4e:	f002 f8d4 	bl	6dfa <CLOCK_DisableClock>
    4c52:	f240 3006 	movw	r0, #774	; 0x306
    4c56:	f002 f8d0 	bl	6dfa <CLOCK_DisableClock>
    4c5a:	f240 501a 	movw	r0, #1306	; 0x51a
    4c5e:	f002 f8cc 	bl	6dfa <CLOCK_DisableClock>
    4c62:	f240 600e 	movw	r0, #1550	; 0x60e
    4c66:	f002 f8c8 	bl	6dfa <CLOCK_DisableClock>
    4c6a:	2100      	movs	r1, #0
    4c6c:	4856      	ldr	r0, [pc, #344]	; (4dc8 <BOARD_BootClockRUN+0x418>)
    4c6e:	f7ff fdb9 	bl	47e4 <CLOCK_SetDiv>
    4c72:	2100      	movs	r1, #0
    4c74:	4855      	ldr	r0, [pc, #340]	; (4dcc <BOARD_BootClockRUN+0x41c>)
    4c76:	f7ff fd67 	bl	4748 <CLOCK_SetMux>
    4c7a:	f240 300a 	movw	r0, #778	; 0x30a
    4c7e:	f002 f8bc 	bl	6dfa <CLOCK_DisableClock>
    4c82:	2101      	movs	r1, #1
    4c84:	4852      	ldr	r0, [pc, #328]	; (4dd0 <BOARD_BootClockRUN+0x420>)
    4c86:	f7ff fdad 	bl	47e4 <CLOCK_SetDiv>
    4c8a:	2103      	movs	r1, #3
    4c8c:	4851      	ldr	r0, [pc, #324]	; (4dd4 <BOARD_BootClockRUN+0x424>)
    4c8e:	f7ff fda9 	bl	47e4 <CLOCK_SetDiv>
    4c92:	2105      	movs	r1, #5
    4c94:	4850      	ldr	r0, [pc, #320]	; (4dd8 <BOARD_BootClockRUN+0x428>)
    4c96:	f7ff fd57 	bl	4748 <CLOCK_SetMux>
    4c9a:	f240 500e 	movw	r0, #1294	; 0x50e
    4c9e:	f002 f8ac 	bl	6dfa <CLOCK_DisableClock>
    4ca2:	2101      	movs	r1, #1
    4ca4:	484d      	ldr	r0, [pc, #308]	; (4ddc <BOARD_BootClockRUN+0x42c>)
    4ca6:	f7ff fd9d 	bl	47e4 <CLOCK_SetDiv>
    4caa:	2107      	movs	r1, #7
    4cac:	484c      	ldr	r0, [pc, #304]	; (4de0 <BOARD_BootClockRUN+0x430>)
    4cae:	f7ff fd99 	bl	47e4 <CLOCK_SetDiv>
    4cb2:	2103      	movs	r1, #3
    4cb4:	484b      	ldr	r0, [pc, #300]	; (4de4 <BOARD_BootClockRUN+0x434>)
    4cb6:	f7ff fd47 	bl	4748 <CLOCK_SetMux>
    4cba:	f240 5002 	movw	r0, #1282	; 0x502
    4cbe:	f002 f89c 	bl	6dfa <CLOCK_DisableClock>
    4cc2:	2101      	movs	r1, #1
    4cc4:	4848      	ldr	r0, [pc, #288]	; (4de8 <BOARD_BootClockRUN+0x438>)
    4cc6:	f7ff fd8d 	bl	47e4 <CLOCK_SetDiv>
    4cca:	2107      	movs	r1, #7
    4ccc:	4847      	ldr	r0, [pc, #284]	; (4dec <BOARD_BootClockRUN+0x43c>)
    4cce:	f7ff fd89 	bl	47e4 <CLOCK_SetDiv>
    4cd2:	2103      	movs	r1, #3
    4cd4:	4846      	ldr	r0, [pc, #280]	; (4df0 <BOARD_BootClockRUN+0x440>)
    4cd6:	f7ff fd37 	bl	4748 <CLOCK_SetMux>
    4cda:	f44f 7040 	mov.w	r0, #768	; 0x300
    4cde:	f002 f88c 	bl	6dfa <CLOCK_DisableClock>
    4ce2:	2101      	movs	r1, #1
    4ce4:	4843      	ldr	r0, [pc, #268]	; (4df4 <BOARD_BootClockRUN+0x444>)
    4ce6:	f7ff fd7d 	bl	47e4 <CLOCK_SetDiv>
    4cea:	2107      	movs	r1, #7
    4cec:	4842      	ldr	r0, [pc, #264]	; (4df8 <BOARD_BootClockRUN+0x448>)
    4cee:	f7ff fd79 	bl	47e4 <CLOCK_SetDiv>
    4cf2:	2103      	movs	r1, #3
    4cf4:	4841      	ldr	r0, [pc, #260]	; (4dfc <BOARD_BootClockRUN+0x44c>)
    4cf6:	f7ff fd27 	bl	4748 <CLOCK_SetMux>
    4cfa:	2100      	movs	r1, #0
    4cfc:	4840      	ldr	r0, [pc, #256]	; (4e00 <BOARD_BootClockRUN+0x450>)
    4cfe:	f7ff fd23 	bl	4748 <CLOCK_SetMux>
    4d02:	4840      	ldr	r0, [pc, #256]	; (4e04 <BOARD_BootClockRUN+0x454>)
    4d04:	f7fc f852 	bl	dac <CLOCK_InitArmPll>
    4d08:	483f      	ldr	r0, [pc, #252]	; (4e08 <BOARD_BootClockRUN+0x458>)
    4d0a:	f7fc f883 	bl	e14 <CLOCK_InitSysPll>
    4d0e:	211b      	movs	r1, #27
    4d10:	2000      	movs	r0, #0
    4d12:	f7fc faa1 	bl	1258 <CLOCK_InitSysPfd>
    4d16:	2110      	movs	r1, #16
    4d18:	2001      	movs	r0, #1
    4d1a:	f7fc fa9d 	bl	1258 <CLOCK_InitSysPfd>
    4d1e:	211b      	movs	r1, #27
    4d20:	2002      	movs	r0, #2
    4d22:	f7fc fa99 	bl	1258 <CLOCK_InitSysPfd>
    4d26:	2110      	movs	r1, #16
    4d28:	2003      	movs	r0, #3
    4d2a:	f7fc fa95 	bl	1258 <CLOCK_InitSysPfd>
    4d2e:	e06d      	b.n	4e0c <BOARD_BootClockRUN+0x45c>
    4d30:	400d8000 	.word	0x400d8000
    4d34:	016e3600 	.word	0x016e3600
    4d38:	400fc000 	.word	0x400fc000
    4d3c:	80006c18 	.word	0x80006c18
    4d40:	14003914 	.word	0x14003914
    4d44:	40080000 	.word	0x40080000
    4d48:	0400ea14 	.word	0x0400ea14
    4d4c:	80006814 	.word	0x80006814
    4d50:	4000e010 	.word	0x4000e010
    4d54:	8000fb14 	.word	0x8000fb14
    4d58:	8007e01c 	.word	0x8007e01c
    4d5c:	8000eb24 	.word	0x8000eb24
    4d60:	8000301c 	.word	0x8000301c
    4d64:	8000f024 	.word	0x8000f024
    4d68:	8000311c 	.word	0x8000311c
    4d6c:	80002714 	.word	0x80002714
    4d70:	80002614 	.word	0x80002614
    4d74:	8000fd18 	.word	0x8000fd18
    4d78:	80006818 	.word	0x80006818
    4d7c:	8000eb3c 	.word	0x8000eb3c
    4d80:	8000693c 	.word	0x8000693c
    4d84:	8000fa18 	.word	0x8000fa18
    4d88:	80006418 	.word	0x80006418
    4d8c:	80007924 	.word	0x80007924
    4d90:	80006e18 	.word	0x80006e18
    4d94:	8000e628 	.word	0x8000e628
    4d98:	8007e028 	.word	0x8007e028
    4d9c:	80006a1c 	.word	0x80006a1c
    4da0:	8000e62c 	.word	0x8000e62c
    4da4:	8007e02c 	.word	0x8007e02c
    4da8:	80006c1c 	.word	0x80006c1c
    4dac:	8000f628 	.word	0x8000f628
    4db0:	8007f028 	.word	0x8007f028
    4db4:	80006e1c 	.word	0x80006e1c
    4db8:	8007f338 	.word	0x8007f338
    4dbc:	80003238 	.word	0x80003238
    4dc0:	8007e220 	.word	0x8007e220
    4dc4:	80006820 	.word	0x80006820
    4dc8:	8007e024 	.word	0x8007e024
    4dcc:	80002624 	.word	0x80002624
    4dd0:	8000ec38 	.word	0x8000ec38
    4dd4:	8000f718 	.word	0x8000f718
    4dd8:	8000ef38 	.word	0x8000ef38
    4ddc:	8000f930 	.word	0x8000f930
    4de0:	8000f630 	.word	0x8000f630
    4de4:	80007430 	.word	0x80007430
    4de8:	8000ec30 	.word	0x8000ec30
    4dec:	8000e930 	.word	0x8000e930
    4df0:	80006730 	.word	0x80006730
    4df4:	8000e928 	.word	0x8000e928
    4df8:	8000f928 	.word	0x8000f928
    4dfc:	80007320 	.word	0x80007320
    4e00:	8000200c 	.word	0x8000200c
    4e04:	0000a140 	.word	0x0000a140
    4e08:	0000a148 	.word	0x0000a148
    4e0c:	2201      	movs	r2, #1
    4e0e:	497d      	ldr	r1, [pc, #500]	; (5004 <BOARD_BootClockRUN+0x654>)
    4e10:	487d      	ldr	r0, [pc, #500]	; (5008 <BOARD_BootClockRUN+0x658>)
    4e12:	f002 f801 	bl	6e18 <CLOCK_SetPllBypass>
    4e16:	f7fc f857 	bl	ec8 <CLOCK_DeinitAudioPll>
    4e1a:	2201      	movs	r2, #1
    4e1c:	497b      	ldr	r1, [pc, #492]	; (500c <BOARD_BootClockRUN+0x65c>)
    4e1e:	487a      	ldr	r0, [pc, #488]	; (5008 <BOARD_BootClockRUN+0x658>)
    4e20:	f001 fffa 	bl	6e18 <CLOCK_SetPllBypass>
    4e24:	4b78      	ldr	r3, [pc, #480]	; (5008 <BOARD_BootClockRUN+0x658>)
    4e26:	f8d3 3170 	ldr.w	r3, [r3, #368]	; 0x170
    4e2a:	4a77      	ldr	r2, [pc, #476]	; (5008 <BOARD_BootClockRUN+0x658>)
    4e2c:	f423 4300 	bic.w	r3, r3, #32768	; 0x8000
    4e30:	f8c2 3170 	str.w	r3, [r2, #368]	; 0x170
    4e34:	4b74      	ldr	r3, [pc, #464]	; (5008 <BOARD_BootClockRUN+0x658>)
    4e36:	f8d3 3170 	ldr.w	r3, [r3, #368]	; 0x170
    4e3a:	4a73      	ldr	r2, [pc, #460]	; (5008 <BOARD_BootClockRUN+0x658>)
    4e3c:	f423 0300 	bic.w	r3, r3, #8388608	; 0x800000
    4e40:	f8c2 3170 	str.w	r3, [r2, #368]	; 0x170
    4e44:	4b70      	ldr	r3, [pc, #448]	; (5008 <BOARD_BootClockRUN+0x658>)
    4e46:	6f1b      	ldr	r3, [r3, #112]	; 0x70
    4e48:	4a6f      	ldr	r2, [pc, #444]	; (5008 <BOARD_BootClockRUN+0x658>)
    4e4a:	f443 5300 	orr.w	r3, r3, #8192	; 0x2000
    4e4e:	6713      	str	r3, [r2, #112]	; 0x70
    4e50:	f7fc f848 	bl	ee4 <CLOCK_DeinitVideoPll>
    4e54:	4b6c      	ldr	r3, [pc, #432]	; (5008 <BOARD_BootClockRUN+0x658>)
    4e56:	f8d3 30a0 	ldr.w	r3, [r3, #160]	; 0xa0
    4e5a:	4a6b      	ldr	r2, [pc, #428]	; (5008 <BOARD_BootClockRUN+0x658>)
    4e5c:	f443 3380 	orr.w	r3, r3, #65536	; 0x10000
    4e60:	f8c2 30a0 	str.w	r3, [r2, #160]	; 0xa0
    4e64:	4b68      	ldr	r3, [pc, #416]	; (5008 <BOARD_BootClockRUN+0x658>)
    4e66:	f8d3 3170 	ldr.w	r3, [r3, #368]	; 0x170
    4e6a:	4a67      	ldr	r2, [pc, #412]	; (5008 <BOARD_BootClockRUN+0x658>)
    4e6c:	f023 4340 	bic.w	r3, r3, #3221225472	; 0xc0000000
    4e70:	f8c2 3170 	str.w	r3, [r2, #368]	; 0x170
    4e74:	4b64      	ldr	r3, [pc, #400]	; (5008 <BOARD_BootClockRUN+0x658>)
    4e76:	f8d3 30a0 	ldr.w	r3, [r3, #160]	; 0xa0
    4e7a:	4a63      	ldr	r2, [pc, #396]	; (5008 <BOARD_BootClockRUN+0x658>)
    4e7c:	f443 5300 	orr.w	r3, r3, #8192	; 0x2000
    4e80:	f8c2 30a0 	str.w	r3, [r2, #160]	; 0xa0
    4e84:	f7fc f83c 	bl	f00 <CLOCK_DeinitEnetPll>
    4e88:	2201      	movs	r2, #1
    4e8a:	4961      	ldr	r1, [pc, #388]	; (5010 <BOARD_BootClockRUN+0x660>)
    4e8c:	485e      	ldr	r0, [pc, #376]	; (5008 <BOARD_BootClockRUN+0x658>)
    4e8e:	f001 ffc3 	bl	6e18 <CLOCK_SetPllBypass>
    4e92:	4b5d      	ldr	r3, [pc, #372]	; (5008 <BOARD_BootClockRUN+0x658>)
    4e94:	f8d3 30e0 	ldr.w	r3, [r3, #224]	; 0xe0
    4e98:	f023 0303 	bic.w	r3, r3, #3
    4e9c:	4a5a      	ldr	r2, [pc, #360]	; (5008 <BOARD_BootClockRUN+0x658>)
    4e9e:	f043 0301 	orr.w	r3, r3, #1
    4ea2:	f8c2 30e0 	str.w	r3, [r2, #224]	; 0xe0
    4ea6:	4b58      	ldr	r3, [pc, #352]	; (5008 <BOARD_BootClockRUN+0x658>)
    4ea8:	f8d3 30e0 	ldr.w	r3, [r3, #224]	; 0xe0
    4eac:	4a56      	ldr	r2, [pc, #344]	; (5008 <BOARD_BootClockRUN+0x658>)
    4eae:	f443 5300 	orr.w	r3, r3, #8192	; 0x2000
    4eb2:	f8c2 30e0 	str.w	r3, [r2, #224]	; 0xe0
    4eb6:	4b54      	ldr	r3, [pc, #336]	; (5008 <BOARD_BootClockRUN+0x658>)
    4eb8:	f8d3 30e0 	ldr.w	r3, [r3, #224]	; 0xe0
    4ebc:	4a52      	ldr	r2, [pc, #328]	; (5008 <BOARD_BootClockRUN+0x658>)
    4ebe:	f023 030c 	bic.w	r3, r3, #12
    4ec2:	f8c2 30e0 	str.w	r3, [r2, #224]	; 0xe0
    4ec6:	4b50      	ldr	r3, [pc, #320]	; (5008 <BOARD_BootClockRUN+0x658>)
    4ec8:	f8d3 30e0 	ldr.w	r3, [r3, #224]	; 0xe0
    4ecc:	4a4e      	ldr	r2, [pc, #312]	; (5008 <BOARD_BootClockRUN+0x658>)
    4ece:	f443 1380 	orr.w	r3, r3, #1048576	; 0x100000
    4ed2:	f8c2 30e0 	str.w	r3, [r2, #224]	; 0xe0
    4ed6:	4b4c      	ldr	r3, [pc, #304]	; (5008 <BOARD_BootClockRUN+0x658>)
    4ed8:	f8d3 30e0 	ldr.w	r3, [r3, #224]	; 0xe0
    4edc:	4a4a      	ldr	r2, [pc, #296]	; (5008 <BOARD_BootClockRUN+0x658>)
    4ede:	f443 1300 	orr.w	r3, r3, #2097152	; 0x200000
    4ee2:	f8c2 30e0 	str.w	r3, [r2, #224]	; 0xe0
    4ee6:	f7fb ffe3 	bl	eb0 <CLOCK_DeinitUsb2Pll>
    4eea:	2201      	movs	r2, #1
    4eec:	4949      	ldr	r1, [pc, #292]	; (5014 <BOARD_BootClockRUN+0x664>)
    4eee:	4846      	ldr	r0, [pc, #280]	; (5008 <BOARD_BootClockRUN+0x658>)
    4ef0:	f001 ff92 	bl	6e18 <CLOCK_SetPllBypass>
    4ef4:	4b44      	ldr	r3, [pc, #272]	; (5008 <BOARD_BootClockRUN+0x658>)
    4ef6:	6a1b      	ldr	r3, [r3, #32]
    4ef8:	4a43      	ldr	r2, [pc, #268]	; (5008 <BOARD_BootClockRUN+0x658>)
    4efa:	f443 5300 	orr.w	r3, r3, #8192	; 0x2000
    4efe:	6213      	str	r3, [r2, #32]
    4f00:	2103      	movs	r1, #3
    4f02:	4845      	ldr	r0, [pc, #276]	; (5018 <BOARD_BootClockRUN+0x668>)
    4f04:	f7ff fc20 	bl	4748 <CLOCK_SetMux>
    4f08:	2100      	movs	r1, #0
    4f0a:	4844      	ldr	r0, [pc, #272]	; (501c <BOARD_BootClockRUN+0x66c>)
    4f0c:	f7ff fc1c 	bl	4748 <CLOCK_SetMux>
    4f10:	2100      	movs	r1, #0
    4f12:	4843      	ldr	r0, [pc, #268]	; (5020 <BOARD_BootClockRUN+0x670>)
    4f14:	f7ff fc18 	bl	4748 <CLOCK_SetMux>
    4f18:	2100      	movs	r1, #0
    4f1a:	4842      	ldr	r0, [pc, #264]	; (5024 <BOARD_BootClockRUN+0x674>)
    4f1c:	f7ff fc14 	bl	4748 <CLOCK_SetMux>
    4f20:	4b39      	ldr	r3, [pc, #228]	; (5008 <BOARD_BootClockRUN+0x658>)
    4f22:	f8d3 3160 	ldr.w	r3, [r3, #352]	; 0x160
    4f26:	4a38      	ldr	r2, [pc, #224]	; (5008 <BOARD_BootClockRUN+0x658>)
    4f28:	f023 031f 	bic.w	r3, r3, #31
    4f2c:	f8c2 3160 	str.w	r3, [r2, #352]	; 0x160
    4f30:	4b3d      	ldr	r3, [pc, #244]	; (5028 <BOARD_BootClockRUN+0x678>)
    4f32:	6e1b      	ldr	r3, [r3, #96]	; 0x60
    4f34:	4a3c      	ldr	r2, [pc, #240]	; (5028 <BOARD_BootClockRUN+0x678>)
    4f36:	f023 0370 	bic.w	r3, r3, #112	; 0x70
    4f3a:	6613      	str	r3, [r2, #96]	; 0x60
    4f3c:	4b3a      	ldr	r3, [pc, #232]	; (5028 <BOARD_BootClockRUN+0x678>)
    4f3e:	6e1b      	ldr	r3, [r3, #96]	; 0x60
    4f40:	f023 030f 	bic.w	r3, r3, #15
    4f44:	4a38      	ldr	r2, [pc, #224]	; (5028 <BOARD_BootClockRUN+0x678>)
    4f46:	f043 0301 	orr.w	r3, r3, #1
    4f4a:	6613      	str	r3, [r2, #96]	; 0x60
    4f4c:	4b36      	ldr	r3, [pc, #216]	; (5028 <BOARD_BootClockRUN+0x678>)
    4f4e:	6e1b      	ldr	r3, [r3, #96]	; 0x60
    4f50:	4a35      	ldr	r2, [pc, #212]	; (5028 <BOARD_BootClockRUN+0x678>)
    4f52:	f423 0360 	bic.w	r3, r3, #14680064	; 0xe00000
    4f56:	6613      	str	r3, [r2, #96]	; 0x60
    4f58:	4b33      	ldr	r3, [pc, #204]	; (5028 <BOARD_BootClockRUN+0x678>)
    4f5a:	6e1b      	ldr	r3, [r3, #96]	; 0x60
    4f5c:	f423 13f8 	bic.w	r3, r3, #2031616	; 0x1f0000
    4f60:	4a31      	ldr	r2, [pc, #196]	; (5028 <BOARD_BootClockRUN+0x678>)
    4f62:	f443 1390 	orr.w	r3, r3, #1179648	; 0x120000
    4f66:	6613      	str	r3, [r2, #96]	; 0x60
    4f68:	4b2f      	ldr	r3, [pc, #188]	; (5028 <BOARD_BootClockRUN+0x678>)
    4f6a:	6e1b      	ldr	r3, [r3, #96]	; 0x60
    4f6c:	4a2e      	ldr	r2, [pc, #184]	; (5028 <BOARD_BootClockRUN+0x678>)
    4f6e:	f423 7380 	bic.w	r3, r3, #256	; 0x100
    4f72:	6613      	str	r3, [r2, #96]	; 0x60
    4f74:	4b2c      	ldr	r3, [pc, #176]	; (5028 <BOARD_BootClockRUN+0x678>)
    4f76:	6e1b      	ldr	r3, [r3, #96]	; 0x60
    4f78:	4a2b      	ldr	r2, [pc, #172]	; (5028 <BOARD_BootClockRUN+0x678>)
    4f7a:	f023 0380 	bic.w	r3, r3, #128	; 0x80
    4f7e:	6613      	str	r3, [r2, #96]	; 0x60
    4f80:	4b29      	ldr	r3, [pc, #164]	; (5028 <BOARD_BootClockRUN+0x678>)
    4f82:	6e1b      	ldr	r3, [r3, #96]	; 0x60
    4f84:	4a28      	ldr	r2, [pc, #160]	; (5028 <BOARD_BootClockRUN+0x678>)
    4f86:	f023 7380 	bic.w	r3, r3, #16777216	; 0x1000000
    4f8a:	6613      	str	r3, [r2, #96]	; 0x60
    4f8c:	2200      	movs	r2, #0
    4f8e:	2100      	movs	r1, #0
    4f90:	4826      	ldr	r0, [pc, #152]	; (502c <BOARD_BootClockRUN+0x67c>)
    4f92:	f001 ff68 	bl	6e66 <IOMUXC_SetSaiMClkClockSource>
    4f96:	2200      	movs	r2, #0
    4f98:	2103      	movs	r1, #3
    4f9a:	4824      	ldr	r0, [pc, #144]	; (502c <BOARD_BootClockRUN+0x67c>)
    4f9c:	f001 ff63 	bl	6e66 <IOMUXC_SetSaiMClkClockSource>
    4fa0:	2200      	movs	r2, #0
    4fa2:	2106      	movs	r1, #6
    4fa4:	4821      	ldr	r0, [pc, #132]	; (502c <BOARD_BootClockRUN+0x67c>)
    4fa6:	f001 ff5e 	bl	6e66 <IOMUXC_SetSaiMClkClockSource>
    4faa:	2200      	movs	r2, #0
    4fac:	2108      	movs	r1, #8
    4fae:	481f      	ldr	r0, [pc, #124]	; (502c <BOARD_BootClockRUN+0x67c>)
    4fb0:	f001 ff59 	bl	6e66 <IOMUXC_SetSaiMClkClockSource>
    4fb4:	2200      	movs	r2, #0
    4fb6:	210a      	movs	r1, #10
    4fb8:	481c      	ldr	r0, [pc, #112]	; (502c <BOARD_BootClockRUN+0x67c>)
    4fba:	f001 ff54 	bl	6e66 <IOMUXC_SetSaiMClkClockSource>
    4fbe:	2200      	movs	r2, #0
    4fc0:	2100      	movs	r1, #0
    4fc2:	481a      	ldr	r0, [pc, #104]	; (502c <BOARD_BootClockRUN+0x67c>)
    4fc4:	f7ff fcd2 	bl	496c <IOMUXC_MQSConfig>
    4fc8:	2200      	movs	r2, #0
    4fca:	f44f 5100 	mov.w	r1, #8192	; 0x2000
    4fce:	4817      	ldr	r0, [pc, #92]	; (502c <BOARD_BootClockRUN+0x67c>)
    4fd0:	f7ff fca8 	bl	4924 <IOMUXC_EnableMode>
    4fd4:	2200      	movs	r2, #0
    4fd6:	f44f 4180 	mov.w	r1, #16384	; 0x4000
    4fda:	4814      	ldr	r0, [pc, #80]	; (502c <BOARD_BootClockRUN+0x67c>)
    4fdc:	f7ff fca2 	bl	4924 <IOMUXC_EnableMode>
    4fe0:	4b12      	ldr	r3, [pc, #72]	; (502c <BOARD_BootClockRUN+0x67c>)
    4fe2:	695b      	ldr	r3, [r3, #20]
    4fe4:	4a11      	ldr	r2, [pc, #68]	; (502c <BOARD_BootClockRUN+0x67c>)
    4fe6:	f023 5380 	bic.w	r3, r3, #268435456	; 0x10000000
    4fea:	6153      	str	r3, [r2, #20]
    4fec:	4b0f      	ldr	r3, [pc, #60]	; (502c <BOARD_BootClockRUN+0x67c>)
    4fee:	695b      	ldr	r3, [r3, #20]
    4ff0:	4a0e      	ldr	r2, [pc, #56]	; (502c <BOARD_BootClockRUN+0x67c>)
    4ff2:	f023 5300 	bic.w	r3, r3, #536870912	; 0x20000000
    4ff6:	6153      	str	r3, [r2, #20]
    4ff8:	4b0d      	ldr	r3, [pc, #52]	; (5030 <BOARD_BootClockRUN+0x680>)
    4ffa:	4a0e      	ldr	r2, [pc, #56]	; (5034 <BOARD_BootClockRUN+0x684>)
    4ffc:	601a      	str	r2, [r3, #0]
    4ffe:	bf00      	nop
    5000:	bd80      	pop	{r7, pc}
    5002:	bf00      	nop
    5004:	0030000d 	.word	0x0030000d
    5008:	400d8000 	.word	0x400d8000
    500c:	0070000d 	.word	0x0070000d
    5010:	00e0000d 	.word	0x00e0000d
    5014:	0020000d 	.word	0x0020000d
    5018:	80007218 	.word	0x80007218
    501c:	14003914 	.word	0x14003914
    5020:	80006c18 	.word	0x80006c18
    5024:	8000261c 	.word	0x8000261c
    5028:	400fc000 	.word	0x400fc000
    502c:	400ac000 	.word	0x400ac000
    5030:	20000014 	.word	0x20000014
    5034:	23c34600 	.word	0x23c34600

00005038 <CLOCK_ControlGate>:
    5038:	b580      	push	{r7, lr}
    503a:	b086      	sub	sp, #24
    503c:	af00      	add	r7, sp, #0
    503e:	4603      	mov	r3, r0
    5040:	460a      	mov	r2, r1
    5042:	80fb      	strh	r3, [r7, #6]
    5044:	4613      	mov	r3, r2
    5046:	717b      	strb	r3, [r7, #5]
    5048:	f9b7 3006 	ldrsh.w	r3, [r7, #6]
    504c:	0a1b      	lsrs	r3, r3, #8
    504e:	617b      	str	r3, [r7, #20]
    5050:	88fb      	ldrh	r3, [r7, #6]
    5052:	f003 031f 	and.w	r3, r3, #31
    5056:	613b      	str	r3, [r7, #16]
    5058:	697b      	ldr	r3, [r7, #20]
    505a:	2b07      	cmp	r3, #7
    505c:	d902      	bls.n	5064 <CLOCK_ControlGate+0x2c>
    505e:	480d      	ldr	r0, [pc, #52]	; (5094 <CLOCK_ControlGate+0x5c>)
    5060:	f000 f936 	bl	52d0 <__assertion_failed>
    5064:	697b      	ldr	r3, [r7, #20]
    5066:	009a      	lsls	r2, r3, #2
    5068:	4b0b      	ldr	r3, [pc, #44]	; (5098 <CLOCK_ControlGate+0x60>)
    506a:	4413      	add	r3, r2
    506c:	60fb      	str	r3, [r7, #12]
    506e:	68fb      	ldr	r3, [r7, #12]
    5070:	681a      	ldr	r2, [r3, #0]
    5072:	2103      	movs	r1, #3
    5074:	693b      	ldr	r3, [r7, #16]
    5076:	fa01 f303 	lsl.w	r3, r1, r3
    507a:	43db      	mvns	r3, r3
    507c:	401a      	ands	r2, r3
    507e:	7979      	ldrb	r1, [r7, #5]
    5080:	693b      	ldr	r3, [r7, #16]
    5082:	fa01 f303 	lsl.w	r3, r1, r3
    5086:	431a      	orrs	r2, r3
    5088:	68fb      	ldr	r3, [r7, #12]
    508a:	601a      	str	r2, [r3, #0]
    508c:	bf00      	nop
    508e:	3718      	adds	r7, #24
    5090:	46bd      	mov	sp, r7
    5092:	bd80      	pop	{r7, pc}
    5094:	0000a15c 	.word	0x0000a15c
    5098:	400fc068 	.word	0x400fc068

0000509c <BOARD_InitPins>:
    509c:	b580      	push	{r7, lr}
    509e:	b086      	sub	sp, #24
    50a0:	af02      	add	r7, sp, #8
    50a2:	f240 4002 	movw	r0, #1026	; 0x402
    50a6:	f001 ff14 	bl	6ed2 <CLOCK_EnableClock>
    50aa:	4a6f      	ldr	r2, [pc, #444]	; (5268 <BOARD_InitPins+0x1cc>)
    50ac:	f107 030c 	add.w	r3, r7, #12
    50b0:	6812      	ldr	r2, [r2, #0]
    50b2:	4611      	mov	r1, r2
    50b4:	8019      	strh	r1, [r3, #0]
    50b6:	3302      	adds	r3, #2
    50b8:	0c12      	lsrs	r2, r2, #16
    50ba:	701a      	strb	r2, [r3, #0]
    50bc:	f107 030c 	add.w	r3, r7, #12
    50c0:	461a      	mov	r2, r3
    50c2:	2116      	movs	r1, #22
    50c4:	4869      	ldr	r0, [pc, #420]	; (526c <BOARD_InitPins+0x1d0>)
    50c6:	f7fc fc7b 	bl	19c0 <GPIO_PinInit>
    50ca:	2301      	movs	r3, #1
    50cc:	723b      	strb	r3, [r7, #8]
    50ce:	2300      	movs	r3, #0
    50d0:	727b      	strb	r3, [r7, #9]
    50d2:	2300      	movs	r3, #0
    50d4:	72bb      	strb	r3, [r7, #10]
    50d6:	f107 0308 	add.w	r3, r7, #8
    50da:	461a      	mov	r2, r3
    50dc:	210a      	movs	r1, #10
    50de:	4864      	ldr	r0, [pc, #400]	; (5270 <BOARD_InitPins+0x1d4>)
    50e0:	f7fc fc6e 	bl	19c0 <GPIO_PinInit>
    50e4:	2301      	movs	r3, #1
    50e6:	713b      	strb	r3, [r7, #4]
    50e8:	2300      	movs	r3, #0
    50ea:	717b      	strb	r3, [r7, #5]
    50ec:	2300      	movs	r3, #0
    50ee:	71bb      	strb	r3, [r7, #6]
    50f0:	1d3b      	adds	r3, r7, #4
    50f2:	461a      	mov	r2, r3
    50f4:	210b      	movs	r1, #11
    50f6:	485e      	ldr	r0, [pc, #376]	; (5270 <BOARD_InitPins+0x1d4>)
    50f8:	f7fc fc62 	bl	19c0 <GPIO_PinInit>
    50fc:	2300      	movs	r3, #0
    50fe:	9301      	str	r3, [sp, #4]
    5100:	4b5c      	ldr	r3, [pc, #368]	; (5274 <BOARD_InitPins+0x1d8>)
    5102:	9300      	str	r3, [sp, #0]
    5104:	2300      	movs	r3, #0
    5106:	2200      	movs	r2, #0
    5108:	2102      	movs	r1, #2
    510a:	485b      	ldr	r0, [pc, #364]	; (5278 <BOARD_InitPins+0x1dc>)
    510c:	f001 fef0 	bl	6ef0 <IOMUXC_SetPinMux>
    5110:	2300      	movs	r3, #0
    5112:	9301      	str	r3, [sp, #4]
    5114:	4b59      	ldr	r3, [pc, #356]	; (527c <BOARD_InitPins+0x1e0>)
    5116:	9300      	str	r3, [sp, #0]
    5118:	2300      	movs	r3, #0
    511a:	2200      	movs	r2, #0
    511c:	2102      	movs	r1, #2
    511e:	4858      	ldr	r0, [pc, #352]	; (5280 <BOARD_InitPins+0x1e4>)
    5120:	f001 fee6 	bl	6ef0 <IOMUXC_SetPinMux>
    5124:	2300      	movs	r3, #0
    5126:	9301      	str	r3, [sp, #4]
    5128:	4b56      	ldr	r3, [pc, #344]	; (5284 <BOARD_InitPins+0x1e8>)
    512a:	9300      	str	r3, [sp, #0]
    512c:	2300      	movs	r3, #0
    512e:	2200      	movs	r2, #0
    5130:	2105      	movs	r1, #5
    5132:	4855      	ldr	r0, [pc, #340]	; (5288 <BOARD_InitPins+0x1ec>)
    5134:	f001 fedc 	bl	6ef0 <IOMUXC_SetPinMux>
    5138:	2300      	movs	r3, #0
    513a:	9301      	str	r3, [sp, #4]
    513c:	4b53      	ldr	r3, [pc, #332]	; (528c <BOARD_InitPins+0x1f0>)
    513e:	9300      	str	r3, [sp, #0]
    5140:	2300      	movs	r3, #0
    5142:	4a53      	ldr	r2, [pc, #332]	; (5290 <BOARD_InitPins+0x1f4>)
    5144:	2103      	movs	r1, #3
    5146:	4853      	ldr	r0, [pc, #332]	; (5294 <BOARD_InitPins+0x1f8>)
    5148:	f001 fed2 	bl	6ef0 <IOMUXC_SetPinMux>
    514c:	2300      	movs	r3, #0
    514e:	9301      	str	r3, [sp, #4]
    5150:	4b51      	ldr	r3, [pc, #324]	; (5298 <BOARD_InitPins+0x1fc>)
    5152:	9300      	str	r3, [sp, #0]
    5154:	2300      	movs	r3, #0
    5156:	4a51      	ldr	r2, [pc, #324]	; (529c <BOARD_InitPins+0x200>)
    5158:	2103      	movs	r1, #3
    515a:	4851      	ldr	r0, [pc, #324]	; (52a0 <BOARD_InitPins+0x204>)
    515c:	f001 fec8 	bl	6ef0 <IOMUXC_SetPinMux>
    5160:	2300      	movs	r3, #0
    5162:	9301      	str	r3, [sp, #4]
    5164:	4b4f      	ldr	r3, [pc, #316]	; (52a4 <BOARD_InitPins+0x208>)
    5166:	9300      	str	r3, [sp, #0]
    5168:	2300      	movs	r3, #0
    516a:	4a4f      	ldr	r2, [pc, #316]	; (52a8 <BOARD_InitPins+0x20c>)
    516c:	2103      	movs	r1, #3
    516e:	484f      	ldr	r0, [pc, #316]	; (52ac <BOARD_InitPins+0x210>)
    5170:	f001 febe 	bl	6ef0 <IOMUXC_SetPinMux>
    5174:	2300      	movs	r3, #0
    5176:	9301      	str	r3, [sp, #4]
    5178:	4b4d      	ldr	r3, [pc, #308]	; (52b0 <BOARD_InitPins+0x214>)
    517a:	9300      	str	r3, [sp, #0]
    517c:	2300      	movs	r3, #0
    517e:	4a4d      	ldr	r2, [pc, #308]	; (52b4 <BOARD_InitPins+0x218>)
    5180:	2103      	movs	r1, #3
    5182:	484d      	ldr	r0, [pc, #308]	; (52b8 <BOARD_InitPins+0x21c>)
    5184:	f001 feb4 	bl	6ef0 <IOMUXC_SetPinMux>
    5188:	2300      	movs	r3, #0
    518a:	9301      	str	r3, [sp, #4]
    518c:	4b4b      	ldr	r3, [pc, #300]	; (52bc <BOARD_InitPins+0x220>)
    518e:	9300      	str	r3, [sp, #0]
    5190:	2300      	movs	r3, #0
    5192:	2200      	movs	r2, #0
    5194:	2105      	movs	r1, #5
    5196:	484a      	ldr	r0, [pc, #296]	; (52c0 <BOARD_InitPins+0x224>)
    5198:	f001 feaa 	bl	6ef0 <IOMUXC_SetPinMux>
    519c:	2300      	movs	r3, #0
    519e:	9301      	str	r3, [sp, #4]
    51a0:	4b48      	ldr	r3, [pc, #288]	; (52c4 <BOARD_InitPins+0x228>)
    51a2:	9300      	str	r3, [sp, #0]
    51a4:	2300      	movs	r3, #0
    51a6:	2200      	movs	r2, #0
    51a8:	2105      	movs	r1, #5
    51aa:	4847      	ldr	r0, [pc, #284]	; (52c8 <BOARD_InitPins+0x22c>)
    51ac:	f001 fea0 	bl	6ef0 <IOMUXC_SetPinMux>
    51b0:	4b46      	ldr	r3, [pc, #280]	; (52cc <BOARD_InitPins+0x230>)
    51b2:	6e9b      	ldr	r3, [r3, #104]	; 0x68
    51b4:	4b45      	ldr	r3, [pc, #276]	; (52cc <BOARD_InitPins+0x230>)
    51b6:	2200      	movs	r2, #0
    51b8:	669a      	str	r2, [r3, #104]	; 0x68
    51ba:	4b44      	ldr	r3, [pc, #272]	; (52cc <BOARD_InitPins+0x230>)
    51bc:	6edb      	ldr	r3, [r3, #108]	; 0x6c
    51be:	4b43      	ldr	r3, [pc, #268]	; (52cc <BOARD_InitPins+0x230>)
    51c0:	2200      	movs	r2, #0
    51c2:	66da      	str	r2, [r3, #108]	; 0x6c
    51c4:	f241 03b0 	movw	r3, #4272	; 0x10b0
    51c8:	9301      	str	r3, [sp, #4]
    51ca:	4b2a      	ldr	r3, [pc, #168]	; (5274 <BOARD_InitPins+0x1d8>)
    51cc:	9300      	str	r3, [sp, #0]
    51ce:	2300      	movs	r3, #0
    51d0:	2200      	movs	r2, #0
    51d2:	2102      	movs	r1, #2
    51d4:	4828      	ldr	r0, [pc, #160]	; (5278 <BOARD_InitPins+0x1dc>)
    51d6:	f001 fea8 	bl	6f2a <IOMUXC_SetPinConfig>
    51da:	f241 03b0 	movw	r3, #4272	; 0x10b0
    51de:	9301      	str	r3, [sp, #4]
    51e0:	4b26      	ldr	r3, [pc, #152]	; (527c <BOARD_InitPins+0x1e0>)
    51e2:	9300      	str	r3, [sp, #0]
    51e4:	2300      	movs	r3, #0
    51e6:	2200      	movs	r2, #0
    51e8:	2102      	movs	r1, #2
    51ea:	4825      	ldr	r0, [pc, #148]	; (5280 <BOARD_InitPins+0x1e4>)
    51ec:	f001 fe9d 	bl	6f2a <IOMUXC_SetPinConfig>
    51f0:	f24f 03b0 	movw	r3, #61616	; 0xf0b0
    51f4:	9301      	str	r3, [sp, #4]
    51f6:	4b25      	ldr	r3, [pc, #148]	; (528c <BOARD_InitPins+0x1f0>)
    51f8:	9300      	str	r3, [sp, #0]
    51fa:	2300      	movs	r3, #0
    51fc:	4a24      	ldr	r2, [pc, #144]	; (5290 <BOARD_InitPins+0x1f4>)
    51fe:	2103      	movs	r1, #3
    5200:	4824      	ldr	r0, [pc, #144]	; (5294 <BOARD_InitPins+0x1f8>)
    5202:	f001 fe92 	bl	6f2a <IOMUXC_SetPinConfig>
    5206:	f24f 03b0 	movw	r3, #61616	; 0xf0b0
    520a:	9301      	str	r3, [sp, #4]
    520c:	4b22      	ldr	r3, [pc, #136]	; (5298 <BOARD_InitPins+0x1fc>)
    520e:	9300      	str	r3, [sp, #0]
    5210:	2300      	movs	r3, #0
    5212:	4a22      	ldr	r2, [pc, #136]	; (529c <BOARD_InitPins+0x200>)
    5214:	2103      	movs	r1, #3
    5216:	4822      	ldr	r0, [pc, #136]	; (52a0 <BOARD_InitPins+0x204>)
    5218:	f001 fe87 	bl	6f2a <IOMUXC_SetPinConfig>
    521c:	f24f 03b0 	movw	r3, #61616	; 0xf0b0
    5220:	9301      	str	r3, [sp, #4]
    5222:	4b20      	ldr	r3, [pc, #128]	; (52a4 <BOARD_InitPins+0x208>)
    5224:	9300      	str	r3, [sp, #0]
    5226:	2300      	movs	r3, #0
    5228:	4a1f      	ldr	r2, [pc, #124]	; (52a8 <BOARD_InitPins+0x20c>)
    522a:	2103      	movs	r1, #3
    522c:	481f      	ldr	r0, [pc, #124]	; (52ac <BOARD_InitPins+0x210>)
    522e:	f001 fe7c 	bl	6f2a <IOMUXC_SetPinConfig>
    5232:	f24f 03b0 	movw	r3, #61616	; 0xf0b0
    5236:	9301      	str	r3, [sp, #4]
    5238:	4b1d      	ldr	r3, [pc, #116]	; (52b0 <BOARD_InitPins+0x214>)
    523a:	9300      	str	r3, [sp, #0]
    523c:	2300      	movs	r3, #0
    523e:	4a1d      	ldr	r2, [pc, #116]	; (52b4 <BOARD_InitPins+0x218>)
    5240:	2103      	movs	r1, #3
    5242:	481d      	ldr	r0, [pc, #116]	; (52b8 <BOARD_InitPins+0x21c>)
    5244:	f001 fe71 	bl	6f2a <IOMUXC_SetPinConfig>
    5248:	f243 03b0 	movw	r3, #12464	; 0x30b0
    524c:	9301      	str	r3, [sp, #4]
    524e:	4b1d      	ldr	r3, [pc, #116]	; (52c4 <BOARD_InitPins+0x228>)
    5250:	9300      	str	r3, [sp, #0]
    5252:	2300      	movs	r3, #0
    5254:	2200      	movs	r2, #0
    5256:	2105      	movs	r1, #5
    5258:	481b      	ldr	r0, [pc, #108]	; (52c8 <BOARD_InitPins+0x22c>)
    525a:	f001 fe66 	bl	6f2a <IOMUXC_SetPinConfig>
    525e:	bf00      	nop
    5260:	3710      	adds	r7, #16
    5262:	46bd      	mov	sp, r7
    5264:	bd80      	pop	{r7, pc}
    5266:	bf00      	nop
    5268:	0000a188 	.word	0x0000a188
    526c:	401b8000 	.word	0x401b8000
    5270:	401bc000 	.word	0x401bc000
    5274:	401f82dc 	.word	0x401f82dc
    5278:	401f80ec 	.word	0x401f80ec
    527c:	401f82e0 	.word	0x401f82e0
    5280:	401f80f0 	.word	0x401f80f0
    5284:	401f8304 	.word	0x401f8304
    5288:	401f8114 	.word	0x401f8114
    528c:	401f832c 	.word	0x401f832c
    5290:	401f851c 	.word	0x401f851c
    5294:	401f813c 	.word	0x401f813c
    5298:	401f8330 	.word	0x401f8330
    529c:	401f8524 	.word	0x401f8524
    52a0:	401f8140 	.word	0x401f8140
    52a4:	401f8334 	.word	0x401f8334
    52a8:	401f8528 	.word	0x401f8528
    52ac:	401f8144 	.word	0x401f8144
    52b0:	401f8338 	.word	0x401f8338
    52b4:	401f8520 	.word	0x401f8520
    52b8:	401f8148 	.word	0x401f8148
    52bc:	401f8354 	.word	0x401f8354
    52c0:	401f8164 	.word	0x401f8164
    52c4:	401f8358 	.word	0x401f8358
    52c8:	401f8168 	.word	0x401f8168
    52cc:	400ac000 	.word	0x400ac000

000052d0 <__assertion_failed>:
    52d0:	b510      	push	{r4, lr}
    52d2:	4604      	mov	r4, r0
    52d4:	490e      	ldr	r1, [pc, #56]	; (5310 <__assertion_failed+0x40>)
    52d6:	480f      	ldr	r0, [pc, #60]	; (5314 <__assertion_failed+0x44>)
    52d8:	f001 ff53 	bl	7182 <fputs>
    52dc:	490c      	ldr	r1, [pc, #48]	; (5310 <__assertion_failed+0x40>)
    52de:	4620      	mov	r0, r4
    52e0:	f001 ff4f 	bl	7182 <fputs>
    52e4:	490c      	ldr	r1, [pc, #48]	; (5318 <__assertion_failed+0x48>)
    52e6:	f8d1 3080 	ldr.w	r3, [r1, #128]	; 0x80
    52ea:	3b01      	subs	r3, #1
    52ec:	2b00      	cmp	r3, #0
    52ee:	f8c1 3080 	str.w	r3, [r1, #128]	; 0x80
    52f2:	db08      	blt.n	5306 <__assertion_failed+0x36>
    52f4:	6f8b      	ldr	r3, [r1, #120]	; 0x78
    52f6:	1c5a      	adds	r2, r3, #1
    52f8:	678a      	str	r2, [r1, #120]	; 0x78
    52fa:	220a      	movs	r2, #10
    52fc:	701a      	strb	r2, [r3, #0]
    52fe:	e8bd 4010 	ldmia.w	sp!, {r4, lr}
    5302:	f001 be3a 	b.w	6f7a <__sys_appexit>
    5306:	3178      	adds	r1, #120	; 0x78
    5308:	200a      	movs	r0, #10
    530a:	f001 fe59 	bl	6fc0 <__flsbuf>
    530e:	e7f6      	b.n	52fe <__assertion_failed+0x2e>
    5310:	200001c0 	.word	0x200001c0
    5314:	0000a190 	.word	0x0000a190
    5318:	20000148 	.word	0x20000148

0000531c <_Cwritebuf>:
    531c:	e92d 41f0 	stmdb	sp!, {r4, r5, r6, r7, r8, lr}
    5320:	68d5      	ldr	r5, [r2, #12]
    5322:	4680      	mov	r8, r0
    5324:	460e      	mov	r6, r1
    5326:	4614      	mov	r4, r2
    5328:	02eb      	lsls	r3, r5, #11
    532a:	6957      	ldr	r7, [r2, #20]
    532c:	d505      	bpl.n	533a <_Cwritebuf+0x1e>
    532e:	f045 0510 	orr.w	r5, r5, #16
    5332:	4638      	mov	r0, r7
    5334:	f002 f8c2 	bl	74bc <__sys_flen>
    5338:	61a0      	str	r0, [r4, #24]
    533a:	4b12      	ldr	r3, [pc, #72]	; (5384 <_Cwritebuf+0x68>)
    533c:	402b      	ands	r3, r5
    533e:	b18b      	cbz	r3, 5364 <_Cwritebuf+0x48>
    5340:	69a1      	ldr	r1, [r4, #24]
    5342:	4638      	mov	r0, r7
    5344:	f002 f8c3 	bl	74ce <__sys_seek>
    5348:	2800      	cmp	r0, #0
    534a:	da06      	bge.n	535a <_Cwritebuf+0x3e>
    534c:	68e3      	ldr	r3, [r4, #12]
    534e:	f04f 30ff 	mov.w	r0, #4294967295
    5352:	f043 0380 	orr.w	r3, r3, #128	; 0x80
    5356:	60e3      	str	r3, [r4, #12]
    5358:	e011      	b.n	537e <_Cwritebuf+0x62>
    535a:	f425 3500 	bic.w	r5, r5, #131072	; 0x20000
    535e:	f025 0510 	bic.w	r5, r5, #16
    5362:	60e5      	str	r5, [r4, #12]
    5364:	4632      	mov	r2, r6
    5366:	4641      	mov	r1, r8
    5368:	4638      	mov	r0, r7
    536a:	f002 f8b6 	bl	74da <__sys_write>
    536e:	f020 4300 	bic.w	r3, r0, #2147483648	; 0x80000000
    5372:	1af6      	subs	r6, r6, r3
    5374:	69a3      	ldr	r3, [r4, #24]
    5376:	441e      	add	r6, r3
    5378:	61a6      	str	r6, [r4, #24]
    537a:	2800      	cmp	r0, #0
    537c:	d1e6      	bne.n	534c <_Cwritebuf+0x30>
    537e:	e8bd 81f0 	ldmia.w	sp!, {r4, r5, r6, r7, r8, pc}
    5382:	bf00      	nop
    5384:	00020010 	.word	0x00020010

00005388 <malloc>:
    5388:	b5f8      	push	{r3, r4, r5, r6, r7, lr}
    538a:	4f30      	ldr	r7, [pc, #192]	; (544c <malloc+0xc4>)
    538c:	683c      	ldr	r4, [r7, #0]
    538e:	2800      	cmp	r0, #0
    5390:	d151      	bne.n	5436 <malloc+0xae>
    5392:	2000      	movs	r0, #0
    5394:	bdf8      	pop	{r3, r4, r5, r6, r7, pc}
    5396:	6823      	ldr	r3, [r4, #0]
    5398:	f1b3 5f80 	cmp.w	r3, #268435456	; 0x10000000
    539c:	d139      	bne.n	5412 <malloc+0x8a>
    539e:	e9d4 3201 	ldrd	r3, r2, [r4, #4]
    53a2:	b152      	cbz	r2, 53ba <malloc+0x32>
    53a4:	6811      	ldr	r1, [r2, #0]
    53a6:	f1b1 5f80 	cmp.w	r1, #268435456	; 0x10000000
    53aa:	d106      	bne.n	53ba <malloc+0x32>
    53ac:	6851      	ldr	r1, [r2, #4]
    53ae:	3303      	adds	r3, #3
    53b0:	440b      	add	r3, r1
    53b2:	6063      	str	r3, [r4, #4]
    53b4:	6893      	ldr	r3, [r2, #8]
    53b6:	60a3      	str	r3, [r4, #8]
    53b8:	e7f1      	b.n	539e <malloc+0x16>
    53ba:	42ab      	cmp	r3, r5
    53bc:	db07      	blt.n	53ce <malloc+0x46>
    53be:	4573      	cmp	r3, lr
    53c0:	dc05      	bgt.n	53ce <malloc+0x46>
    53c2:	4620      	mov	r0, r4
    53c4:	f04f 5300 	mov.w	r3, #536870912	; 0x20000000
    53c8:	f840 3b0c 	str.w	r3, [r0], #12
    53cc:	e7e2      	b.n	5394 <malloc+0xc>
    53ce:	4563      	cmp	r3, ip
    53d0:	d911      	bls.n	53f6 <malloc+0x6e>
    53d2:	4620      	mov	r0, r4
    53d4:	f04f 5100 	mov.w	r1, #536870912	; 0x20000000
    53d8:	6065      	str	r5, [r4, #4]
    53da:	1b5b      	subs	r3, r3, r5
    53dc:	f840 1b0c 	str.w	r1, [r0], #12
    53e0:	eb00 0185 	add.w	r1, r0, r5, lsl #2
    53e4:	3b03      	subs	r3, #3
    53e6:	60a1      	str	r1, [r4, #8]
    53e8:	f04f 5480 	mov.w	r4, #268435456	; 0x10000000
    53ec:	f840 4025 	str.w	r4, [r0, r5, lsl #2]
    53f0:	e9c1 3201 	strd	r3, r2, [r1, #4]
    53f4:	e7ce      	b.n	5394 <malloc+0xc>
    53f6:	b962      	cbnz	r2, 5412 <malloc+0x8a>
    53f8:	eba0 0083 	sub.w	r0, r0, r3, lsl #2
    53fc:	f000 f938 	bl	5670 <_sbrk>
    5400:	3001      	adds	r0, #1
    5402:	d0c6      	beq.n	5392 <malloc+0xa>
    5404:	f04f 5300 	mov.w	r3, #536870912	; 0x20000000
    5408:	f104 000c 	add.w	r0, r4, #12
    540c:	e9c4 3500 	strd	r3, r5, [r4]
    5410:	e7c0      	b.n	5394 <malloc+0xc>
    5412:	4626      	mov	r6, r4
    5414:	68a4      	ldr	r4, [r4, #8]
    5416:	2c00      	cmp	r4, #0
    5418:	d1bd      	bne.n	5396 <malloc+0xe>
    541a:	300c      	adds	r0, #12
    541c:	f000 f928 	bl	5670 <_sbrk>
    5420:	1c43      	adds	r3, r0, #1
    5422:	d0b6      	beq.n	5392 <malloc+0xa>
    5424:	f04f 5300 	mov.w	r3, #536870912	; 0x20000000
    5428:	6084      	str	r4, [r0, #8]
    542a:	e9c0 3500 	strd	r3, r5, [r0]
    542e:	b956      	cbnz	r6, 5446 <malloc+0xbe>
    5430:	6038      	str	r0, [r7, #0]
    5432:	300c      	adds	r0, #12
    5434:	e7ae      	b.n	5394 <malloc+0xc>
    5436:	1cc3      	adds	r3, r0, #3
    5438:	2600      	movs	r6, #0
    543a:	089d      	lsrs	r5, r3, #2
    543c:	f105 0c0a 	add.w	ip, r5, #10
    5440:	f105 0e03 	add.w	lr, r5, #3
    5444:	e7e7      	b.n	5416 <malloc+0x8e>
    5446:	60b0      	str	r0, [r6, #8]
    5448:	e7f3      	b.n	5432 <malloc+0xaa>
    544a:	bf00      	nop
    544c:	20000200 	.word	0x20000200

00005450 <_Csys_alloc>:
    5450:	b510      	push	{r4, lr}
    5452:	f7ff ff99 	bl	5388 <malloc>
    5456:	4604      	mov	r4, r0
    5458:	b928      	cbnz	r0, 5466 <_Csys_alloc+0x16>
    545a:	2217      	movs	r2, #23
    545c:	4903      	ldr	r1, [pc, #12]	; (546c <_Csys_alloc+0x1c>)
    545e:	f002 f83c 	bl	74da <__sys_write>
    5462:	f001 fd8a 	bl	6f7a <__sys_appexit>
    5466:	4620      	mov	r0, r4
    5468:	bd10      	pop	{r4, pc}
    546a:	bf00      	nop
    546c:	0000a1a5 	.word	0x0000a1a5

00005470 <fseek>:
    5470:	e92d 43f8 	stmdb	sp!, {r3, r4, r5, r6, r7, r8, r9, lr}
    5474:	68c6      	ldr	r6, [r0, #12]
    5476:	4604      	mov	r4, r0
    5478:	4b3c      	ldr	r3, [pc, #240]	; (556c <fseek+0xfc>)
    547a:	460d      	mov	r5, r1
    547c:	4690      	mov	r8, r2
    547e:	4033      	ands	r3, r6
    5480:	b91b      	cbnz	r3, 548a <fseek+0x1a>
    5482:	2702      	movs	r7, #2
    5484:	4638      	mov	r0, r7
    5486:	e8bd 83f8 	ldmia.w	sp!, {r3, r4, r5, r6, r7, r8, r9, pc}
    548a:	f8d0 9014 	ldr.w	r9, [r0, #20]
    548e:	4648      	mov	r0, r9
    5490:	f002 f817 	bl	74c2 <__sys_istty>
    5494:	4607      	mov	r7, r0
    5496:	2800      	cmp	r0, #0
    5498:	d1f3      	bne.n	5482 <fseek+0x12>
    549a:	f1b8 0f01 	cmp.w	r8, #1
    549e:	d02c      	beq.n	54fa <fseek+0x8a>
    54a0:	f1b8 0f02 	cmp.w	r8, #2
    54a4:	d02e      	beq.n	5504 <fseek+0x94>
    54a6:	f1b8 0f00 	cmp.w	r8, #0
    54aa:	d1ea      	bne.n	5482 <fseek+0x12>
    54ac:	2d00      	cmp	r5, #0
    54ae:	dbe8      	blt.n	5482 <fseek+0x12>
    54b0:	04b0      	lsls	r0, r6, #18
    54b2:	d504      	bpl.n	54be <fseek+0x4e>
    54b4:	6823      	ldr	r3, [r4, #0]
    54b6:	6ae2      	ldr	r2, [r4, #44]	; 0x2c
    54b8:	429a      	cmp	r2, r3
    54ba:	bf38      	it	cc
    54bc:	62e3      	strcc	r3, [r4, #44]	; 0x2c
    54be:	69a1      	ldr	r1, [r4, #24]
    54c0:	42a9      	cmp	r1, r5
    54c2:	dc0e      	bgt.n	54e2 <fseek+0x72>
    54c4:	6823      	ldr	r3, [r4, #0]
    54c6:	6ae2      	ldr	r2, [r4, #44]	; 0x2c
    54c8:	4293      	cmp	r3, r2
    54ca:	bf38      	it	cc
    54cc:	4613      	movcc	r3, r2
    54ce:	6922      	ldr	r2, [r4, #16]
    54d0:	1858      	adds	r0, r3, r1
    54d2:	1a80      	subs	r0, r0, r2
    54d4:	42a8      	cmp	r0, r5
    54d6:	db04      	blt.n	54e2 <fseek+0x72>
    54d8:	6b20      	ldr	r0, [r4, #48]	; 0x30
    54da:	eb01 0c00 	add.w	ip, r1, r0
    54de:	45ac      	cmp	ip, r5
    54e0:	dc34      	bgt.n	554c <fseek+0xdc>
    54e2:	2300      	movs	r3, #0
    54e4:	f046 0620 	orr.w	r6, r6, #32
    54e8:	62a5      	str	r5, [r4, #40]	; 0x28
    54ea:	e9c4 3301 	strd	r3, r3, [r4, #4]
    54ee:	f426 2603 	bic.w	r6, r6, #536576	; 0x83000
    54f2:	f026 0640 	bic.w	r6, r6, #64	; 0x40
    54f6:	60e6      	str	r6, [r4, #12]
    54f8:	e7c4      	b.n	5484 <fseek+0x14>
    54fa:	4620      	mov	r0, r4
    54fc:	f000 f838 	bl	5570 <ftell>
    5500:	4405      	add	r5, r0
    5502:	e7d3      	b.n	54ac <fseek+0x3c>
    5504:	4648      	mov	r0, r9
    5506:	f001 ffd9 	bl	74bc <__sys_flen>
    550a:	f1b0 0c00 	subs.w	ip, r0, #0
    550e:	68e2      	ldr	r2, [r4, #12]
    5510:	da04      	bge.n	551c <fseek+0xac>
    5512:	f042 0280 	orr.w	r2, r2, #128	; 0x80
    5516:	2701      	movs	r7, #1
    5518:	60e2      	str	r2, [r4, #12]
    551a:	e7b3      	b.n	5484 <fseek+0x14>
    551c:	6ae3      	ldr	r3, [r4, #44]	; 0x2c
    551e:	4618      	mov	r0, r3
    5520:	69a3      	ldr	r3, [r4, #24]
    5522:	4619      	mov	r1, r3
    5524:	6823      	ldr	r3, [r4, #0]
    5526:	4283      	cmp	r3, r0
    5528:	bf2c      	ite	cs
    552a:	18c9      	addcs	r1, r1, r3
    552c:	1809      	addcc	r1, r1, r0
    552e:	0692      	lsls	r2, r2, #26
    5530:	460b      	mov	r3, r1
    5532:	6921      	ldr	r1, [r4, #16]
    5534:	eba3 0301 	sub.w	r3, r3, r1
    5538:	d503      	bpl.n	5542 <fseek+0xd2>
    553a:	6aa2      	ldr	r2, [r4, #40]	; 0x28
    553c:	4293      	cmp	r3, r2
    553e:	bfb8      	it	lt
    5540:	4613      	movlt	r3, r2
    5542:	4563      	cmp	r3, ip
    5544:	bfac      	ite	ge
    5546:	18ed      	addge	r5, r5, r3
    5548:	4465      	addlt	r5, ip
    554a:	e7af      	b.n	54ac <fseek+0x3c>
    554c:	1a6d      	subs	r5, r5, r1
    554e:	07b1      	lsls	r1, r6, #30
    5550:	bf44      	itt	mi
    5552:	1a28      	submi	r0, r5, r0
    5554:	60a0      	strmi	r0, [r4, #8]
    5556:	07f1      	lsls	r1, r6, #31
    5558:	f026 0620 	bic.w	r6, r6, #32
    555c:	bf44      	itt	mi
    555e:	1a9b      	submi	r3, r3, r2
    5560:	1aeb      	submi	r3, r5, r3
    5562:	4415      	add	r5, r2
    5564:	bf48      	it	mi
    5566:	6063      	strmi	r3, [r4, #4]
    5568:	6025      	str	r5, [r4, #0]
    556a:	e7c0      	b.n	54ee <fseek+0x7e>
    556c:	00100003 	.word	0x00100003

00005570 <ftell>:
    5570:	68c3      	ldr	r3, [r0, #12]
    5572:	079a      	lsls	r2, r3, #30
    5574:	d105      	bne.n	5582 <ftell+0x12>
    5576:	4b0f      	ldr	r3, [pc, #60]	; (55b4 <ftell+0x44>)
    5578:	2221      	movs	r2, #33	; 0x21
    557a:	f04f 30ff 	mov.w	r0, #4294967295
    557e:	601a      	str	r2, [r3, #0]
    5580:	4770      	bx	lr
    5582:	f003 0220 	and.w	r2, r3, #32
    5586:	031b      	lsls	r3, r3, #12
    5588:	d50a      	bpl.n	55a0 <ftell+0x30>
    558a:	b112      	cbz	r2, 5592 <ftell+0x22>
    558c:	6a80      	ldr	r0, [r0, #40]	; 0x28
    558e:	3801      	subs	r0, #1
    5590:	4770      	bx	lr
    5592:	6803      	ldr	r3, [r0, #0]
    5594:	6982      	ldr	r2, [r0, #24]
    5596:	6900      	ldr	r0, [r0, #16]
    5598:	4413      	add	r3, r2
    559a:	1a1b      	subs	r3, r3, r0
    559c:	1e58      	subs	r0, r3, #1
    559e:	4770      	bx	lr
    55a0:	b10a      	cbz	r2, 55a6 <ftell+0x36>
    55a2:	6a80      	ldr	r0, [r0, #40]	; 0x28
    55a4:	4770      	bx	lr
    55a6:	6803      	ldr	r3, [r0, #0]
    55a8:	6982      	ldr	r2, [r0, #24]
    55aa:	6900      	ldr	r0, [r0, #16]
    55ac:	4413      	add	r3, r2
    55ae:	1a18      	subs	r0, r3, r0
    55b0:	4770      	bx	lr
    55b2:	bf00      	nop
    55b4:	20000204 	.word	0x20000204

000055b8 <_initio>:
    55b8:	b510      	push	{r4, lr}
    55ba:	4a17      	ldr	r2, [pc, #92]	; (5618 <_initio+0x60>)
    55bc:	2000      	movs	r0, #0
    55be:	4917      	ldr	r1, [pc, #92]	; (561c <_initio+0x64>)
    55c0:	f001 fe1b 	bl	71fa <_fdopen>
    55c4:	f44f 7380 	mov.w	r3, #256	; 0x100
    55c8:	f44f 6280 	mov.w	r2, #1024	; 0x400
    55cc:	2100      	movs	r1, #0
    55ce:	4812      	ldr	r0, [pc, #72]	; (5618 <_initio+0x60>)
    55d0:	f000 f82e 	bl	5630 <setvbuf>
    55d4:	4a12      	ldr	r2, [pc, #72]	; (5620 <_initio+0x68>)
    55d6:	4913      	ldr	r1, [pc, #76]	; (5624 <_initio+0x6c>)
    55d8:	2001      	movs	r0, #1
    55da:	f001 fe0e 	bl	71fa <_fdopen>
    55de:	f44f 7380 	mov.w	r3, #256	; 0x100
    55e2:	f44f 6280 	mov.w	r2, #1024	; 0x400
    55e6:	2100      	movs	r1, #0
    55e8:	480d      	ldr	r0, [pc, #52]	; (5620 <_initio+0x68>)
    55ea:	f000 f821 	bl	5630 <setvbuf>
    55ee:	4b0e      	ldr	r3, [pc, #56]	; (5628 <_initio+0x70>)
    55f0:	681b      	ldr	r3, [r3, #0]
    55f2:	2b02      	cmp	r3, #2
    55f4:	dd0e      	ble.n	5614 <_initio+0x5c>
    55f6:	4a0d      	ldr	r2, [pc, #52]	; (562c <_initio+0x74>)
    55f8:	2002      	movs	r0, #2
    55fa:	490a      	ldr	r1, [pc, #40]	; (5624 <_initio+0x6c>)
    55fc:	f001 fdfd 	bl	71fa <_fdopen>
    5600:	f44f 7380 	mov.w	r3, #256	; 0x100
    5604:	f44f 6280 	mov.w	r2, #1024	; 0x400
    5608:	2100      	movs	r1, #0
    560a:	4808      	ldr	r0, [pc, #32]	; (562c <_initio+0x74>)
    560c:	e8bd 4010 	ldmia.w	sp!, {r4, lr}
    5610:	f000 b80e 	b.w	5630 <setvbuf>
    5614:	bd10      	pop	{r4, pc}
    5616:	bf00      	nop
    5618:	20000148 	.word	0x20000148
    561c:	0000a1bd 	.word	0x0000a1bd
    5620:	20000184 	.word	0x20000184
    5624:	0000a1bf 	.word	0x0000a1bf
    5628:	0000a18c 	.word	0x0000a18c
    562c:	200001c0 	.word	0x200001c0

00005630 <setvbuf>:
    5630:	b570      	push	{r4, r5, r6, lr}
    5632:	68c4      	ldr	r4, [r0, #12]
    5634:	07a5      	lsls	r5, r4, #30
    5636:	d008      	beq.n	564a <setvbuf+0x1a>
    5638:	f5b2 7f00 	cmp.w	r2, #512	; 0x200
    563c:	d011      	beq.n	5662 <setvbuf+0x32>
    563e:	f5b2 6f80 	cmp.w	r2, #1024	; 0x400
    5642:	d004      	beq.n	564e <setvbuf+0x1e>
    5644:	f5b2 7f80 	cmp.w	r2, #256	; 0x100
    5648:	d00b      	beq.n	5662 <setvbuf+0x32>
    564a:	2001      	movs	r0, #1
    564c:	e008      	b.n	5660 <setvbuf+0x30>
    564e:	f100 0124 	add.w	r1, r0, #36	; 0x24
    5652:	2301      	movs	r3, #1
    5654:	4314      	orrs	r4, r2
    5656:	6101      	str	r1, [r0, #16]
    5658:	6001      	str	r1, [r0, #0]
    565a:	61c3      	str	r3, [r0, #28]
    565c:	60c4      	str	r4, [r0, #12]
    565e:	2000      	movs	r0, #0
    5660:	bd70      	pop	{r4, r5, r6, pc}
    5662:	1e5e      	subs	r6, r3, #1
    5664:	4d01      	ldr	r5, [pc, #4]	; (566c <setvbuf+0x3c>)
    5666:	42ae      	cmp	r6, r5
    5668:	d9f4      	bls.n	5654 <setvbuf+0x24>
    566a:	e7ee      	b.n	564a <setvbuf+0x1a>
    566c:	00fffffe 	.word	0x00fffffe

00005670 <_sbrk>:
    5670:	b570      	push	{r4, r5, r6, lr}
    5672:	4d0b      	ldr	r5, [pc, #44]	; (56a0 <_sbrk+0x30>)
    5674:	682b      	ldr	r3, [r5, #0]
    5676:	b90b      	cbnz	r3, 567c <_sbrk+0xc>
    5678:	4b0a      	ldr	r3, [pc, #40]	; (56a4 <_sbrk+0x34>)
    567a:	602b      	str	r3, [r5, #0]
    567c:	1cc4      	adds	r4, r0, #3
    567e:	682e      	ldr	r6, [r5, #0]
    5680:	f024 0403 	bic.w	r4, r4, #3
    5684:	4434      	add	r4, r6
    5686:	4620      	mov	r0, r4
    5688:	f000 f832 	bl	56f0 <__check_heap_overflow>
    568c:	b910      	cbnz	r0, 5694 <_sbrk+0x24>
    568e:	602c      	str	r4, [r5, #0]
    5690:	4630      	mov	r0, r6
    5692:	bd70      	pop	{r4, r5, r6, pc}
    5694:	4b04      	ldr	r3, [pc, #16]	; (56a8 <_sbrk+0x38>)
    5696:	220c      	movs	r2, #12
    5698:	f04f 36ff 	mov.w	r6, #4294967295
    569c:	601a      	str	r2, [r3, #0]
    569e:	e7f7      	b.n	5690 <_sbrk+0x20>
    56a0:	200001fc 	.word	0x200001fc
    56a4:	2000020c 	.word	0x2000020c
    56a8:	20000204 	.word	0x20000204

000056ac <fflush>:
    56ac:	b5f7      	push	{r0, r1, r2, r4, r5, r6, r7, lr}
    56ae:	4604      	mov	r4, r0
    56b0:	b198      	cbz	r0, 56da <fflush+0x2e>
    56b2:	b003      	add	sp, #12
    56b4:	e8bd 40f0 	ldmia.w	sp!, {r4, r5, r6, r7, lr}
    56b8:	f001 be09 	b.w	72ce <_do_fflush>
    56bc:	fb07 6004 	mla	r0, r7, r4, r6
    56c0:	3401      	adds	r4, #1
    56c2:	f001 fe04 	bl	72ce <_do_fflush>
    56c6:	2800      	cmp	r0, #0
    56c8:	bf18      	it	ne
    56ca:	f04f 35ff 	movne.w	r5, #4294967295
    56ce:	9b01      	ldr	r3, [sp, #4]
    56d0:	42a3      	cmp	r3, r4
    56d2:	dcf3      	bgt.n	56bc <fflush+0x10>
    56d4:	4628      	mov	r0, r5
    56d6:	b003      	add	sp, #12
    56d8:	bdf0      	pop	{r4, r5, r6, r7, pc}
    56da:	4b03      	ldr	r3, [pc, #12]	; (56e8 <fflush+0x3c>)
    56dc:	4605      	mov	r5, r0
    56de:	273c      	movs	r7, #60	; 0x3c
    56e0:	4e02      	ldr	r6, [pc, #8]	; (56ec <fflush+0x40>)
    56e2:	681b      	ldr	r3, [r3, #0]
    56e4:	9301      	str	r3, [sp, #4]
    56e6:	e7f2      	b.n	56ce <fflush+0x22>
    56e8:	0000a18c 	.word	0x0000a18c
    56ec:	20000148 	.word	0x20000148

000056f0 <__check_heap_overflow>:
    56f0:	4b04      	ldr	r3, [pc, #16]	; (5704 <__check_heap_overflow+0x14>)
    56f2:	b123      	cbz	r3, 56fe <__check_heap_overflow+0xe>
    56f4:	4298      	cmp	r0, r3
    56f6:	bf34      	ite	cc
    56f8:	2000      	movcc	r0, #0
    56fa:	2001      	movcs	r0, #1
    56fc:	4770      	bx	lr
    56fe:	4618      	mov	r0, r3
    5700:	4770      	bx	lr
    5702:	bf00      	nop
    5704:	2000120c 	.word	0x2000120c

00005708 <DbgConsole_PrintCallback>:
    5708:	b580      	push	{r7, lr}
    570a:	b086      	sub	sp, #24
    570c:	af00      	add	r7, sp, #0
    570e:	60f8      	str	r0, [r7, #12]
    5710:	60b9      	str	r1, [r7, #8]
    5712:	603b      	str	r3, [r7, #0]
    5714:	4613      	mov	r3, r2
    5716:	71fb      	strb	r3, [r7, #7]
    5718:	2300      	movs	r3, #0
    571a:	617b      	str	r3, [r7, #20]
    571c:	2300      	movs	r3, #0
    571e:	617b      	str	r3, [r7, #20]
    5720:	e01c      	b.n	575c <DbgConsole_PrintCallback+0x54>
    5722:	68bb      	ldr	r3, [r7, #8]
    5724:	681b      	ldr	r3, [r3, #0]
    5726:	3301      	adds	r3, #1
    5728:	2b7f      	cmp	r3, #127	; 0x7f
    572a:	d908      	bls.n	573e <DbgConsole_PrintCallback+0x36>
    572c:	68bb      	ldr	r3, [r7, #8]
    572e:	681b      	ldr	r3, [r3, #0]
    5730:	4619      	mov	r1, r3
    5732:	68f8      	ldr	r0, [r7, #12]
    5734:	f7fa ff2a 	bl	58c <DbgConsole_SendDataReliable>
    5738:	68bb      	ldr	r3, [r7, #8]
    573a:	2200      	movs	r2, #0
    573c:	601a      	str	r2, [r3, #0]
    573e:	68bb      	ldr	r3, [r7, #8]
    5740:	681b      	ldr	r3, [r3, #0]
    5742:	461a      	mov	r2, r3
    5744:	68fb      	ldr	r3, [r7, #12]
    5746:	4413      	add	r3, r2
    5748:	79fa      	ldrb	r2, [r7, #7]
    574a:	701a      	strb	r2, [r3, #0]
    574c:	68bb      	ldr	r3, [r7, #8]
    574e:	681b      	ldr	r3, [r3, #0]
    5750:	1c5a      	adds	r2, r3, #1
    5752:	68bb      	ldr	r3, [r7, #8]
    5754:	601a      	str	r2, [r3, #0]
    5756:	697b      	ldr	r3, [r7, #20]
    5758:	3301      	adds	r3, #1
    575a:	617b      	str	r3, [r7, #20]
    575c:	697a      	ldr	r2, [r7, #20]
    575e:	683b      	ldr	r3, [r7, #0]
    5760:	429a      	cmp	r2, r3
    5762:	dbde      	blt.n	5722 <DbgConsole_PrintCallback+0x1a>
    5764:	bf00      	nop
    5766:	3718      	adds	r7, #24
    5768:	46bd      	mov	sp, r7
    576a:	bd80      	pop	{r7, pc}

0000576c <ConvertRadixNumToString>:
    576c:	b480      	push	{r7}
    576e:	b08d      	sub	sp, #52	; 0x34
    5770:	af00      	add	r7, sp, #0
    5772:	60f8      	str	r0, [r7, #12]
    5774:	60b9      	str	r1, [r7, #8]
    5776:	607a      	str	r2, [r7, #4]
    5778:	603b      	str	r3, [r7, #0]
    577a:	2300      	movs	r3, #0
    577c:	61fb      	str	r3, [r7, #28]
    577e:	68fb      	ldr	r3, [r7, #12]
    5780:	61bb      	str	r3, [r7, #24]
    5782:	69bb      	ldr	r3, [r7, #24]
    5784:	1c5a      	adds	r2, r3, #1
    5786:	61ba      	str	r2, [r7, #24]
    5788:	2200      	movs	r2, #0
    578a:	701a      	strb	r2, [r3, #0]
    578c:	687b      	ldr	r3, [r7, #4]
    578e:	2b00      	cmp	r3, #0
    5790:	d035      	beq.n	57fe <ConvertRadixNumToString+0x92>
    5792:	68bb      	ldr	r3, [r7, #8]
    5794:	681b      	ldr	r3, [r3, #0]
    5796:	62fb      	str	r3, [r7, #44]	; 0x2c
    5798:	6afb      	ldr	r3, [r7, #44]	; 0x2c
    579a:	2b00      	cmp	r3, #0
    579c:	d12b      	bne.n	57f6 <ConvertRadixNumToString+0x8a>
    579e:	69bb      	ldr	r3, [r7, #24]
    57a0:	2230      	movs	r2, #48	; 0x30
    57a2:	701a      	strb	r2, [r3, #0]
    57a4:	69fb      	ldr	r3, [r7, #28]
    57a6:	3301      	adds	r3, #1
    57a8:	61fb      	str	r3, [r7, #28]
    57aa:	69fb      	ldr	r3, [r7, #28]
    57ac:	e062      	b.n	5874 <ConvertRadixNumToString+0x108>
    57ae:	6afa      	ldr	r2, [r7, #44]	; 0x2c
    57b0:	683b      	ldr	r3, [r7, #0]
    57b2:	fb92 f3f3 	sdiv	r3, r2, r3
    57b6:	617b      	str	r3, [r7, #20]
    57b8:	697b      	ldr	r3, [r7, #20]
    57ba:	683a      	ldr	r2, [r7, #0]
    57bc:	fb02 f303 	mul.w	r3, r2, r3
    57c0:	6afa      	ldr	r2, [r7, #44]	; 0x2c
    57c2:	1ad3      	subs	r3, r2, r3
    57c4:	62bb      	str	r3, [r7, #40]	; 0x28
    57c6:	6abb      	ldr	r3, [r7, #40]	; 0x28
    57c8:	2b00      	cmp	r3, #0
    57ca:	da06      	bge.n	57da <ConvertRadixNumToString+0x6e>
    57cc:	6abb      	ldr	r3, [r7, #40]	; 0x28
    57ce:	623b      	str	r3, [r7, #32]
    57d0:	6a3b      	ldr	r3, [r7, #32]
    57d2:	f1c3 0330 	rsb	r3, r3, #48	; 0x30
    57d6:	62bb      	str	r3, [r7, #40]	; 0x28
    57d8:	e002      	b.n	57e0 <ConvertRadixNumToString+0x74>
    57da:	6abb      	ldr	r3, [r7, #40]	; 0x28
    57dc:	3330      	adds	r3, #48	; 0x30
    57de:	62bb      	str	r3, [r7, #40]	; 0x28
    57e0:	697b      	ldr	r3, [r7, #20]
    57e2:	62fb      	str	r3, [r7, #44]	; 0x2c
    57e4:	69bb      	ldr	r3, [r7, #24]
    57e6:	1c5a      	adds	r2, r3, #1
    57e8:	61ba      	str	r2, [r7, #24]
    57ea:	6aba      	ldr	r2, [r7, #40]	; 0x28
    57ec:	b2d2      	uxtb	r2, r2
    57ee:	701a      	strb	r2, [r3, #0]
    57f0:	69fb      	ldr	r3, [r7, #28]
    57f2:	3301      	adds	r3, #1
    57f4:	61fb      	str	r3, [r7, #28]
    57f6:	6afb      	ldr	r3, [r7, #44]	; 0x2c
    57f8:	2b00      	cmp	r3, #0
    57fa:	d1d8      	bne.n	57ae <ConvertRadixNumToString+0x42>
    57fc:	e039      	b.n	5872 <ConvertRadixNumToString+0x106>
    57fe:	68bb      	ldr	r3, [r7, #8]
    5800:	681b      	ldr	r3, [r3, #0]
    5802:	627b      	str	r3, [r7, #36]	; 0x24
    5804:	6a7b      	ldr	r3, [r7, #36]	; 0x24
    5806:	2b00      	cmp	r3, #0
    5808:	d130      	bne.n	586c <ConvertRadixNumToString+0x100>
    580a:	69bb      	ldr	r3, [r7, #24]
    580c:	2230      	movs	r2, #48	; 0x30
    580e:	701a      	strb	r2, [r3, #0]
    5810:	69fb      	ldr	r3, [r7, #28]
    5812:	3301      	adds	r3, #1
    5814:	61fb      	str	r3, [r7, #28]
    5816:	69fb      	ldr	r3, [r7, #28]
    5818:	e02c      	b.n	5874 <ConvertRadixNumToString+0x108>
    581a:	683b      	ldr	r3, [r7, #0]
    581c:	6a7a      	ldr	r2, [r7, #36]	; 0x24
    581e:	fbb2 f3f3 	udiv	r3, r2, r3
    5822:	613b      	str	r3, [r7, #16]
    5824:	683b      	ldr	r3, [r7, #0]
    5826:	693a      	ldr	r2, [r7, #16]
    5828:	fb02 f303 	mul.w	r3, r2, r3
    582c:	6a7a      	ldr	r2, [r7, #36]	; 0x24
    582e:	1ad3      	subs	r3, r2, r3
    5830:	623b      	str	r3, [r7, #32]
    5832:	6a3b      	ldr	r3, [r7, #32]
    5834:	2b09      	cmp	r3, #9
    5836:	d803      	bhi.n	5840 <ConvertRadixNumToString+0xd4>
    5838:	6a3b      	ldr	r3, [r7, #32]
    583a:	3330      	adds	r3, #48	; 0x30
    583c:	623b      	str	r3, [r7, #32]
    583e:	e00a      	b.n	5856 <ConvertRadixNumToString+0xea>
    5840:	f897 3038 	ldrb.w	r3, [r7, #56]	; 0x38
    5844:	2b00      	cmp	r3, #0
    5846:	d001      	beq.n	584c <ConvertRadixNumToString+0xe0>
    5848:	2241      	movs	r2, #65	; 0x41
    584a:	e000      	b.n	584e <ConvertRadixNumToString+0xe2>
    584c:	2261      	movs	r2, #97	; 0x61
    584e:	6a3b      	ldr	r3, [r7, #32]
    5850:	4413      	add	r3, r2
    5852:	3b0a      	subs	r3, #10
    5854:	623b      	str	r3, [r7, #32]
    5856:	693b      	ldr	r3, [r7, #16]
    5858:	627b      	str	r3, [r7, #36]	; 0x24
    585a:	69bb      	ldr	r3, [r7, #24]
    585c:	1c5a      	adds	r2, r3, #1
    585e:	61ba      	str	r2, [r7, #24]
    5860:	6a3a      	ldr	r2, [r7, #32]
    5862:	b2d2      	uxtb	r2, r2
    5864:	701a      	strb	r2, [r3, #0]
    5866:	69fb      	ldr	r3, [r7, #28]
    5868:	3301      	adds	r3, #1
    586a:	61fb      	str	r3, [r7, #28]
    586c:	6a7b      	ldr	r3, [r7, #36]	; 0x24
    586e:	2b00      	cmp	r3, #0
    5870:	d1d3      	bne.n	581a <ConvertRadixNumToString+0xae>
    5872:	69fb      	ldr	r3, [r7, #28]
    5874:	4618      	mov	r0, r3
    5876:	3734      	adds	r7, #52	; 0x34
    5878:	46bd      	mov	sp, r7
    587a:	f85d 7b04 	ldr.w	r7, [sp], #4
    587e:	4770      	bx	lr

00005880 <StrFormatPrintf>:
    5880:	b590      	push	{r4, r7, lr}
    5882:	b09d      	sub	sp, #116	; 0x74
    5884:	af02      	add	r7, sp, #8
    5886:	60f8      	str	r0, [r7, #12]
    5888:	60b9      	str	r1, [r7, #8]
    588a:	607a      	str	r2, [r7, #4]
    588c:	603b      	str	r3, [r7, #0]
    588e:	2300      	movs	r3, #0
    5890:	663b      	str	r3, [r7, #96]	; 0x60
    5892:	2300      	movs	r3, #0
    5894:	65fb      	str	r3, [r7, #92]	; 0x5c
    5896:	2300      	movs	r3, #0
    5898:	61bb      	str	r3, [r7, #24]
    589a:	2300      	movs	r3, #0
    589c:	f887 304a 	strb.w	r3, [r7, #74]	; 0x4a
    58a0:	2300      	movs	r3, #0
    58a2:	613b      	str	r3, [r7, #16]
    58a4:	68fb      	ldr	r3, [r7, #12]
    58a6:	667b      	str	r3, [r7, #100]	; 0x64
    58a8:	e164      	b.n	5b74 <StrFormatPrintf+0x2f4>
    58aa:	6c7b      	ldr	r3, [r7, #68]	; 0x44
    58ac:	2b25      	cmp	r3, #37	; 0x25
    58ae:	d008      	beq.n	58c2 <StrFormatPrintf+0x42>
    58b0:	6c7b      	ldr	r3, [r7, #68]	; 0x44
    58b2:	b2da      	uxtb	r2, r3
    58b4:	f107 0118 	add.w	r1, r7, #24
    58b8:	683c      	ldr	r4, [r7, #0]
    58ba:	2301      	movs	r3, #1
    58bc:	6878      	ldr	r0, [r7, #4]
    58be:	47a0      	blx	r4
    58c0:	e155      	b.n	5b6e <StrFormatPrintf+0x2ee>
    58c2:	2301      	movs	r3, #1
    58c4:	f887 304b 	strb.w	r3, [r7, #75]	; 0x4b
    58c8:	2300      	movs	r3, #0
    58ca:	657b      	str	r3, [r7, #84]	; 0x54
    58cc:	2300      	movs	r3, #0
    58ce:	65bb      	str	r3, [r7, #88]	; 0x58
    58d0:	e01b      	b.n	590a <StrFormatPrintf+0x8a>
    58d2:	6e7b      	ldr	r3, [r7, #100]	; 0x64
    58d4:	3301      	adds	r3, #1
    58d6:	667b      	str	r3, [r7, #100]	; 0x64
    58d8:	6e7b      	ldr	r3, [r7, #100]	; 0x64
    58da:	781b      	ldrb	r3, [r3, #0]
    58dc:	647b      	str	r3, [r7, #68]	; 0x44
    58de:	6c7b      	ldr	r3, [r7, #68]	; 0x44
    58e0:	2b2f      	cmp	r3, #47	; 0x2f
    58e2:	dd0d      	ble.n	5900 <StrFormatPrintf+0x80>
    58e4:	6c7b      	ldr	r3, [r7, #68]	; 0x44
    58e6:	2b39      	cmp	r3, #57	; 0x39
    58e8:	dc0a      	bgt.n	5900 <StrFormatPrintf+0x80>
    58ea:	6d7a      	ldr	r2, [r7, #84]	; 0x54
    58ec:	4613      	mov	r3, r2
    58ee:	009b      	lsls	r3, r3, #2
    58f0:	4413      	add	r3, r2
    58f2:	005b      	lsls	r3, r3, #1
    58f4:	461a      	mov	r2, r3
    58f6:	6c7b      	ldr	r3, [r7, #68]	; 0x44
    58f8:	4413      	add	r3, r2
    58fa:	3b30      	subs	r3, #48	; 0x30
    58fc:	657b      	str	r3, [r7, #84]	; 0x54
    58fe:	e004      	b.n	590a <StrFormatPrintf+0x8a>
    5900:	6e7b      	ldr	r3, [r7, #100]	; 0x64
    5902:	3b01      	subs	r3, #1
    5904:	667b      	str	r3, [r7, #100]	; 0x64
    5906:	2301      	movs	r3, #1
    5908:	65bb      	str	r3, [r7, #88]	; 0x58
    590a:	6dbb      	ldr	r3, [r7, #88]	; 0x58
    590c:	2b00      	cmp	r3, #0
    590e:	d0e0      	beq.n	58d2 <StrFormatPrintf+0x52>
    5910:	2306      	movs	r3, #6
    5912:	653b      	str	r3, [r7, #80]	; 0x50
    5914:	6e7b      	ldr	r3, [r7, #100]	; 0x64
    5916:	3301      	adds	r3, #1
    5918:	667b      	str	r3, [r7, #100]	; 0x64
    591a:	6e7b      	ldr	r3, [r7, #100]	; 0x64
    591c:	781b      	ldrb	r3, [r3, #0]
    591e:	2b2e      	cmp	r3, #46	; 0x2e
    5920:	d124      	bne.n	596c <StrFormatPrintf+0xec>
    5922:	2300      	movs	r3, #0
    5924:	653b      	str	r3, [r7, #80]	; 0x50
    5926:	2300      	movs	r3, #0
    5928:	65bb      	str	r3, [r7, #88]	; 0x58
    592a:	e01b      	b.n	5964 <StrFormatPrintf+0xe4>
    592c:	6e7b      	ldr	r3, [r7, #100]	; 0x64
    592e:	3301      	adds	r3, #1
    5930:	667b      	str	r3, [r7, #100]	; 0x64
    5932:	6e7b      	ldr	r3, [r7, #100]	; 0x64
    5934:	781b      	ldrb	r3, [r3, #0]
    5936:	647b      	str	r3, [r7, #68]	; 0x44
    5938:	6c7b      	ldr	r3, [r7, #68]	; 0x44
    593a:	2b2f      	cmp	r3, #47	; 0x2f
    593c:	dd0d      	ble.n	595a <StrFormatPrintf+0xda>
    593e:	6c7b      	ldr	r3, [r7, #68]	; 0x44
    5940:	2b39      	cmp	r3, #57	; 0x39
    5942:	dc0a      	bgt.n	595a <StrFormatPrintf+0xda>
    5944:	6d3a      	ldr	r2, [r7, #80]	; 0x50
    5946:	4613      	mov	r3, r2
    5948:	009b      	lsls	r3, r3, #2
    594a:	4413      	add	r3, r2
    594c:	005b      	lsls	r3, r3, #1
    594e:	461a      	mov	r2, r3
    5950:	6c7b      	ldr	r3, [r7, #68]	; 0x44
    5952:	4413      	add	r3, r2
    5954:	3b30      	subs	r3, #48	; 0x30
    5956:	653b      	str	r3, [r7, #80]	; 0x50
    5958:	e004      	b.n	5964 <StrFormatPrintf+0xe4>
    595a:	6e7b      	ldr	r3, [r7, #100]	; 0x64
    595c:	3b01      	subs	r3, #1
    595e:	667b      	str	r3, [r7, #100]	; 0x64
    5960:	2301      	movs	r3, #1
    5962:	65bb      	str	r3, [r7, #88]	; 0x58
    5964:	6dbb      	ldr	r3, [r7, #88]	; 0x58
    5966:	2b00      	cmp	r3, #0
    5968:	d0e0      	beq.n	592c <StrFormatPrintf+0xac>
    596a:	e002      	b.n	5972 <StrFormatPrintf+0xf2>
    596c:	6e7b      	ldr	r3, [r7, #100]	; 0x64
    596e:	3b01      	subs	r3, #1
    5970:	667b      	str	r3, [r7, #100]	; 0x64
    5972:	6e7b      	ldr	r3, [r7, #100]	; 0x64
    5974:	3301      	adds	r3, #1
    5976:	667b      	str	r3, [r7, #100]	; 0x64
    5978:	6e7b      	ldr	r3, [r7, #100]	; 0x64
    597a:	781b      	ldrb	r3, [r3, #0]
    597c:	647b      	str	r3, [r7, #68]	; 0x44
    597e:	6c7b      	ldr	r3, [r7, #68]	; 0x44
    5980:	2b64      	cmp	r3, #100	; 0x64
    5982:	d01b      	beq.n	59bc <StrFormatPrintf+0x13c>
    5984:	6c7b      	ldr	r3, [r7, #68]	; 0x44
    5986:	2b69      	cmp	r3, #105	; 0x69
    5988:	d018      	beq.n	59bc <StrFormatPrintf+0x13c>
    598a:	6c7b      	ldr	r3, [r7, #68]	; 0x44
    598c:	2b66      	cmp	r3, #102	; 0x66
    598e:	d015      	beq.n	59bc <StrFormatPrintf+0x13c>
    5990:	6c7b      	ldr	r3, [r7, #68]	; 0x44
    5992:	2b46      	cmp	r3, #70	; 0x46
    5994:	d012      	beq.n	59bc <StrFormatPrintf+0x13c>
    5996:	6c7b      	ldr	r3, [r7, #68]	; 0x44
    5998:	2b78      	cmp	r3, #120	; 0x78
    599a:	d00f      	beq.n	59bc <StrFormatPrintf+0x13c>
    599c:	6c7b      	ldr	r3, [r7, #68]	; 0x44
    599e:	2b58      	cmp	r3, #88	; 0x58
    59a0:	d00c      	beq.n	59bc <StrFormatPrintf+0x13c>
    59a2:	6c7b      	ldr	r3, [r7, #68]	; 0x44
    59a4:	2b6f      	cmp	r3, #111	; 0x6f
    59a6:	d009      	beq.n	59bc <StrFormatPrintf+0x13c>
    59a8:	6c7b      	ldr	r3, [r7, #68]	; 0x44
    59aa:	2b62      	cmp	r3, #98	; 0x62
    59ac:	d006      	beq.n	59bc <StrFormatPrintf+0x13c>
    59ae:	6c7b      	ldr	r3, [r7, #68]	; 0x44
    59b0:	2b70      	cmp	r3, #112	; 0x70
    59b2:	d003      	beq.n	59bc <StrFormatPrintf+0x13c>
    59b4:	6c7b      	ldr	r3, [r7, #68]	; 0x44
    59b6:	2b75      	cmp	r3, #117	; 0x75
    59b8:	f040 8096 	bne.w	5ae8 <StrFormatPrintf+0x268>
    59bc:	6c7b      	ldr	r3, [r7, #68]	; 0x44
    59be:	2b64      	cmp	r3, #100	; 0x64
    59c0:	d002      	beq.n	59c8 <StrFormatPrintf+0x148>
    59c2:	6c7b      	ldr	r3, [r7, #68]	; 0x44
    59c4:	2b69      	cmp	r3, #105	; 0x69
    59c6:	d115      	bne.n	59f4 <StrFormatPrintf+0x174>
    59c8:	68bb      	ldr	r3, [r7, #8]
    59ca:	1d1a      	adds	r2, r3, #4
    59cc:	60ba      	str	r2, [r7, #8]
    59ce:	681b      	ldr	r3, [r3, #0]
    59d0:	617b      	str	r3, [r7, #20]
    59d2:	f107 0114 	add.w	r1, r7, #20
    59d6:	f107 001c 	add.w	r0, r7, #28
    59da:	f897 304b 	ldrb.w	r3, [r7, #75]	; 0x4b
    59de:	9300      	str	r3, [sp, #0]
    59e0:	230a      	movs	r3, #10
    59e2:	2201      	movs	r2, #1
    59e4:	f7ff fec2 	bl	576c <ConvertRadixNumToString>
    59e8:	65f8      	str	r0, [r7, #92]	; 0x5c
    59ea:	f107 021c 	add.w	r2, r7, #28
    59ee:	6dfb      	ldr	r3, [r7, #92]	; 0x5c
    59f0:	4413      	add	r3, r2
    59f2:	663b      	str	r3, [r7, #96]	; 0x60
    59f4:	6c7b      	ldr	r3, [r7, #68]	; 0x44
    59f6:	2b58      	cmp	r3, #88	; 0x58
    59f8:	d002      	beq.n	5a00 <StrFormatPrintf+0x180>
    59fa:	6c7b      	ldr	r3, [r7, #68]	; 0x44
    59fc:	2b78      	cmp	r3, #120	; 0x78
    59fe:	d11b      	bne.n	5a38 <StrFormatPrintf+0x1b8>
    5a00:	6c7b      	ldr	r3, [r7, #68]	; 0x44
    5a02:	2b78      	cmp	r3, #120	; 0x78
    5a04:	d102      	bne.n	5a0c <StrFormatPrintf+0x18c>
    5a06:	2300      	movs	r3, #0
    5a08:	f887 304b 	strb.w	r3, [r7, #75]	; 0x4b
    5a0c:	68bb      	ldr	r3, [r7, #8]
    5a0e:	1d1a      	adds	r2, r3, #4
    5a10:	60ba      	str	r2, [r7, #8]
    5a12:	681b      	ldr	r3, [r3, #0]
    5a14:	613b      	str	r3, [r7, #16]
    5a16:	f107 0110 	add.w	r1, r7, #16
    5a1a:	f107 001c 	add.w	r0, r7, #28
    5a1e:	f897 304b 	ldrb.w	r3, [r7, #75]	; 0x4b
    5a22:	9300      	str	r3, [sp, #0]
    5a24:	2310      	movs	r3, #16
    5a26:	2200      	movs	r2, #0
    5a28:	f7ff fea0 	bl	576c <ConvertRadixNumToString>
    5a2c:	65f8      	str	r0, [r7, #92]	; 0x5c
    5a2e:	f107 021c 	add.w	r2, r7, #28
    5a32:	6dfb      	ldr	r3, [r7, #92]	; 0x5c
    5a34:	4413      	add	r3, r2
    5a36:	663b      	str	r3, [r7, #96]	; 0x60
    5a38:	6c7b      	ldr	r3, [r7, #68]	; 0x44
    5a3a:	2b6f      	cmp	r3, #111	; 0x6f
    5a3c:	d008      	beq.n	5a50 <StrFormatPrintf+0x1d0>
    5a3e:	6c7b      	ldr	r3, [r7, #68]	; 0x44
    5a40:	2b62      	cmp	r3, #98	; 0x62
    5a42:	d005      	beq.n	5a50 <StrFormatPrintf+0x1d0>
    5a44:	6c7b      	ldr	r3, [r7, #68]	; 0x44
    5a46:	2b70      	cmp	r3, #112	; 0x70
    5a48:	d002      	beq.n	5a50 <StrFormatPrintf+0x1d0>
    5a4a:	6c7b      	ldr	r3, [r7, #68]	; 0x44
    5a4c:	2b75      	cmp	r3, #117	; 0x75
    5a4e:	d12f      	bne.n	5ab0 <StrFormatPrintf+0x230>
    5a50:	68bb      	ldr	r3, [r7, #8]
    5a52:	1d1a      	adds	r2, r3, #4
    5a54:	60ba      	str	r2, [r7, #8]
    5a56:	681b      	ldr	r3, [r3, #0]
    5a58:	613b      	str	r3, [r7, #16]
    5a5a:	6c7b      	ldr	r3, [r7, #68]	; 0x44
    5a5c:	2b6f      	cmp	r3, #111	; 0x6f
    5a5e:	d103      	bne.n	5a68 <StrFormatPrintf+0x1e8>
    5a60:	2308      	movs	r3, #8
    5a62:	f887 304a 	strb.w	r3, [r7, #74]	; 0x4a
    5a66:	e010      	b.n	5a8a <StrFormatPrintf+0x20a>
    5a68:	6c7b      	ldr	r3, [r7, #68]	; 0x44
    5a6a:	2b62      	cmp	r3, #98	; 0x62
    5a6c:	d103      	bne.n	5a76 <StrFormatPrintf+0x1f6>
    5a6e:	2302      	movs	r3, #2
    5a70:	f887 304a 	strb.w	r3, [r7, #74]	; 0x4a
    5a74:	e009      	b.n	5a8a <StrFormatPrintf+0x20a>
    5a76:	6c7b      	ldr	r3, [r7, #68]	; 0x44
    5a78:	2b70      	cmp	r3, #112	; 0x70
    5a7a:	d103      	bne.n	5a84 <StrFormatPrintf+0x204>
    5a7c:	2310      	movs	r3, #16
    5a7e:	f887 304a 	strb.w	r3, [r7, #74]	; 0x4a
    5a82:	e002      	b.n	5a8a <StrFormatPrintf+0x20a>
    5a84:	230a      	movs	r3, #10
    5a86:	f887 304a 	strb.w	r3, [r7, #74]	; 0x4a
    5a8a:	f897 204a 	ldrb.w	r2, [r7, #74]	; 0x4a
    5a8e:	f107 0110 	add.w	r1, r7, #16
    5a92:	f107 001c 	add.w	r0, r7, #28
    5a96:	f897 304b 	ldrb.w	r3, [r7, #75]	; 0x4b
    5a9a:	9300      	str	r3, [sp, #0]
    5a9c:	4613      	mov	r3, r2
    5a9e:	2200      	movs	r2, #0
    5aa0:	f7ff fe64 	bl	576c <ConvertRadixNumToString>
    5aa4:	65f8      	str	r0, [r7, #92]	; 0x5c
    5aa6:	f107 021c 	add.w	r2, r7, #28
    5aaa:	6dfb      	ldr	r3, [r7, #92]	; 0x5c
    5aac:	4413      	add	r3, r2
    5aae:	663b      	str	r3, [r7, #96]	; 0x60
    5ab0:	6dfb      	ldr	r3, [r7, #92]	; 0x5c
    5ab2:	6d7a      	ldr	r2, [r7, #84]	; 0x54
    5ab4:	1ad3      	subs	r3, r2, r3
    5ab6:	f107 0118 	add.w	r1, r7, #24
    5aba:	683c      	ldr	r4, [r7, #0]
    5abc:	2220      	movs	r2, #32
    5abe:	6878      	ldr	r0, [r7, #4]
    5ac0:	47a0      	blx	r4
    5ac2:	6e3b      	ldr	r3, [r7, #96]	; 0x60
    5ac4:	2b00      	cmp	r3, #0
    5ac6:	d052      	beq.n	5b6e <StrFormatPrintf+0x2ee>
    5ac8:	e009      	b.n	5ade <StrFormatPrintf+0x25e>
    5aca:	6e3b      	ldr	r3, [r7, #96]	; 0x60
    5acc:	1e5a      	subs	r2, r3, #1
    5ace:	663a      	str	r2, [r7, #96]	; 0x60
    5ad0:	781a      	ldrb	r2, [r3, #0]
    5ad2:	f107 0118 	add.w	r1, r7, #24
    5ad6:	683c      	ldr	r4, [r7, #0]
    5ad8:	2301      	movs	r3, #1
    5ada:	6878      	ldr	r0, [r7, #4]
    5adc:	47a0      	blx	r4
    5ade:	6e3b      	ldr	r3, [r7, #96]	; 0x60
    5ae0:	781b      	ldrb	r3, [r3, #0]
    5ae2:	2b00      	cmp	r3, #0
    5ae4:	d1f1      	bne.n	5aca <StrFormatPrintf+0x24a>
    5ae6:	e042      	b.n	5b6e <StrFormatPrintf+0x2ee>
    5ae8:	6c7b      	ldr	r3, [r7, #68]	; 0x44
    5aea:	2b63      	cmp	r3, #99	; 0x63
    5aec:	d10e      	bne.n	5b0c <StrFormatPrintf+0x28c>
    5aee:	68bb      	ldr	r3, [r7, #8]
    5af0:	1d1a      	adds	r2, r3, #4
    5af2:	60ba      	str	r2, [r7, #8]
    5af4:	681b      	ldr	r3, [r3, #0]
    5af6:	b2db      	uxtb	r3, r3
    5af8:	643b      	str	r3, [r7, #64]	; 0x40
    5afa:	6c3b      	ldr	r3, [r7, #64]	; 0x40
    5afc:	b2da      	uxtb	r2, r3
    5afe:	f107 0118 	add.w	r1, r7, #24
    5b02:	683c      	ldr	r4, [r7, #0]
    5b04:	2301      	movs	r3, #1
    5b06:	6878      	ldr	r0, [r7, #4]
    5b08:	47a0      	blx	r4
    5b0a:	e030      	b.n	5b6e <StrFormatPrintf+0x2ee>
    5b0c:	6c7b      	ldr	r3, [r7, #68]	; 0x44
    5b0e:	2b73      	cmp	r3, #115	; 0x73
    5b10:	d125      	bne.n	5b5e <StrFormatPrintf+0x2de>
    5b12:	68bb      	ldr	r3, [r7, #8]
    5b14:	1d1a      	adds	r2, r3, #4
    5b16:	60ba      	str	r2, [r7, #8]
    5b18:	681b      	ldr	r3, [r3, #0]
    5b1a:	64fb      	str	r3, [r7, #76]	; 0x4c
    5b1c:	6cfb      	ldr	r3, [r7, #76]	; 0x4c
    5b1e:	2b00      	cmp	r3, #0
    5b20:	d025      	beq.n	5b6e <StrFormatPrintf+0x2ee>
    5b22:	6cf8      	ldr	r0, [r7, #76]	; 0x4c
    5b24:	f001 fb43 	bl	71ae <strlen>
    5b28:	4603      	mov	r3, r0
    5b2a:	65fb      	str	r3, [r7, #92]	; 0x5c
    5b2c:	6dfb      	ldr	r3, [r7, #92]	; 0x5c
    5b2e:	6d7a      	ldr	r2, [r7, #84]	; 0x54
    5b30:	1ad3      	subs	r3, r2, r3
    5b32:	f107 0118 	add.w	r1, r7, #24
    5b36:	683c      	ldr	r4, [r7, #0]
    5b38:	2220      	movs	r2, #32
    5b3a:	6878      	ldr	r0, [r7, #4]
    5b3c:	47a0      	blx	r4
    5b3e:	e009      	b.n	5b54 <StrFormatPrintf+0x2d4>
    5b40:	6cfb      	ldr	r3, [r7, #76]	; 0x4c
    5b42:	1c5a      	adds	r2, r3, #1
    5b44:	64fa      	str	r2, [r7, #76]	; 0x4c
    5b46:	781a      	ldrb	r2, [r3, #0]
    5b48:	f107 0118 	add.w	r1, r7, #24
    5b4c:	683c      	ldr	r4, [r7, #0]
    5b4e:	2301      	movs	r3, #1
    5b50:	6878      	ldr	r0, [r7, #4]
    5b52:	47a0      	blx	r4
    5b54:	6cfb      	ldr	r3, [r7, #76]	; 0x4c
    5b56:	781b      	ldrb	r3, [r3, #0]
    5b58:	2b00      	cmp	r3, #0
    5b5a:	d1f1      	bne.n	5b40 <StrFormatPrintf+0x2c0>
    5b5c:	e007      	b.n	5b6e <StrFormatPrintf+0x2ee>
    5b5e:	6c7b      	ldr	r3, [r7, #68]	; 0x44
    5b60:	b2da      	uxtb	r2, r3
    5b62:	f107 0118 	add.w	r1, r7, #24
    5b66:	683c      	ldr	r4, [r7, #0]
    5b68:	2301      	movs	r3, #1
    5b6a:	6878      	ldr	r0, [r7, #4]
    5b6c:	47a0      	blx	r4
    5b6e:	6e7b      	ldr	r3, [r7, #100]	; 0x64
    5b70:	3301      	adds	r3, #1
    5b72:	667b      	str	r3, [r7, #100]	; 0x64
    5b74:	6e7b      	ldr	r3, [r7, #100]	; 0x64
    5b76:	781b      	ldrb	r3, [r3, #0]
    5b78:	647b      	str	r3, [r7, #68]	; 0x44
    5b7a:	6c7b      	ldr	r3, [r7, #68]	; 0x44
    5b7c:	2b00      	cmp	r3, #0
    5b7e:	f47f ae94 	bne.w	58aa <StrFormatPrintf+0x2a>
    5b82:	69bb      	ldr	r3, [r7, #24]
    5b84:	4618      	mov	r0, r3
    5b86:	376c      	adds	r7, #108	; 0x6c
    5b88:	46bd      	mov	sp, r7
    5b8a:	bd90      	pop	{r4, r7, pc}

00005b8c <DMA0_DMA16_IRQHandler>:
    5b8c:	b508      	push	{r3, lr}
    5b8e:	f7fb fc7f 	bl	1490 <DMA0_DMA16_DriverIRQHandler>
    5b92:	bd08      	pop	{r3, pc}

00005b94 <DMA1_DMA17_IRQHandler>:
    5b94:	b508      	push	{r3, lr}
    5b96:	f7fb fc9f 	bl	14d8 <DMA1_DMA17_DriverIRQHandler>
    5b9a:	bd08      	pop	{r3, pc}

00005b9c <DMA2_DMA18_IRQHandler>:
    5b9c:	b508      	push	{r3, lr}
    5b9e:	f7fb fcbf 	bl	1520 <DMA2_DMA18_DriverIRQHandler>
    5ba2:	bd08      	pop	{r3, pc}

00005ba4 <DMA3_DMA19_IRQHandler>:
    5ba4:	b508      	push	{r3, lr}
    5ba6:	f7fb fcdf 	bl	1568 <DMA3_DMA19_DriverIRQHandler>
    5baa:	bd08      	pop	{r3, pc}

00005bac <DMA4_DMA20_IRQHandler>:
    5bac:	b508      	push	{r3, lr}
    5bae:	f7fb fcff 	bl	15b0 <DMA4_DMA20_DriverIRQHandler>
    5bb2:	bd08      	pop	{r3, pc}

00005bb4 <DMA5_DMA21_IRQHandler>:
    5bb4:	b508      	push	{r3, lr}
    5bb6:	f7fb fd1f 	bl	15f8 <DMA5_DMA21_DriverIRQHandler>
    5bba:	bd08      	pop	{r3, pc}

00005bbc <DMA6_DMA22_IRQHandler>:
    5bbc:	b508      	push	{r3, lr}
    5bbe:	f7fb fd3f 	bl	1640 <DMA6_DMA22_DriverIRQHandler>
    5bc2:	bd08      	pop	{r3, pc}

00005bc4 <DMA7_DMA23_IRQHandler>:
    5bc4:	b508      	push	{r3, lr}
    5bc6:	f7fb fd5f 	bl	1688 <DMA7_DMA23_DriverIRQHandler>
    5bca:	bd08      	pop	{r3, pc}

00005bcc <DMA8_DMA24_IRQHandler>:
    5bcc:	b508      	push	{r3, lr}
    5bce:	f7fb fd7f 	bl	16d0 <DMA8_DMA24_DriverIRQHandler>
    5bd2:	bd08      	pop	{r3, pc}

00005bd4 <DMA9_DMA25_IRQHandler>:
    5bd4:	b508      	push	{r3, lr}
    5bd6:	f7fb fd9f 	bl	1718 <DMA9_DMA25_DriverIRQHandler>
    5bda:	bd08      	pop	{r3, pc}

00005bdc <DMA10_DMA26_IRQHandler>:
    5bdc:	b508      	push	{r3, lr}
    5bde:	f7fb fdbf 	bl	1760 <DMA10_DMA26_DriverIRQHandler>
    5be2:	bd08      	pop	{r3, pc}

00005be4 <DMA11_DMA27_IRQHandler>:
    5be4:	b508      	push	{r3, lr}
    5be6:	f7fb fddf 	bl	17a8 <DMA11_DMA27_DriverIRQHandler>
    5bea:	bd08      	pop	{r3, pc}

00005bec <DMA12_DMA28_IRQHandler>:
    5bec:	b508      	push	{r3, lr}
    5bee:	f7fb fdff 	bl	17f0 <DMA12_DMA28_DriverIRQHandler>
    5bf2:	bd08      	pop	{r3, pc}

00005bf4 <DMA13_DMA29_IRQHandler>:
    5bf4:	b508      	push	{r3, lr}
    5bf6:	f7fb fe1f 	bl	1838 <DMA13_DMA29_DriverIRQHandler>
    5bfa:	bd08      	pop	{r3, pc}

00005bfc <DMA14_DMA30_IRQHandler>:
    5bfc:	b508      	push	{r3, lr}
    5bfe:	f7fb fe3f 	bl	1880 <DMA14_DMA30_DriverIRQHandler>
    5c02:	bd08      	pop	{r3, pc}

00005c04 <DMA15_DMA31_IRQHandler>:
    5c04:	b508      	push	{r3, lr}
    5c06:	f7fb fe5f 	bl	18c8 <DMA15_DMA31_DriverIRQHandler>
    5c0a:	bd08      	pop	{r3, pc}

00005c0c <DMA_ERROR_IRQHandler>:
    5c0c:	b508      	push	{r3, lr}
    5c0e:	f7fa fbb4 	bl	37a <ACMP1_DriverIRQHandler>
    5c12:	bd08      	pop	{r3, pc}

00005c14 <CTI0_ERROR_IRQHandler>:
    5c14:	b508      	push	{r3, lr}
    5c16:	f7fa fbb0 	bl	37a <ACMP1_DriverIRQHandler>
    5c1a:	bd08      	pop	{r3, pc}

00005c1c <CTI1_ERROR_IRQHandler>:
    5c1c:	b508      	push	{r3, lr}
    5c1e:	f7fa fbac 	bl	37a <ACMP1_DriverIRQHandler>
    5c22:	bd08      	pop	{r3, pc}

00005c24 <CORE_IRQHandler>:
    5c24:	b508      	push	{r3, lr}
    5c26:	f7fa fba8 	bl	37a <ACMP1_DriverIRQHandler>
    5c2a:	bd08      	pop	{r3, pc}

00005c2c <LPUART1_IRQHandler>:
    5c2c:	b508      	push	{r3, lr}
    5c2e:	f7fe f83f 	bl	3cb0 <LPUART1_DriverIRQHandler>
    5c32:	bd08      	pop	{r3, pc}

00005c34 <LPUART2_IRQHandler>:
    5c34:	b508      	push	{r3, lr}
    5c36:	f7fe f84d 	bl	3cd4 <LPUART2_DriverIRQHandler>
    5c3a:	bd08      	pop	{r3, pc}

00005c3c <LPUART3_IRQHandler>:
    5c3c:	b508      	push	{r3, lr}
    5c3e:	f7fe f85b 	bl	3cf8 <LPUART3_DriverIRQHandler>
    5c42:	bd08      	pop	{r3, pc}

00005c44 <LPUART4_IRQHandler>:
    5c44:	b508      	push	{r3, lr}
    5c46:	f7fe f869 	bl	3d1c <LPUART4_DriverIRQHandler>
    5c4a:	bd08      	pop	{r3, pc}

00005c4c <LPUART5_IRQHandler>:
    5c4c:	b508      	push	{r3, lr}
    5c4e:	f7fe f877 	bl	3d40 <LPUART5_DriverIRQHandler>
    5c52:	bd08      	pop	{r3, pc}

00005c54 <LPUART6_IRQHandler>:
    5c54:	b508      	push	{r3, lr}
    5c56:	f7fe f885 	bl	3d64 <LPUART6_DriverIRQHandler>
    5c5a:	bd08      	pop	{r3, pc}

00005c5c <LPUART7_IRQHandler>:
    5c5c:	b508      	push	{r3, lr}
    5c5e:	f7fe f893 	bl	3d88 <LPUART7_DriverIRQHandler>
    5c62:	bd08      	pop	{r3, pc}

00005c64 <LPUART8_IRQHandler>:
    5c64:	b508      	push	{r3, lr}
    5c66:	f7fe f8a1 	bl	3dac <LPUART8_DriverIRQHandler>
    5c6a:	bd08      	pop	{r3, pc}

00005c6c <LPI2C1_IRQHandler>:
    5c6c:	b508      	push	{r3, lr}
    5c6e:	f7fa fb84 	bl	37a <ACMP1_DriverIRQHandler>
    5c72:	bd08      	pop	{r3, pc}

00005c74 <LPI2C2_IRQHandler>:
    5c74:	b508      	push	{r3, lr}
    5c76:	f7fa fb80 	bl	37a <ACMP1_DriverIRQHandler>
    5c7a:	bd08      	pop	{r3, pc}

00005c7c <LPI2C3_IRQHandler>:
    5c7c:	b508      	push	{r3, lr}
    5c7e:	f7fa fb7c 	bl	37a <ACMP1_DriverIRQHandler>
    5c82:	bd08      	pop	{r3, pc}

00005c84 <LPI2C4_IRQHandler>:
    5c84:	b508      	push	{r3, lr}
    5c86:	f7fa fb78 	bl	37a <ACMP1_DriverIRQHandler>
    5c8a:	bd08      	pop	{r3, pc}

00005c8c <LPSPI1_IRQHandler>:
    5c8c:	b508      	push	{r3, lr}
    5c8e:	f7fd fb13 	bl	32b8 <LPSPI1_DriverIRQHandler>
    5c92:	bd08      	pop	{r3, pc}

00005c94 <LPSPI2_IRQHandler>:
    5c94:	b508      	push	{r3, lr}
    5c96:	f7fd fb27 	bl	32e8 <LPSPI2_DriverIRQHandler>
    5c9a:	bd08      	pop	{r3, pc}

00005c9c <LPSPI3_IRQHandler>:
    5c9c:	b508      	push	{r3, lr}
    5c9e:	f7fd fb3b 	bl	3318 <LPSPI3_DriverIRQHandler>
    5ca2:	bd08      	pop	{r3, pc}

00005ca4 <LPSPI4_IRQHandler>:
    5ca4:	b508      	push	{r3, lr}
    5ca6:	f7fd fb4f 	bl	3348 <LPSPI4_DriverIRQHandler>
    5caa:	bd08      	pop	{r3, pc}

00005cac <CAN1_IRQHandler>:
    5cac:	b508      	push	{r3, lr}
    5cae:	f7fa fb64 	bl	37a <ACMP1_DriverIRQHandler>
    5cb2:	bd08      	pop	{r3, pc}

00005cb4 <CAN2_IRQHandler>:
    5cb4:	b508      	push	{r3, lr}
    5cb6:	f7fa fb60 	bl	37a <ACMP1_DriverIRQHandler>
    5cba:	bd08      	pop	{r3, pc}

00005cbc <FLEXRAM_IRQHandler>:
    5cbc:	b508      	push	{r3, lr}
    5cbe:	f7fa fb5c 	bl	37a <ACMP1_DriverIRQHandler>
    5cc2:	bd08      	pop	{r3, pc}

00005cc4 <KPP_IRQHandler>:
    5cc4:	b508      	push	{r3, lr}
    5cc6:	f7fa fb58 	bl	37a <ACMP1_DriverIRQHandler>
    5cca:	bd08      	pop	{r3, pc}

00005ccc <TSC_DIG_IRQHandler>:
    5ccc:	b508      	push	{r3, lr}
    5cce:	f7fa fb54 	bl	37a <ACMP1_DriverIRQHandler>
    5cd2:	bd08      	pop	{r3, pc}

00005cd4 <GPR_IRQ_IRQHandler>:
    5cd4:	b508      	push	{r3, lr}
    5cd6:	f7fa fb50 	bl	37a <ACMP1_DriverIRQHandler>
    5cda:	bd08      	pop	{r3, pc}

00005cdc <LCDIF_IRQHandler>:
    5cdc:	b508      	push	{r3, lr}
    5cde:	f7fa fb4c 	bl	37a <ACMP1_DriverIRQHandler>
    5ce2:	bd08      	pop	{r3, pc}

00005ce4 <CSI_IRQHandler>:
    5ce4:	b508      	push	{r3, lr}
    5ce6:	f7fa fb48 	bl	37a <ACMP1_DriverIRQHandler>
    5cea:	bd08      	pop	{r3, pc}

00005cec <PXP_IRQHandler>:
    5cec:	b508      	push	{r3, lr}
    5cee:	f7fa fb44 	bl	37a <ACMP1_DriverIRQHandler>
    5cf2:	bd08      	pop	{r3, pc}

00005cf4 <WDOG2_IRQHandler>:
    5cf4:	b508      	push	{r3, lr}
    5cf6:	f7fa fb40 	bl	37a <ACMP1_DriverIRQHandler>
    5cfa:	bd08      	pop	{r3, pc}

00005cfc <SNVS_HP_WRAPPER_IRQHandler>:
    5cfc:	b508      	push	{r3, lr}
    5cfe:	f7fa fb3c 	bl	37a <ACMP1_DriverIRQHandler>
    5d02:	bd08      	pop	{r3, pc}

00005d04 <SNVS_HP_WRAPPER_TZ_IRQHandler>:
    5d04:	b508      	push	{r3, lr}
    5d06:	f7fa fb38 	bl	37a <ACMP1_DriverIRQHandler>
    5d0a:	bd08      	pop	{r3, pc}

00005d0c <SNVS_LP_WRAPPER_IRQHandler>:
    5d0c:	b508      	push	{r3, lr}
    5d0e:	f7fa fb34 	bl	37a <ACMP1_DriverIRQHandler>
    5d12:	bd08      	pop	{r3, pc}

00005d14 <CSU_IRQHandler>:
    5d14:	b508      	push	{r3, lr}
    5d16:	f7fa fb30 	bl	37a <ACMP1_DriverIRQHandler>
    5d1a:	bd08      	pop	{r3, pc}

00005d1c <DCP_IRQHandler>:
    5d1c:	b508      	push	{r3, lr}
    5d1e:	f7fa fb2c 	bl	37a <ACMP1_DriverIRQHandler>
    5d22:	bd08      	pop	{r3, pc}

00005d24 <DCP_VMI_IRQHandler>:
    5d24:	b508      	push	{r3, lr}
    5d26:	f7fa fb28 	bl	37a <ACMP1_DriverIRQHandler>
    5d2a:	bd08      	pop	{r3, pc}

00005d2c <Reserved68_IRQHandler>:
    5d2c:	b508      	push	{r3, lr}
    5d2e:	f7fa fb24 	bl	37a <ACMP1_DriverIRQHandler>
    5d32:	bd08      	pop	{r3, pc}

00005d34 <TRNG_IRQHandler>:
    5d34:	b508      	push	{r3, lr}
    5d36:	f7fa fb20 	bl	37a <ACMP1_DriverIRQHandler>
    5d3a:	bd08      	pop	{r3, pc}

00005d3c <SJC_IRQHandler>:
    5d3c:	b508      	push	{r3, lr}
    5d3e:	f7fa fb1c 	bl	37a <ACMP1_DriverIRQHandler>
    5d42:	bd08      	pop	{r3, pc}

00005d44 <BEE_IRQHandler>:
    5d44:	b508      	push	{r3, lr}
    5d46:	f7fa fb18 	bl	37a <ACMP1_DriverIRQHandler>
    5d4a:	bd08      	pop	{r3, pc}

00005d4c <SAI1_IRQHandler>:
    5d4c:	b508      	push	{r3, lr}
    5d4e:	f7fa fb14 	bl	37a <ACMP1_DriverIRQHandler>
    5d52:	bd08      	pop	{r3, pc}

00005d54 <SAI2_IRQHandler>:
    5d54:	b508      	push	{r3, lr}
    5d56:	f7fa fb10 	bl	37a <ACMP1_DriverIRQHandler>
    5d5a:	bd08      	pop	{r3, pc}

00005d5c <SAI3_RX_IRQHandler>:
    5d5c:	b508      	push	{r3, lr}
    5d5e:	f7fa fb0c 	bl	37a <ACMP1_DriverIRQHandler>
    5d62:	bd08      	pop	{r3, pc}

00005d64 <SAI3_TX_IRQHandler>:
    5d64:	b508      	push	{r3, lr}
    5d66:	f7fa fb08 	bl	37a <ACMP1_DriverIRQHandler>
    5d6a:	bd08      	pop	{r3, pc}

00005d6c <SPDIF_IRQHandler>:
    5d6c:	b508      	push	{r3, lr}
    5d6e:	f7fa fb04 	bl	37a <ACMP1_DriverIRQHandler>
    5d72:	bd08      	pop	{r3, pc}

00005d74 <PMU_EVENT_IRQHandler>:
    5d74:	b508      	push	{r3, lr}
    5d76:	f7fa fb00 	bl	37a <ACMP1_DriverIRQHandler>
    5d7a:	bd08      	pop	{r3, pc}

00005d7c <Reserved78_IRQHandler>:
    5d7c:	b508      	push	{r3, lr}
    5d7e:	f7fa fafc 	bl	37a <ACMP1_DriverIRQHandler>
    5d82:	bd08      	pop	{r3, pc}

00005d84 <TEMP_LOW_HIGH_IRQHandler>:
    5d84:	b508      	push	{r3, lr}
    5d86:	f7fa faf8 	bl	37a <ACMP1_DriverIRQHandler>
    5d8a:	bd08      	pop	{r3, pc}

00005d8c <TEMP_PANIC_IRQHandler>:
    5d8c:	b508      	push	{r3, lr}
    5d8e:	f7fa faf4 	bl	37a <ACMP1_DriverIRQHandler>
    5d92:	bd08      	pop	{r3, pc}

00005d94 <USB_PHY1_IRQHandler>:
    5d94:	b508      	push	{r3, lr}
    5d96:	f7fa faf0 	bl	37a <ACMP1_DriverIRQHandler>
    5d9a:	bd08      	pop	{r3, pc}

00005d9c <USB_PHY2_IRQHandler>:
    5d9c:	b508      	push	{r3, lr}
    5d9e:	f7fa faec 	bl	37a <ACMP1_DriverIRQHandler>
    5da2:	bd08      	pop	{r3, pc}

00005da4 <ADC1_IRQHandler>:
    5da4:	b508      	push	{r3, lr}
    5da6:	f7fa fae8 	bl	37a <ACMP1_DriverIRQHandler>
    5daa:	bd08      	pop	{r3, pc}

00005dac <ADC2_IRQHandler>:
    5dac:	b508      	push	{r3, lr}
    5dae:	f7fa fae4 	bl	37a <ACMP1_DriverIRQHandler>
    5db2:	bd08      	pop	{r3, pc}

00005db4 <DCDC_IRQHandler>:
    5db4:	b508      	push	{r3, lr}
    5db6:	f7fa fae0 	bl	37a <ACMP1_DriverIRQHandler>
    5dba:	bd08      	pop	{r3, pc}

00005dbc <Reserved86_IRQHandler>:
    5dbc:	b508      	push	{r3, lr}
    5dbe:	f7fa fadc 	bl	37a <ACMP1_DriverIRQHandler>
    5dc2:	bd08      	pop	{r3, pc}

00005dc4 <Reserved87_IRQHandler>:
    5dc4:	b508      	push	{r3, lr}
    5dc6:	f7fa fad8 	bl	37a <ACMP1_DriverIRQHandler>
    5dca:	bd08      	pop	{r3, pc}

00005dcc <GPIO1_INT0_IRQHandler>:
    5dcc:	b508      	push	{r3, lr}
    5dce:	f7fa fad4 	bl	37a <ACMP1_DriverIRQHandler>
    5dd2:	bd08      	pop	{r3, pc}

00005dd4 <GPIO1_INT1_IRQHandler>:
    5dd4:	b508      	push	{r3, lr}
    5dd6:	f7fa fad0 	bl	37a <ACMP1_DriverIRQHandler>
    5dda:	bd08      	pop	{r3, pc}

00005ddc <GPIO1_INT2_IRQHandler>:
    5ddc:	b508      	push	{r3, lr}
    5dde:	f7fa facc 	bl	37a <ACMP1_DriverIRQHandler>
    5de2:	bd08      	pop	{r3, pc}

00005de4 <GPIO1_INT3_IRQHandler>:
    5de4:	b508      	push	{r3, lr}
    5de6:	f7fa fac8 	bl	37a <ACMP1_DriverIRQHandler>
    5dea:	bd08      	pop	{r3, pc}

00005dec <GPIO1_INT4_IRQHandler>:
    5dec:	b508      	push	{r3, lr}
    5dee:	f7fa fac4 	bl	37a <ACMP1_DriverIRQHandler>
    5df2:	bd08      	pop	{r3, pc}

00005df4 <GPIO1_INT5_IRQHandler>:
    5df4:	b508      	push	{r3, lr}
    5df6:	f7fa fac0 	bl	37a <ACMP1_DriverIRQHandler>
    5dfa:	bd08      	pop	{r3, pc}

00005dfc <GPIO1_INT6_IRQHandler>:
    5dfc:	b508      	push	{r3, lr}
    5dfe:	f7fa fabc 	bl	37a <ACMP1_DriverIRQHandler>
    5e02:	bd08      	pop	{r3, pc}

00005e04 <GPIO1_INT7_IRQHandler>:
    5e04:	b508      	push	{r3, lr}
    5e06:	f7fa fab8 	bl	37a <ACMP1_DriverIRQHandler>
    5e0a:	bd08      	pop	{r3, pc}

00005e0c <GPIO1_Combined_0_15_IRQHandler>:
    5e0c:	b508      	push	{r3, lr}
    5e0e:	f7fa fab4 	bl	37a <ACMP1_DriverIRQHandler>
    5e12:	bd08      	pop	{r3, pc}

00005e14 <GPIO1_Combined_16_31_IRQHandler>:
    5e14:	b508      	push	{r3, lr}
    5e16:	f7fa fab0 	bl	37a <ACMP1_DriverIRQHandler>
    5e1a:	bd08      	pop	{r3, pc}

00005e1c <GPIO2_Combined_0_15_IRQHandler>:
    5e1c:	b508      	push	{r3, lr}
    5e1e:	f7fa faac 	bl	37a <ACMP1_DriverIRQHandler>
    5e22:	bd08      	pop	{r3, pc}

00005e24 <GPIO2_Combined_16_31_IRQHandler>:
    5e24:	b508      	push	{r3, lr}
    5e26:	f7fa faa8 	bl	37a <ACMP1_DriverIRQHandler>
    5e2a:	bd08      	pop	{r3, pc}

00005e2c <GPIO3_Combined_0_15_IRQHandler>:
    5e2c:	b508      	push	{r3, lr}
    5e2e:	f7fa faa4 	bl	37a <ACMP1_DriverIRQHandler>
    5e32:	bd08      	pop	{r3, pc}

00005e34 <GPIO3_Combined_16_31_IRQHandler>:
    5e34:	b508      	push	{r3, lr}
    5e36:	f7fa faa0 	bl	37a <ACMP1_DriverIRQHandler>
    5e3a:	bd08      	pop	{r3, pc}

00005e3c <GPIO4_Combined_0_15_IRQHandler>:
    5e3c:	b508      	push	{r3, lr}
    5e3e:	f7fa fa9c 	bl	37a <ACMP1_DriverIRQHandler>
    5e42:	bd08      	pop	{r3, pc}

00005e44 <GPIO4_Combined_16_31_IRQHandler>:
    5e44:	b508      	push	{r3, lr}
    5e46:	f7fa fa98 	bl	37a <ACMP1_DriverIRQHandler>
    5e4a:	bd08      	pop	{r3, pc}

00005e4c <GPIO5_Combined_0_15_IRQHandler>:
    5e4c:	b508      	push	{r3, lr}
    5e4e:	f7fa fa94 	bl	37a <ACMP1_DriverIRQHandler>
    5e52:	bd08      	pop	{r3, pc}

00005e54 <GPIO5_Combined_16_31_IRQHandler>:
    5e54:	b508      	push	{r3, lr}
    5e56:	f7fa fa90 	bl	37a <ACMP1_DriverIRQHandler>
    5e5a:	bd08      	pop	{r3, pc}

00005e5c <FLEXIO1_IRQHandler>:
    5e5c:	b508      	push	{r3, lr}
    5e5e:	f7fa fa8c 	bl	37a <ACMP1_DriverIRQHandler>
    5e62:	bd08      	pop	{r3, pc}

00005e64 <FLEXIO2_IRQHandler>:
    5e64:	b508      	push	{r3, lr}
    5e66:	f7fa fa88 	bl	37a <ACMP1_DriverIRQHandler>
    5e6a:	bd08      	pop	{r3, pc}

00005e6c <WDOG1_IRQHandler>:
    5e6c:	b508      	push	{r3, lr}
    5e6e:	f7fa fa84 	bl	37a <ACMP1_DriverIRQHandler>
    5e72:	bd08      	pop	{r3, pc}

00005e74 <RTWDOG_IRQHandler>:
    5e74:	b508      	push	{r3, lr}
    5e76:	f7fa fa80 	bl	37a <ACMP1_DriverIRQHandler>
    5e7a:	bd08      	pop	{r3, pc}

00005e7c <EWM_IRQHandler>:
    5e7c:	b508      	push	{r3, lr}
    5e7e:	f7fa fa7c 	bl	37a <ACMP1_DriverIRQHandler>
    5e82:	bd08      	pop	{r3, pc}

00005e84 <CCM_1_IRQHandler>:
    5e84:	b508      	push	{r3, lr}
    5e86:	f7fa fa78 	bl	37a <ACMP1_DriverIRQHandler>
    5e8a:	bd08      	pop	{r3, pc}

00005e8c <CCM_2_IRQHandler>:
    5e8c:	b508      	push	{r3, lr}
    5e8e:	f7fa fa74 	bl	37a <ACMP1_DriverIRQHandler>
    5e92:	bd08      	pop	{r3, pc}

00005e94 <GPC_IRQHandler>:
    5e94:	b508      	push	{r3, lr}
    5e96:	f7fa fa70 	bl	37a <ACMP1_DriverIRQHandler>
    5e9a:	bd08      	pop	{r3, pc}

00005e9c <SRC_IRQHandler>:
    5e9c:	b508      	push	{r3, lr}
    5e9e:	f7fa fa6c 	bl	37a <ACMP1_DriverIRQHandler>
    5ea2:	bd08      	pop	{r3, pc}

00005ea4 <Reserved115_IRQHandler>:
    5ea4:	b508      	push	{r3, lr}
    5ea6:	f7fa fa68 	bl	37a <ACMP1_DriverIRQHandler>
    5eaa:	bd08      	pop	{r3, pc}

00005eac <GPT1_IRQHandler>:
    5eac:	b508      	push	{r3, lr}
    5eae:	f7fa fa64 	bl	37a <ACMP1_DriverIRQHandler>
    5eb2:	bd08      	pop	{r3, pc}

00005eb4 <GPT2_IRQHandler>:
    5eb4:	b508      	push	{r3, lr}
    5eb6:	f7fa fa60 	bl	37a <ACMP1_DriverIRQHandler>
    5eba:	bd08      	pop	{r3, pc}

00005ebc <PWM1_0_IRQHandler>:
    5ebc:	b508      	push	{r3, lr}
    5ebe:	f7fa fa5c 	bl	37a <ACMP1_DriverIRQHandler>
    5ec2:	bd08      	pop	{r3, pc}

00005ec4 <PWM1_1_IRQHandler>:
    5ec4:	b508      	push	{r3, lr}
    5ec6:	f7fa fa58 	bl	37a <ACMP1_DriverIRQHandler>
    5eca:	bd08      	pop	{r3, pc}

00005ecc <PWM1_2_IRQHandler>:
    5ecc:	b508      	push	{r3, lr}
    5ece:	f7fa fa54 	bl	37a <ACMP1_DriverIRQHandler>
    5ed2:	bd08      	pop	{r3, pc}

00005ed4 <PWM1_3_IRQHandler>:
    5ed4:	b508      	push	{r3, lr}
    5ed6:	f7fa fa50 	bl	37a <ACMP1_DriverIRQHandler>
    5eda:	bd08      	pop	{r3, pc}

00005edc <PWM1_FAULT_IRQHandler>:
    5edc:	b508      	push	{r3, lr}
    5ede:	f7fa fa4c 	bl	37a <ACMP1_DriverIRQHandler>
    5ee2:	bd08      	pop	{r3, pc}

00005ee4 <FLEXSPI2_IRQHandler>:
    5ee4:	b508      	push	{r3, lr}
    5ee6:	f7fa fa48 	bl	37a <ACMP1_DriverIRQHandler>
    5eea:	bd08      	pop	{r3, pc}

00005eec <FLEXSPI_IRQHandler>:
    5eec:	b508      	push	{r3, lr}
    5eee:	f7fa fa44 	bl	37a <ACMP1_DriverIRQHandler>
    5ef2:	bd08      	pop	{r3, pc}

00005ef4 <SEMC_IRQHandler>:
    5ef4:	b508      	push	{r3, lr}
    5ef6:	f7fa fa40 	bl	37a <ACMP1_DriverIRQHandler>
    5efa:	bd08      	pop	{r3, pc}

00005efc <USDHC1_IRQHandler>:
    5efc:	b508      	push	{r3, lr}
    5efe:	f7fa fa3c 	bl	37a <ACMP1_DriverIRQHandler>
    5f02:	bd08      	pop	{r3, pc}

00005f04 <USDHC2_IRQHandler>:
    5f04:	b508      	push	{r3, lr}
    5f06:	f7fa fa38 	bl	37a <ACMP1_DriverIRQHandler>
    5f0a:	bd08      	pop	{r3, pc}

00005f0c <USB_OTG2_IRQHandler>:
    5f0c:	b508      	push	{r3, lr}
    5f0e:	f7fa fa34 	bl	37a <ACMP1_DriverIRQHandler>
    5f12:	bd08      	pop	{r3, pc}

00005f14 <USB_OTG1_IRQHandler>:
    5f14:	b508      	push	{r3, lr}
    5f16:	f7fa fa30 	bl	37a <ACMP1_DriverIRQHandler>
    5f1a:	bd08      	pop	{r3, pc}

00005f1c <ENET_IRQHandler>:
    5f1c:	b508      	push	{r3, lr}
    5f1e:	f7fa fa2c 	bl	37a <ACMP1_DriverIRQHandler>
    5f22:	bd08      	pop	{r3, pc}

00005f24 <ENET_1588_Timer_IRQHandler>:
    5f24:	b508      	push	{r3, lr}
    5f26:	f7fa fa28 	bl	37a <ACMP1_DriverIRQHandler>
    5f2a:	bd08      	pop	{r3, pc}

00005f2c <XBAR1_IRQ_0_1_IRQHandler>:
    5f2c:	b508      	push	{r3, lr}
    5f2e:	f7fa fa24 	bl	37a <ACMP1_DriverIRQHandler>
    5f32:	bd08      	pop	{r3, pc}

00005f34 <XBAR1_IRQ_2_3_IRQHandler>:
    5f34:	b508      	push	{r3, lr}
    5f36:	f7fa fa20 	bl	37a <ACMP1_DriverIRQHandler>
    5f3a:	bd08      	pop	{r3, pc}

00005f3c <ADC_ETC_IRQ0_IRQHandler>:
    5f3c:	b508      	push	{r3, lr}
    5f3e:	f7fa fa1c 	bl	37a <ACMP1_DriverIRQHandler>
    5f42:	bd08      	pop	{r3, pc}

00005f44 <ADC_ETC_IRQ1_IRQHandler>:
    5f44:	b508      	push	{r3, lr}
    5f46:	f7fa fa18 	bl	37a <ACMP1_DriverIRQHandler>
    5f4a:	bd08      	pop	{r3, pc}

00005f4c <ADC_ETC_IRQ2_IRQHandler>:
    5f4c:	b508      	push	{r3, lr}
    5f4e:	f7fa fa14 	bl	37a <ACMP1_DriverIRQHandler>
    5f52:	bd08      	pop	{r3, pc}

00005f54 <ADC_ETC_ERROR_IRQ_IRQHandler>:
    5f54:	b508      	push	{r3, lr}
    5f56:	f7fa fa10 	bl	37a <ACMP1_DriverIRQHandler>
    5f5a:	bd08      	pop	{r3, pc}

00005f5c <PIT_IRQHandler>:
    5f5c:	b508      	push	{r3, lr}
    5f5e:	f7fa fa0c 	bl	37a <ACMP1_DriverIRQHandler>
    5f62:	bd08      	pop	{r3, pc}

00005f64 <ACMP1_IRQHandler>:
    5f64:	b508      	push	{r3, lr}
    5f66:	f7fa fa08 	bl	37a <ACMP1_DriverIRQHandler>
    5f6a:	bd08      	pop	{r3, pc}

00005f6c <ACMP2_IRQHandler>:
    5f6c:	b508      	push	{r3, lr}
    5f6e:	f7fa fa04 	bl	37a <ACMP1_DriverIRQHandler>
    5f72:	bd08      	pop	{r3, pc}

00005f74 <ACMP3_IRQHandler>:
    5f74:	b508      	push	{r3, lr}
    5f76:	f7fa fa00 	bl	37a <ACMP1_DriverIRQHandler>
    5f7a:	bd08      	pop	{r3, pc}

00005f7c <ACMP4_IRQHandler>:
    5f7c:	b508      	push	{r3, lr}
    5f7e:	f7fa f9fc 	bl	37a <ACMP1_DriverIRQHandler>
    5f82:	bd08      	pop	{r3, pc}

00005f84 <Reserved143_IRQHandler>:
    5f84:	b508      	push	{r3, lr}
    5f86:	f7fa f9f8 	bl	37a <ACMP1_DriverIRQHandler>
    5f8a:	bd08      	pop	{r3, pc}

00005f8c <Reserved144_IRQHandler>:
    5f8c:	b508      	push	{r3, lr}
    5f8e:	f7fa f9f4 	bl	37a <ACMP1_DriverIRQHandler>
    5f92:	bd08      	pop	{r3, pc}

00005f94 <ENC1_IRQHandler>:
    5f94:	b508      	push	{r3, lr}
    5f96:	f7fa f9f0 	bl	37a <ACMP1_DriverIRQHandler>
    5f9a:	bd08      	pop	{r3, pc}

00005f9c <ENC2_IRQHandler>:
    5f9c:	b508      	push	{r3, lr}
    5f9e:	f7fa f9ec 	bl	37a <ACMP1_DriverIRQHandler>
    5fa2:	bd08      	pop	{r3, pc}

00005fa4 <ENC3_IRQHandler>:
    5fa4:	b508      	push	{r3, lr}
    5fa6:	f7fa f9e8 	bl	37a <ACMP1_DriverIRQHandler>
    5faa:	bd08      	pop	{r3, pc}

00005fac <ENC4_IRQHandler>:
    5fac:	b508      	push	{r3, lr}
    5fae:	f7fa f9e4 	bl	37a <ACMP1_DriverIRQHandler>
    5fb2:	bd08      	pop	{r3, pc}

00005fb4 <TMR1_IRQHandler>:
    5fb4:	b508      	push	{r3, lr}
    5fb6:	f7fa f9e0 	bl	37a <ACMP1_DriverIRQHandler>
    5fba:	bd08      	pop	{r3, pc}

00005fbc <TMR2_IRQHandler>:
    5fbc:	b508      	push	{r3, lr}
    5fbe:	f7fa f9dc 	bl	37a <ACMP1_DriverIRQHandler>
    5fc2:	bd08      	pop	{r3, pc}

00005fc4 <TMR3_IRQHandler>:
    5fc4:	b508      	push	{r3, lr}
    5fc6:	f7fa f9d8 	bl	37a <ACMP1_DriverIRQHandler>
    5fca:	bd08      	pop	{r3, pc}

00005fcc <TMR4_IRQHandler>:
    5fcc:	b508      	push	{r3, lr}
    5fce:	f7fa f9d4 	bl	37a <ACMP1_DriverIRQHandler>
    5fd2:	bd08      	pop	{r3, pc}

00005fd4 <PWM2_0_IRQHandler>:
    5fd4:	b508      	push	{r3, lr}
    5fd6:	f7fa f9d0 	bl	37a <ACMP1_DriverIRQHandler>
    5fda:	bd08      	pop	{r3, pc}

00005fdc <PWM2_1_IRQHandler>:
    5fdc:	b508      	push	{r3, lr}
    5fde:	f7fa f9cc 	bl	37a <ACMP1_DriverIRQHandler>
    5fe2:	bd08      	pop	{r3, pc}

00005fe4 <PWM2_2_IRQHandler>:
    5fe4:	b508      	push	{r3, lr}
    5fe6:	f7fa f9c8 	bl	37a <ACMP1_DriverIRQHandler>
    5fea:	bd08      	pop	{r3, pc}

00005fec <PWM2_3_IRQHandler>:
    5fec:	b508      	push	{r3, lr}
    5fee:	f7fa f9c4 	bl	37a <ACMP1_DriverIRQHandler>
    5ff2:	bd08      	pop	{r3, pc}

00005ff4 <PWM2_FAULT_IRQHandler>:
    5ff4:	b508      	push	{r3, lr}
    5ff6:	f7fa f9c0 	bl	37a <ACMP1_DriverIRQHandler>
    5ffa:	bd08      	pop	{r3, pc}

00005ffc <PWM3_0_IRQHandler>:
    5ffc:	b508      	push	{r3, lr}
    5ffe:	f7fa f9bc 	bl	37a <ACMP1_DriverIRQHandler>
    6002:	bd08      	pop	{r3, pc}

00006004 <PWM3_1_IRQHandler>:
    6004:	b508      	push	{r3, lr}
    6006:	f7fa f9b8 	bl	37a <ACMP1_DriverIRQHandler>
    600a:	bd08      	pop	{r3, pc}

0000600c <PWM3_2_IRQHandler>:
    600c:	b508      	push	{r3, lr}
    600e:	f7fa f9b4 	bl	37a <ACMP1_DriverIRQHandler>
    6012:	bd08      	pop	{r3, pc}

00006014 <PWM3_3_IRQHandler>:
    6014:	b508      	push	{r3, lr}
    6016:	f7fa f9b0 	bl	37a <ACMP1_DriverIRQHandler>
    601a:	bd08      	pop	{r3, pc}

0000601c <PWM3_FAULT_IRQHandler>:
    601c:	b508      	push	{r3, lr}
    601e:	f7fa f9ac 	bl	37a <ACMP1_DriverIRQHandler>
    6022:	bd08      	pop	{r3, pc}

00006024 <PWM4_0_IRQHandler>:
    6024:	b508      	push	{r3, lr}
    6026:	f7fa f9a8 	bl	37a <ACMP1_DriverIRQHandler>
    602a:	bd08      	pop	{r3, pc}

0000602c <PWM4_1_IRQHandler>:
    602c:	b508      	push	{r3, lr}
    602e:	f7fa f9a4 	bl	37a <ACMP1_DriverIRQHandler>
    6032:	bd08      	pop	{r3, pc}

00006034 <PWM4_2_IRQHandler>:
    6034:	b508      	push	{r3, lr}
    6036:	f7fa f9a0 	bl	37a <ACMP1_DriverIRQHandler>
    603a:	bd08      	pop	{r3, pc}

0000603c <PWM4_3_IRQHandler>:
    603c:	b508      	push	{r3, lr}
    603e:	f7fa f99c 	bl	37a <ACMP1_DriverIRQHandler>
    6042:	bd08      	pop	{r3, pc}

00006044 <PWM4_FAULT_IRQHandler>:
    6044:	b508      	push	{r3, lr}
    6046:	f7fa f998 	bl	37a <ACMP1_DriverIRQHandler>
    604a:	bd08      	pop	{r3, pc}

0000604c <ENET2_IRQHandler>:
    604c:	b508      	push	{r3, lr}
    604e:	f7fa f994 	bl	37a <ACMP1_DriverIRQHandler>
    6052:	bd08      	pop	{r3, pc}

00006054 <ENET2_1588_Timer_IRQHandler>:
    6054:	b508      	push	{r3, lr}
    6056:	f7fa f990 	bl	37a <ACMP1_DriverIRQHandler>
    605a:	bd08      	pop	{r3, pc}

0000605c <CAN3_IRQHandler>:
    605c:	b508      	push	{r3, lr}
    605e:	f7fa f98c 	bl	37a <ACMP1_DriverIRQHandler>
    6062:	bd08      	pop	{r3, pc}

00006064 <Reserved171_IRQHandler>:
    6064:	b508      	push	{r3, lr}
    6066:	f7fa f988 	bl	37a <ACMP1_DriverIRQHandler>
    606a:	bd08      	pop	{r3, pc}

0000606c <FLEXIO3_IRQHandler>:
    606c:	b508      	push	{r3, lr}
    606e:	f7fa f984 	bl	37a <ACMP1_DriverIRQHandler>
    6072:	bd08      	pop	{r3, pc}

00006074 <GPIO6_7_8_9_IRQHandler>:
    6074:	b508      	push	{r3, lr}
    6076:	f7fa f980 	bl	37a <ACMP1_DriverIRQHandler>
    607a:	bd08      	pop	{r3, pc}

0000607c <HardFault_Handler>:
    607c:	2004      	movs	r0, #4
    607e:	4671      	mov	r1, lr
    6080:	4208      	tst	r0, r1
    6082:	d002      	beq.n	608a <_MSP>
    6084:	f3ef 8009 	mrs	r0, PSP
    6088:	e001      	b.n	608e <_process>

0000608a <_MSP>:
    608a:	f3ef 8008 	mrs	r0, MSP

0000608e <_process>:
    608e:	6981      	ldr	r1, [r0, #24]
    6090:	880a      	ldrh	r2, [r1, #0]
    6092:	f64b 63ab 	movw	r3, #48811	; 0xbeab
    6096:	429a      	cmp	r2, r3
    6098:	d000      	beq.n	609c <_semihost_return>
    609a:	e7fe      	b.n	609a <_process+0xc>

0000609c <_semihost_return>:
    609c:	3102      	adds	r1, #2
    609e:	6181      	str	r1, [r0, #24]
    60a0:	2120      	movs	r1, #32
    60a2:	6001      	str	r1, [r0, #0]
    60a4:	4770      	bx	lr
    60a6:	bf00      	nop

000060a8 <_delay_ms>:
    60a8:	b480      	push	{r7}
    60aa:	b085      	sub	sp, #20
    60ac:	af00      	add	r7, sp, #0
    60ae:	6078      	str	r0, [r7, #4]
    60b0:	2300      	movs	r3, #0
    60b2:	60fb      	str	r3, [r7, #12]
    60b4:	e003      	b.n	60be <_delay_ms+0x16>
    60b6:	bf00      	nop
    60b8:	68fb      	ldr	r3, [r7, #12]
    60ba:	3301      	adds	r3, #1
    60bc:	60fb      	str	r3, [r7, #12]
    60be:	687a      	ldr	r2, [r7, #4]
    60c0:	4613      	mov	r3, r2
    60c2:	051b      	lsls	r3, r3, #20
    60c4:	1a9a      	subs	r2, r3, r2
    60c6:	68fb      	ldr	r3, [r7, #12]
    60c8:	429a      	cmp	r2, r3
    60ca:	d8f4      	bhi.n	60b6 <_delay_ms+0xe>
    60cc:	bf00      	nop
    60ce:	3714      	adds	r7, #20
    60d0:	46bd      	mov	sp, r7
    60d2:	f85d 7b04 	ldr.w	r7, [sp], #4
    60d6:	4770      	bx	lr

000060d8 <CLOCK_IsPllBypassed>:
    60d8:	b480      	push	{r7}
    60da:	b083      	sub	sp, #12
    60dc:	af00      	add	r7, sp, #0
    60de:	6078      	str	r0, [r7, #4]
    60e0:	6039      	str	r1, [r7, #0]
    60e2:	683b      	ldr	r3, [r7, #0]
    60e4:	0c1b      	lsrs	r3, r3, #16
    60e6:	f3c3 020b 	ubfx	r2, r3, #0, #12
    60ea:	687b      	ldr	r3, [r7, #4]
    60ec:	4413      	add	r3, r2
    60ee:	681b      	ldr	r3, [r3, #0]
    60f0:	f403 3380 	and.w	r3, r3, #65536	; 0x10000
    60f4:	2b00      	cmp	r3, #0
    60f6:	bf14      	ite	ne
    60f8:	2301      	movne	r3, #1
    60fa:	2300      	moveq	r3, #0
    60fc:	b2db      	uxtb	r3, r3
    60fe:	4618      	mov	r0, r3
    6100:	370c      	adds	r7, #12
    6102:	46bd      	mov	sp, r7
    6104:	f85d 7b04 	ldr.w	r7, [sp], #4
    6108:	4770      	bx	lr

0000610a <CLOCK_IsPllEnabled>:
    610a:	b480      	push	{r7}
    610c:	b083      	sub	sp, #12
    610e:	af00      	add	r7, sp, #0
    6110:	6078      	str	r0, [r7, #4]
    6112:	6039      	str	r1, [r7, #0]
    6114:	683b      	ldr	r3, [r7, #0]
    6116:	0c1b      	lsrs	r3, r3, #16
    6118:	f3c3 020b 	ubfx	r2, r3, #0, #12
    611c:	687b      	ldr	r3, [r7, #4]
    611e:	4413      	add	r3, r2
    6120:	681a      	ldr	r2, [r3, #0]
    6122:	683b      	ldr	r3, [r7, #0]
    6124:	f003 031f 	and.w	r3, r3, #31
    6128:	fa22 f303 	lsr.w	r3, r2, r3
    612c:	f003 0301 	and.w	r3, r3, #1
    6130:	2b00      	cmp	r3, #0
    6132:	bf14      	ite	ne
    6134:	2301      	movne	r3, #1
    6136:	2300      	moveq	r3, #0
    6138:	b2db      	uxtb	r3, r3
    613a:	4618      	mov	r0, r3
    613c:	370c      	adds	r7, #12
    613e:	46bd      	mov	sp, r7
    6140:	f85d 7b04 	ldr.w	r7, [sp], #4
    6144:	4770      	bx	lr

00006146 <CLOCK_GetPllBypassRefClk>:
    6146:	b580      	push	{r7, lr}
    6148:	b082      	sub	sp, #8
    614a:	af00      	add	r7, sp, #0
    614c:	6078      	str	r0, [r7, #4]
    614e:	6039      	str	r1, [r7, #0]
    6150:	683b      	ldr	r3, [r7, #0]
    6152:	0c1b      	lsrs	r3, r3, #16
    6154:	f3c3 020b 	ubfx	r2, r3, #0, #12
    6158:	687b      	ldr	r3, [r7, #4]
    615a:	4413      	add	r3, r2
    615c:	681b      	ldr	r3, [r3, #0]
    615e:	0b9b      	lsrs	r3, r3, #14
    6160:	f003 0303 	and.w	r3, r3, #3
    6164:	2b00      	cmp	r3, #0
    6166:	d103      	bne.n	6170 <CLOCK_GetPllBypassRefClk+0x2a>
    6168:	f7fa fda6 	bl	cb8 <CLOCK_GetOscFreq>
    616c:	4603      	mov	r3, r0
    616e:	e000      	b.n	6172 <CLOCK_GetPllBypassRefClk+0x2c>
    6170:	2300      	movs	r3, #0
    6172:	4618      	mov	r0, r3
    6174:	3708      	adds	r7, #8
    6176:	46bd      	mov	sp, r7
    6178:	bd80      	pop	{r7, pc}

0000617a <CLOCK_EnableClock>:
    617a:	b580      	push	{r7, lr}
    617c:	b082      	sub	sp, #8
    617e:	af00      	add	r7, sp, #0
    6180:	4603      	mov	r3, r0
    6182:	80fb      	strh	r3, [r7, #6]
    6184:	f9b7 3006 	ldrsh.w	r3, [r7, #6]
    6188:	2103      	movs	r1, #3
    618a:	4618      	mov	r0, r3
    618c:	f7fb fbc0 	bl	1910 <CLOCK_ControlGate>
    6190:	bf00      	nop
    6192:	3708      	adds	r7, #8
    6194:	46bd      	mov	sp, r7
    6196:	bd80      	pop	{r7, pc}

00006198 <GPIO_SetPinInterruptConfig>:
    6198:	b580      	push	{r7, lr}
    619a:	b084      	sub	sp, #16
    619c:	af00      	add	r7, sp, #0
    619e:	60f8      	str	r0, [r7, #12]
    61a0:	60b9      	str	r1, [r7, #8]
    61a2:	4613      	mov	r3, r2
    61a4:	71fb      	strb	r3, [r7, #7]
    61a6:	79fb      	ldrb	r3, [r7, #7]
    61a8:	461a      	mov	r2, r3
    61aa:	68b9      	ldr	r1, [r7, #8]
    61ac:	68f8      	ldr	r0, [r7, #12]
    61ae:	f7fb fc83 	bl	1ab8 <GPIO_PinSetInterruptConfig>
    61b2:	bf00      	nop
    61b4:	3710      	adds	r7, #16
    61b6:	46bd      	mov	sp, r7
    61b8:	bd80      	pop	{r7, pc}

000061ba <CLOCK_EnableClock>:
    61ba:	b580      	push	{r7, lr}
    61bc:	b082      	sub	sp, #8
    61be:	af00      	add	r7, sp, #0
    61c0:	4603      	mov	r3, r0
    61c2:	80fb      	strh	r3, [r7, #6]
    61c4:	f9b7 3006 	ldrsh.w	r3, [r7, #6]
    61c8:	2103      	movs	r1, #3
    61ca:	4618      	mov	r0, r3
    61cc:	f7fb fd10 	bl	1bf0 <CLOCK_ControlGate>
    61d0:	bf00      	nop
    61d2:	3708      	adds	r7, #8
    61d4:	46bd      	mov	sp, r7
    61d6:	bd80      	pop	{r7, pc}

000061d8 <CLOCK_DisableClock>:
    61d8:	b580      	push	{r7, lr}
    61da:	b082      	sub	sp, #8
    61dc:	af00      	add	r7, sp, #0
    61de:	4603      	mov	r3, r0
    61e0:	80fb      	strh	r3, [r7, #6]
    61e2:	f9b7 3006 	ldrsh.w	r3, [r7, #6]
    61e6:	2100      	movs	r1, #0
    61e8:	4618      	mov	r0, r3
    61ea:	f7fb fd01 	bl	1bf0 <CLOCK_ControlGate>
    61ee:	bf00      	nop
    61f0:	3708      	adds	r7, #8
    61f2:	46bd      	mov	sp, r7
    61f4:	bd80      	pop	{r7, pc}

000061f6 <EnableIRQ>:
    61f6:	b580      	push	{r7, lr}
    61f8:	b082      	sub	sp, #8
    61fa:	af00      	add	r7, sp, #0
    61fc:	4603      	mov	r3, r0
    61fe:	80fb      	strh	r3, [r7, #6]
    6200:	f9b7 3006 	ldrsh.w	r3, [r7, #6]
    6204:	f113 0f80 	cmn.w	r3, #128	; 0x80
    6208:	d101      	bne.n	620e <EnableIRQ+0x18>
    620a:	2301      	movs	r3, #1
    620c:	e005      	b.n	621a <EnableIRQ+0x24>
    620e:	f9b7 3006 	ldrsh.w	r3, [r7, #6]
    6212:	4618      	mov	r0, r3
    6214:	f7fb fcce 	bl	1bb4 <__NVIC_EnableIRQ>
    6218:	2300      	movs	r3, #0
    621a:	4618      	mov	r0, r3
    621c:	3708      	adds	r7, #8
    621e:	46bd      	mov	sp, r7
    6220:	bd80      	pop	{r7, pc}

00006222 <LPSPI_Enable>:
    6222:	b480      	push	{r7}
    6224:	b083      	sub	sp, #12
    6226:	af00      	add	r7, sp, #0
    6228:	6078      	str	r0, [r7, #4]
    622a:	460b      	mov	r3, r1
    622c:	70fb      	strb	r3, [r7, #3]
    622e:	78fb      	ldrb	r3, [r7, #3]
    6230:	2b00      	cmp	r3, #0
    6232:	d006      	beq.n	6242 <LPSPI_Enable+0x20>
    6234:	687b      	ldr	r3, [r7, #4]
    6236:	691b      	ldr	r3, [r3, #16]
    6238:	f043 0201 	orr.w	r2, r3, #1
    623c:	687b      	ldr	r3, [r7, #4]
    623e:	611a      	str	r2, [r3, #16]
    6240:	e005      	b.n	624e <LPSPI_Enable+0x2c>
    6242:	687b      	ldr	r3, [r7, #4]
    6244:	691b      	ldr	r3, [r3, #16]
    6246:	f023 0201 	bic.w	r2, r3, #1
    624a:	687b      	ldr	r3, [r7, #4]
    624c:	611a      	str	r2, [r3, #16]
    624e:	bf00      	nop
    6250:	370c      	adds	r7, #12
    6252:	46bd      	mov	sp, r7
    6254:	f85d 7b04 	ldr.w	r7, [sp], #4
    6258:	4770      	bx	lr

0000625a <LPSPI_GetStatusFlags>:
    625a:	b480      	push	{r7}
    625c:	b083      	sub	sp, #12
    625e:	af00      	add	r7, sp, #0
    6260:	6078      	str	r0, [r7, #4]
    6262:	687b      	ldr	r3, [r7, #4]
    6264:	695b      	ldr	r3, [r3, #20]
    6266:	4618      	mov	r0, r3
    6268:	370c      	adds	r7, #12
    626a:	46bd      	mov	sp, r7
    626c:	f85d 7b04 	ldr.w	r7, [sp], #4
    6270:	4770      	bx	lr

00006272 <LPSPI_GetRxFifoSize>:
    6272:	b480      	push	{r7}
    6274:	b083      	sub	sp, #12
    6276:	af00      	add	r7, sp, #0
    6278:	6078      	str	r0, [r7, #4]
    627a:	687b      	ldr	r3, [r7, #4]
    627c:	685b      	ldr	r3, [r3, #4]
    627e:	0a1b      	lsrs	r3, r3, #8
    6280:	b2db      	uxtb	r3, r3
    6282:	2201      	movs	r2, #1
    6284:	fa02 f303 	lsl.w	r3, r2, r3
    6288:	4618      	mov	r0, r3
    628a:	370c      	adds	r7, #12
    628c:	46bd      	mov	sp, r7
    628e:	f85d 7b04 	ldr.w	r7, [sp], #4
    6292:	4770      	bx	lr

00006294 <LPSPI_GetTxFifoCount>:
    6294:	b480      	push	{r7}
    6296:	b083      	sub	sp, #12
    6298:	af00      	add	r7, sp, #0
    629a:	6078      	str	r0, [r7, #4]
    629c:	687b      	ldr	r3, [r7, #4]
    629e:	6ddb      	ldr	r3, [r3, #92]	; 0x5c
    62a0:	f003 031f 	and.w	r3, r3, #31
    62a4:	4618      	mov	r0, r3
    62a6:	370c      	adds	r7, #12
    62a8:	46bd      	mov	sp, r7
    62aa:	f85d 7b04 	ldr.w	r7, [sp], #4
    62ae:	4770      	bx	lr

000062b0 <LPSPI_GetRxFifoCount>:
    62b0:	b480      	push	{r7}
    62b2:	b083      	sub	sp, #12
    62b4:	af00      	add	r7, sp, #0
    62b6:	6078      	str	r0, [r7, #4]
    62b8:	687b      	ldr	r3, [r7, #4]
    62ba:	6ddb      	ldr	r3, [r3, #92]	; 0x5c
    62bc:	0c1b      	lsrs	r3, r3, #16
    62be:	f003 031f 	and.w	r3, r3, #31
    62c2:	4618      	mov	r0, r3
    62c4:	370c      	adds	r7, #12
    62c6:	46bd      	mov	sp, r7
    62c8:	f85d 7b04 	ldr.w	r7, [sp], #4
    62cc:	4770      	bx	lr

000062ce <LPSPI_ClearStatusFlags>:
    62ce:	b480      	push	{r7}
    62d0:	b083      	sub	sp, #12
    62d2:	af00      	add	r7, sp, #0
    62d4:	6078      	str	r0, [r7, #4]
    62d6:	6039      	str	r1, [r7, #0]
    62d8:	687b      	ldr	r3, [r7, #4]
    62da:	683a      	ldr	r2, [r7, #0]
    62dc:	615a      	str	r2, [r3, #20]
    62de:	bf00      	nop
    62e0:	370c      	adds	r7, #12
    62e2:	46bd      	mov	sp, r7
    62e4:	f85d 7b04 	ldr.w	r7, [sp], #4
    62e8:	4770      	bx	lr

000062ea <LPSPI_EnableInterrupts>:
    62ea:	b480      	push	{r7}
    62ec:	b083      	sub	sp, #12
    62ee:	af00      	add	r7, sp, #0
    62f0:	6078      	str	r0, [r7, #4]
    62f2:	6039      	str	r1, [r7, #0]
    62f4:	687b      	ldr	r3, [r7, #4]
    62f6:	699a      	ldr	r2, [r3, #24]
    62f8:	683b      	ldr	r3, [r7, #0]
    62fa:	431a      	orrs	r2, r3
    62fc:	687b      	ldr	r3, [r7, #4]
    62fe:	619a      	str	r2, [r3, #24]
    6300:	bf00      	nop
    6302:	370c      	adds	r7, #12
    6304:	46bd      	mov	sp, r7
    6306:	f85d 7b04 	ldr.w	r7, [sp], #4
    630a:	4770      	bx	lr

0000630c <LPSPI_DisableInterrupts>:
    630c:	b480      	push	{r7}
    630e:	b083      	sub	sp, #12
    6310:	af00      	add	r7, sp, #0
    6312:	6078      	str	r0, [r7, #4]
    6314:	6039      	str	r1, [r7, #0]
    6316:	687b      	ldr	r3, [r7, #4]
    6318:	699a      	ldr	r2, [r3, #24]
    631a:	683b      	ldr	r3, [r7, #0]
    631c:	43db      	mvns	r3, r3
    631e:	401a      	ands	r2, r3
    6320:	687b      	ldr	r3, [r7, #4]
    6322:	619a      	str	r2, [r3, #24]
    6324:	bf00      	nop
    6326:	370c      	adds	r7, #12
    6328:	46bd      	mov	sp, r7
    632a:	f85d 7b04 	ldr.w	r7, [sp], #4
    632e:	4770      	bx	lr

00006330 <LPSPI_SetMasterSlaveMode>:
    6330:	b480      	push	{r7}
    6332:	b083      	sub	sp, #12
    6334:	af00      	add	r7, sp, #0
    6336:	6078      	str	r0, [r7, #4]
    6338:	460b      	mov	r3, r1
    633a:	70fb      	strb	r3, [r7, #3]
    633c:	687b      	ldr	r3, [r7, #4]
    633e:	6a5b      	ldr	r3, [r3, #36]	; 0x24
    6340:	f023 0201 	bic.w	r2, r3, #1
    6344:	78fb      	ldrb	r3, [r7, #3]
    6346:	f003 0301 	and.w	r3, r3, #1
    634a:	431a      	orrs	r2, r3
    634c:	687b      	ldr	r3, [r7, #4]
    634e:	625a      	str	r2, [r3, #36]	; 0x24
    6350:	bf00      	nop
    6352:	370c      	adds	r7, #12
    6354:	46bd      	mov	sp, r7
    6356:	f85d 7b04 	ldr.w	r7, [sp], #4
    635a:	4770      	bx	lr

0000635c <LPSPI_IsMaster>:
    635c:	b480      	push	{r7}
    635e:	b083      	sub	sp, #12
    6360:	af00      	add	r7, sp, #0
    6362:	6078      	str	r0, [r7, #4]
    6364:	687b      	ldr	r3, [r7, #4]
    6366:	6a5b      	ldr	r3, [r3, #36]	; 0x24
    6368:	f003 0301 	and.w	r3, r3, #1
    636c:	2b00      	cmp	r3, #0
    636e:	bf14      	ite	ne
    6370:	2301      	movne	r3, #1
    6372:	2300      	moveq	r3, #0
    6374:	b2db      	uxtb	r3, r3
    6376:	4618      	mov	r0, r3
    6378:	370c      	adds	r7, #12
    637a:	46bd      	mov	sp, r7
    637c:	f85d 7b04 	ldr.w	r7, [sp], #4
    6380:	4770      	bx	lr

00006382 <LPSPI_FlushFifo>:
    6382:	b480      	push	{r7}
    6384:	b083      	sub	sp, #12
    6386:	af00      	add	r7, sp, #0
    6388:	6078      	str	r0, [r7, #4]
    638a:	460b      	mov	r3, r1
    638c:	70fb      	strb	r3, [r7, #3]
    638e:	4613      	mov	r3, r2
    6390:	70bb      	strb	r3, [r7, #2]
    6392:	687b      	ldr	r3, [r7, #4]
    6394:	691a      	ldr	r2, [r3, #16]
    6396:	78fb      	ldrb	r3, [r7, #3]
    6398:	0219      	lsls	r1, r3, #8
    639a:	78bb      	ldrb	r3, [r7, #2]
    639c:	025b      	lsls	r3, r3, #9
    639e:	430b      	orrs	r3, r1
    63a0:	431a      	orrs	r2, r3
    63a2:	687b      	ldr	r3, [r7, #4]
    63a4:	611a      	str	r2, [r3, #16]
    63a6:	bf00      	nop
    63a8:	370c      	adds	r7, #12
    63aa:	46bd      	mov	sp, r7
    63ac:	f85d 7b04 	ldr.w	r7, [sp], #4
    63b0:	4770      	bx	lr

000063b2 <LPSPI_SetFifoWatermarks>:
    63b2:	b480      	push	{r7}
    63b4:	b085      	sub	sp, #20
    63b6:	af00      	add	r7, sp, #0
    63b8:	60f8      	str	r0, [r7, #12]
    63ba:	60b9      	str	r1, [r7, #8]
    63bc:	607a      	str	r2, [r7, #4]
    63be:	68bb      	ldr	r3, [r7, #8]
    63c0:	f003 020f 	and.w	r2, r3, #15
    63c4:	687b      	ldr	r3, [r7, #4]
    63c6:	041b      	lsls	r3, r3, #16
    63c8:	f403 2370 	and.w	r3, r3, #983040	; 0xf0000
    63cc:	431a      	orrs	r2, r3
    63ce:	68fb      	ldr	r3, [r7, #12]
    63d0:	659a      	str	r2, [r3, #88]	; 0x58
    63d2:	bf00      	nop
    63d4:	3714      	adds	r7, #20
    63d6:	46bd      	mov	sp, r7
    63d8:	f85d 7b04 	ldr.w	r7, [sp], #4
    63dc:	4770      	bx	lr

000063de <LPSPI_WriteData>:
    63de:	b480      	push	{r7}
    63e0:	b083      	sub	sp, #12
    63e2:	af00      	add	r7, sp, #0
    63e4:	6078      	str	r0, [r7, #4]
    63e6:	6039      	str	r1, [r7, #0]
    63e8:	687b      	ldr	r3, [r7, #4]
    63ea:	683a      	ldr	r2, [r7, #0]
    63ec:	665a      	str	r2, [r3, #100]	; 0x64
    63ee:	bf00      	nop
    63f0:	370c      	adds	r7, #12
    63f2:	46bd      	mov	sp, r7
    63f4:	f85d 7b04 	ldr.w	r7, [sp], #4
    63f8:	4770      	bx	lr

000063fa <LPSPI_ReadData>:
    63fa:	b480      	push	{r7}
    63fc:	b083      	sub	sp, #12
    63fe:	af00      	add	r7, sp, #0
    6400:	6078      	str	r0, [r7, #4]
    6402:	687b      	ldr	r3, [r7, #4]
    6404:	6f5b      	ldr	r3, [r3, #116]	; 0x74
    6406:	4618      	mov	r0, r3
    6408:	370c      	adds	r7, #12
    640a:	46bd      	mov	sp, r7
    640c:	f85d 7b04 	ldr.w	r7, [sp], #4
    6410:	4770      	bx	lr

00006412 <LPSPI_Reset>:
    6412:	b480      	push	{r7}
    6414:	b083      	sub	sp, #12
    6416:	af00      	add	r7, sp, #0
    6418:	6078      	str	r0, [r7, #4]
    641a:	687b      	ldr	r3, [r7, #4]
    641c:	691b      	ldr	r3, [r3, #16]
    641e:	f043 0202 	orr.w	r2, r3, #2
    6422:	687b      	ldr	r3, [r7, #4]
    6424:	611a      	str	r2, [r3, #16]
    6426:	687b      	ldr	r3, [r7, #4]
    6428:	691b      	ldr	r3, [r3, #16]
    642a:	f443 7240 	orr.w	r2, r3, #768	; 0x300
    642e:	687b      	ldr	r3, [r7, #4]
    6430:	611a      	str	r2, [r3, #16]
    6432:	687b      	ldr	r3, [r7, #4]
    6434:	2200      	movs	r2, #0
    6436:	611a      	str	r2, [r3, #16]
    6438:	bf00      	nop
    643a:	370c      	adds	r7, #12
    643c:	46bd      	mov	sp, r7
    643e:	f85d 7b04 	ldr.w	r7, [sp], #4
    6442:	4770      	bx	lr

00006444 <LPSPI_SetOnePcsPolarity>:
    6444:	b480      	push	{r7}
    6446:	b085      	sub	sp, #20
    6448:	af00      	add	r7, sp, #0
    644a:	6078      	str	r0, [r7, #4]
    644c:	460b      	mov	r3, r1
    644e:	70fb      	strb	r3, [r7, #3]
    6450:	4613      	mov	r3, r2
    6452:	70bb      	strb	r3, [r7, #2]
    6454:	2300      	movs	r3, #0
    6456:	60fb      	str	r3, [r7, #12]
    6458:	687b      	ldr	r3, [r7, #4]
    645a:	6a5a      	ldr	r2, [r3, #36]	; 0x24
    645c:	78fb      	ldrb	r3, [r7, #3]
    645e:	3308      	adds	r3, #8
    6460:	2101      	movs	r1, #1
    6462:	fa01 f303 	lsl.w	r3, r1, r3
    6466:	43db      	mvns	r3, r3
    6468:	4013      	ands	r3, r2
    646a:	60fb      	str	r3, [r7, #12]
    646c:	78ba      	ldrb	r2, [r7, #2]
    646e:	78fb      	ldrb	r3, [r7, #3]
    6470:	3308      	adds	r3, #8
    6472:	409a      	lsls	r2, r3
    6474:	68fb      	ldr	r3, [r7, #12]
    6476:	431a      	orrs	r2, r3
    6478:	687b      	ldr	r3, [r7, #4]
    647a:	625a      	str	r2, [r3, #36]	; 0x24
    647c:	bf00      	nop
    647e:	3714      	adds	r7, #20
    6480:	46bd      	mov	sp, r7
    6482:	f85d 7b04 	ldr.w	r7, [sp], #4
    6486:	4770      	bx	lr

00006488 <CLOCK_EnableClock>:
    6488:	b580      	push	{r7, lr}
    648a:	b082      	sub	sp, #8
    648c:	af00      	add	r7, sp, #0
    648e:	4603      	mov	r3, r0
    6490:	80fb      	strh	r3, [r7, #6]
    6492:	f9b7 3006 	ldrsh.w	r3, [r7, #6]
    6496:	2103      	movs	r1, #3
    6498:	4618      	mov	r0, r3
    649a:	f7fc ff6d 	bl	3378 <CLOCK_ControlGate>
    649e:	bf00      	nop
    64a0:	3708      	adds	r7, #8
    64a2:	46bd      	mov	sp, r7
    64a4:	bd80      	pop	{r7, pc}

000064a6 <LPSPI_Enable>:
    64a6:	b480      	push	{r7}
    64a8:	b083      	sub	sp, #12
    64aa:	af00      	add	r7, sp, #0
    64ac:	6078      	str	r0, [r7, #4]
    64ae:	460b      	mov	r3, r1
    64b0:	70fb      	strb	r3, [r7, #3]
    64b2:	78fb      	ldrb	r3, [r7, #3]
    64b4:	2b00      	cmp	r3, #0
    64b6:	d006      	beq.n	64c6 <LPSPI_Enable+0x20>
    64b8:	687b      	ldr	r3, [r7, #4]
    64ba:	691b      	ldr	r3, [r3, #16]
    64bc:	f043 0201 	orr.w	r2, r3, #1
    64c0:	687b      	ldr	r3, [r7, #4]
    64c2:	611a      	str	r2, [r3, #16]
    64c4:	e005      	b.n	64d2 <LPSPI_Enable+0x2c>
    64c6:	687b      	ldr	r3, [r7, #4]
    64c8:	691b      	ldr	r3, [r3, #16]
    64ca:	f023 0201 	bic.w	r2, r3, #1
    64ce:	687b      	ldr	r3, [r7, #4]
    64d0:	611a      	str	r2, [r3, #16]
    64d2:	bf00      	nop
    64d4:	370c      	adds	r7, #12
    64d6:	46bd      	mov	sp, r7
    64d8:	f85d 7b04 	ldr.w	r7, [sp], #4
    64dc:	4770      	bx	lr

000064de <LPSPI_SetMasterSlaveMode>:
    64de:	b480      	push	{r7}
    64e0:	b083      	sub	sp, #12
    64e2:	af00      	add	r7, sp, #0
    64e4:	6078      	str	r0, [r7, #4]
    64e6:	460b      	mov	r3, r1
    64e8:	70fb      	strb	r3, [r7, #3]
    64ea:	687b      	ldr	r3, [r7, #4]
    64ec:	6a5b      	ldr	r3, [r3, #36]	; 0x24
    64ee:	f023 0201 	bic.w	r2, r3, #1
    64f2:	78fb      	ldrb	r3, [r7, #3]
    64f4:	f003 0301 	and.w	r3, r3, #1
    64f8:	431a      	orrs	r2, r3
    64fa:	687b      	ldr	r3, [r7, #4]
    64fc:	625a      	str	r2, [r3, #36]	; 0x24
    64fe:	bf00      	nop
    6500:	370c      	adds	r7, #12
    6502:	46bd      	mov	sp, r7
    6504:	f85d 7b04 	ldr.w	r7, [sp], #4
    6508:	4770      	bx	lr

0000650a <LPSPI_IsMaster>:
    650a:	b480      	push	{r7}
    650c:	b083      	sub	sp, #12
    650e:	af00      	add	r7, sp, #0
    6510:	6078      	str	r0, [r7, #4]
    6512:	687b      	ldr	r3, [r7, #4]
    6514:	6a5b      	ldr	r3, [r3, #36]	; 0x24
    6516:	f003 0301 	and.w	r3, r3, #1
    651a:	2b00      	cmp	r3, #0
    651c:	bf14      	ite	ne
    651e:	2301      	movne	r3, #1
    6520:	2300      	moveq	r3, #0
    6522:	b2db      	uxtb	r3, r3
    6524:	4618      	mov	r0, r3
    6526:	370c      	adds	r7, #12
    6528:	46bd      	mov	sp, r7
    652a:	f85d 7b04 	ldr.w	r7, [sp], #4
    652e:	4770      	bx	lr

00006530 <LPSPI_CommonControl>:
    6530:	b590      	push	{r4, r7, lr}
    6532:	b08f      	sub	sp, #60	; 0x3c
    6534:	af00      	add	r7, sp, #0
    6536:	60f8      	str	r0, [r7, #12]
    6538:	60b9      	str	r1, [r7, #8]
    653a:	607a      	str	r2, [r7, #4]
    653c:	603b      	str	r3, [r7, #0]
    653e:	f107 031c 	add.w	r3, r7, #28
    6542:	4618      	mov	r0, r3
    6544:	f7fb fc52 	bl	1dec <LPSPI_MasterGetDefaultConfig>
    6548:	f107 0310 	add.w	r3, r7, #16
    654c:	4618      	mov	r0, r3
    654e:	f7fb fcf9 	bl	1f44 <LPSPI_SlaveGetDefaultConfig>
    6552:	68bb      	ldr	r3, [r7, #8]
    6554:	61fb      	str	r3, [r7, #28]
    6556:	68fb      	ldr	r3, [r7, #12]
    6558:	b2db      	uxtb	r3, r3
    655a:	2b03      	cmp	r3, #3
    655c:	d102      	bne.n	6564 <LPSPI_CommonControl+0x34>
    655e:	2302      	movs	r3, #2
    6560:	f887 3036 	strb.w	r3, [r7, #54]	; 0x36
    6564:	68fb      	ldr	r3, [r7, #12]
    6566:	b2db      	uxtb	r3, r3
    6568:	2b04      	cmp	r3, #4
    656a:	d101      	bne.n	6570 <LPSPI_CommonControl+0x40>
    656c:	2301      	movs	r3, #1
    656e:	767b      	strb	r3, [r7, #25]
    6570:	687b      	ldr	r3, [r7, #4]
    6572:	685b      	ldr	r3, [r3, #4]
    6574:	2b01      	cmp	r3, #1
    6576:	d108      	bne.n	658a <LPSPI_CommonControl+0x5a>
    6578:	f44f 737a 	mov.w	r3, #1000	; 0x3e8
    657c:	62bb      	str	r3, [r7, #40]	; 0x28
    657e:	f44f 737a 	mov.w	r3, #1000	; 0x3e8
    6582:	62fb      	str	r3, [r7, #44]	; 0x2c
    6584:	f44f 737a 	mov.w	r3, #1000	; 0x3e8
    6588:	633b      	str	r3, [r7, #48]	; 0x30
    658a:	687b      	ldr	r3, [r7, #4]
    658c:	685b      	ldr	r3, [r3, #4]
    658e:	2b02      	cmp	r3, #2
    6590:	d108      	bne.n	65a4 <LPSPI_CommonControl+0x74>
    6592:	f44f 737a 	mov.w	r3, #1000	; 0x3e8
    6596:	62bb      	str	r3, [r7, #40]	; 0x28
    6598:	f44f 737a 	mov.w	r3, #1000	; 0x3e8
    659c:	62fb      	str	r3, [r7, #44]	; 0x2c
    659e:	f44f 737a 	mov.w	r3, #1000	; 0x3e8
    65a2:	633b      	str	r3, [r7, #48]	; 0x30
    65a4:	687b      	ldr	r3, [r7, #4]
    65a6:	685b      	ldr	r3, [r3, #4]
    65a8:	2b03      	cmp	r3, #3
    65aa:	d108      	bne.n	65be <LPSPI_CommonControl+0x8e>
    65ac:	f44f 737a 	mov.w	r3, #1000	; 0x3e8
    65b0:	62bb      	str	r3, [r7, #40]	; 0x28
    65b2:	f44f 737a 	mov.w	r3, #1000	; 0x3e8
    65b6:	62fb      	str	r3, [r7, #44]	; 0x2c
    65b8:	f44f 737a 	mov.w	r3, #1000	; 0x3e8
    65bc:	633b      	str	r3, [r7, #48]	; 0x30
    65be:	687b      	ldr	r3, [r7, #4]
    65c0:	685b      	ldr	r3, [r3, #4]
    65c2:	2b04      	cmp	r3, #4
    65c4:	d108      	bne.n	65d8 <LPSPI_CommonControl+0xa8>
    65c6:	f44f 737a 	mov.w	r3, #1000	; 0x3e8
    65ca:	62bb      	str	r3, [r7, #40]	; 0x28
    65cc:	f44f 737a 	mov.w	r3, #1000	; 0x3e8
    65d0:	62fb      	str	r3, [r7, #44]	; 0x2c
    65d2:	f44f 737a 	mov.w	r3, #1000	; 0x3e8
    65d6:	633b      	str	r3, [r7, #48]	; 0x30
    65d8:	68fb      	ldr	r3, [r7, #12]
    65da:	f403 63e0 	and.w	r3, r3, #1792	; 0x700
    65de:	f5b3 7f80 	cmp.w	r3, #256	; 0x100
    65e2:	d020      	beq.n	6626 <LPSPI_CommonControl+0xf6>
    65e4:	f5b3 7f80 	cmp.w	r3, #256	; 0x100
    65e8:	d802      	bhi.n	65f0 <LPSPI_CommonControl+0xc0>
    65ea:	2b00      	cmp	r3, #0
    65ec:	d007      	beq.n	65fe <LPSPI_CommonControl+0xce>
    65ee:	e056      	b.n	669e <LPSPI_CommonControl+0x16e>
    65f0:	f5b3 7f00 	cmp.w	r3, #512	; 0x200
    65f4:	d02b      	beq.n	664e <LPSPI_CommonControl+0x11e>
    65f6:	f5b3 7f40 	cmp.w	r3, #768	; 0x300
    65fa:	d03c      	beq.n	6676 <LPSPI_CommonControl+0x146>
    65fc:	e04f      	b.n	669e <LPSPI_CommonControl+0x16e>
    65fe:	687b      	ldr	r3, [r7, #4]
    6600:	681b      	ldr	r3, [r3, #0]
    6602:	4618      	mov	r0, r3
    6604:	f7ff ff81 	bl	650a <LPSPI_IsMaster>
    6608:	4603      	mov	r3, r0
    660a:	2b00      	cmp	r3, #0
    660c:	d006      	beq.n	661c <LPSPI_CommonControl+0xec>
    660e:	2300      	movs	r3, #0
    6610:	f887 3024 	strb.w	r3, [r7, #36]	; 0x24
    6614:	2300      	movs	r3, #0
    6616:	f887 3025 	strb.w	r3, [r7, #37]	; 0x25
    661a:	e040      	b.n	669e <LPSPI_CommonControl+0x16e>
    661c:	2300      	movs	r3, #0
    661e:	753b      	strb	r3, [r7, #20]
    6620:	2300      	movs	r3, #0
    6622:	757b      	strb	r3, [r7, #21]
    6624:	e03b      	b.n	669e <LPSPI_CommonControl+0x16e>
    6626:	687b      	ldr	r3, [r7, #4]
    6628:	681b      	ldr	r3, [r3, #0]
    662a:	4618      	mov	r0, r3
    662c:	f7ff ff6d 	bl	650a <LPSPI_IsMaster>
    6630:	4603      	mov	r3, r0
    6632:	2b00      	cmp	r3, #0
    6634:	d006      	beq.n	6644 <LPSPI_CommonControl+0x114>
    6636:	2300      	movs	r3, #0
    6638:	f887 3024 	strb.w	r3, [r7, #36]	; 0x24
    663c:	2301      	movs	r3, #1
    663e:	f887 3025 	strb.w	r3, [r7, #37]	; 0x25
    6642:	e02c      	b.n	669e <LPSPI_CommonControl+0x16e>
    6644:	2300      	movs	r3, #0
    6646:	753b      	strb	r3, [r7, #20]
    6648:	2301      	movs	r3, #1
    664a:	757b      	strb	r3, [r7, #21]
    664c:	e027      	b.n	669e <LPSPI_CommonControl+0x16e>
    664e:	687b      	ldr	r3, [r7, #4]
    6650:	681b      	ldr	r3, [r3, #0]
    6652:	4618      	mov	r0, r3
    6654:	f7ff ff59 	bl	650a <LPSPI_IsMaster>
    6658:	4603      	mov	r3, r0
    665a:	2b00      	cmp	r3, #0
    665c:	d006      	beq.n	666c <LPSPI_CommonControl+0x13c>
    665e:	2301      	movs	r3, #1
    6660:	f887 3024 	strb.w	r3, [r7, #36]	; 0x24
    6664:	2300      	movs	r3, #0
    6666:	f887 3025 	strb.w	r3, [r7, #37]	; 0x25
    666a:	e018      	b.n	669e <LPSPI_CommonControl+0x16e>
    666c:	2301      	movs	r3, #1
    666e:	753b      	strb	r3, [r7, #20]
    6670:	2300      	movs	r3, #0
    6672:	757b      	strb	r3, [r7, #21]
    6674:	e013      	b.n	669e <LPSPI_CommonControl+0x16e>
    6676:	687b      	ldr	r3, [r7, #4]
    6678:	681b      	ldr	r3, [r3, #0]
    667a:	4618      	mov	r0, r3
    667c:	f7ff ff45 	bl	650a <LPSPI_IsMaster>
    6680:	4603      	mov	r3, r0
    6682:	2b00      	cmp	r3, #0
    6684:	d006      	beq.n	6694 <LPSPI_CommonControl+0x164>
    6686:	2301      	movs	r3, #1
    6688:	f887 3024 	strb.w	r3, [r7, #36]	; 0x24
    668c:	2301      	movs	r3, #1
    668e:	f887 3025 	strb.w	r3, [r7, #37]	; 0x25
    6692:	e003      	b.n	669c <LPSPI_CommonControl+0x16c>
    6694:	2301      	movs	r3, #1
    6696:	753b      	strb	r3, [r7, #20]
    6698:	2301      	movs	r3, #1
    669a:	757b      	strb	r3, [r7, #21]
    669c:	bf00      	nop
    669e:	68fb      	ldr	r3, [r7, #12]
    66a0:	f403 337c 	and.w	r3, r3, #258048	; 0x3f000
    66a4:	2b00      	cmp	r3, #0
    66a6:	d01c      	beq.n	66e2 <LPSPI_CommonControl+0x1b2>
    66a8:	68fb      	ldr	r3, [r7, #12]
    66aa:	0b1b      	lsrs	r3, r3, #12
    66ac:	f003 0338 	and.w	r3, r3, #56	; 0x38
    66b0:	2b00      	cmp	r3, #0
    66b2:	d013      	beq.n	66dc <LPSPI_CommonControl+0x1ac>
    66b4:	687b      	ldr	r3, [r7, #4]
    66b6:	681b      	ldr	r3, [r3, #0]
    66b8:	4618      	mov	r0, r3
    66ba:	f7ff ff26 	bl	650a <LPSPI_IsMaster>
    66be:	4603      	mov	r3, r0
    66c0:	2b00      	cmp	r3, #0
    66c2:	d005      	beq.n	66d0 <LPSPI_CommonControl+0x1a0>
    66c4:	68fb      	ldr	r3, [r7, #12]
    66c6:	0b1b      	lsrs	r3, r3, #12
    66c8:	f003 033f 	and.w	r3, r3, #63	; 0x3f
    66cc:	623b      	str	r3, [r7, #32]
    66ce:	e008      	b.n	66e2 <LPSPI_CommonControl+0x1b2>
    66d0:	68fb      	ldr	r3, [r7, #12]
    66d2:	0b1b      	lsrs	r3, r3, #12
    66d4:	f003 033f 	and.w	r3, r3, #63	; 0x3f
    66d8:	613b      	str	r3, [r7, #16]
    66da:	e002      	b.n	66e2 <LPSPI_CommonControl+0x1b2>
    66dc:	f06f 0308 	mvn.w	r3, #8
    66e0:	e097      	b.n	6812 <LPSPI_CommonControl+0x2e2>
    66e2:	68fb      	ldr	r3, [r7, #12]
    66e4:	f403 2380 	and.w	r3, r3, #262144	; 0x40000
    66e8:	2b00      	cmp	r3, #0
    66ea:	d011      	beq.n	6710 <LPSPI_CommonControl+0x1e0>
    66ec:	f5b3 2f80 	cmp.w	r3, #262144	; 0x40000
    66f0:	d11d      	bne.n	672e <LPSPI_CommonControl+0x1fe>
    66f2:	687b      	ldr	r3, [r7, #4]
    66f4:	681b      	ldr	r3, [r3, #0]
    66f6:	4618      	mov	r0, r3
    66f8:	f7ff ff07 	bl	650a <LPSPI_IsMaster>
    66fc:	4603      	mov	r3, r0
    66fe:	2b00      	cmp	r3, #0
    6700:	d003      	beq.n	670a <LPSPI_CommonControl+0x1da>
    6702:	2301      	movs	r3, #1
    6704:	f887 3026 	strb.w	r3, [r7, #38]	; 0x26
    6708:	e012      	b.n	6730 <LPSPI_CommonControl+0x200>
    670a:	2301      	movs	r3, #1
    670c:	75bb      	strb	r3, [r7, #22]
    670e:	e00f      	b.n	6730 <LPSPI_CommonControl+0x200>
    6710:	687b      	ldr	r3, [r7, #4]
    6712:	681b      	ldr	r3, [r3, #0]
    6714:	4618      	mov	r0, r3
    6716:	f7ff fef8 	bl	650a <LPSPI_IsMaster>
    671a:	4603      	mov	r3, r0
    671c:	2b00      	cmp	r3, #0
    671e:	d003      	beq.n	6728 <LPSPI_CommonControl+0x1f8>
    6720:	2300      	movs	r3, #0
    6722:	f887 3026 	strb.w	r3, [r7, #38]	; 0x26
    6726:	e003      	b.n	6730 <LPSPI_CommonControl+0x200>
    6728:	2300      	movs	r3, #0
    672a:	75bb      	strb	r3, [r7, #22]
    672c:	e000      	b.n	6730 <LPSPI_CommonControl+0x200>
    672e:	bf00      	nop
    6730:	687b      	ldr	r3, [r7, #4]
    6732:	681b      	ldr	r3, [r3, #0]
    6734:	4618      	mov	r0, r3
    6736:	f7ff fee8 	bl	650a <LPSPI_IsMaster>
    673a:	4603      	mov	r3, r0
    673c:	2b00      	cmp	r3, #0
    673e:	d012      	beq.n	6766 <LPSPI_CommonControl+0x236>
    6740:	68fb      	ldr	r3, [r7, #12]
    6742:	f403 13c0 	and.w	r3, r3, #1572864	; 0x180000
    6746:	f5b3 2f00 	cmp.w	r3, #524288	; 0x80000
    674a:	d015      	beq.n	6778 <LPSPI_CommonControl+0x248>
    674c:	f5b3 2f00 	cmp.w	r3, #524288	; 0x80000
    6750:	d802      	bhi.n	6758 <LPSPI_CommonControl+0x228>
    6752:	2b00      	cmp	r3, #0
    6754:	d012      	beq.n	677c <LPSPI_CommonControl+0x24c>
    6756:	e01a      	b.n	678e <LPSPI_CommonControl+0x25e>
    6758:	f5b3 1f80 	cmp.w	r3, #1048576	; 0x100000
    675c:	d010      	beq.n	6780 <LPSPI_CommonControl+0x250>
    675e:	f5b3 1fc0 	cmp.w	r3, #1572864	; 0x180000
    6762:	d00f      	beq.n	6784 <LPSPI_CommonControl+0x254>
    6764:	e013      	b.n	678e <LPSPI_CommonControl+0x25e>
    6766:	68fb      	ldr	r3, [r7, #12]
    6768:	f403 1300 	and.w	r3, r3, #2097152	; 0x200000
    676c:	2b00      	cmp	r3, #0
    676e:	d00b      	beq.n	6788 <LPSPI_CommonControl+0x258>
    6770:	f5b3 1f00 	cmp.w	r3, #2097152	; 0x200000
    6774:	d00a      	beq.n	678c <LPSPI_CommonControl+0x25c>
    6776:	e00a      	b.n	678e <LPSPI_CommonControl+0x25e>
    6778:	bf00      	nop
    677a:	e008      	b.n	678e <LPSPI_CommonControl+0x25e>
    677c:	bf00      	nop
    677e:	e006      	b.n	678e <LPSPI_CommonControl+0x25e>
    6780:	bf00      	nop
    6782:	e004      	b.n	678e <LPSPI_CommonControl+0x25e>
    6784:	bf00      	nop
    6786:	e002      	b.n	678e <LPSPI_CommonControl+0x25e>
    6788:	bf00      	nop
    678a:	e000      	b.n	678e <LPSPI_CommonControl+0x25e>
    678c:	bf00      	nop
    678e:	687b      	ldr	r3, [r7, #4]
    6790:	681b      	ldr	r3, [r3, #0]
    6792:	4618      	mov	r0, r3
    6794:	f7ff feb9 	bl	650a <LPSPI_IsMaster>
    6798:	4603      	mov	r3, r0
    679a:	2b00      	cmp	r3, #0
    679c:	d01e      	beq.n	67dc <LPSPI_CommonControl+0x2ac>
    679e:	683b      	ldr	r3, [r7, #0]
    67a0:	781b      	ldrb	r3, [r3, #0]
    67a2:	f003 0304 	and.w	r3, r3, #4
    67a6:	2b00      	cmp	r3, #0
    67a8:	d004      	beq.n	67b4 <LPSPI_CommonControl+0x284>
    67aa:	687b      	ldr	r3, [r7, #4]
    67ac:	681b      	ldr	r3, [r3, #0]
    67ae:	4618      	mov	r0, r3
    67b0:	f7fb fbf6 	bl	1fa0 <LPSPI_Deinit>
    67b4:	687b      	ldr	r3, [r7, #4]
    67b6:	681c      	ldr	r4, [r3, #0]
    67b8:	687b      	ldr	r3, [r7, #4]
    67ba:	689b      	ldr	r3, [r3, #8]
    67bc:	4798      	blx	r3
    67be:	4602      	mov	r2, r0
    67c0:	f107 031c 	add.w	r3, r7, #28
    67c4:	4619      	mov	r1, r3
    67c6:	4620      	mov	r0, r4
    67c8:	f7fb fa82 	bl	1cd0 <LPSPI_MasterInit>
    67cc:	683b      	ldr	r3, [r7, #0]
    67ce:	781b      	ldrb	r3, [r3, #0]
    67d0:	f043 0304 	orr.w	r3, r3, #4
    67d4:	b2da      	uxtb	r2, r3
    67d6:	683b      	ldr	r3, [r7, #0]
    67d8:	701a      	strb	r2, [r3, #0]
    67da:	e019      	b.n	6810 <LPSPI_CommonControl+0x2e0>
    67dc:	683b      	ldr	r3, [r7, #0]
    67de:	781b      	ldrb	r3, [r3, #0]
    67e0:	f003 0304 	and.w	r3, r3, #4
    67e4:	2b00      	cmp	r3, #0
    67e6:	d004      	beq.n	67f2 <LPSPI_CommonControl+0x2c2>
    67e8:	687b      	ldr	r3, [r7, #4]
    67ea:	681b      	ldr	r3, [r3, #0]
    67ec:	4618      	mov	r0, r3
    67ee:	f7fb fbd7 	bl	1fa0 <LPSPI_Deinit>
    67f2:	687b      	ldr	r3, [r7, #4]
    67f4:	681b      	ldr	r3, [r3, #0]
    67f6:	f107 0210 	add.w	r2, r7, #16
    67fa:	4611      	mov	r1, r2
    67fc:	4618      	mov	r0, r3
    67fe:	f7fb fb41 	bl	1e84 <LPSPI_SlaveInit>
    6802:	683b      	ldr	r3, [r7, #0]
    6804:	781b      	ldrb	r3, [r3, #0]
    6806:	f043 0304 	orr.w	r3, r3, #4
    680a:	b2da      	uxtb	r2, r3
    680c:	683b      	ldr	r3, [r7, #0]
    680e:	701a      	strb	r2, [r3, #0]
    6810:	2300      	movs	r3, #0
    6812:	4618      	mov	r0, r3
    6814:	373c      	adds	r7, #60	; 0x3c
    6816:	46bd      	mov	sp, r7
    6818:	bd90      	pop	{r4, r7, pc}

0000681a <LPSPI_SetTransferConfigFlags>:
    681a:	b480      	push	{r7}
    681c:	b085      	sub	sp, #20
    681e:	af00      	add	r7, sp, #0
    6820:	4603      	mov	r3, r0
    6822:	60b9      	str	r1, [r7, #8]
    6824:	607a      	str	r2, [r7, #4]
    6826:	73fb      	strb	r3, [r7, #15]
    6828:	7bfb      	ldrb	r3, [r7, #15]
    682a:	2b00      	cmp	r3, #0
    682c:	d020      	beq.n	6870 <LPSPI_SetTransferConfigFlags+0x56>
    682e:	687b      	ldr	r3, [r7, #4]
    6830:	f44f 02a0 	mov.w	r2, #5242880	; 0x500000
    6834:	60da      	str	r2, [r3, #12]
    6836:	68bb      	ldr	r3, [r7, #8]
    6838:	2b01      	cmp	r3, #1
    683a:	d103      	bne.n	6844 <LPSPI_SetTransferConfigFlags+0x2a>
    683c:	687b      	ldr	r3, [r7, #4]
    683e:	f44f 02a0 	mov.w	r2, #5242880	; 0x500000
    6842:	60da      	str	r2, [r3, #12]
    6844:	68bb      	ldr	r3, [r7, #8]
    6846:	2b02      	cmp	r3, #2
    6848:	d103      	bne.n	6852 <LPSPI_SetTransferConfigFlags+0x38>
    684a:	687b      	ldr	r3, [r7, #4]
    684c:	f44f 02a0 	mov.w	r2, #5242880	; 0x500000
    6850:	60da      	str	r2, [r3, #12]
    6852:	68bb      	ldr	r3, [r7, #8]
    6854:	2b03      	cmp	r3, #3
    6856:	d103      	bne.n	6860 <LPSPI_SetTransferConfigFlags+0x46>
    6858:	687b      	ldr	r3, [r7, #4]
    685a:	f44f 02a0 	mov.w	r2, #5242880	; 0x500000
    685e:	60da      	str	r2, [r3, #12]
    6860:	68bb      	ldr	r3, [r7, #8]
    6862:	2b04      	cmp	r3, #4
    6864:	d124      	bne.n	68b0 <LPSPI_SetTransferConfigFlags+0x96>
    6866:	687b      	ldr	r3, [r7, #4]
    6868:	f44f 02a0 	mov.w	r2, #5242880	; 0x500000
    686c:	60da      	str	r2, [r3, #12]
    686e:	e01f      	b.n	68b0 <LPSPI_SetTransferConfigFlags+0x96>
    6870:	687b      	ldr	r3, [r7, #4]
    6872:	f44f 0280 	mov.w	r2, #4194304	; 0x400000
    6876:	60da      	str	r2, [r3, #12]
    6878:	68bb      	ldr	r3, [r7, #8]
    687a:	2b01      	cmp	r3, #1
    687c:	d103      	bne.n	6886 <LPSPI_SetTransferConfigFlags+0x6c>
    687e:	687b      	ldr	r3, [r7, #4]
    6880:	f44f 0280 	mov.w	r2, #4194304	; 0x400000
    6884:	60da      	str	r2, [r3, #12]
    6886:	68bb      	ldr	r3, [r7, #8]
    6888:	2b02      	cmp	r3, #2
    688a:	d103      	bne.n	6894 <LPSPI_SetTransferConfigFlags+0x7a>
    688c:	687b      	ldr	r3, [r7, #4]
    688e:	f44f 0280 	mov.w	r2, #4194304	; 0x400000
    6892:	60da      	str	r2, [r3, #12]
    6894:	68bb      	ldr	r3, [r7, #8]
    6896:	2b03      	cmp	r3, #3
    6898:	d103      	bne.n	68a2 <LPSPI_SetTransferConfigFlags+0x88>
    689a:	687b      	ldr	r3, [r7, #4]
    689c:	f44f 0280 	mov.w	r2, #4194304	; 0x400000
    68a0:	60da      	str	r2, [r3, #12]
    68a2:	68bb      	ldr	r3, [r7, #8]
    68a4:	2b04      	cmp	r3, #4
    68a6:	d103      	bne.n	68b0 <LPSPI_SetTransferConfigFlags+0x96>
    68a8:	687b      	ldr	r3, [r7, #4]
    68aa:	f44f 0280 	mov.w	r2, #4194304	; 0x400000
    68ae:	60da      	str	r2, [r3, #12]
    68b0:	bf00      	nop
    68b2:	3714      	adds	r7, #20
    68b4:	46bd      	mov	sp, r7
    68b6:	f85d 7b04 	ldr.w	r7, [sp], #4
    68ba:	4770      	bx	lr

000068bc <LPSPIx_GetCapabilities>:
    68bc:	b480      	push	{r7}
    68be:	af00      	add	r7, sp, #0
    68c0:	2300      	movs	r3, #0
    68c2:	f043 0301 	orr.w	r3, r3, #1
    68c6:	4618      	mov	r0, r3
    68c8:	46bd      	mov	sp, r7
    68ca:	f85d 7b04 	ldr.w	r7, [sp], #4
    68ce:	4770      	bx	lr

000068d0 <KSDK_LPSPI_MasterInterruptCallback>:
    68d0:	b580      	push	{r7, lr}
    68d2:	b086      	sub	sp, #24
    68d4:	af00      	add	r7, sp, #0
    68d6:	60f8      	str	r0, [r7, #12]
    68d8:	60b9      	str	r1, [r7, #8]
    68da:	607a      	str	r2, [r7, #4]
    68dc:	603b      	str	r3, [r7, #0]
    68de:	2300      	movs	r3, #0
    68e0:	617b      	str	r3, [r7, #20]
    68e2:	687b      	ldr	r3, [r7, #4]
    68e4:	2b00      	cmp	r3, #0
    68e6:	d102      	bne.n	68ee <KSDK_LPSPI_MasterInterruptCallback+0x1e>
    68e8:	2301      	movs	r3, #1
    68ea:	617b      	str	r3, [r7, #20]
    68ec:	e008      	b.n	6900 <KSDK_LPSPI_MasterInterruptCallback+0x30>
    68ee:	687b      	ldr	r3, [r7, #4]
    68f0:	f240 1291 	movw	r2, #401	; 0x191
    68f4:	4293      	cmp	r3, r2
    68f6:	d102      	bne.n	68fe <KSDK_LPSPI_MasterInterruptCallback+0x2e>
    68f8:	2302      	movs	r3, #2
    68fa:	617b      	str	r3, [r7, #20]
    68fc:	e000      	b.n	6900 <KSDK_LPSPI_MasterInterruptCallback+0x30>
    68fe:	bf00      	nop
    6900:	697b      	ldr	r3, [r7, #20]
    6902:	2b00      	cmp	r3, #0
    6904:	d005      	beq.n	6912 <KSDK_LPSPI_MasterInterruptCallback+0x42>
    6906:	683b      	ldr	r3, [r7, #0]
    6908:	2b00      	cmp	r3, #0
    690a:	d002      	beq.n	6912 <KSDK_LPSPI_MasterInterruptCallback+0x42>
    690c:	683b      	ldr	r3, [r7, #0]
    690e:	6978      	ldr	r0, [r7, #20]
    6910:	4798      	blx	r3
    6912:	bf00      	nop
    6914:	3718      	adds	r7, #24
    6916:	46bd      	mov	sp, r7
    6918:	bd80      	pop	{r7, pc}

0000691a <KSDK_LPSPI_SlaveInterruptCallback>:
    691a:	b580      	push	{r7, lr}
    691c:	b086      	sub	sp, #24
    691e:	af00      	add	r7, sp, #0
    6920:	60f8      	str	r0, [r7, #12]
    6922:	60b9      	str	r1, [r7, #8]
    6924:	607a      	str	r2, [r7, #4]
    6926:	603b      	str	r3, [r7, #0]
    6928:	2300      	movs	r3, #0
    692a:	617b      	str	r3, [r7, #20]
    692c:	687b      	ldr	r3, [r7, #4]
    692e:	2b00      	cmp	r3, #0
    6930:	d101      	bne.n	6936 <KSDK_LPSPI_SlaveInterruptCallback+0x1c>
    6932:	2301      	movs	r3, #1
    6934:	617b      	str	r3, [r7, #20]
    6936:	687b      	ldr	r3, [r7, #4]
    6938:	f240 1291 	movw	r2, #401	; 0x191
    693c:	4293      	cmp	r3, r2
    693e:	d102      	bne.n	6946 <KSDK_LPSPI_SlaveInterruptCallback+0x2c>
    6940:	2302      	movs	r3, #2
    6942:	617b      	str	r3, [r7, #20]
    6944:	e000      	b.n	6948 <KSDK_LPSPI_SlaveInterruptCallback+0x2e>
    6946:	bf00      	nop
    6948:	697b      	ldr	r3, [r7, #20]
    694a:	2b00      	cmp	r3, #0
    694c:	d005      	beq.n	695a <KSDK_LPSPI_SlaveInterruptCallback+0x40>
    694e:	683b      	ldr	r3, [r7, #0]
    6950:	2b00      	cmp	r3, #0
    6952:	d002      	beq.n	695a <KSDK_LPSPI_SlaveInterruptCallback+0x40>
    6954:	683b      	ldr	r3, [r7, #0]
    6956:	6978      	ldr	r0, [r7, #20]
    6958:	4798      	blx	r3
    695a:	bf00      	nop
    695c:	3718      	adds	r7, #24
    695e:	46bd      	mov	sp, r7
    6960:	bd80      	pop	{r7, pc}

00006962 <LPSPI_InterruptInitialize>:
    6962:	b480      	push	{r7}
    6964:	b083      	sub	sp, #12
    6966:	af00      	add	r7, sp, #0
    6968:	6078      	str	r0, [r7, #4]
    696a:	6039      	str	r1, [r7, #0]
    696c:	683b      	ldr	r3, [r7, #0]
    696e:	7c1b      	ldrb	r3, [r3, #16]
    6970:	f003 0301 	and.w	r3, r3, #1
    6974:	2b00      	cmp	r3, #0
    6976:	d105      	bne.n	6984 <LPSPI_InterruptInitialize+0x22>
    6978:	683b      	ldr	r3, [r7, #0]
    697a:	687a      	ldr	r2, [r7, #4]
    697c:	609a      	str	r2, [r3, #8]
    697e:	683b      	ldr	r3, [r7, #0]
    6980:	2201      	movs	r2, #1
    6982:	741a      	strb	r2, [r3, #16]
    6984:	2300      	movs	r3, #0
    6986:	4618      	mov	r0, r3
    6988:	370c      	adds	r7, #12
    698a:	46bd      	mov	sp, r7
    698c:	f85d 7b04 	ldr.w	r7, [sp], #4
    6990:	4770      	bx	lr

00006992 <LPSPI_InterruptUninitialize>:
    6992:	b480      	push	{r7}
    6994:	b083      	sub	sp, #12
    6996:	af00      	add	r7, sp, #0
    6998:	6078      	str	r0, [r7, #4]
    699a:	687b      	ldr	r3, [r7, #4]
    699c:	2200      	movs	r2, #0
    699e:	741a      	strb	r2, [r3, #16]
    69a0:	2300      	movs	r3, #0
    69a2:	4618      	mov	r0, r3
    69a4:	370c      	adds	r7, #12
    69a6:	46bd      	mov	sp, r7
    69a8:	f85d 7b04 	ldr.w	r7, [sp], #4
    69ac:	4770      	bx	lr

000069ae <LPSPI_InterruptSend>:
    69ae:	b580      	push	{r7, lr}
    69b0:	b08a      	sub	sp, #40	; 0x28
    69b2:	af00      	add	r7, sp, #0
    69b4:	60f8      	str	r0, [r7, #12]
    69b6:	60b9      	str	r1, [r7, #8]
    69b8:	607a      	str	r2, [r7, #4]
    69ba:	f107 0310 	add.w	r3, r7, #16
    69be:	2200      	movs	r2, #0
    69c0:	601a      	str	r2, [r3, #0]
    69c2:	605a      	str	r2, [r3, #4]
    69c4:	609a      	str	r2, [r3, #8]
    69c6:	60da      	str	r2, [r3, #12]
    69c8:	2300      	movs	r3, #0
    69ca:	617b      	str	r3, [r7, #20]
    69cc:	68fb      	ldr	r3, [r7, #12]
    69ce:	613b      	str	r3, [r7, #16]
    69d0:	68bb      	ldr	r3, [r7, #8]
    69d2:	61bb      	str	r3, [r7, #24]
    69d4:	687b      	ldr	r3, [r7, #4]
    69d6:	681b      	ldr	r3, [r3, #0]
    69d8:	681b      	ldr	r3, [r3, #0]
    69da:	4618      	mov	r0, r3
    69dc:	f7ff fd95 	bl	650a <LPSPI_IsMaster>
    69e0:	4603      	mov	r3, r0
    69e2:	4618      	mov	r0, r3
    69e4:	687b      	ldr	r3, [r7, #4]
    69e6:	681b      	ldr	r3, [r3, #0]
    69e8:	685b      	ldr	r3, [r3, #4]
    69ea:	f107 0210 	add.w	r2, r7, #16
    69ee:	4619      	mov	r1, r3
    69f0:	f7ff ff13 	bl	681a <LPSPI_SetTransferConfigFlags>
    69f4:	687b      	ldr	r3, [r7, #4]
    69f6:	681b      	ldr	r3, [r3, #0]
    69f8:	681b      	ldr	r3, [r3, #0]
    69fa:	4618      	mov	r0, r3
    69fc:	f7ff fd85 	bl	650a <LPSPI_IsMaster>
    6a00:	4603      	mov	r3, r0
    6a02:	2b00      	cmp	r3, #0
    6a04:	d00c      	beq.n	6a20 <LPSPI_InterruptSend+0x72>
    6a06:	687b      	ldr	r3, [r7, #4]
    6a08:	681b      	ldr	r3, [r3, #0]
    6a0a:	6818      	ldr	r0, [r3, #0]
    6a0c:	687b      	ldr	r3, [r7, #4]
    6a0e:	685b      	ldr	r3, [r3, #4]
    6a10:	4619      	mov	r1, r3
    6a12:	f107 0310 	add.w	r3, r7, #16
    6a16:	461a      	mov	r2, r3
    6a18:	f7fb fc06 	bl	2228 <LPSPI_MasterTransferNonBlocking>
    6a1c:	6238      	str	r0, [r7, #32]
    6a1e:	e00b      	b.n	6a38 <LPSPI_InterruptSend+0x8a>
    6a20:	687b      	ldr	r3, [r7, #4]
    6a22:	681b      	ldr	r3, [r3, #0]
    6a24:	6818      	ldr	r0, [r3, #0]
    6a26:	687b      	ldr	r3, [r7, #4]
    6a28:	685b      	ldr	r3, [r3, #4]
    6a2a:	4619      	mov	r1, r3
    6a2c:	f107 0310 	add.w	r3, r7, #16
    6a30:	461a      	mov	r2, r3
    6a32:	f7fb ff3b 	bl	28ac <LPSPI_SlaveTransferNonBlocking>
    6a36:	6238      	str	r0, [r7, #32]
    6a38:	6a3b      	ldr	r3, [r7, #32]
    6a3a:	2b04      	cmp	r3, #4
    6a3c:	d009      	beq.n	6a52 <LPSPI_InterruptSend+0xa4>
    6a3e:	6a3b      	ldr	r3, [r7, #32]
    6a40:	f5b3 7fc8 	cmp.w	r3, #400	; 0x190
    6a44:	d009      	beq.n	6a5a <LPSPI_InterruptSend+0xac>
    6a46:	6a3b      	ldr	r3, [r7, #32]
    6a48:	2b00      	cmp	r3, #0
    6a4a:	d10a      	bne.n	6a62 <LPSPI_InterruptSend+0xb4>
    6a4c:	2300      	movs	r3, #0
    6a4e:	627b      	str	r3, [r7, #36]	; 0x24
    6a50:	e00b      	b.n	6a6a <LPSPI_InterruptSend+0xbc>
    6a52:	f06f 0304 	mvn.w	r3, #4
    6a56:	627b      	str	r3, [r7, #36]	; 0x24
    6a58:	e007      	b.n	6a6a <LPSPI_InterruptSend+0xbc>
    6a5a:	f06f 0301 	mvn.w	r3, #1
    6a5e:	627b      	str	r3, [r7, #36]	; 0x24
    6a60:	e003      	b.n	6a6a <LPSPI_InterruptSend+0xbc>
    6a62:	f04f 33ff 	mov.w	r3, #4294967295
    6a66:	627b      	str	r3, [r7, #36]	; 0x24
    6a68:	bf00      	nop
    6a6a:	6a7b      	ldr	r3, [r7, #36]	; 0x24
    6a6c:	4618      	mov	r0, r3
    6a6e:	3728      	adds	r7, #40	; 0x28
    6a70:	46bd      	mov	sp, r7
    6a72:	bd80      	pop	{r7, pc}

00006a74 <LPSPI_InterruptReceive>:
    6a74:	b580      	push	{r7, lr}
    6a76:	b08a      	sub	sp, #40	; 0x28
    6a78:	af00      	add	r7, sp, #0
    6a7a:	60f8      	str	r0, [r7, #12]
    6a7c:	60b9      	str	r1, [r7, #8]
    6a7e:	607a      	str	r2, [r7, #4]
    6a80:	f107 0310 	add.w	r3, r7, #16
    6a84:	2200      	movs	r2, #0
    6a86:	601a      	str	r2, [r3, #0]
    6a88:	605a      	str	r2, [r3, #4]
    6a8a:	609a      	str	r2, [r3, #8]
    6a8c:	60da      	str	r2, [r3, #12]
    6a8e:	2300      	movs	r3, #0
    6a90:	613b      	str	r3, [r7, #16]
    6a92:	68fb      	ldr	r3, [r7, #12]
    6a94:	617b      	str	r3, [r7, #20]
    6a96:	68bb      	ldr	r3, [r7, #8]
    6a98:	61bb      	str	r3, [r7, #24]
    6a9a:	687b      	ldr	r3, [r7, #4]
    6a9c:	681b      	ldr	r3, [r3, #0]
    6a9e:	681b      	ldr	r3, [r3, #0]
    6aa0:	4618      	mov	r0, r3
    6aa2:	f7ff fd32 	bl	650a <LPSPI_IsMaster>
    6aa6:	4603      	mov	r3, r0
    6aa8:	4618      	mov	r0, r3
    6aaa:	687b      	ldr	r3, [r7, #4]
    6aac:	681b      	ldr	r3, [r3, #0]
    6aae:	685b      	ldr	r3, [r3, #4]
    6ab0:	f107 0210 	add.w	r2, r7, #16
    6ab4:	4619      	mov	r1, r3
    6ab6:	f7ff feb0 	bl	681a <LPSPI_SetTransferConfigFlags>
    6aba:	687b      	ldr	r3, [r7, #4]
    6abc:	681b      	ldr	r3, [r3, #0]
    6abe:	681b      	ldr	r3, [r3, #0]
    6ac0:	4618      	mov	r0, r3
    6ac2:	f7ff fd22 	bl	650a <LPSPI_IsMaster>
    6ac6:	4603      	mov	r3, r0
    6ac8:	2b00      	cmp	r3, #0
    6aca:	d00c      	beq.n	6ae6 <LPSPI_InterruptReceive+0x72>
    6acc:	687b      	ldr	r3, [r7, #4]
    6ace:	681b      	ldr	r3, [r3, #0]
    6ad0:	6818      	ldr	r0, [r3, #0]
    6ad2:	687b      	ldr	r3, [r7, #4]
    6ad4:	685b      	ldr	r3, [r3, #4]
    6ad6:	4619      	mov	r1, r3
    6ad8:	f107 0310 	add.w	r3, r7, #16
    6adc:	461a      	mov	r2, r3
    6ade:	f7fb fba3 	bl	2228 <LPSPI_MasterTransferNonBlocking>
    6ae2:	6238      	str	r0, [r7, #32]
    6ae4:	e00b      	b.n	6afe <LPSPI_InterruptReceive+0x8a>
    6ae6:	687b      	ldr	r3, [r7, #4]
    6ae8:	681b      	ldr	r3, [r3, #0]
    6aea:	6818      	ldr	r0, [r3, #0]
    6aec:	687b      	ldr	r3, [r7, #4]
    6aee:	685b      	ldr	r3, [r3, #4]
    6af0:	4619      	mov	r1, r3
    6af2:	f107 0310 	add.w	r3, r7, #16
    6af6:	461a      	mov	r2, r3
    6af8:	f7fb fed8 	bl	28ac <LPSPI_SlaveTransferNonBlocking>
    6afc:	6238      	str	r0, [r7, #32]
    6afe:	6a3b      	ldr	r3, [r7, #32]
    6b00:	2b04      	cmp	r3, #4
    6b02:	d009      	beq.n	6b18 <LPSPI_InterruptReceive+0xa4>
    6b04:	6a3b      	ldr	r3, [r7, #32]
    6b06:	f5b3 7fc8 	cmp.w	r3, #400	; 0x190
    6b0a:	d009      	beq.n	6b20 <LPSPI_InterruptReceive+0xac>
    6b0c:	6a3b      	ldr	r3, [r7, #32]
    6b0e:	2b00      	cmp	r3, #0
    6b10:	d10a      	bne.n	6b28 <LPSPI_InterruptReceive+0xb4>
    6b12:	2300      	movs	r3, #0
    6b14:	627b      	str	r3, [r7, #36]	; 0x24
    6b16:	e00b      	b.n	6b30 <LPSPI_InterruptReceive+0xbc>
    6b18:	f06f 0304 	mvn.w	r3, #4
    6b1c:	627b      	str	r3, [r7, #36]	; 0x24
    6b1e:	e007      	b.n	6b30 <LPSPI_InterruptReceive+0xbc>
    6b20:	f06f 0301 	mvn.w	r3, #1
    6b24:	627b      	str	r3, [r7, #36]	; 0x24
    6b26:	e003      	b.n	6b30 <LPSPI_InterruptReceive+0xbc>
    6b28:	f04f 33ff 	mov.w	r3, #4294967295
    6b2c:	627b      	str	r3, [r7, #36]	; 0x24
    6b2e:	bf00      	nop
    6b30:	6a7b      	ldr	r3, [r7, #36]	; 0x24
    6b32:	4618      	mov	r0, r3
    6b34:	3728      	adds	r7, #40	; 0x28
    6b36:	46bd      	mov	sp, r7
    6b38:	bd80      	pop	{r7, pc}

00006b3a <LPSPI_InterruptTransfer>:
    6b3a:	b580      	push	{r7, lr}
    6b3c:	b08a      	sub	sp, #40	; 0x28
    6b3e:	af00      	add	r7, sp, #0
    6b40:	60f8      	str	r0, [r7, #12]
    6b42:	60b9      	str	r1, [r7, #8]
    6b44:	607a      	str	r2, [r7, #4]
    6b46:	603b      	str	r3, [r7, #0]
    6b48:	f107 0310 	add.w	r3, r7, #16
    6b4c:	2200      	movs	r2, #0
    6b4e:	601a      	str	r2, [r3, #0]
    6b50:	605a      	str	r2, [r3, #4]
    6b52:	609a      	str	r2, [r3, #8]
    6b54:	60da      	str	r2, [r3, #12]
    6b56:	68fb      	ldr	r3, [r7, #12]
    6b58:	613b      	str	r3, [r7, #16]
    6b5a:	68bb      	ldr	r3, [r7, #8]
    6b5c:	617b      	str	r3, [r7, #20]
    6b5e:	687b      	ldr	r3, [r7, #4]
    6b60:	61bb      	str	r3, [r7, #24]
    6b62:	683b      	ldr	r3, [r7, #0]
    6b64:	681b      	ldr	r3, [r3, #0]
    6b66:	681b      	ldr	r3, [r3, #0]
    6b68:	4618      	mov	r0, r3
    6b6a:	f7ff fcce 	bl	650a <LPSPI_IsMaster>
    6b6e:	4603      	mov	r3, r0
    6b70:	4618      	mov	r0, r3
    6b72:	683b      	ldr	r3, [r7, #0]
    6b74:	681b      	ldr	r3, [r3, #0]
    6b76:	685b      	ldr	r3, [r3, #4]
    6b78:	f107 0210 	add.w	r2, r7, #16
    6b7c:	4619      	mov	r1, r3
    6b7e:	f7ff fe4c 	bl	681a <LPSPI_SetTransferConfigFlags>
    6b82:	683b      	ldr	r3, [r7, #0]
    6b84:	681b      	ldr	r3, [r3, #0]
    6b86:	681b      	ldr	r3, [r3, #0]
    6b88:	4618      	mov	r0, r3
    6b8a:	f7ff fcbe 	bl	650a <LPSPI_IsMaster>
    6b8e:	4603      	mov	r3, r0
    6b90:	2b00      	cmp	r3, #0
    6b92:	d00c      	beq.n	6bae <LPSPI_InterruptTransfer+0x74>
    6b94:	683b      	ldr	r3, [r7, #0]
    6b96:	681b      	ldr	r3, [r3, #0]
    6b98:	6818      	ldr	r0, [r3, #0]
    6b9a:	683b      	ldr	r3, [r7, #0]
    6b9c:	685b      	ldr	r3, [r3, #4]
    6b9e:	4619      	mov	r1, r3
    6ba0:	f107 0310 	add.w	r3, r7, #16
    6ba4:	461a      	mov	r2, r3
    6ba6:	f7fb fb3f 	bl	2228 <LPSPI_MasterTransferNonBlocking>
    6baa:	6238      	str	r0, [r7, #32]
    6bac:	e00b      	b.n	6bc6 <LPSPI_InterruptTransfer+0x8c>
    6bae:	683b      	ldr	r3, [r7, #0]
    6bb0:	681b      	ldr	r3, [r3, #0]
    6bb2:	6818      	ldr	r0, [r3, #0]
    6bb4:	683b      	ldr	r3, [r7, #0]
    6bb6:	685b      	ldr	r3, [r3, #4]
    6bb8:	4619      	mov	r1, r3
    6bba:	f107 0310 	add.w	r3, r7, #16
    6bbe:	461a      	mov	r2, r3
    6bc0:	f7fb fe74 	bl	28ac <LPSPI_SlaveTransferNonBlocking>
    6bc4:	6238      	str	r0, [r7, #32]
    6bc6:	6a3b      	ldr	r3, [r7, #32]
    6bc8:	2b04      	cmp	r3, #4
    6bca:	d009      	beq.n	6be0 <LPSPI_InterruptTransfer+0xa6>
    6bcc:	6a3b      	ldr	r3, [r7, #32]
    6bce:	f5b3 7fc8 	cmp.w	r3, #400	; 0x190
    6bd2:	d009      	beq.n	6be8 <LPSPI_InterruptTransfer+0xae>
    6bd4:	6a3b      	ldr	r3, [r7, #32]
    6bd6:	2b00      	cmp	r3, #0
    6bd8:	d10a      	bne.n	6bf0 <LPSPI_InterruptTransfer+0xb6>
    6bda:	2300      	movs	r3, #0
    6bdc:	627b      	str	r3, [r7, #36]	; 0x24
    6bde:	e00b      	b.n	6bf8 <LPSPI_InterruptTransfer+0xbe>
    6be0:	f06f 0304 	mvn.w	r3, #4
    6be4:	627b      	str	r3, [r7, #36]	; 0x24
    6be6:	e007      	b.n	6bf8 <LPSPI_InterruptTransfer+0xbe>
    6be8:	f06f 0301 	mvn.w	r3, #1
    6bec:	627b      	str	r3, [r7, #36]	; 0x24
    6bee:	e003      	b.n	6bf8 <LPSPI_InterruptTransfer+0xbe>
    6bf0:	f04f 33ff 	mov.w	r3, #4294967295
    6bf4:	627b      	str	r3, [r7, #36]	; 0x24
    6bf6:	bf00      	nop
    6bf8:	6a7b      	ldr	r3, [r7, #36]	; 0x24
    6bfa:	4618      	mov	r0, r3
    6bfc:	3728      	adds	r7, #40	; 0x28
    6bfe:	46bd      	mov	sp, r7
    6c00:	bd80      	pop	{r7, pc}

00006c02 <LPSPI_InterruptGetCount>:
    6c02:	b580      	push	{r7, lr}
    6c04:	b082      	sub	sp, #8
    6c06:	af00      	add	r7, sp, #0
    6c08:	6078      	str	r0, [r7, #4]
    6c0a:	687b      	ldr	r3, [r7, #4]
    6c0c:	681b      	ldr	r3, [r3, #0]
    6c0e:	681b      	ldr	r3, [r3, #0]
    6c10:	4618      	mov	r0, r3
    6c12:	f7ff fc7a 	bl	650a <LPSPI_IsMaster>
    6c16:	4603      	mov	r3, r0
    6c18:	2b00      	cmp	r3, #0
    6c1a:	d007      	beq.n	6c2c <LPSPI_InterruptGetCount+0x2a>
    6c1c:	687b      	ldr	r3, [r7, #4]
    6c1e:	685b      	ldr	r3, [r3, #4]
    6c20:	6a1a      	ldr	r2, [r3, #32]
    6c22:	687b      	ldr	r3, [r7, #4]
    6c24:	685b      	ldr	r3, [r3, #4]
    6c26:	695b      	ldr	r3, [r3, #20]
    6c28:	1ad3      	subs	r3, r2, r3
    6c2a:	e006      	b.n	6c3a <LPSPI_InterruptGetCount+0x38>
    6c2c:	687b      	ldr	r3, [r7, #4]
    6c2e:	685b      	ldr	r3, [r3, #4]
    6c30:	6a1a      	ldr	r2, [r3, #32]
    6c32:	687b      	ldr	r3, [r7, #4]
    6c34:	685b      	ldr	r3, [r3, #4]
    6c36:	695b      	ldr	r3, [r3, #20]
    6c38:	1ad3      	subs	r3, r2, r3
    6c3a:	4618      	mov	r0, r3
    6c3c:	3708      	adds	r7, #8
    6c3e:	46bd      	mov	sp, r7
    6c40:	bd80      	pop	{r7, pc}

00006c42 <LPSPI_InterruptGetStatus>:
    6c42:	b580      	push	{r7, lr}
    6c44:	b084      	sub	sp, #16
    6c46:	af00      	add	r7, sp, #0
    6c48:	6078      	str	r0, [r7, #4]
    6c4a:	687b      	ldr	r3, [r7, #4]
    6c4c:	681b      	ldr	r3, [r3, #0]
    6c4e:	681b      	ldr	r3, [r3, #0]
    6c50:	4618      	mov	r0, r3
    6c52:	f7ff fc5a 	bl	650a <LPSPI_IsMaster>
    6c56:	4603      	mov	r3, r0
    6c58:	2b00      	cmp	r3, #0
    6c5a:	d01f      	beq.n	6c9c <LPSPI_InterruptGetStatus+0x5a>
    6c5c:	687b      	ldr	r3, [r7, #4]
    6c5e:	685b      	ldr	r3, [r3, #4]
    6c60:	695b      	ldr	r3, [r3, #20]
    6c62:	2b00      	cmp	r3, #0
    6c64:	d104      	bne.n	6c70 <LPSPI_InterruptGetStatus+0x2e>
    6c66:	687b      	ldr	r3, [r7, #4]
    6c68:	685b      	ldr	r3, [r3, #4]
    6c6a:	691b      	ldr	r3, [r3, #16]
    6c6c:	2b00      	cmp	r3, #0
    6c6e:	d001      	beq.n	6c74 <LPSPI_InterruptGetStatus+0x32>
    6c70:	2201      	movs	r2, #1
    6c72:	e000      	b.n	6c76 <LPSPI_InterruptGetStatus+0x34>
    6c74:	2200      	movs	r2, #0
    6c76:	68fb      	ldr	r3, [r7, #12]
    6c78:	f362 0300 	bfi	r3, r2, #0, #1
    6c7c:	60fb      	str	r3, [r7, #12]
    6c7e:	687b      	ldr	r3, [r7, #4]
    6c80:	685b      	ldr	r3, [r3, #4]
    6c82:	f893 3028 	ldrb.w	r3, [r3, #40]	; 0x28
    6c86:	b2db      	uxtb	r3, r3
    6c88:	2b02      	cmp	r3, #2
    6c8a:	d101      	bne.n	6c90 <LPSPI_InterruptGetStatus+0x4e>
    6c8c:	2201      	movs	r2, #1
    6c8e:	e000      	b.n	6c92 <LPSPI_InterruptGetStatus+0x50>
    6c90:	2200      	movs	r2, #0
    6c92:	68fb      	ldr	r3, [r7, #12]
    6c94:	f362 0341 	bfi	r3, r2, #1, #1
    6c98:	60fb      	str	r3, [r7, #12]
    6c9a:	e01e      	b.n	6cda <LPSPI_InterruptGetStatus+0x98>
    6c9c:	687b      	ldr	r3, [r7, #4]
    6c9e:	685b      	ldr	r3, [r3, #4]
    6ca0:	695b      	ldr	r3, [r3, #20]
    6ca2:	2b00      	cmp	r3, #0
    6ca4:	d104      	bne.n	6cb0 <LPSPI_InterruptGetStatus+0x6e>
    6ca6:	687b      	ldr	r3, [r7, #4]
    6ca8:	685b      	ldr	r3, [r3, #4]
    6caa:	691b      	ldr	r3, [r3, #16]
    6cac:	2b00      	cmp	r3, #0
    6cae:	d001      	beq.n	6cb4 <LPSPI_InterruptGetStatus+0x72>
    6cb0:	2201      	movs	r2, #1
    6cb2:	e000      	b.n	6cb6 <LPSPI_InterruptGetStatus+0x74>
    6cb4:	2200      	movs	r2, #0
    6cb6:	68fb      	ldr	r3, [r7, #12]
    6cb8:	f362 0300 	bfi	r3, r2, #0, #1
    6cbc:	60fb      	str	r3, [r7, #12]
    6cbe:	687b      	ldr	r3, [r7, #4]
    6cc0:	685b      	ldr	r3, [r3, #4]
    6cc2:	f893 3024 	ldrb.w	r3, [r3, #36]	; 0x24
    6cc6:	b2db      	uxtb	r3, r3
    6cc8:	2b02      	cmp	r3, #2
    6cca:	d101      	bne.n	6cd0 <LPSPI_InterruptGetStatus+0x8e>
    6ccc:	2201      	movs	r2, #1
    6cce:	e000      	b.n	6cd2 <LPSPI_InterruptGetStatus+0x90>
    6cd0:	2200      	movs	r2, #0
    6cd2:	68fb      	ldr	r3, [r7, #12]
    6cd4:	f362 0341 	bfi	r3, r2, #1, #1
    6cd8:	60fb      	str	r3, [r7, #12]
    6cda:	68fb      	ldr	r3, [r7, #12]
    6cdc:	f36f 0382 	bfc	r3, #2, #1
    6ce0:	60fb      	str	r3, [r7, #12]
    6ce2:	68fb      	ldr	r3, [r7, #12]
    6ce4:	f36f 03df 	bfc	r3, #3, #29
    6ce8:	60fb      	str	r3, [r7, #12]
    6cea:	68fb      	ldr	r3, [r7, #12]
    6cec:	4618      	mov	r0, r3
    6cee:	3710      	adds	r7, #16
    6cf0:	46bd      	mov	sp, r7
    6cf2:	bd80      	pop	{r7, pc}

00006cf4 <CLOCK_EnableClock>:
    6cf4:	b580      	push	{r7, lr}
    6cf6:	b082      	sub	sp, #8
    6cf8:	af00      	add	r7, sp, #0
    6cfa:	4603      	mov	r3, r0
    6cfc:	80fb      	strh	r3, [r7, #6]
    6cfe:	f9b7 3006 	ldrsh.w	r3, [r7, #6]
    6d02:	2103      	movs	r1, #3
    6d04:	4618      	mov	r0, r3
    6d06:	f7fc fd8b 	bl	3820 <CLOCK_ControlGate>
    6d0a:	bf00      	nop
    6d0c:	3708      	adds	r7, #8
    6d0e:	46bd      	mov	sp, r7
    6d10:	bd80      	pop	{r7, pc}

00006d12 <LPUART_SoftwareReset>:
    6d12:	b480      	push	{r7}
    6d14:	b083      	sub	sp, #12
    6d16:	af00      	add	r7, sp, #0
    6d18:	6078      	str	r0, [r7, #4]
    6d1a:	687b      	ldr	r3, [r7, #4]
    6d1c:	689b      	ldr	r3, [r3, #8]
    6d1e:	f043 0202 	orr.w	r2, r3, #2
    6d22:	687b      	ldr	r3, [r7, #4]
    6d24:	609a      	str	r2, [r3, #8]
    6d26:	687b      	ldr	r3, [r7, #4]
    6d28:	689b      	ldr	r3, [r3, #8]
    6d2a:	f023 0202 	bic.w	r2, r3, #2
    6d2e:	687b      	ldr	r3, [r7, #4]
    6d30:	609a      	str	r2, [r3, #8]
    6d32:	bf00      	nop
    6d34:	370c      	adds	r7, #12
    6d36:	46bd      	mov	sp, r7
    6d38:	f85d 7b04 	ldr.w	r7, [sp], #4
    6d3c:	4770      	bx	lr

00006d3e <SystemInitHook>:
    6d3e:	b480      	push	{r7}
    6d40:	af00      	add	r7, sp, #0
    6d42:	bf00      	nop
    6d44:	46bd      	mov	sp, r7
    6d46:	f85d 7b04 	ldr.w	r7, [sp], #4
    6d4a:	4770      	bx	lr

00006d4c <HAL_UartGetStatus>:
    6d4c:	b480      	push	{r7}
    6d4e:	b083      	sub	sp, #12
    6d50:	af00      	add	r7, sp, #0
    6d52:	6078      	str	r0, [r7, #4]
    6d54:	687b      	ldr	r3, [r7, #4]
    6d56:	2b00      	cmp	r3, #0
    6d58:	d101      	bne.n	6d5e <HAL_UartGetStatus+0x12>
    6d5a:	2300      	movs	r3, #0
    6d5c:	e001      	b.n	6d62 <HAL_UartGetStatus+0x16>
    6d5e:	f642 73af 	movw	r3, #12207	; 0x2faf
    6d62:	4618      	mov	r0, r3
    6d64:	370c      	adds	r7, #12
    6d66:	46bd      	mov	sp, r7
    6d68:	f85d 7b04 	ldr.w	r7, [sp], #4
    6d6c:	4770      	bx	lr

00006d6e <SerialManager_StartWriting>:
    6d6e:	b580      	push	{r7, lr}
    6d70:	b086      	sub	sp, #24
    6d72:	af00      	add	r7, sp, #0
    6d74:	60f8      	str	r0, [r7, #12]
    6d76:	60b9      	str	r1, [r7, #8]
    6d78:	607a      	str	r2, [r7, #4]
    6d7a:	603b      	str	r3, [r7, #0]
    6d7c:	f243 5321 	movw	r3, #13601	; 0x3521
    6d80:	82fb      	strh	r3, [r7, #22]
    6d82:	68bb      	ldr	r3, [r7, #8]
    6d84:	2b00      	cmp	r3, #0
    6d86:	d011      	beq.n	6dac <SerialManager_StartWriting+0x3e>
    6d88:	68fb      	ldr	r3, [r7, #12]
    6d8a:	7b1b      	ldrb	r3, [r3, #12]
    6d8c:	2b01      	cmp	r3, #1
    6d8e:	d109      	bne.n	6da4 <SerialManager_StartWriting+0x36>
    6d90:	68fb      	ldr	r3, [r7, #12]
    6d92:	3308      	adds	r3, #8
    6d94:	683a      	ldr	r2, [r7, #0]
    6d96:	6879      	ldr	r1, [r7, #4]
    6d98:	4618      	mov	r0, r3
    6d9a:	f7fd fab1 	bl	4300 <Serial_UartWrite>
    6d9e:	4603      	mov	r3, r0
    6da0:	82fb      	strh	r3, [r7, #22]
    6da2:	e004      	b.n	6dae <SerialManager_StartWriting+0x40>
    6da4:	f243 5321 	movw	r3, #13601	; 0x3521
    6da8:	82fb      	strh	r3, [r7, #22]
    6daa:	e000      	b.n	6dae <SerialManager_StartWriting+0x40>
    6dac:	bf00      	nop
    6dae:	8afb      	ldrh	r3, [r7, #22]
    6db0:	4618      	mov	r0, r3
    6db2:	3718      	adds	r7, #24
    6db4:	46bd      	mov	sp, r7
    6db6:	bd80      	pop	{r7, pc}

00006db8 <SerialManager_WriteBlocking>:
    6db8:	b580      	push	{r7, lr}
    6dba:	b084      	sub	sp, #16
    6dbc:	af00      	add	r7, sp, #0
    6dbe:	60f8      	str	r0, [r7, #12]
    6dc0:	60b9      	str	r1, [r7, #8]
    6dc2:	607a      	str	r2, [r7, #4]
    6dc4:	687a      	ldr	r2, [r7, #4]
    6dc6:	68b9      	ldr	r1, [r7, #8]
    6dc8:	68f8      	ldr	r0, [r7, #12]
    6dca:	f7fd f98d 	bl	40e8 <SerialManager_Write>
    6dce:	4603      	mov	r3, r0
    6dd0:	4618      	mov	r0, r3
    6dd2:	3710      	adds	r7, #16
    6dd4:	46bd      	mov	sp, r7
    6dd6:	bd80      	pop	{r7, pc}

00006dd8 <BOARD_InitDebugConsole>:
    6dd8:	b580      	push	{r7, lr}
    6dda:	b082      	sub	sp, #8
    6ddc:	af00      	add	r7, sp, #0
    6dde:	f7fd fc01 	bl	45e4 <BOARD_DebugConsoleSrcFreq>
    6de2:	6078      	str	r0, [r7, #4]
    6de4:	687b      	ldr	r3, [r7, #4]
    6de6:	2201      	movs	r2, #1
    6de8:	f44f 31e1 	mov.w	r1, #115200	; 0x1c200
    6dec:	2001      	movs	r0, #1
    6dee:	f7f9 fbf9 	bl	5e4 <DbgConsole_Init>
    6df2:	bf00      	nop
    6df4:	3708      	adds	r7, #8
    6df6:	46bd      	mov	sp, r7
    6df8:	bd80      	pop	{r7, pc}

00006dfa <CLOCK_DisableClock>:
    6dfa:	b580      	push	{r7, lr}
    6dfc:	b082      	sub	sp, #8
    6dfe:	af00      	add	r7, sp, #0
    6e00:	4603      	mov	r3, r0
    6e02:	80fb      	strh	r3, [r7, #6]
    6e04:	f9b7 3006 	ldrsh.w	r3, [r7, #6]
    6e08:	2100      	movs	r1, #0
    6e0a:	4618      	mov	r0, r3
    6e0c:	f7fd fd38 	bl	4880 <CLOCK_ControlGate>
    6e10:	bf00      	nop
    6e12:	3708      	adds	r7, #8
    6e14:	46bd      	mov	sp, r7
    6e16:	bd80      	pop	{r7, pc}

00006e18 <CLOCK_SetPllBypass>:
    6e18:	b480      	push	{r7}
    6e1a:	b085      	sub	sp, #20
    6e1c:	af00      	add	r7, sp, #0
    6e1e:	60f8      	str	r0, [r7, #12]
    6e20:	60b9      	str	r1, [r7, #8]
    6e22:	4613      	mov	r3, r2
    6e24:	71fb      	strb	r3, [r7, #7]
    6e26:	79fb      	ldrb	r3, [r7, #7]
    6e28:	2b00      	cmp	r3, #0
    6e2a:	d00b      	beq.n	6e44 <CLOCK_SetPllBypass+0x2c>
    6e2c:	68bb      	ldr	r3, [r7, #8]
    6e2e:	0c1b      	lsrs	r3, r3, #16
    6e30:	f3c3 020b 	ubfx	r2, r3, #0, #12
    6e34:	68fb      	ldr	r3, [r7, #12]
    6e36:	4413      	add	r3, r2
    6e38:	3304      	adds	r3, #4
    6e3a:	461a      	mov	r2, r3
    6e3c:	f44f 3380 	mov.w	r3, #65536	; 0x10000
    6e40:	6013      	str	r3, [r2, #0]
    6e42:	e00a      	b.n	6e5a <CLOCK_SetPllBypass+0x42>
    6e44:	68bb      	ldr	r3, [r7, #8]
    6e46:	0c1b      	lsrs	r3, r3, #16
    6e48:	f3c3 020b 	ubfx	r2, r3, #0, #12
    6e4c:	68fb      	ldr	r3, [r7, #12]
    6e4e:	4413      	add	r3, r2
    6e50:	3308      	adds	r3, #8
    6e52:	461a      	mov	r2, r3
    6e54:	f44f 3380 	mov.w	r3, #65536	; 0x10000
    6e58:	6013      	str	r3, [r2, #0]
    6e5a:	bf00      	nop
    6e5c:	3714      	adds	r7, #20
    6e5e:	46bd      	mov	sp, r7
    6e60:	f85d 7b04 	ldr.w	r7, [sp], #4
    6e64:	4770      	bx	lr

00006e66 <IOMUXC_SetSaiMClkClockSource>:
    6e66:	b480      	push	{r7}
    6e68:	b085      	sub	sp, #20
    6e6a:	af00      	add	r7, sp, #0
    6e6c:	6078      	str	r0, [r7, #4]
    6e6e:	460b      	mov	r3, r1
    6e70:	70fb      	strb	r3, [r7, #3]
    6e72:	4613      	mov	r3, r2
    6e74:	70bb      	strb	r3, [r7, #2]
    6e76:	78fb      	ldrb	r3, [r7, #3]
    6e78:	2b03      	cmp	r3, #3
    6e7a:	d912      	bls.n	6ea2 <IOMUXC_SetSaiMClkClockSource+0x3c>
    6e7c:	687b      	ldr	r3, [r7, #4]
    6e7e:	685a      	ldr	r2, [r3, #4]
    6e80:	78fb      	ldrb	r3, [r7, #3]
    6e82:	2103      	movs	r1, #3
    6e84:	fa01 f303 	lsl.w	r3, r1, r3
    6e88:	43db      	mvns	r3, r3
    6e8a:	4013      	ands	r3, r2
    6e8c:	60fb      	str	r3, [r7, #12]
    6e8e:	78bb      	ldrb	r3, [r7, #2]
    6e90:	f003 0203 	and.w	r2, r3, #3
    6e94:	78fb      	ldrb	r3, [r7, #3]
    6e96:	409a      	lsls	r2, r3
    6e98:	68fb      	ldr	r3, [r7, #12]
    6e9a:	431a      	orrs	r2, r3
    6e9c:	687b      	ldr	r3, [r7, #4]
    6e9e:	605a      	str	r2, [r3, #4]
    6ea0:	e011      	b.n	6ec6 <IOMUXC_SetSaiMClkClockSource+0x60>
    6ea2:	687b      	ldr	r3, [r7, #4]
    6ea4:	685a      	ldr	r2, [r3, #4]
    6ea6:	78fb      	ldrb	r3, [r7, #3]
    6ea8:	2107      	movs	r1, #7
    6eaa:	fa01 f303 	lsl.w	r3, r1, r3
    6eae:	43db      	mvns	r3, r3
    6eb0:	4013      	ands	r3, r2
    6eb2:	60fb      	str	r3, [r7, #12]
    6eb4:	78bb      	ldrb	r3, [r7, #2]
    6eb6:	f003 0207 	and.w	r2, r3, #7
    6eba:	78fb      	ldrb	r3, [r7, #3]
    6ebc:	409a      	lsls	r2, r3
    6ebe:	68fb      	ldr	r3, [r7, #12]
    6ec0:	431a      	orrs	r2, r3
    6ec2:	687b      	ldr	r3, [r7, #4]
    6ec4:	605a      	str	r2, [r3, #4]
    6ec6:	bf00      	nop
    6ec8:	3714      	adds	r7, #20
    6eca:	46bd      	mov	sp, r7
    6ecc:	f85d 7b04 	ldr.w	r7, [sp], #4
    6ed0:	4770      	bx	lr

00006ed2 <CLOCK_EnableClock>:
    6ed2:	b580      	push	{r7, lr}
    6ed4:	b082      	sub	sp, #8
    6ed6:	af00      	add	r7, sp, #0
    6ed8:	4603      	mov	r3, r0
    6eda:	80fb      	strh	r3, [r7, #6]
    6edc:	f9b7 3006 	ldrsh.w	r3, [r7, #6]
    6ee0:	2103      	movs	r1, #3
    6ee2:	4618      	mov	r0, r3
    6ee4:	f7fe f8a8 	bl	5038 <CLOCK_ControlGate>
    6ee8:	bf00      	nop
    6eea:	3708      	adds	r7, #8
    6eec:	46bd      	mov	sp, r7
    6eee:	bd80      	pop	{r7, pc}

00006ef0 <IOMUXC_SetPinMux>:
    6ef0:	b480      	push	{r7}
    6ef2:	b085      	sub	sp, #20
    6ef4:	af00      	add	r7, sp, #0
    6ef6:	60f8      	str	r0, [r7, #12]
    6ef8:	60b9      	str	r1, [r7, #8]
    6efa:	607a      	str	r2, [r7, #4]
    6efc:	603b      	str	r3, [r7, #0]
    6efe:	68bb      	ldr	r3, [r7, #8]
    6f00:	f003 010f 	and.w	r1, r3, #15
    6f04:	69fb      	ldr	r3, [r7, #28]
    6f06:	011b      	lsls	r3, r3, #4
    6f08:	f003 0210 	and.w	r2, r3, #16
    6f0c:	68fb      	ldr	r3, [r7, #12]
    6f0e:	430a      	orrs	r2, r1
    6f10:	601a      	str	r2, [r3, #0]
    6f12:	687b      	ldr	r3, [r7, #4]
    6f14:	2b00      	cmp	r3, #0
    6f16:	d002      	beq.n	6f1e <IOMUXC_SetPinMux+0x2e>
    6f18:	687b      	ldr	r3, [r7, #4]
    6f1a:	683a      	ldr	r2, [r7, #0]
    6f1c:	601a      	str	r2, [r3, #0]
    6f1e:	bf00      	nop
    6f20:	3714      	adds	r7, #20
    6f22:	46bd      	mov	sp, r7
    6f24:	f85d 7b04 	ldr.w	r7, [sp], #4
    6f28:	4770      	bx	lr

00006f2a <IOMUXC_SetPinConfig>:
    6f2a:	b480      	push	{r7}
    6f2c:	b085      	sub	sp, #20
    6f2e:	af00      	add	r7, sp, #0
    6f30:	60f8      	str	r0, [r7, #12]
    6f32:	60b9      	str	r1, [r7, #8]
    6f34:	607a      	str	r2, [r7, #4]
    6f36:	603b      	str	r3, [r7, #0]
    6f38:	69bb      	ldr	r3, [r7, #24]
    6f3a:	2b00      	cmp	r3, #0
    6f3c:	d002      	beq.n	6f44 <IOMUXC_SetPinConfig+0x1a>
    6f3e:	69bb      	ldr	r3, [r7, #24]
    6f40:	69fa      	ldr	r2, [r7, #28]
    6f42:	601a      	str	r2, [r3, #0]
    6f44:	bf00      	nop
    6f46:	3714      	adds	r7, #20
    6f48:	46bd      	mov	sp, r7
    6f4a:	f85d 7b04 	ldr.w	r7, [sp], #4
    6f4e:	4770      	bx	lr

00006f50 <LPSPI4_InitPins>:
    6f50:	b480      	push	{r7}
    6f52:	af00      	add	r7, sp, #0
    6f54:	bf00      	nop
    6f56:	46bd      	mov	sp, r7
    6f58:	f85d 7b04 	ldr.w	r7, [sp], #4
    6f5c:	4770      	bx	lr

00006f5e <LPSPI4_DeinitPins>:
    6f5e:	b480      	push	{r7}
    6f60:	af00      	add	r7, sp, #0
    6f62:	bf00      	nop
    6f64:	46bd      	mov	sp, r7
    6f66:	f85d 7b04 	ldr.w	r7, [sp], #4
    6f6a:	4770      	bx	lr

00006f6c <__main>:
    6f6c:	b508      	push	{r3, lr}
    6f6e:	f7fe fb23 	bl	55b8 <_initio>
    6f72:	e8bd 4008 	ldmia.w	sp!, {r3, lr}
    6f76:	f7f9 bbf1 	b.w	75c <main>

00006f7a <__sys_appexit>:
    6f7a:	e7fe      	b.n	6f7a <__sys_appexit>

00006f7c <memset>:
    6f7c:	f000 ba82 	b.w	7484 <__aeabi_lowlevel_memset>

00006f80 <_deferredlazyseek>:
    6f80:	68c3      	ldr	r3, [r0, #12]
    6f82:	6982      	ldr	r2, [r0, #24]
    6f84:	f023 0320 	bic.w	r3, r3, #32
    6f88:	b510      	push	{r4, lr}
    6f8a:	60c3      	str	r3, [r0, #12]
    6f8c:	4604      	mov	r4, r0
    6f8e:	6a83      	ldr	r3, [r0, #40]	; 0x28
    6f90:	429a      	cmp	r2, r3
    6f92:	d00e      	beq.n	6fb2 <_deferredlazyseek+0x32>
    6f94:	f000 f8b4 	bl	7100 <_fflush>
    6f98:	68e3      	ldr	r3, [r4, #12]
    6f9a:	f423 5340 	bic.w	r3, r3, #12288	; 0x3000
    6f9e:	f023 0310 	bic.w	r3, r3, #16
    6fa2:	f043 0310 	orr.w	r3, r3, #16
    6fa6:	60e3      	str	r3, [r4, #12]
    6fa8:	6aa3      	ldr	r3, [r4, #40]	; 0x28
    6faa:	61a3      	str	r3, [r4, #24]
    6fac:	6923      	ldr	r3, [r4, #16]
    6fae:	62e3      	str	r3, [r4, #44]	; 0x2c
    6fb0:	6023      	str	r3, [r4, #0]
    6fb2:	68e3      	ldr	r3, [r4, #12]
    6fb4:	f423 4380 	bic.w	r3, r3, #16384	; 0x4000
    6fb8:	f023 0340 	bic.w	r3, r3, #64	; 0x40
    6fbc:	60e3      	str	r3, [r4, #12]
    6fbe:	bd10      	pop	{r4, pc}

00006fc0 <__flsbuf>:
    6fc0:	68cb      	ldr	r3, [r1, #12]
    6fc2:	f423 2200 	bic.w	r2, r3, #524288	; 0x80000
    6fc6:	b570      	push	{r4, r5, r6, lr}
    6fc8:	460c      	mov	r4, r1
    6fca:	60ca      	str	r2, [r1, #12]
    6fcc:	0699      	lsls	r1, r3, #26
    6fce:	4605      	mov	r5, r0
    6fd0:	d502      	bpl.n	6fd8 <__flsbuf+0x18>
    6fd2:	4620      	mov	r0, r4
    6fd4:	f7ff ffd4 	bl	6f80 <_deferredlazyseek>
    6fd8:	e9d4 3602 	ldrd	r3, r6, [r4, #8]
    6fdc:	1c5a      	adds	r2, r3, #1
    6fde:	da10      	bge.n	7002 <__flsbuf+0x42>
    6fe0:	05b0      	lsls	r0, r6, #22
    6fe2:	d40e      	bmi.n	7002 <__flsbuf+0x42>
    6fe4:	f1c3 23ff 	rsb	r3, r3, #4278255360	; 0xff00ff00
    6fe8:	f446 3690 	orr.w	r6, r6, #73728	; 0x12000
    6fec:	f503 037f 	add.w	r3, r3, #16711680	; 0xff0000
    6ff0:	60e6      	str	r6, [r4, #12]
    6ff2:	33fe      	adds	r3, #254	; 0xfe
    6ff4:	60a3      	str	r3, [r4, #8]
    6ff6:	6823      	ldr	r3, [r4, #0]
    6ff8:	1c5a      	adds	r2, r3, #1
    6ffa:	6022      	str	r2, [r4, #0]
    6ffc:	701d      	strb	r5, [r3, #0]
    6ffe:	b2e8      	uxtb	r0, r5
    7000:	bd70      	pop	{r4, r5, r6, pc}
    7002:	f241 028a 	movw	r2, #4234	; 0x108a
    7006:	4032      	ands	r2, r6
    7008:	2a02      	cmp	r2, #2
    700a:	d007      	beq.n	701c <__flsbuf+0x5c>
    700c:	2300      	movs	r3, #0
    700e:	f046 0680 	orr.w	r6, r6, #128	; 0x80
    7012:	60a3      	str	r3, [r4, #8]
    7014:	60e6      	str	r6, [r4, #12]
    7016:	f04f 30ff 	mov.w	r0, #4294967295
    701a:	e7f1      	b.n	7000 <__flsbuf+0x40>
    701c:	f24a 0310 	movw	r3, #40976	; 0xa010
    7020:	4033      	ands	r3, r6
    7022:	f5b3 4f00 	cmp.w	r3, #32768	; 0x8000
    7026:	d10a      	bne.n	703e <__flsbuf+0x7e>
    7028:	2100      	movs	r1, #0
    702a:	4620      	mov	r0, r4
    702c:	f7fe fa20 	bl	5470 <fseek>
    7030:	68e3      	ldr	r3, [r4, #12]
    7032:	0699      	lsls	r1, r3, #26
    7034:	d502      	bpl.n	703c <__flsbuf+0x7c>
    7036:	4620      	mov	r0, r4
    7038:	f7ff ffa2 	bl	6f80 <_deferredlazyseek>
    703c:	68e6      	ldr	r6, [r4, #12]
    703e:	f446 3390 	orr.w	r3, r6, #73728	; 0x12000
    7042:	f416 6f70 	tst.w	r6, #3840	; 0xf00
    7046:	60e3      	str	r3, [r4, #12]
    7048:	d10e      	bne.n	7068 <__flsbuf+0xa8>
    704a:	6960      	ldr	r0, [r4, #20]
    704c:	f000 fa39 	bl	74c2 <__sys_istty>
    7050:	b300      	cbz	r0, 7094 <__flsbuf+0xd4>
    7052:	0572      	lsls	r2, r6, #21
    7054:	d51e      	bpl.n	7094 <__flsbuf+0xd4>
    7056:	f104 0324 	add.w	r3, r4, #36	; 0x24
    705a:	6123      	str	r3, [r4, #16]
    705c:	6023      	str	r3, [r4, #0]
    705e:	2301      	movs	r3, #1
    7060:	61e3      	str	r3, [r4, #28]
    7062:	f446 3392 	orr.w	r3, r6, #74752	; 0x12400
    7066:	60e3      	str	r3, [r4, #12]
    7068:	f413 6f10 	tst.w	r3, #2304	; 0x900
    706c:	6821      	ldr	r1, [r4, #0]
    706e:	6926      	ldr	r6, [r4, #16]
    7070:	d026      	beq.n	70c0 <__flsbuf+0x100>
    7072:	6ae3      	ldr	r3, [r4, #44]	; 0x2c
    7074:	4299      	cmp	r1, r3
    7076:	bf2c      	ite	cs
    7078:	ebc6 0101 	rsbcs	r1, r6, r1
    707c:	ebc6 0103 	rsbcc	r1, r6, r3
    7080:	b9b9      	cbnz	r1, 70b2 <__flsbuf+0xf2>
    7082:	1c73      	adds	r3, r6, #1
    7084:	62e3      	str	r3, [r4, #44]	; 0x2c
    7086:	6023      	str	r3, [r4, #0]
    7088:	69e3      	ldr	r3, [r4, #28]
    708a:	1e5a      	subs	r2, r3, #1
    708c:	6323      	str	r3, [r4, #48]	; 0x30
    708e:	60a2      	str	r2, [r4, #8]
    7090:	7035      	strb	r5, [r6, #0]
    7092:	e7b4      	b.n	6ffe <__flsbuf+0x3e>
    7094:	f44f 7080 	mov.w	r0, #256	; 0x100
    7098:	f7fe f9da 	bl	5450 <_Csys_alloc>
    709c:	f44f 7380 	mov.w	r3, #256	; 0x100
    70a0:	68e2      	ldr	r2, [r4, #12]
    70a2:	61e3      	str	r3, [r4, #28]
    70a4:	f446 3394 	orr.w	r3, r6, #75776	; 0x12800
    70a8:	6120      	str	r0, [r4, #16]
    70aa:	431a      	orrs	r2, r3
    70ac:	6020      	str	r0, [r4, #0]
    70ae:	60e2      	str	r2, [r4, #12]
    70b0:	e7da      	b.n	7068 <__flsbuf+0xa8>
    70b2:	4622      	mov	r2, r4
    70b4:	4630      	mov	r0, r6
    70b6:	f7fe f931 	bl	531c <_Cwritebuf>
    70ba:	2800      	cmp	r0, #0
    70bc:	d0e1      	beq.n	7082 <__flsbuf+0xc2>
    70be:	e7aa      	b.n	7016 <__flsbuf+0x56>
    70c0:	1c4a      	adds	r2, r1, #1
    70c2:	b2ed      	uxtb	r5, r5
    70c4:	6022      	str	r2, [r4, #0]
    70c6:	700d      	strb	r5, [r1, #0]
    70c8:	6ae2      	ldr	r2, [r4, #44]	; 0x2c
    70ca:	6821      	ldr	r1, [r4, #0]
    70cc:	4291      	cmp	r1, r2
    70ce:	bf2c      	ite	cs
    70d0:	ebc6 0101 	rsbcs	r1, r6, r1
    70d4:	ebc6 0102 	rsbcc	r1, r6, r2
    70d8:	69e2      	ldr	r2, [r4, #28]
    70da:	055b      	lsls	r3, r3, #21
    70dc:	6322      	str	r2, [r4, #48]	; 0x30
    70de:	d403      	bmi.n	70e8 <__flsbuf+0x128>
    70e0:	2d0a      	cmp	r5, #10
    70e2:	d001      	beq.n	70e8 <__flsbuf+0x128>
    70e4:	428a      	cmp	r2, r1
    70e6:	dc09      	bgt.n	70fc <__flsbuf+0x13c>
    70e8:	2300      	movs	r3, #0
    70ea:	62e6      	str	r6, [r4, #44]	; 0x2c
    70ec:	6026      	str	r6, [r4, #0]
    70ee:	4622      	mov	r2, r4
    70f0:	60a3      	str	r3, [r4, #8]
    70f2:	4630      	mov	r0, r6
    70f4:	f7fe f912 	bl	531c <_Cwritebuf>
    70f8:	2800      	cmp	r0, #0
    70fa:	d18c      	bne.n	7016 <__flsbuf+0x56>
    70fc:	4628      	mov	r0, r5
    70fe:	e77f      	b.n	7000 <__flsbuf+0x40>

00007100 <_fflush>:
    7100:	b538      	push	{r3, r4, r5, lr}
    7102:	6801      	ldr	r1, [r0, #0]
    7104:	4604      	mov	r4, r0
    7106:	6905      	ldr	r5, [r0, #16]
    7108:	6ac3      	ldr	r3, [r0, #44]	; 0x2c
    710a:	68c0      	ldr	r0, [r0, #12]
    710c:	f420 2200 	bic.w	r2, r0, #524288	; 0x80000
    7110:	60e2      	str	r2, [r4, #12]
    7112:	f000 0282 	and.w	r2, r0, #130	; 0x82
    7116:	2a02      	cmp	r2, #2
    7118:	d002      	beq.n	7120 <_fflush+0x20>
    711a:	f04f 30ff 	mov.w	r0, #4294967295
    711e:	bd38      	pop	{r3, r4, r5, pc}
    7120:	f410 3080 	ands.w	r0, r0, #65536	; 0x10000
    7124:	d0fb      	beq.n	711e <_fflush+0x1e>
    7126:	4299      	cmp	r1, r3
    7128:	bf38      	it	cc
    712a:	4619      	movcc	r1, r3
    712c:	428d      	cmp	r5, r1
    712e:	d108      	bne.n	7142 <_fflush+0x42>
    7130:	68e3      	ldr	r3, [r4, #12]
    7132:	2000      	movs	r0, #0
    7134:	62e5      	str	r5, [r4, #44]	; 0x2c
    7136:	f423 3380 	bic.w	r3, r3, #65536	; 0x10000
    713a:	6025      	str	r5, [r4, #0]
    713c:	60a0      	str	r0, [r4, #8]
    713e:	60e3      	str	r3, [r4, #12]
    7140:	e7ed      	b.n	711e <_fflush+0x1e>
    7142:	4622      	mov	r2, r4
    7144:	1b49      	subs	r1, r1, r5
    7146:	4628      	mov	r0, r5
    7148:	f7fe f8e8 	bl	531c <_Cwritebuf>
    714c:	2800      	cmp	r0, #0
    714e:	d0ef      	beq.n	7130 <_fflush+0x30>
    7150:	e7e3      	b.n	711a <_fflush+0x1a>

00007152 <free>:
    7152:	b1a8      	cbz	r0, 7180 <free+0x2e>
    7154:	f04f 5380 	mov.w	r3, #268435456	; 0x10000000
    7158:	f840 3c0c 	str.w	r3, [r0, #-12]
    715c:	f850 2c04 	ldr.w	r2, [r0, #-4]
    7160:	b172      	cbz	r2, 7180 <free+0x2e>
    7162:	6813      	ldr	r3, [r2, #0]
    7164:	f1b3 5f80 	cmp.w	r3, #268435456	; 0x10000000
    7168:	d10a      	bne.n	7180 <free+0x2e>
    716a:	f850 3c08 	ldr.w	r3, [r0, #-8]
    716e:	6851      	ldr	r1, [r2, #4]
    7170:	3303      	adds	r3, #3
    7172:	440b      	add	r3, r1
    7174:	f840 3c08 	str.w	r3, [r0, #-8]
    7178:	6893      	ldr	r3, [r2, #8]
    717a:	f840 3c04 	str.w	r3, [r0, #-4]
    717e:	e7ed      	b.n	715c <free+0xa>
    7180:	4770      	bx	lr

00007182 <fputs>:
    7182:	b538      	push	{r3, r4, r5, lr}
    7184:	4605      	mov	r5, r0
    7186:	460c      	mov	r4, r1
    7188:	f815 0b01 	ldrb.w	r0, [r5], #1
    718c:	b170      	cbz	r0, 71ac <fputs+0x2a>
    718e:	68a3      	ldr	r3, [r4, #8]
    7190:	3b01      	subs	r3, #1
    7192:	2b00      	cmp	r3, #0
    7194:	60a3      	str	r3, [r4, #8]
    7196:	db04      	blt.n	71a2 <fputs+0x20>
    7198:	6823      	ldr	r3, [r4, #0]
    719a:	1c5a      	adds	r2, r3, #1
    719c:	6022      	str	r2, [r4, #0]
    719e:	7018      	strb	r0, [r3, #0]
    71a0:	e7f2      	b.n	7188 <fputs+0x6>
    71a2:	4621      	mov	r1, r4
    71a4:	f7ff ff0c 	bl	6fc0 <__flsbuf>
    71a8:	1c43      	adds	r3, r0, #1
    71aa:	d1ed      	bne.n	7188 <fputs+0x6>
    71ac:	bd38      	pop	{r3, r4, r5, pc}

000071ae <strlen>:
    71ae:	1c42      	adds	r2, r0, #1
    71b0:	b510      	push	{r4, lr}
    71b2:	0783      	lsls	r3, r0, #30
    71b4:	4604      	mov	r4, r0
    71b6:	d116      	bne.n	71e6 <strlen+0x38>
    71b8:	4623      	mov	r3, r4
    71ba:	f854 1b04 	ldr.w	r1, [r4], #4
    71be:	f1a1 3001 	sub.w	r0, r1, #16843009	; 0x1010101
    71c2:	ea20 0001 	bic.w	r0, r0, r1
    71c6:	f010 3f80 	tst.w	r0, #2155905152	; 0x80808080
    71ca:	d0f5      	beq.n	71b8 <strlen+0xa>
    71cc:	f011 0fff 	tst.w	r1, #255	; 0xff
    71d0:	d011      	beq.n	71f6 <strlen+0x48>
    71d2:	f411 4f7f 	tst.w	r1, #65280	; 0xff00
    71d6:	d00c      	beq.n	71f2 <strlen+0x44>
    71d8:	f411 0f7f 	tst.w	r1, #16711680	; 0xff0000
    71dc:	bf14      	ite	ne
    71de:	4623      	movne	r3, r4
    71e0:	3303      	addeq	r3, #3
    71e2:	1a98      	subs	r0, r3, r2
    71e4:	e004      	b.n	71f0 <strlen+0x42>
    71e6:	f810 3b01 	ldrb.w	r3, [r0], #1
    71ea:	2b00      	cmp	r3, #0
    71ec:	d1e1      	bne.n	71b2 <strlen+0x4>
    71ee:	1a80      	subs	r0, r0, r2
    71f0:	bd10      	pop	{r4, pc}
    71f2:	3302      	adds	r3, #2
    71f4:	e7f5      	b.n	71e2 <strlen+0x34>
    71f6:	3301      	adds	r3, #1
    71f8:	e7f3      	b.n	71e2 <strlen+0x34>

000071fa <_fdopen>:
    71fa:	b570      	push	{r4, r5, r6, lr}
    71fc:	460d      	mov	r5, r1
    71fe:	4606      	mov	r6, r0
    7200:	4610      	mov	r0, r2
    7202:	4614      	mov	r4, r2
    7204:	f000 f82d 	bl	7262 <fclose>
    7208:	782b      	ldrb	r3, [r5, #0]
    720a:	2b72      	cmp	r3, #114	; 0x72
    720c:	d017      	beq.n	723e <_fdopen+0x44>
    720e:	2b77      	cmp	r3, #119	; 0x77
    7210:	d018      	beq.n	7244 <_fdopen+0x4a>
    7212:	2b61      	cmp	r3, #97	; 0x61
    7214:	d123      	bne.n	725e <_fdopen+0x64>
    7216:	2308      	movs	r3, #8
    7218:	f248 0202 	movw	r2, #32770	; 0x8002
    721c:	f815 1f01 	ldrb.w	r1, [r5, #1]!
    7220:	292b      	cmp	r1, #43	; 0x2b
    7222:	d012      	beq.n	724a <_fdopen+0x50>
    7224:	2962      	cmp	r1, #98	; 0x62
    7226:	d015      	beq.n	7254 <_fdopen+0x5a>
    7228:	071b      	lsls	r3, r3, #28
    722a:	60e2      	str	r2, [r4, #12]
    722c:	6166      	str	r6, [r4, #20]
    722e:	d504      	bpl.n	723a <_fdopen+0x40>
    7230:	2202      	movs	r2, #2
    7232:	2100      	movs	r1, #0
    7234:	4620      	mov	r0, r4
    7236:	f7fe f91b 	bl	5470 <fseek>
    723a:	4620      	mov	r0, r4
    723c:	bd70      	pop	{r4, r5, r6, pc}
    723e:	2300      	movs	r3, #0
    7240:	2201      	movs	r2, #1
    7242:	e7eb      	b.n	721c <_fdopen+0x22>
    7244:	2304      	movs	r3, #4
    7246:	2202      	movs	r2, #2
    7248:	e7e8      	b.n	721c <_fdopen+0x22>
    724a:	f042 0203 	orr.w	r2, r2, #3
    724e:	f043 0302 	orr.w	r3, r3, #2
    7252:	e7e3      	b.n	721c <_fdopen+0x22>
    7254:	f042 0204 	orr.w	r2, r2, #4
    7258:	f043 0301 	orr.w	r3, r3, #1
    725c:	e7de      	b.n	721c <_fdopen+0x22>
    725e:	2400      	movs	r4, #0
    7260:	e7eb      	b.n	723a <_fdopen+0x40>

00007262 <fclose>:
    7262:	b5f0      	push	{r4, r5, r6, r7, lr}
    7264:	68c4      	ldr	r4, [r0, #12]
    7266:	b089      	sub	sp, #36	; 0x24
    7268:	4605      	mov	r5, r0
    726a:	07a1      	lsls	r1, r4, #30
    726c:	d022      	beq.n	72b4 <fclose+0x52>
    726e:	0722      	lsls	r2, r4, #28
    7270:	d418      	bmi.n	72a4 <fclose+0x42>
    7272:	e9d0 6704 	ldrd	r6, r7, [r0, #16]
    7276:	f7fe fa19 	bl	56ac <fflush>
    727a:	4638      	mov	r0, r7
    727c:	f000 f91b 	bl	74b6 <__sys_close>
    7280:	0523      	lsls	r3, r4, #20
    7282:	d502      	bpl.n	728a <fclose+0x28>
    7284:	4630      	mov	r0, r6
    7286:	f7ff ff64 	bl	7152 <free>
    728a:	0da4      	lsrs	r4, r4, #22
    728c:	05a4      	lsls	r4, r4, #22
    728e:	f114 4fa5 	cmn.w	r4, #1384120320	; 0x52800000
    7292:	d107      	bne.n	72a4 <fclose+0x42>
    7294:	2220      	movs	r2, #32
    7296:	6a29      	ldr	r1, [r5, #32]
    7298:	4668      	mov	r0, sp
    729a:	f000 f91b 	bl	74d4 <__sys_tmpnam>
    729e:	4668      	mov	r0, sp
    72a0:	f000 f80b 	bl	72ba <remove>
    72a4:	223c      	movs	r2, #60	; 0x3c
    72a6:	2100      	movs	r1, #0
    72a8:	4628      	mov	r0, r5
    72aa:	f7ff fe67 	bl	6f7c <memset>
    72ae:	2000      	movs	r0, #0
    72b0:	b009      	add	sp, #36	; 0x24
    72b2:	bdf0      	pop	{r4, r5, r6, r7, pc}
    72b4:	f04f 30ff 	mov.w	r0, #4294967295
    72b8:	e7fa      	b.n	72b0 <fclose+0x4e>

000072ba <remove>:
    72ba:	b510      	push	{r4, lr}
    72bc:	4604      	mov	r4, r0
    72be:	f7ff ff76 	bl	71ae <strlen>
    72c2:	4601      	mov	r1, r0
    72c4:	4620      	mov	r0, r4
    72c6:	e8bd 4010 	ldmia.w	sp!, {r4, lr}
    72ca:	f000 b8fd 	b.w	74c8 <__sys_remove>

000072ce <_do_fflush>:
    72ce:	68c3      	ldr	r3, [r0, #12]
    72d0:	b570      	push	{r4, r5, r6, lr}
    72d2:	f013 0603 	ands.w	r6, r3, #3
    72d6:	4604      	mov	r4, r0
    72d8:	d011      	beq.n	72fe <_do_fflush+0x30>
    72da:	069b      	lsls	r3, r3, #26
    72dc:	d511      	bpl.n	7302 <_do_fflush+0x34>
    72de:	6a85      	ldr	r5, [r0, #40]	; 0x28
    72e0:	f7ff fe4e 	bl	6f80 <_deferredlazyseek>
    72e4:	68e3      	ldr	r3, [r4, #12]
    72e6:	4620      	mov	r0, r4
    72e8:	f423 5340 	bic.w	r3, r3, #12288	; 0x3000
    72ec:	60e3      	str	r3, [r4, #12]
    72ee:	f7ff ff07 	bl	7100 <_fflush>
    72f2:	2200      	movs	r2, #0
    72f4:	4606      	mov	r6, r0
    72f6:	4629      	mov	r1, r5
    72f8:	4620      	mov	r0, r4
    72fa:	f7fe f8b9 	bl	5470 <fseek>
    72fe:	4630      	mov	r0, r6
    7300:	bd70      	pop	{r4, r5, r6, pc}
    7302:	6983      	ldr	r3, [r0, #24]
    7304:	6805      	ldr	r5, [r0, #0]
    7306:	441d      	add	r5, r3
    7308:	6903      	ldr	r3, [r0, #16]
    730a:	1aed      	subs	r5, r5, r3
    730c:	e7ea      	b.n	72e4 <_do_fflush+0x16>

0000730e <__aeabi_uldivmod>:
    730e:	f05f 0c00 	movs.w	ip, #0

00007312 <__bhs_ldivmod1>:
    7312:	b530      	push	{r4, r5, lr}
    7314:	001c      	movs	r4, r3
    7316:	d122      	bne.n	735e <ldiv64>
    7318:	0012      	movs	r2, r2
    731a:	d06f      	beq.n	73fc <ldiv_divzero>
    731c:	4291      	cmp	r1, r2
    731e:	d306      	bcc.n	732e <ldiv32>
    7320:	4605      	mov	r5, r0
    7322:	4608      	mov	r0, r1
    7324:	2100      	movs	r1, #0
    7326:	f000 f86f 	bl	7408 <udiv6432>
    732a:	4604      	mov	r4, r0
    732c:	4628      	mov	r0, r5

0000732e <ldiv32>:
    732e:	f000 f86b 	bl	7408 <udiv6432>
    7332:	460a      	mov	r2, r1
    7334:	4621      	mov	r1, r4

00007336 <ldiv_return>:
    7336:	e8bd 4030 	ldmia.w	sp!, {r4, r5, lr}
    733a:	f01c 4f40 	tst.w	ip, #3221225472	; 0xc0000000
    733e:	bf08      	it	eq
    7340:	4770      	bxeq	lr
    7342:	d503      	bpl.n	734c <ldiv_sign>
    7344:	4249      	negs	r1, r1
    7346:	4240      	negs	r0, r0
    7348:	f161 0100 	sbc.w	r1, r1, #0

0000734c <ldiv_sign>:
    734c:	ea5f 0c8c 	movs.w	ip, ip, lsl #2
    7350:	bf38      	it	cc
    7352:	4770      	bxcc	lr
    7354:	425b      	negs	r3, r3
    7356:	4252      	negs	r2, r2
    7358:	f163 0300 	sbc.w	r3, r3, #0
    735c:	4770      	bx	lr

0000735e <ldiv64>:
    735e:	d442      	bmi.n	73e6 <ldiv_res01>
    7360:	0c1c      	lsrs	r4, r3, #16
    7362:	bf04      	itt	eq
    7364:	041b      	lsleq	r3, r3, #16
    7366:	f10c 0c10 	addeq.w	ip, ip, #16
    736a:	f013 4f7f 	tst.w	r3, #4278190080	; 0xff000000
    736e:	bf04      	itt	eq
    7370:	021b      	lsleq	r3, r3, #8
    7372:	f10c 0c08 	addeq.w	ip, ip, #8
    7376:	f013 4f70 	tst.w	r3, #4026531840	; 0xf0000000
    737a:	bf04      	itt	eq
    737c:	011b      	lsleq	r3, r3, #4
    737e:	f10c 0c04 	addeq.w	ip, ip, #4
    7382:	f013 4f40 	tst.w	r3, #3221225472	; 0xc0000000
    7386:	bf04      	itt	eq
    7388:	f10c 0c02 	addeq.w	ip, ip, #2
    738c:	ea5f 0383 	movseq.w	r3, r3, lsl #2
    7390:	bf5c      	itt	pl
    7392:	f10c 0c01 	addpl.w	ip, ip, #1
    7396:	005b      	lslpl	r3, r3, #1
    7398:	f1cc 0e20 	rsb	lr, ip, #32
    739c:	fa22 f40e 	lsr.w	r4, r2, lr
    73a0:	4323      	orrs	r3, r4
    73a2:	fa02 f20c 	lsl.w	r2, r2, ip
    73a6:	fa00 f50c 	lsl.w	r5, r0, ip
    73aa:	fa20 f00e 	lsr.w	r0, r0, lr
    73ae:	fa01 f40c 	lsl.w	r4, r1, ip
    73b2:	4320      	orrs	r0, r4
    73b4:	fa21 f10e 	lsr.w	r1, r1, lr
    73b8:	4614      	mov	r4, r2
    73ba:	461a      	mov	r2, r3
    73bc:	f000 f824 	bl	7408 <udiv6432>
    73c0:	fba4 2300 	umull	r2, r3, r4, r0
    73c4:	1aaa      	subs	r2, r5, r2
    73c6:	eb71 0303 	sbcs.w	r3, r1, r3
    73ca:	bf3c      	itt	cc
    73cc:	191b      	addcc	r3, r3, r4
    73ce:	3801      	subcc	r0, #1
    73d0:	f1cc 0e20 	rsb	lr, ip, #32
    73d4:	fa22 f20c 	lsr.w	r2, r2, ip
    73d8:	fa03 f40e 	lsl.w	r4, r3, lr
    73dc:	4322      	orrs	r2, r4
    73de:	fa23 f30c 	lsr.w	r3, r3, ip
    73e2:	2100      	movs	r1, #0
    73e4:	e7a7      	b.n	7336 <ldiv_return>

000073e6 <ldiv_res01>:
    73e6:	1a82      	subs	r2, r0, r2
    73e8:	eb71 0303 	sbcs.w	r3, r1, r3
    73ec:	bf3c      	itt	cc
    73ee:	4602      	movcc	r2, r0
    73f0:	460b      	movcc	r3, r1
    73f2:	f04f 0100 	mov.w	r1, #0
    73f6:	f141 0000 	adc.w	r0, r1, #0
    73fa:	e79c      	b.n	7336 <ldiv_return>

000073fc <ldiv_divzero>:
    73fc:	2000      	movs	r0, #0
    73fe:	2100      	movs	r1, #0
    7400:	e8bd 4030 	ldmia.w	sp!, {r4, r5, lr}
    7404:	f000 b83d 	b.w	7482 <__aeabi_idiv0>

00007408 <udiv6432>:
    7408:	2304      	movs	r3, #4
    740a:	ebb1 2f12 	cmp.w	r1, r2, lsr #8
    740e:	d209      	bcs.n	7424 <udiv6432_entry>

00007410 <udiv6432_loop1>:
    7410:	0209      	lsls	r1, r1, #8
    7412:	ea41 6110 	orr.w	r1, r1, r0, lsr #24
    7416:	0200      	lsls	r0, r0, #8
    7418:	3b01      	subs	r3, #1
    741a:	bf08      	it	eq
    741c:	4770      	bxeq	lr
    741e:	ebb1 2f12 	cmp.w	r1, r2, lsr #8
    7422:	d3f5      	bcc.n	7410 <udiv6432_loop1>

00007424 <udiv6432_entry>:
    7424:	1800      	adds	r0, r0, r0

00007426 <udiv6432_loop>:
    7426:	4149      	adcs	r1, r1
    7428:	bf34      	ite	cc
    742a:	4291      	cmpcc	r1, r2
    742c:	1a89      	subcs	r1, r1, r2
    742e:	4140      	adcs	r0, r0
    7430:	4149      	adcs	r1, r1
    7432:	bf34      	ite	cc
    7434:	4291      	cmpcc	r1, r2
    7436:	1a89      	subcs	r1, r1, r2
    7438:	4140      	adcs	r0, r0
    743a:	4149      	adcs	r1, r1
    743c:	bf34      	ite	cc
    743e:	4291      	cmpcc	r1, r2
    7440:	1a89      	subcs	r1, r1, r2
    7442:	4140      	adcs	r0, r0
    7444:	4149      	adcs	r1, r1
    7446:	bf34      	ite	cc
    7448:	4291      	cmpcc	r1, r2
    744a:	1a89      	subcs	r1, r1, r2
    744c:	4140      	adcs	r0, r0
    744e:	4149      	adcs	r1, r1
    7450:	bf34      	ite	cc
    7452:	4291      	cmpcc	r1, r2
    7454:	1a89      	subcs	r1, r1, r2
    7456:	4140      	adcs	r0, r0
    7458:	4149      	adcs	r1, r1
    745a:	bf34      	ite	cc
    745c:	4291      	cmpcc	r1, r2
    745e:	1a89      	subcs	r1, r1, r2
    7460:	4140      	adcs	r0, r0
    7462:	4149      	adcs	r1, r1
    7464:	bf34      	ite	cc
    7466:	4291      	cmpcc	r1, r2
    7468:	1a89      	subcs	r1, r1, r2
    746a:	4140      	adcs	r0, r0
    746c:	4149      	adcs	r1, r1
    746e:	bf34      	ite	cc
    7470:	4291      	cmpcc	r1, r2
    7472:	1a89      	subcs	r1, r1, r2
    7474:	4140      	adcs	r0, r0
    7476:	f1a3 0301 	sub.w	r3, r3, #1
    747a:	f013 0f0f 	tst.w	r3, #15
    747e:	d1d2      	bne.n	7426 <udiv6432_loop>
    7480:	4770      	bx	lr

00007482 <__aeabi_idiv0>:
    7482:	4770      	bx	lr

00007484 <__aeabi_lowlevel_memset>:
    7484:	4603      	mov	r3, r0
    7486:	f013 0f03 	tst.w	r3, #3
    748a:	d10e      	bne.n	74aa <memset1a>
    748c:	f001 01ff 	and.w	r1, r1, #255	; 0xff
    7490:	ea41 2101 	orr.w	r1, r1, r1, lsl #8
    7494:	ea41 4101 	orr.w	r1, r1, r1, lsl #16

00007498 <__bhs_memset4>:
    7498:	3a04      	subs	r2, #4

0000749a <memset4>:
    749a:	bf24      	itt	cs
    749c:	f843 1b04 	strcs.w	r1, [r3], #4
    74a0:	f1b2 0204 	subscs.w	r2, r2, #4
    74a4:	d2f9      	bcs.n	749a <memset4>

000074a6 <memset1>:
    74a6:	f102 0204 	add.w	r2, r2, #4

000074aa <memset1a>:
    74aa:	3a01      	subs	r2, #1
    74ac:	bf24      	itt	cs
    74ae:	f803 1b01 	strbcs.w	r1, [r3], #1
    74b2:	e7fa      	bcs.n	74aa <memset1a>
    74b4:	4770      	bx	lr

000074b6 <__sys_close>:
    74b6:	f04f 30ff 	mov.w	r0, #4294967295
    74ba:	4770      	bx	lr

000074bc <__sys_flen>:
    74bc:	f04f 30ff 	mov.w	r0, #4294967295
    74c0:	4770      	bx	lr

000074c2 <__sys_istty>:
    74c2:	f04f 30ff 	mov.w	r0, #4294967295
    74c6:	4770      	bx	lr

000074c8 <__sys_remove>:
    74c8:	f04f 30ff 	mov.w	r0, #4294967295
    74cc:	4770      	bx	lr

000074ce <__sys_seek>:
    74ce:	f04f 30ff 	mov.w	r0, #4294967295
    74d2:	4770      	bx	lr

000074d4 <__sys_tmpnam>:
    74d4:	f04f 30ff 	mov.w	r0, #4294967295
    74d8:	4770      	bx	lr

000074da <__sys_write>:
    74da:	4610      	mov	r0, r2
    74dc:	4770      	bx	lr
    74de:	ffff 2e2e 			; <UNDEFINED> instruction: 0xffff2e2e
    74e2:	752f      	.short	0x752f
    74e4:	696c6974 	.word	0x696c6974
    74e8:	73656974 	.word	0x73656974
    74ec:	6c73662f 	.word	0x6c73662f
    74f0:	6265645f 	.word	0x6265645f
    74f4:	635f6775 	.word	0x635f6775
    74f8:	6f736e6f 	.word	0x6f736e6f
    74fc:	632e656c 	.word	0x632e656c
    7500:	3239333a 	.word	0x3239333a
    7504:	4e203a20 	.word	0x4e203a20
    7508:	204c4c55 	.word	0x204c4c55
    750c:	63203d21 	.word	0x63203d21
    7510:	00000068 	.word	0x00000068
    7514:	752f2e2e 	.word	0x752f2e2e
    7518:	696c6974 	.word	0x696c6974
    751c:	73656974 	.word	0x73656974
    7520:	6c73662f 	.word	0x6c73662f
    7524:	6265645f 	.word	0x6265645f
    7528:	635f6775 	.word	0x635f6775
    752c:	6f736e6f 	.word	0x6f736e6f
    7530:	632e656c 	.word	0x632e656c
    7534:	3339333a 	.word	0x3339333a
    7538:	30203a20 	.word	0x30203a20
    753c:	203d2120 	.word	0x203d2120
    7540:	657a6973 	.word	0x657a6973
    7544:	00000000 	.word	0x00000000
    7548:	752f2e2e 	.word	0x752f2e2e
    754c:	696c6974 	.word	0x696c6974
    7550:	73656974 	.word	0x73656974
    7554:	6c73662f 	.word	0x6c73662f
    7558:	6265645f 	.word	0x6265645f
    755c:	635f6775 	.word	0x635f6775
    7560:	6f736e6f 	.word	0x6f736e6f
    7564:	632e656c 	.word	0x632e656c
    7568:	3536343a 	.word	0x3536343a
    756c:	4e203a20 	.word	0x4e203a20
    7570:	204c4c55 	.word	0x204c4c55
    7574:	63203d21 	.word	0x63203d21
    7578:	00000068 	.word	0x00000068
    757c:	752f2e2e 	.word	0x752f2e2e
    7580:	696c6974 	.word	0x696c6974
    7584:	73656974 	.word	0x73656974
    7588:	6c73662f 	.word	0x6c73662f
    758c:	6265645f 	.word	0x6265645f
    7590:	635f6775 	.word	0x635f6775
    7594:	6f736e6f 	.word	0x6f736e6f
    7598:	632e656c 	.word	0x632e656c
    759c:	3636343a 	.word	0x3636343a
    75a0:	30203a20 	.word	0x30203a20
    75a4:	203d2120 	.word	0x203d2120
    75a8:	657a6973 	.word	0x657a6973
    75ac:	00000000 	.word	0x00000000
    75b0:	752f2e2e 	.word	0x752f2e2e
    75b4:	696c6974 	.word	0x696c6974
    75b8:	73656974 	.word	0x73656974
    75bc:	6c73662f 	.word	0x6c73662f
    75c0:	6265645f 	.word	0x6265645f
    75c4:	635f6775 	.word	0x635f6775
    75c8:	6f736e6f 	.word	0x6f736e6f
    75cc:	632e656c 	.word	0x632e656c
    75d0:	3732353a 	.word	0x3732353a
    75d4:	62203a20 	.word	0x62203a20
    75d8:	21206675 	.word	0x21206675
    75dc:	554e203d 	.word	0x554e203d
    75e0:	00004c4c 	.word	0x00004c4c
    75e4:	752f2e2e 	.word	0x752f2e2e
    75e8:	696c6974 	.word	0x696c6974
    75ec:	73656974 	.word	0x73656974
    75f0:	6c73662f 	.word	0x6c73662f
    75f4:	6265645f 	.word	0x6265645f
    75f8:	635f6775 	.word	0x635f6775
    75fc:	6f736e6f 	.word	0x6f736e6f
    7600:	632e656c 	.word	0x632e656c
    7604:	3238353a 	.word	0x3238353a
    7608:	63203a20 	.word	0x63203a20
    760c:	00000068 	.word	0x00000068
    7610:	752f2e2e 	.word	0x752f2e2e
    7614:	696c6974 	.word	0x696c6974
    7618:	73656974 	.word	0x73656974
    761c:	6c73662f 	.word	0x6c73662f
    7620:	6265645f 	.word	0x6265645f
    7624:	635f6775 	.word	0x635f6775
    7628:	6f736e6f 	.word	0x6f736e6f
    762c:	632e656c 	.word	0x632e656c
    7630:	3631373a 	.word	0x3631373a
    7634:	6b203a20 	.word	0x6b203a20
    7638:	74617453 	.word	0x74617453
    763c:	535f7375 	.word	0x535f7375
    7640:	61697265 	.word	0x61697265
    7644:	6e614d6c 	.word	0x6e614d6c
    7648:	72656761 	.word	0x72656761
    764c:	6375535f 	.word	0x6375535f
    7650:	73736563 	.word	0x73736563
    7654:	203d3d20 	.word	0x203d3d20
    7658:	74617473 	.word	0x74617473
    765c:	00007375 	.word	0x00007375
    7660:	752f2e2e 	.word	0x752f2e2e
    7664:	696c6974 	.word	0x696c6974
    7668:	73656974 	.word	0x73656974
    766c:	6c73662f 	.word	0x6c73662f
    7670:	6265645f 	.word	0x6265645f
    7674:	635f6775 	.word	0x635f6775
    7678:	6f736e6f 	.word	0x6f736e6f
    767c:	632e656c 	.word	0x632e656c
    7680:	3632373a 	.word	0x3632373a
    7684:	6b203a20 	.word	0x6b203a20
    7688:	74617453 	.word	0x74617453
    768c:	535f7375 	.word	0x535f7375
    7690:	61697265 	.word	0x61697265
    7694:	6e614d6c 	.word	0x6e614d6c
    7698:	72656761 	.word	0x72656761
    769c:	6375535f 	.word	0x6375535f
    76a0:	73736563 	.word	0x73736563
    76a4:	203d3d20 	.word	0x203d3d20
    76a8:	74617473 	.word	0x74617473
    76ac:	00007375 	.word	0x00007375
    76b0:	752f2e2e 	.word	0x752f2e2e
    76b4:	696c6974 	.word	0x696c6974
    76b8:	73656974 	.word	0x73656974
    76bc:	6c73662f 	.word	0x6c73662f
    76c0:	6265645f 	.word	0x6265645f
    76c4:	635f6775 	.word	0x635f6775
    76c8:	6f736e6f 	.word	0x6f736e6f
    76cc:	632e656c 	.word	0x632e656c
    76d0:	3733373a 	.word	0x3733373a
    76d4:	6b203a20 	.word	0x6b203a20
    76d8:	74617453 	.word	0x74617453
    76dc:	535f7375 	.word	0x535f7375
    76e0:	61697265 	.word	0x61697265
    76e4:	6e614d6c 	.word	0x6e614d6c
    76e8:	72656761 	.word	0x72656761
    76ec:	6375535f 	.word	0x6375535f
    76f0:	73736563 	.word	0x73736563
    76f4:	203d3d20 	.word	0x203d3d20
    76f8:	74617473 	.word	0x74617473
    76fc:	ff007375 	.word	0xff007375
    7700:	5053504c 	.word	0x5053504c
    7704:	4d432049 	.word	0x4d432049
    7708:	20534953 	.word	0x20534953
    770c:	76697264 	.word	0x76697264
    7710:	62207265 	.word	0x62207265
    7714:	6472616f 	.word	0x6472616f
    7718:	206f7420 	.word	0x206f7420
    771c:	72616f62 	.word	0x72616f62
    7720:	6e692064 	.word	0x6e692064
    7724:	72726574 	.word	0x72726574
    7728:	20747075 	.word	0x20747075
    772c:	6d617865 	.word	0x6d617865
    7730:	2e656c70 	.word	0x2e656c70
    7734:	00000a0d 	.word	0x00000a0d
    7738:	73696854 	.word	0x73696854
    773c:	61786520 	.word	0x61786520
    7740:	656c706d 	.word	0x656c706d
    7744:	65737520 	.word	0x65737520
    7748:	656e6f20 	.word	0x656e6f20
    774c:	616f6220 	.word	0x616f6220
    7750:	61206472 	.word	0x61206472
    7754:	616d2073 	.word	0x616d2073
    7758:	72657473 	.word	0x72657473
    775c:	646e6120 	.word	0x646e6120
    7760:	6f6e6120 	.word	0x6f6e6120
    7764:	72656874 	.word	0x72656874
    7768:	20736120 	.word	0x20736120
    776c:	76616c73 	.word	0x76616c73
    7770:	0a0d2e65 	.word	0x0a0d2e65
    7774:	00000000 	.word	0x00000000
    7778:	7473614d 	.word	0x7473614d
    777c:	61207265 	.word	0x61207265
    7780:	7320646e 	.word	0x7320646e
    7784:	6576616c 	.word	0x6576616c
    7788:	65737520 	.word	0x65737520
    778c:	6e692073 	.word	0x6e692073
    7790:	72726574 	.word	0x72726574
    7794:	20747075 	.word	0x20747075
    7798:	2e796177 	.word	0x2e796177
    779c:	616c5320 	.word	0x616c5320
    77a0:	73206576 	.word	0x73206576
    77a4:	6c756f68 	.word	0x6c756f68
    77a8:	74732064 	.word	0x74732064
    77ac:	20747261 	.word	0x20747261
    77b0:	73726966 	.word	0x73726966
    77b4:	0d202e74 	.word	0x0d202e74
    77b8:	0000000a 	.word	0x0000000a
    77bc:	61656c50 	.word	0x61656c50
    77c0:	6d206573 	.word	0x6d206573
    77c4:	20656b61 	.word	0x20656b61
    77c8:	65727573 	.word	0x65727573
    77cc:	756f7920 	.word	0x756f7920
    77d0:	6b616d20 	.word	0x6b616d20
    77d4:	68742065 	.word	0x68742065
    77d8:	6f632065 	.word	0x6f632065
    77dc:	63657272 	.word	0x63657272
    77e0:	696c2074 	.word	0x696c2074
    77e4:	6320656e 	.word	0x6320656e
    77e8:	656e6e6f 	.word	0x656e6e6f
    77ec:	6f697463 	.word	0x6f697463
    77f0:	42202e6e 	.word	0x42202e6e
    77f4:	63697361 	.word	0x63697361
    77f8:	796c6c61 	.word	0x796c6c61
    77fc:	6874202c 	.word	0x6874202c
    7800:	6f632065 	.word	0x6f632065
    7804:	63656e6e 	.word	0x63656e6e
    7808:	6e6f6974 	.word	0x6e6f6974
    780c:	3a736920 	.word	0x3a736920
    7810:	000a0d20 	.word	0x000a0d20
    7814:	5053504c 	.word	0x5053504c
    7818:	616d5f49 	.word	0x616d5f49
    781c:	72657473 	.word	0x72657473
    7820:	202d2d20 	.word	0x202d2d20
    7824:	5053504c 	.word	0x5053504c
    7828:	6c735f49 	.word	0x6c735f49
    782c:	20657661 	.word	0x20657661
    7830:	0a0d2020 	.word	0x0a0d2020
    7834:	00000000 	.word	0x00000000
    7838:	43202020 	.word	0x43202020
    783c:	20204b4c 	.word	0x20204b4c
    7840:	20202020 	.word	0x20202020
    7844:	202d2d20 	.word	0x202d2d20
    7848:	43202020 	.word	0x43202020
    784c:	20204b4c 	.word	0x20204b4c
    7850:	00000a0d 	.word	0x00000a0d
    7854:	50202020 	.word	0x50202020
    7858:	20205343 	.word	0x20205343
    785c:	20202020 	.word	0x20202020
    7860:	202d2d20 	.word	0x202d2d20
    7864:	50202020 	.word	0x50202020
    7868:	0d205343 	.word	0x0d205343
    786c:	0000000a 	.word	0x0000000a
    7870:	53202020 	.word	0x53202020
    7874:	2054554f 	.word	0x2054554f
    7878:	20202020 	.word	0x20202020
    787c:	202d2d20 	.word	0x202d2d20
    7880:	53202020 	.word	0x53202020
    7884:	20204e49 	.word	0x20204e49
    7888:	00000a0d 	.word	0x00000a0d
    788c:	53202020 	.word	0x53202020
    7890:	20204e49 	.word	0x20204e49
    7894:	20202020 	.word	0x20202020
    7898:	202d2d20 	.word	0x202d2d20
    789c:	53202020 	.word	0x53202020
    78a0:	2054554f 	.word	0x2054554f
    78a4:	00000a0d 	.word	0x00000a0d
    78a8:	47202020 	.word	0x47202020
    78ac:	2020444e 	.word	0x2020444e
    78b0:	20202020 	.word	0x20202020
    78b4:	202d2d20 	.word	0x202d2d20
    78b8:	47202020 	.word	0x47202020
    78bc:	0d20444e 	.word	0x0d20444e
    78c0:	ffff000a 	.word	0xffff000a
    78c4:	64616552 	.word	0x64616552
    78c8:	20676e69 	.word	0x20676e69
    78cc:	203a524d 	.word	0x203a524d
    78d0:	000a6425 	.word	0x000a6425
    78d4:	74746553 	.word	0x74746553
    78d8:	20676e69 	.word	0x20676e69
    78dc:	3a524147 	.word	0x3a524147
    78e0:	2e642520 	.word	0x2e642520
    78e4:	252e6425 	.word	0x252e6425
    78e8:	64252e64 	.word	0x64252e64
    78ec:	0000000a 	.word	0x0000000a
    78f0:	64616552 	.word	0x64616552
    78f4:	20676e69 	.word	0x20676e69
    78f8:	3a524147 	.word	0x3a524147
    78fc:	2e642520 	.word	0x2e642520
    7900:	252e6425 	.word	0x252e6425
    7904:	64252e64 	.word	0x64252e64
    7908:	0000000a 	.word	0x0000000a
    790c:	74746553 	.word	0x74746553
    7910:	20676e69 	.word	0x20676e69
    7914:	3a524153 	.word	0x3a524153
    7918:	322e2520 	.word	0x322e2520
    791c:	2e253a78 	.word	0x2e253a78
    7920:	253a7832 	.word	0x253a7832
    7924:	3a78322e 	.word	0x3a78322e
    7928:	78322e25 	.word	0x78322e25
    792c:	322e253a 	.word	0x322e253a
    7930:	2e253a78 	.word	0x2e253a78
    7934:	000a7832 	.word	0x000a7832
    7938:	64616552 	.word	0x64616552
    793c:	20676e69 	.word	0x20676e69
    7940:	3a524153 	.word	0x3a524153
    7944:	322e2520 	.word	0x322e2520
    7948:	2e253a78 	.word	0x2e253a78
    794c:	253a7832 	.word	0x253a7832
    7950:	3a78322e 	.word	0x3a78322e
    7954:	78322e25 	.word	0x78322e25
    7958:	322e253a 	.word	0x322e253a
    795c:	2e253a78 	.word	0x2e253a78
    7960:	000a7832 	.word	0x000a7832
    7964:	74746553 	.word	0x74746553
    7968:	20676e69 	.word	0x20676e69
    796c:	52425553 	.word	0x52425553
    7970:	6425203a 	.word	0x6425203a
    7974:	2e64252e 	.word	0x2e64252e
    7978:	252e6425 	.word	0x252e6425
    797c:	00000a64 	.word	0x00000a64
    7980:	64616552 	.word	0x64616552
    7984:	20676e69 	.word	0x20676e69
    7988:	52425553 	.word	0x52425553
    798c:	6425203a 	.word	0x6425203a
    7990:	2e64252e 	.word	0x2e64252e
    7994:	252e6425 	.word	0x252e6425
    7998:	00000a64 	.word	0x00000a64
    799c:	74746553 	.word	0x74746553
    79a0:	20676e69 	.word	0x20676e69
    79a4:	52504953 	.word	0x52504953
    79a8:	6425203a 	.word	0x6425203a
    79ac:	2e64252e 	.word	0x2e64252e
    79b0:	252e6425 	.word	0x252e6425
    79b4:	00000a64 	.word	0x00000a64
    79b8:	64616552 	.word	0x64616552
    79bc:	20676e69 	.word	0x20676e69
    79c0:	52504953 	.word	0x52504953
    79c4:	6425203a 	.word	0x6425203a
    79c8:	2e64252e 	.word	0x2e64252e
    79cc:	252e6425 	.word	0x252e6425
    79d0:	00000a64 	.word	0x00000a64
    79d4:	74746553 	.word	0x74746553
    79d8:	20676e69 	.word	0x20676e69
    79dc:	6e7a6957 	.word	0x6e7a6957
    79e0:	52207465 	.word	0x52207465
    79e4:	2052534d 	.word	0x2052534d
    79e8:	20646e61 	.word	0x20646e61
    79ec:	52534d54 	.word	0x52534d54
    79f0:	00000a0a 	.word	0x00000a0a
    79f4:	656e6f44 	.word	0x656e6f44
    79f8:	7a695720 	.word	0x7a695720
    79fc:	2074656e 	.word	0x2074656e
    7a00:	30313557 	.word	0x30313557
    7a04:	6e492030 	.word	0x6e492030
    7a08:	61697469 	.word	0x61697469
    7a0c:	657a696c 	.word	0x657a696c
    7a10:	000a2164 	.word	0x000a2164
    7a14:	de361600 	.word	0xde361600
    7a18:	0000f658 	.word	0x0000f658
    7a1c:	0a01a8c0 	.word	0x0a01a8c0
    7a20:	00ffffff 	.word	0x00ffffff
    7a24:	0101a8c0 	.word	0x0101a8c0
    7a28:	642f2e2e 	.word	0x642f2e2e
    7a2c:	65766972 	.word	0x65766972
    7a30:	662f7372 	.word	0x662f7372
    7a34:	635f6c73 	.word	0x635f6c73
    7a38:	6b636f6c 	.word	0x6b636f6c
    7a3c:	313a632e 	.word	0x313a632e
    7a40:	3a203435 	.word	0x3a203435
    7a44:	79622120 	.word	0x79622120
    7a48:	73736170 	.word	0x73736170
    7a4c:	6c617458 	.word	0x6c617458
    7a50:	0063734f 	.word	0x0063734f
    7a54:	017d7840 	.word	0x017d7840
    7a58:	02faf080 	.word	0x02faf080
    7a5c:	05f5e100 	.word	0x05f5e100
    7a60:	07735940 	.word	0x07735940
    7a64:	642f2e2e 	.word	0x642f2e2e
    7a68:	65766972 	.word	0x65766972
    7a6c:	662f7372 	.word	0x662f7372
    7a70:	635f6c73 	.word	0x635f6c73
    7a74:	6b636f6c 	.word	0x6b636f6c
    7a78:	313a632e 	.word	0x313a632e
    7a7c:	20303432 	.word	0x20303432
    7a80:	5530203a 	.word	0x5530203a
    7a84:	203d2120 	.word	0x203d2120
    7a88:	616c6564 	.word	0x616c6564
    7a8c:	73755f79 	.word	0x73755f79
    7a90:	00000000 	.word	0x00000000
    7a94:	642f2e2e 	.word	0x642f2e2e
    7a98:	65766972 	.word	0x65766972
    7a9c:	662f7372 	.word	0x662f7372
    7aa0:	635f6c73 	.word	0x635f6c73
    7aa4:	6b636f6c 	.word	0x6b636f6c
    7aa8:	313a632e 	.word	0x313a632e
    7aac:	20313532 	.word	0x20313532
    7ab0:	5744203a 	.word	0x5744203a
    7ab4:	54435f54 	.word	0x54435f54
    7ab8:	4e5f4c52 	.word	0x4e5f4c52
    7abc:	4359434f 	.word	0x4359434f
    7ac0:	5f544e43 	.word	0x5f544e43
    7ac4:	206b734d 	.word	0x206b734d
    7ac8:	28203d21 	.word	0x28203d21
    7acc:	2d545744 	.word	0x2d545744
    7ad0:	5254433e 	.word	0x5254433e
    7ad4:	2026204c 	.word	0x2026204c
    7ad8:	5f545744 	.word	0x5f545744
    7adc:	4c525443 	.word	0x4c525443
    7ae0:	434f4e5f 	.word	0x434f4e5f
    7ae4:	4e434359 	.word	0x4e434359
    7ae8:	734d5f54 	.word	0x734d5f54
    7aec:	ff00296b 	.word	0xff00296b
    7af0:	642f2e2e 	.word	0x642f2e2e
    7af4:	65766972 	.word	0x65766972
    7af8:	662f7372 	.word	0x662f7372
    7afc:	635f6c73 	.word	0x635f6c73
    7b00:	6b636f6c 	.word	0x6b636f6c
    7b04:	313a682e 	.word	0x313a682e
    7b08:	20313630 	.word	0x20313630
    7b0c:	6e69203a 	.word	0x6e69203a
    7b10:	20786564 	.word	0x20786564
    7b14:	37203d3c 	.word	0x37203d3c
    7b18:	00000000 	.word	0x00000000
    7b1c:	642f2e2e 	.word	0x642f2e2e
    7b20:	65766972 	.word	0x65766972
    7b24:	662f7372 	.word	0x662f7372
    7b28:	655f6c73 	.word	0x655f6c73
    7b2c:	2e616d64 	.word	0x2e616d64
    7b30:	38363a63 	.word	0x38363a63
    7b34:	69203a20 	.word	0x69203a20
    7b38:	6174736e 	.word	0x6174736e
    7b3c:	2065636e 	.word	0x2065636e
    7b40:	5241203c 	.word	0x5241203c
    7b44:	5f594152 	.word	0x5f594152
    7b48:	455a4953 	.word	0x455a4953
    7b4c:	655f7328 	.word	0x655f7328
    7b50:	42616d64 	.word	0x42616d64
    7b54:	73657361 	.word	0x73657361
    7b58:	00000029 	.word	0x00000029
    7b5c:	642f2e2e 	.word	0x642f2e2e
    7b60:	65766972 	.word	0x65766972
    7b64:	662f7372 	.word	0x662f7372
    7b68:	655f6c73 	.word	0x655f6c73
    7b6c:	2e616d64 	.word	0x2e616d64
    7b70:	32383a63 	.word	0x32383a63
    7b74:	63203a20 	.word	0x63203a20
    7b78:	6e6e6168 	.word	0x6e6e6168
    7b7c:	3c206c65 	.word	0x3c206c65
    7b80:	69752820 	.word	0x69752820
    7b84:	3233746e 	.word	0x3233746e
    7b88:	4629745f 	.word	0x4629745f
    7b8c:	465f4c53 	.word	0x465f4c53
    7b90:	55544145 	.word	0x55544145
    7b94:	455f4552 	.word	0x455f4552
    7b98:	5f414d44 	.word	0x5f414d44
    7b9c:	55444f4d 	.word	0x55444f4d
    7ba0:	435f454c 	.word	0x435f454c
    7ba4:	4e4e4148 	.word	0x4e4e4148
    7ba8:	00004c45 	.word	0x00004c45
    7bac:	642f2e2e 	.word	0x642f2e2e
    7bb0:	65766972 	.word	0x65766972
    7bb4:	662f7372 	.word	0x662f7372
    7bb8:	655f6c73 	.word	0x655f6c73
    7bbc:	2e616d64 	.word	0x2e616d64
    7bc0:	33383a63 	.word	0x33383a63
    7bc4:	74203a20 	.word	0x74203a20
    7bc8:	21206463 	.word	0x21206463
    7bcc:	554e203d 	.word	0x554e203d
    7bd0:	00004c4c 	.word	0x00004c4c
    7bd4:	642f2e2e 	.word	0x642f2e2e
    7bd8:	65766972 	.word	0x65766972
    7bdc:	662f7372 	.word	0x662f7372
    7be0:	655f6c73 	.word	0x655f6c73
    7be4:	2e616d64 	.word	0x2e616d64
    7be8:	34383a63 	.word	0x34383a63
    7bec:	28203a20 	.word	0x28203a20
    7bf0:	6e697528 	.word	0x6e697528
    7bf4:	5f323374 	.word	0x5f323374
    7bf8:	63742974 	.word	0x63742974
    7bfc:	20262064 	.word	0x20262064
    7c00:	46317830 	.word	0x46317830
    7c04:	3d202955 	.word	0x3d202955
    7c08:	5530203d 	.word	0x5530203d
    7c0c:	00000000 	.word	0x00000000
    7c10:	642f2e2e 	.word	0x642f2e2e
    7c14:	65766972 	.word	0x65766972
    7c18:	662f7372 	.word	0x662f7372
    7c1c:	655f6c73 	.word	0x655f6c73
    7c20:	2e616d64 	.word	0x2e616d64
    7c24:	31313a63 	.word	0x31313a63
    7c28:	203a2034 	.word	0x203a2034
    7c2c:	666e6f63 	.word	0x666e6f63
    7c30:	21206769 	.word	0x21206769
    7c34:	554e203d 	.word	0x554e203d
    7c38:	00004c4c 	.word	0x00004c4c
    7c3c:	642f2e2e 	.word	0x642f2e2e
    7c40:	65766972 	.word	0x65766972
    7c44:	662f7372 	.word	0x662f7372
    7c48:	655f6c73 	.word	0x655f6c73
    7c4c:	2e616d64 	.word	0x2e616d64
    7c50:	36313a63 	.word	0x36313a63
    7c54:	203a2036 	.word	0x203a2036
    7c58:	666e6f63 	.word	0x666e6f63
    7c5c:	21206769 	.word	0x21206769
    7c60:	554e203d 	.word	0x554e203d
    7c64:	00004c4c 	.word	0x00004c4c
    7c68:	642f2e2e 	.word	0x642f2e2e
    7c6c:	65766972 	.word	0x65766972
    7c70:	662f7372 	.word	0x662f7372
    7c74:	655f6c73 	.word	0x655f6c73
    7c78:	2e616d64 	.word	0x2e616d64
    7c7c:	39313a63 	.word	0x39313a63
    7c80:	203a2030 	.word	0x203a2030
    7c84:	6e616863 	.word	0x6e616863
    7c88:	206c656e 	.word	0x206c656e
    7c8c:	7528203c 	.word	0x7528203c
    7c90:	33746e69 	.word	0x33746e69
    7c94:	29745f32 	.word	0x29745f32
    7c98:	5f4c5346 	.word	0x5f4c5346
    7c9c:	54414546 	.word	0x54414546
    7ca0:	5f455255 	.word	0x5f455255
    7ca4:	414d4445 	.word	0x414d4445
    7ca8:	444f4d5f 	.word	0x444f4d5f
    7cac:	5f454c55 	.word	0x5f454c55
    7cb0:	4e414843 	.word	0x4e414843
    7cb4:	004c454e 	.word	0x004c454e
    7cb8:	642f2e2e 	.word	0x642f2e2e
    7cbc:	65766972 	.word	0x65766972
    7cc0:	662f7372 	.word	0x662f7372
    7cc4:	655f6c73 	.word	0x655f6c73
    7cc8:	2e616d64 	.word	0x2e616d64
    7ccc:	32323a63 	.word	0x32323a63
    7cd0:	203a2032 	.word	0x203a2032
    7cd4:	6e616863 	.word	0x6e616863
    7cd8:	206c656e 	.word	0x206c656e
    7cdc:	7528203c 	.word	0x7528203c
    7ce0:	33746e69 	.word	0x33746e69
    7ce4:	29745f32 	.word	0x29745f32
    7ce8:	5f4c5346 	.word	0x5f4c5346
    7cec:	54414546 	.word	0x54414546
    7cf0:	5f455255 	.word	0x5f455255
    7cf4:	414d4445 	.word	0x414d4445
    7cf8:	444f4d5f 	.word	0x444f4d5f
    7cfc:	5f454c55 	.word	0x5f454c55
    7d00:	4e414843 	.word	0x4e414843
    7d04:	004c454e 	.word	0x004c454e
    7d08:	642f2e2e 	.word	0x642f2e2e
    7d0c:	65766972 	.word	0x65766972
    7d10:	662f7372 	.word	0x662f7372
    7d14:	655f6c73 	.word	0x655f6c73
    7d18:	2e616d64 	.word	0x2e616d64
    7d1c:	32323a63 	.word	0x32323a63
    7d20:	203a2033 	.word	0x203a2033
    7d24:	666e6f63 	.word	0x666e6f63
    7d28:	21206769 	.word	0x21206769
    7d2c:	554e203d 	.word	0x554e203d
    7d30:	00004c4c 	.word	0x00004c4c
    7d34:	642f2e2e 	.word	0x642f2e2e
    7d38:	65766972 	.word	0x65766972
    7d3c:	662f7372 	.word	0x662f7372
    7d40:	655f6c73 	.word	0x655f6c73
    7d44:	2e616d64 	.word	0x2e616d64
    7d48:	32323a63 	.word	0x32323a63
    7d4c:	203a2034 	.word	0x203a2034
    7d50:	69752828 	.word	0x69752828
    7d54:	3233746e 	.word	0x3233746e
    7d58:	6e29745f 	.word	0x6e29745f
    7d5c:	54747865 	.word	0x54747865
    7d60:	26206463 	.word	0x26206463
    7d64:	31783020 	.word	0x31783020
    7d68:	20295546 	.word	0x20295546
    7d6c:	30203d3d 	.word	0x30203d3d
    7d70:	00000055 	.word	0x00000055
    7d74:	642f2e2e 	.word	0x642f2e2e
    7d78:	65766972 	.word	0x65766972
    7d7c:	662f7372 	.word	0x662f7372
    7d80:	655f6c73 	.word	0x655f6c73
    7d84:	2e616d64 	.word	0x2e616d64
    7d88:	34323a63 	.word	0x34323a63
    7d8c:	203a2031 	.word	0x203a2031
    7d90:	6e616863 	.word	0x6e616863
    7d94:	206c656e 	.word	0x206c656e
    7d98:	7528203c 	.word	0x7528203c
    7d9c:	33746e69 	.word	0x33746e69
    7da0:	29745f32 	.word	0x29745f32
    7da4:	5f4c5346 	.word	0x5f4c5346
    7da8:	54414546 	.word	0x54414546
    7dac:	5f455255 	.word	0x5f455255
    7db0:	414d4445 	.word	0x414d4445
    7db4:	444f4d5f 	.word	0x444f4d5f
    7db8:	5f454c55 	.word	0x5f454c55
    7dbc:	4e414843 	.word	0x4e414843
    7dc0:	004c454e 	.word	0x004c454e
    7dc4:	642f2e2e 	.word	0x642f2e2e
    7dc8:	65766972 	.word	0x65766972
    7dcc:	662f7372 	.word	0x662f7372
    7dd0:	655f6c73 	.word	0x655f6c73
    7dd4:	2e616d64 	.word	0x2e616d64
    7dd8:	34323a63 	.word	0x34323a63
    7ddc:	203a2032 	.word	0x203a2032
    7de0:	666e6f63 	.word	0x666e6f63
    7de4:	21206769 	.word	0x21206769
    7de8:	554e203d 	.word	0x554e203d
    7dec:	00004c4c 	.word	0x00004c4c
    7df0:	642f2e2e 	.word	0x642f2e2e
    7df4:	65766972 	.word	0x65766972
    7df8:	662f7372 	.word	0x662f7372
    7dfc:	655f6c73 	.word	0x655f6c73
    7e00:	2e616d64 	.word	0x2e616d64
    7e04:	36323a63 	.word	0x36323a63
    7e08:	203a2035 	.word	0x203a2035
    7e0c:	6e616863 	.word	0x6e616863
    7e10:	206c656e 	.word	0x206c656e
    7e14:	7528203c 	.word	0x7528203c
    7e18:	33746e69 	.word	0x33746e69
    7e1c:	29745f32 	.word	0x29745f32
    7e20:	5f4c5346 	.word	0x5f4c5346
    7e24:	54414546 	.word	0x54414546
    7e28:	5f455255 	.word	0x5f455255
    7e2c:	414d4445 	.word	0x414d4445
    7e30:	444f4d5f 	.word	0x444f4d5f
    7e34:	5f454c55 	.word	0x5f454c55
    7e38:	4e414843 	.word	0x4e414843
    7e3c:	004c454e 	.word	0x004c454e
    7e40:	642f2e2e 	.word	0x642f2e2e
    7e44:	65766972 	.word	0x65766972
    7e48:	662f7372 	.word	0x662f7372
    7e4c:	655f6c73 	.word	0x655f6c73
    7e50:	2e616d64 	.word	0x2e616d64
    7e54:	36323a63 	.word	0x36323a63
    7e58:	203a2036 	.word	0x203a2036
    7e5c:	666e6f63 	.word	0x666e6f63
    7e60:	21206769 	.word	0x21206769
    7e64:	554e203d 	.word	0x554e203d
    7e68:	00004c4c 	.word	0x00004c4c
    7e6c:	642f2e2e 	.word	0x642f2e2e
    7e70:	65766972 	.word	0x65766972
    7e74:	662f7372 	.word	0x662f7372
    7e78:	655f6c73 	.word	0x655f6c73
    7e7c:	2e616d64 	.word	0x2e616d64
    7e80:	39323a63 	.word	0x39323a63
    7e84:	203a2036 	.word	0x203a2036
    7e88:	6e616863 	.word	0x6e616863
    7e8c:	206c656e 	.word	0x206c656e
    7e90:	7528203c 	.word	0x7528203c
    7e94:	33746e69 	.word	0x33746e69
    7e98:	29745f32 	.word	0x29745f32
    7e9c:	5f4c5346 	.word	0x5f4c5346
    7ea0:	54414546 	.word	0x54414546
    7ea4:	5f455255 	.word	0x5f455255
    7ea8:	414d4445 	.word	0x414d4445
    7eac:	444f4d5f 	.word	0x444f4d5f
    7eb0:	5f454c55 	.word	0x5f454c55
    7eb4:	4e414843 	.word	0x4e414843
    7eb8:	004c454e 	.word	0x004c454e
    7ebc:	642f2e2e 	.word	0x642f2e2e
    7ec0:	65766972 	.word	0x65766972
    7ec4:	662f7372 	.word	0x662f7372
    7ec8:	655f6c73 	.word	0x655f6c73
    7ecc:	2e616d64 	.word	0x2e616d64
    7ed0:	39323a63 	.word	0x39323a63
    7ed4:	203a2037 	.word	0x203a2037
    7ed8:	6b6e696c 	.word	0x6b6e696c
    7edc:	68436465 	.word	0x68436465
    7ee0:	656e6e61 	.word	0x656e6e61
    7ee4:	203c206c 	.word	0x203c206c
    7ee8:	6e697528 	.word	0x6e697528
    7eec:	5f323374 	.word	0x5f323374
    7ef0:	53462974 	.word	0x53462974
    7ef4:	45465f4c 	.word	0x45465f4c
    7ef8:	52555441 	.word	0x52555441
    7efc:	44455f45 	.word	0x44455f45
    7f00:	4d5f414d 	.word	0x4d5f414d
    7f04:	4c55444f 	.word	0x4c55444f
    7f08:	48435f45 	.word	0x48435f45
    7f0c:	454e4e41 	.word	0x454e4e41
    7f10:	0000004c 	.word	0x0000004c
    7f14:	642f2e2e 	.word	0x642f2e2e
    7f18:	65766972 	.word	0x65766972
    7f1c:	662f7372 	.word	0x662f7372
    7f20:	655f6c73 	.word	0x655f6c73
    7f24:	2e616d64 	.word	0x2e616d64
    7f28:	31333a63 	.word	0x31333a63
    7f2c:	203a2038 	.word	0x203a2038
    7f30:	6e616863 	.word	0x6e616863
    7f34:	206c656e 	.word	0x206c656e
    7f38:	7528203c 	.word	0x7528203c
    7f3c:	33746e69 	.word	0x33746e69
    7f40:	29745f32 	.word	0x29745f32
    7f44:	5f4c5346 	.word	0x5f4c5346
    7f48:	54414546 	.word	0x54414546
    7f4c:	5f455255 	.word	0x5f455255
    7f50:	414d4445 	.word	0x414d4445
    7f54:	444f4d5f 	.word	0x444f4d5f
    7f58:	5f454c55 	.word	0x5f454c55
    7f5c:	4e414843 	.word	0x4e414843
    7f60:	004c454e 	.word	0x004c454e
    7f64:	642f2e2e 	.word	0x642f2e2e
    7f68:	65766972 	.word	0x65766972
    7f6c:	662f7372 	.word	0x662f7372
    7f70:	655f6c73 	.word	0x655f6c73
    7f74:	2e616d64 	.word	0x2e616d64
    7f78:	33333a63 	.word	0x33333a63
    7f7c:	203a2037 	.word	0x203a2037
    7f80:	6e616863 	.word	0x6e616863
    7f84:	206c656e 	.word	0x206c656e
    7f88:	7528203c 	.word	0x7528203c
    7f8c:	33746e69 	.word	0x33746e69
    7f90:	29745f32 	.word	0x29745f32
    7f94:	5f4c5346 	.word	0x5f4c5346
    7f98:	54414546 	.word	0x54414546
    7f9c:	5f455255 	.word	0x5f455255
    7fa0:	414d4445 	.word	0x414d4445
    7fa4:	444f4d5f 	.word	0x444f4d5f
    7fa8:	5f454c55 	.word	0x5f454c55
    7fac:	4e414843 	.word	0x4e414843
    7fb0:	004c454e 	.word	0x004c454e
    7fb4:	642f2e2e 	.word	0x642f2e2e
    7fb8:	65766972 	.word	0x65766972
    7fbc:	662f7372 	.word	0x662f7372
    7fc0:	655f6c73 	.word	0x655f6c73
    7fc4:	2e616d64 	.word	0x2e616d64
    7fc8:	35333a63 	.word	0x35333a63
    7fcc:	203a2035 	.word	0x203a2035
    7fd0:	6e616863 	.word	0x6e616863
    7fd4:	206c656e 	.word	0x206c656e
    7fd8:	7528203c 	.word	0x7528203c
    7fdc:	33746e69 	.word	0x33746e69
    7fe0:	29745f32 	.word	0x29745f32
    7fe4:	5f4c5346 	.word	0x5f4c5346
    7fe8:	54414546 	.word	0x54414546
    7fec:	5f455255 	.word	0x5f455255
    7ff0:	414d4445 	.word	0x414d4445
    7ff4:	444f4d5f 	.word	0x444f4d5f
    7ff8:	5f454c55 	.word	0x5f454c55
    7ffc:	4e414843 	.word	0x4e414843
    8000:	004c454e 	.word	0x004c454e
    8004:	642f2e2e 	.word	0x642f2e2e
    8008:	65766972 	.word	0x65766972
    800c:	662f7372 	.word	0x662f7372
    8010:	655f6c73 	.word	0x655f6c73
    8014:	2e616d64 	.word	0x2e616d64
    8018:	38333a63 	.word	0x38333a63
    801c:	203a2036 	.word	0x203a2036
    8020:	6e616863 	.word	0x6e616863
    8024:	206c656e 	.word	0x206c656e
    8028:	7528203c 	.word	0x7528203c
    802c:	33746e69 	.word	0x33746e69
    8030:	29745f32 	.word	0x29745f32
    8034:	5f4c5346 	.word	0x5f4c5346
    8038:	54414546 	.word	0x54414546
    803c:	5f455255 	.word	0x5f455255
    8040:	414d4445 	.word	0x414d4445
    8044:	444f4d5f 	.word	0x444f4d5f
    8048:	5f454c55 	.word	0x5f454c55
    804c:	4e414843 	.word	0x4e414843
    8050:	004c454e 	.word	0x004c454e
    8054:	642f2e2e 	.word	0x642f2e2e
    8058:	65766972 	.word	0x65766972
    805c:	662f7372 	.word	0x662f7372
    8060:	655f6c73 	.word	0x655f6c73
    8064:	2e616d64 	.word	0x2e616d64
    8068:	31343a63 	.word	0x31343a63
    806c:	203a2037 	.word	0x203a2037
    8070:	20646374 	.word	0x20646374
    8074:	4e203d21 	.word	0x4e203d21
    8078:	004c4c55 	.word	0x004c4c55
    807c:	642f2e2e 	.word	0x642f2e2e
    8080:	65766972 	.word	0x65766972
    8084:	662f7372 	.word	0x662f7372
    8088:	655f6c73 	.word	0x655f6c73
    808c:	2e616d64 	.word	0x2e616d64
    8090:	31343a63 	.word	0x31343a63
    8094:	203a2038 	.word	0x203a2038
    8098:	69752828 	.word	0x69752828
    809c:	3233746e 	.word	0x3233746e
    80a0:	7429745f 	.word	0x7429745f
    80a4:	26206463 	.word	0x26206463
    80a8:	31783020 	.word	0x31783020
    80ac:	20295546 	.word	0x20295546
    80b0:	30203d3d 	.word	0x30203d3d
    80b4:	00000055 	.word	0x00000055
    80b8:	642f2e2e 	.word	0x642f2e2e
    80bc:	65766972 	.word	0x65766972
    80c0:	662f7372 	.word	0x662f7372
    80c4:	655f6c73 	.word	0x655f6c73
    80c8:	2e616d64 	.word	0x2e616d64
    80cc:	36343a63 	.word	0x36343a63
    80d0:	203a2034 	.word	0x203a2034
    80d4:	20646374 	.word	0x20646374
    80d8:	4e203d21 	.word	0x4e203d21
    80dc:	004c4c55 	.word	0x004c4c55
    80e0:	642f2e2e 	.word	0x642f2e2e
    80e4:	65766972 	.word	0x65766972
    80e8:	662f7372 	.word	0x662f7372
    80ec:	655f6c73 	.word	0x655f6c73
    80f0:	2e616d64 	.word	0x2e616d64
    80f4:	36343a63 	.word	0x36343a63
    80f8:	203a2035 	.word	0x203a2035
    80fc:	69752828 	.word	0x69752828
    8100:	3233746e 	.word	0x3233746e
    8104:	7429745f 	.word	0x7429745f
    8108:	26206463 	.word	0x26206463
    810c:	31783020 	.word	0x31783020
    8110:	20295546 	.word	0x20295546
    8114:	30203d3d 	.word	0x30203d3d
    8118:	00000055 	.word	0x00000055
    811c:	642f2e2e 	.word	0x642f2e2e
    8120:	65766972 	.word	0x65766972
    8124:	662f7372 	.word	0x662f7372
    8128:	655f6c73 	.word	0x655f6c73
    812c:	2e616d64 	.word	0x2e616d64
    8130:	36343a63 	.word	0x36343a63
    8134:	203a2036 	.word	0x203a2036
    8138:	666e6f63 	.word	0x666e6f63
    813c:	21206769 	.word	0x21206769
    8140:	554e203d 	.word	0x554e203d
    8144:	00004c4c 	.word	0x00004c4c
    8148:	642f2e2e 	.word	0x642f2e2e
    814c:	65766972 	.word	0x65766972
    8150:	662f7372 	.word	0x662f7372
    8154:	655f6c73 	.word	0x655f6c73
    8158:	2e616d64 	.word	0x2e616d64
    815c:	36343a63 	.word	0x36343a63
    8160:	203a2037 	.word	0x203a2037
    8164:	69752828 	.word	0x69752828
    8168:	3233746e 	.word	0x3233746e
    816c:	6e29745f 	.word	0x6e29745f
    8170:	54747865 	.word	0x54747865
    8174:	26206463 	.word	0x26206463
    8178:	31783020 	.word	0x31783020
    817c:	20295546 	.word	0x20295546
    8180:	30203d3d 	.word	0x30203d3d
    8184:	00000055 	.word	0x00000055
    8188:	642f2e2e 	.word	0x642f2e2e
    818c:	65766972 	.word	0x65766972
    8190:	662f7372 	.word	0x662f7372
    8194:	655f6c73 	.word	0x655f6c73
    8198:	2e616d64 	.word	0x2e616d64
    819c:	31353a63 	.word	0x31353a63
    81a0:	203a2033 	.word	0x203a2033
    81a4:	20646374 	.word	0x20646374
    81a8:	4e203d21 	.word	0x4e203d21
    81ac:	004c4c55 	.word	0x004c4c55
    81b0:	642f2e2e 	.word	0x642f2e2e
    81b4:	65766972 	.word	0x65766972
    81b8:	662f7372 	.word	0x662f7372
    81bc:	655f6c73 	.word	0x655f6c73
    81c0:	2e616d64 	.word	0x2e616d64
    81c4:	31353a63 	.word	0x31353a63
    81c8:	203a2034 	.word	0x203a2034
    81cc:	69752828 	.word	0x69752828
    81d0:	3233746e 	.word	0x3233746e
    81d4:	7429745f 	.word	0x7429745f
    81d8:	26206463 	.word	0x26206463
    81dc:	31783020 	.word	0x31783020
    81e0:	20295546 	.word	0x20295546
    81e4:	30203d3d 	.word	0x30203d3d
    81e8:	00000055 	.word	0x00000055
    81ec:	642f2e2e 	.word	0x642f2e2e
    81f0:	65766972 	.word	0x65766972
    81f4:	662f7372 	.word	0x662f7372
    81f8:	655f6c73 	.word	0x655f6c73
    81fc:	2e616d64 	.word	0x2e616d64
    8200:	34353a63 	.word	0x34353a63
    8204:	203a2033 	.word	0x203a2033
    8208:	20646374 	.word	0x20646374
    820c:	4e203d21 	.word	0x4e203d21
    8210:	004c4c55 	.word	0x004c4c55
    8214:	642f2e2e 	.word	0x642f2e2e
    8218:	65766972 	.word	0x65766972
    821c:	662f7372 	.word	0x662f7372
    8220:	655f6c73 	.word	0x655f6c73
    8224:	2e616d64 	.word	0x2e616d64
    8228:	34353a63 	.word	0x34353a63
    822c:	203a2034 	.word	0x203a2034
    8230:	69752828 	.word	0x69752828
    8234:	3233746e 	.word	0x3233746e
    8238:	7429745f 	.word	0x7429745f
    823c:	26206463 	.word	0x26206463
    8240:	31783020 	.word	0x31783020
    8244:	20295546 	.word	0x20295546
    8248:	30203d3d 	.word	0x30203d3d
    824c:	00000055 	.word	0x00000055
    8250:	642f2e2e 	.word	0x642f2e2e
    8254:	65766972 	.word	0x65766972
    8258:	662f7372 	.word	0x662f7372
    825c:	655f6c73 	.word	0x655f6c73
    8260:	2e616d64 	.word	0x2e616d64
    8264:	34353a63 	.word	0x34353a63
    8268:	203a2035 	.word	0x203a2035
    826c:	6b6e696c 	.word	0x6b6e696c
    8270:	68436465 	.word	0x68436465
    8274:	656e6e61 	.word	0x656e6e61
    8278:	203c206c 	.word	0x203c206c
    827c:	6e697528 	.word	0x6e697528
    8280:	5f323374 	.word	0x5f323374
    8284:	53462974 	.word	0x53462974
    8288:	45465f4c 	.word	0x45465f4c
    828c:	52555441 	.word	0x52555441
    8290:	44455f45 	.word	0x44455f45
    8294:	4d5f414d 	.word	0x4d5f414d
    8298:	4c55444f 	.word	0x4c55444f
    829c:	48435f45 	.word	0x48435f45
    82a0:	454e4e41 	.word	0x454e4e41
    82a4:	0000004c 	.word	0x0000004c
    82a8:	642f2e2e 	.word	0x642f2e2e
    82ac:	65766972 	.word	0x65766972
    82b0:	662f7372 	.word	0x662f7372
    82b4:	655f6c73 	.word	0x655f6c73
    82b8:	2e616d64 	.word	0x2e616d64
    82bc:	39353a63 	.word	0x39353a63
    82c0:	203a2033 	.word	0x203a2033
    82c4:	20646374 	.word	0x20646374
    82c8:	4e203d21 	.word	0x4e203d21
    82cc:	004c4c55 	.word	0x004c4c55
    82d0:	642f2e2e 	.word	0x642f2e2e
    82d4:	65766972 	.word	0x65766972
    82d8:	662f7372 	.word	0x662f7372
    82dc:	655f6c73 	.word	0x655f6c73
    82e0:	2e616d64 	.word	0x2e616d64
    82e4:	39353a63 	.word	0x39353a63
    82e8:	203a2034 	.word	0x203a2034
    82ec:	69752828 	.word	0x69752828
    82f0:	3233746e 	.word	0x3233746e
    82f4:	7429745f 	.word	0x7429745f
    82f8:	26206463 	.word	0x26206463
    82fc:	31783020 	.word	0x31783020
    8300:	20295546 	.word	0x20295546
    8304:	30203d3d 	.word	0x30203d3d
    8308:	00000055 	.word	0x00000055
    830c:	642f2e2e 	.word	0x642f2e2e
    8310:	65766972 	.word	0x65766972
    8314:	662f7372 	.word	0x662f7372
    8318:	655f6c73 	.word	0x655f6c73
    831c:	2e616d64 	.word	0x2e616d64
    8320:	31363a63 	.word	0x31363a63
    8324:	203a2031 	.word	0x203a2031
    8328:	20646374 	.word	0x20646374
    832c:	4e203d21 	.word	0x4e203d21
    8330:	004c4c55 	.word	0x004c4c55
    8334:	642f2e2e 	.word	0x642f2e2e
    8338:	65766972 	.word	0x65766972
    833c:	662f7372 	.word	0x662f7372
    8340:	655f6c73 	.word	0x655f6c73
    8344:	2e616d64 	.word	0x2e616d64
    8348:	33363a63 	.word	0x33363a63
    834c:	203a2035 	.word	0x203a2035
    8350:	20646374 	.word	0x20646374
    8354:	4e203d21 	.word	0x4e203d21
    8358:	004c4c55 	.word	0x004c4c55
    835c:	642f2e2e 	.word	0x642f2e2e
    8360:	65766972 	.word	0x65766972
    8364:	662f7372 	.word	0x662f7372
    8368:	655f6c73 	.word	0x655f6c73
    836c:	2e616d64 	.word	0x2e616d64
    8370:	37363a63 	.word	0x37363a63
    8374:	203a2033 	.word	0x203a2033
    8378:	6e616863 	.word	0x6e616863
    837c:	206c656e 	.word	0x206c656e
    8380:	7528203c 	.word	0x7528203c
    8384:	33746e69 	.word	0x33746e69
    8388:	29745f32 	.word	0x29745f32
    838c:	5f4c5346 	.word	0x5f4c5346
    8390:	54414546 	.word	0x54414546
    8394:	5f455255 	.word	0x5f455255
    8398:	414d4445 	.word	0x414d4445
    839c:	444f4d5f 	.word	0x444f4d5f
    83a0:	5f454c55 	.word	0x5f454c55
    83a4:	4e414843 	.word	0x4e414843
    83a8:	004c454e 	.word	0x004c454e
    83ac:	642f2e2e 	.word	0x642f2e2e
    83b0:	65766972 	.word	0x65766972
    83b4:	662f7372 	.word	0x662f7372
    83b8:	655f6c73 	.word	0x655f6c73
    83bc:	2e616d64 	.word	0x2e616d64
    83c0:	30373a63 	.word	0x30373a63
    83c4:	203a2039 	.word	0x203a2039
    83c8:	6e616863 	.word	0x6e616863
    83cc:	206c656e 	.word	0x206c656e
    83d0:	7528203c 	.word	0x7528203c
    83d4:	33746e69 	.word	0x33746e69
    83d8:	29745f32 	.word	0x29745f32
    83dc:	5f4c5346 	.word	0x5f4c5346
    83e0:	54414546 	.word	0x54414546
    83e4:	5f455255 	.word	0x5f455255
    83e8:	414d4445 	.word	0x414d4445
    83ec:	444f4d5f 	.word	0x444f4d5f
    83f0:	5f454c55 	.word	0x5f454c55
    83f4:	4e414843 	.word	0x4e414843
    83f8:	004c454e 	.word	0x004c454e
    83fc:	642f2e2e 	.word	0x642f2e2e
    8400:	65766972 	.word	0x65766972
    8404:	662f7372 	.word	0x662f7372
    8408:	655f6c73 	.word	0x655f6c73
    840c:	2e616d64 	.word	0x2e616d64
    8410:	33373a63 	.word	0x33373a63
    8414:	203a2033 	.word	0x203a2033
    8418:	6e616863 	.word	0x6e616863
    841c:	206c656e 	.word	0x206c656e
    8420:	7528203c 	.word	0x7528203c
    8424:	33746e69 	.word	0x33746e69
    8428:	29745f32 	.word	0x29745f32
    842c:	5f4c5346 	.word	0x5f4c5346
    8430:	54414546 	.word	0x54414546
    8434:	5f455255 	.word	0x5f455255
    8438:	414d4445 	.word	0x414d4445
    843c:	444f4d5f 	.word	0x444f4d5f
    8440:	5f454c55 	.word	0x5f454c55
    8444:	4e414843 	.word	0x4e414843
    8448:	004c454e 	.word	0x004c454e
    844c:	642f2e2e 	.word	0x642f2e2e
    8450:	65766972 	.word	0x65766972
    8454:	662f7372 	.word	0x662f7372
    8458:	655f6c73 	.word	0x655f6c73
    845c:	2e616d64 	.word	0x2e616d64
    8460:	38373a63 	.word	0x38373a63
    8464:	203a2032 	.word	0x203a2032
    8468:	646e6168 	.word	0x646e6168
    846c:	2120656c 	.word	0x2120656c
    8470:	554e203d 	.word	0x554e203d
    8474:	00004c4c 	.word	0x00004c4c
    8478:	642f2e2e 	.word	0x642f2e2e
    847c:	65766972 	.word	0x65766972
    8480:	662f7372 	.word	0x662f7372
    8484:	655f6c73 	.word	0x655f6c73
    8488:	2e616d64 	.word	0x2e616d64
    848c:	38373a63 	.word	0x38373a63
    8490:	203a2033 	.word	0x203a2033
    8494:	6e616863 	.word	0x6e616863
    8498:	206c656e 	.word	0x206c656e
    849c:	7528203c 	.word	0x7528203c
    84a0:	33746e69 	.word	0x33746e69
    84a4:	29745f32 	.word	0x29745f32
    84a8:	5f4c5346 	.word	0x5f4c5346
    84ac:	54414546 	.word	0x54414546
    84b0:	5f455255 	.word	0x5f455255
    84b4:	414d4445 	.word	0x414d4445
    84b8:	444f4d5f 	.word	0x444f4d5f
    84bc:	5f454c55 	.word	0x5f454c55
    84c0:	4e414843 	.word	0x4e414843
    84c4:	004c454e 	.word	0x004c454e
    84c8:	642f2e2e 	.word	0x642f2e2e
    84cc:	65766972 	.word	0x65766972
    84d0:	662f7372 	.word	0x662f7372
    84d4:	655f6c73 	.word	0x655f6c73
    84d8:	2e616d64 	.word	0x2e616d64
    84dc:	33383a63 	.word	0x33383a63
    84e0:	203a2037 	.word	0x203a2037
    84e4:	646e6168 	.word	0x646e6168
    84e8:	2120656c 	.word	0x2120656c
    84ec:	554e203d 	.word	0x554e203d
    84f0:	00004c4c 	.word	0x00004c4c
    84f4:	642f2e2e 	.word	0x642f2e2e
    84f8:	65766972 	.word	0x65766972
    84fc:	662f7372 	.word	0x662f7372
    8500:	655f6c73 	.word	0x655f6c73
    8504:	2e616d64 	.word	0x2e616d64
    8508:	33383a63 	.word	0x33383a63
    850c:	203a2038 	.word	0x203a2038
    8510:	69752828 	.word	0x69752828
    8514:	3233746e 	.word	0x3233746e
    8518:	7429745f 	.word	0x7429745f
    851c:	6f506463 	.word	0x6f506463
    8520:	26206c6f 	.word	0x26206c6f
    8524:	31783020 	.word	0x31783020
    8528:	20295546 	.word	0x20295546
    852c:	30203d3d 	.word	0x30203d3d
    8530:	00000055 	.word	0x00000055
    8534:	642f2e2e 	.word	0x642f2e2e
    8538:	65766972 	.word	0x65766972
    853c:	662f7372 	.word	0x662f7372
    8540:	655f6c73 	.word	0x655f6c73
    8544:	2e616d64 	.word	0x2e616d64
    8548:	36383a63 	.word	0x36383a63
    854c:	203a2031 	.word	0x203a2031
    8550:	646e6168 	.word	0x646e6168
    8554:	2120656c 	.word	0x2120656c
    8558:	554e203d 	.word	0x554e203d
    855c:	00004c4c 	.word	0x00004c4c
    8560:	642f2e2e 	.word	0x642f2e2e
    8564:	65766972 	.word	0x65766972
    8568:	662f7372 	.word	0x662f7372
    856c:	655f6c73 	.word	0x655f6c73
    8570:	2e616d64 	.word	0x2e616d64
    8574:	39383a63 	.word	0x39383a63
    8578:	203a2033 	.word	0x203a2033
    857c:	666e6f63 	.word	0x666e6f63
    8580:	21206769 	.word	0x21206769
    8584:	554e203d 	.word	0x554e203d
    8588:	00004c4c 	.word	0x00004c4c
    858c:	642f2e2e 	.word	0x642f2e2e
    8590:	65766972 	.word	0x65766972
    8594:	662f7372 	.word	0x662f7372
    8598:	655f6c73 	.word	0x655f6c73
    859c:	2e616d64 	.word	0x2e616d64
    85a0:	39383a63 	.word	0x39383a63
    85a4:	203a2034 	.word	0x203a2034
    85a8:	41637273 	.word	0x41637273
    85ac:	20726464 	.word	0x20726464
    85b0:	4e203d21 	.word	0x4e203d21
    85b4:	004c4c55 	.word	0x004c4c55
    85b8:	642f2e2e 	.word	0x642f2e2e
    85bc:	65766972 	.word	0x65766972
    85c0:	662f7372 	.word	0x662f7372
    85c4:	655f6c73 	.word	0x655f6c73
    85c8:	2e616d64 	.word	0x2e616d64
    85cc:	39383a63 	.word	0x39383a63
    85d0:	203a2035 	.word	0x203a2035
    85d4:	74736564 	.word	0x74736564
    85d8:	72646441 	.word	0x72646441
    85dc:	203d2120 	.word	0x203d2120
    85e0:	4c4c554e 	.word	0x4c4c554e
    85e4:	00000000 	.word	0x00000000
    85e8:	642f2e2e 	.word	0x642f2e2e
    85ec:	65766972 	.word	0x65766972
    85f0:	662f7372 	.word	0x662f7372
    85f4:	655f6c73 	.word	0x655f6c73
    85f8:	2e616d64 	.word	0x2e616d64
    85fc:	39383a63 	.word	0x39383a63
    8600:	203a2037 	.word	0x203a2037
    8604:	63727328 	.word	0x63727328
    8608:	74646957 	.word	0x74646957
    860c:	3d3d2068 	.word	0x3d3d2068
    8610:	29553120 	.word	0x29553120
    8614:	207c7c20 	.word	0x207c7c20
    8618:	63727328 	.word	0x63727328
    861c:	74646957 	.word	0x74646957
    8620:	3d3d2068 	.word	0x3d3d2068
    8624:	29553220 	.word	0x29553220
    8628:	207c7c20 	.word	0x207c7c20
    862c:	63727328 	.word	0x63727328
    8630:	74646957 	.word	0x74646957
    8634:	3d3d2068 	.word	0x3d3d2068
    8638:	29553420 	.word	0x29553420
    863c:	207c7c20 	.word	0x207c7c20
    8640:	63727328 	.word	0x63727328
    8644:	74646957 	.word	0x74646957
    8648:	3d3d2068 	.word	0x3d3d2068
    864c:	29553820 	.word	0x29553820
    8650:	207c7c20 	.word	0x207c7c20
    8654:	63727328 	.word	0x63727328
    8658:	74646957 	.word	0x74646957
    865c:	3d3d2068 	.word	0x3d3d2068
    8660:	55363120 	.word	0x55363120
    8664:	7c7c2029 	.word	0x7c7c2029
    8668:	72732820 	.word	0x72732820
    866c:	64695763 	.word	0x64695763
    8670:	3d206874 	.word	0x3d206874
    8674:	3233203d 	.word	0x3233203d
    8678:	00002955 	.word	0x00002955
    867c:	642f2e2e 	.word	0x642f2e2e
    8680:	65766972 	.word	0x65766972
    8684:	662f7372 	.word	0x662f7372
    8688:	655f6c73 	.word	0x655f6c73
    868c:	2e616d64 	.word	0x2e616d64
    8690:	39383a63 	.word	0x39383a63
    8694:	203a2039 	.word	0x203a2039
    8698:	73656428 	.word	0x73656428
    869c:	64695774 	.word	0x64695774
    86a0:	3d206874 	.word	0x3d206874
    86a4:	5531203d 	.word	0x5531203d
    86a8:	7c7c2029 	.word	0x7c7c2029
    86ac:	65642820 	.word	0x65642820
    86b0:	69577473 	.word	0x69577473
    86b4:	20687464 	.word	0x20687464
    86b8:	32203d3d 	.word	0x32203d3d
    86bc:	7c202955 	.word	0x7c202955
    86c0:	6428207c 	.word	0x6428207c
    86c4:	57747365 	.word	0x57747365
    86c8:	68746469 	.word	0x68746469
    86cc:	203d3d20 	.word	0x203d3d20
    86d0:	20295534 	.word	0x20295534
    86d4:	28207c7c 	.word	0x28207c7c
    86d8:	74736564 	.word	0x74736564
    86dc:	74646957 	.word	0x74646957
    86e0:	3d3d2068 	.word	0x3d3d2068
    86e4:	29553820 	.word	0x29553820
    86e8:	207c7c20 	.word	0x207c7c20
    86ec:	73656428 	.word	0x73656428
    86f0:	64695774 	.word	0x64695774
    86f4:	3d206874 	.word	0x3d206874
    86f8:	3631203d 	.word	0x3631203d
    86fc:	7c202955 	.word	0x7c202955
    8700:	6428207c 	.word	0x6428207c
    8704:	57747365 	.word	0x57747365
    8708:	68746469 	.word	0x68746469
    870c:	203d3d20 	.word	0x203d3d20
    8710:	29553233 	.word	0x29553233
    8714:	00000000 	.word	0x00000000
    8718:	642f2e2e 	.word	0x642f2e2e
    871c:	65766972 	.word	0x65766972
    8720:	662f7372 	.word	0x662f7372
    8724:	655f6c73 	.word	0x655f6c73
    8728:	2e616d64 	.word	0x2e616d64
    872c:	30393a63 	.word	0x30393a63
    8730:	203a2030 	.word	0x203a2030
    8734:	61727428 	.word	0x61727428
    8738:	6566736e 	.word	0x6566736e
    873c:	74794272 	.word	0x74794272
    8740:	25207365 	.word	0x25207365
    8744:	74796220 	.word	0x74796220
    8748:	61457365 	.word	0x61457365
    874c:	65526863 	.word	0x65526863
    8750:	73657571 	.word	0x73657571
    8754:	3d202974 	.word	0x3d202974
    8758:	5530203d 	.word	0x5530203d
    875c:	00000000 	.word	0x00000000
    8760:	642f2e2e 	.word	0x642f2e2e
    8764:	65766972 	.word	0x65766972
    8768:	662f7372 	.word	0x662f7372
    876c:	655f6c73 	.word	0x655f6c73
    8770:	2e616d64 	.word	0x2e616d64
    8774:	33393a63 	.word	0x33393a63
    8778:	203a2035 	.word	0x203a2035
    877c:	736c6166 	.word	0x736c6166
    8780:	00000065 	.word	0x00000065
    8784:	642f2e2e 	.word	0x642f2e2e
    8788:	65766972 	.word	0x65766972
    878c:	662f7372 	.word	0x662f7372
    8790:	655f6c73 	.word	0x655f6c73
    8794:	2e616d64 	.word	0x2e616d64
    8798:	36393a63 	.word	0x36393a63
    879c:	203a2034 	.word	0x203a2034
    87a0:	736c6166 	.word	0x736c6166
    87a4:	00000065 	.word	0x00000065
    87a8:	642f2e2e 	.word	0x642f2e2e
    87ac:	65766972 	.word	0x65766972
    87b0:	662f7372 	.word	0x662f7372
    87b4:	655f6c73 	.word	0x655f6c73
    87b8:	2e616d64 	.word	0x2e616d64
    87bc:	38393a63 	.word	0x38393a63
    87c0:	203a2033 	.word	0x203a2033
    87c4:	736c6166 	.word	0x736c6166
    87c8:	00000065 	.word	0x00000065
    87cc:	642f2e2e 	.word	0x642f2e2e
    87d0:	65766972 	.word	0x65766972
    87d4:	662f7372 	.word	0x662f7372
    87d8:	655f6c73 	.word	0x655f6c73
    87dc:	2e616d64 	.word	0x2e616d64
    87e0:	30313a63 	.word	0x30313a63
    87e4:	3a203330 	.word	0x3a203330
    87e8:	6e616820 	.word	0x6e616820
    87ec:	20656c64 	.word	0x20656c64
    87f0:	4e203d21 	.word	0x4e203d21
    87f4:	004c4c55 	.word	0x004c4c55
    87f8:	642f2e2e 	.word	0x642f2e2e
    87fc:	65766972 	.word	0x65766972
    8800:	662f7372 	.word	0x662f7372
    8804:	655f6c73 	.word	0x655f6c73
    8808:	2e616d64 	.word	0x2e616d64
    880c:	30313a63 	.word	0x30313a63
    8810:	3a203430 	.word	0x3a203430
    8814:	6e6f6320 	.word	0x6e6f6320
    8818:	20676966 	.word	0x20676966
    881c:	4e203d21 	.word	0x4e203d21
    8820:	004c4c55 	.word	0x004c4c55
    8824:	642f2e2e 	.word	0x642f2e2e
    8828:	65766972 	.word	0x65766972
    882c:	662f7372 	.word	0x662f7372
    8830:	655f6c73 	.word	0x655f6c73
    8834:	2e616d64 	.word	0x2e616d64
    8838:	31313a63 	.word	0x31313a63
    883c:	3a203635 	.word	0x3a203635
    8840:	6e616820 	.word	0x6e616820
    8844:	20656c64 	.word	0x20656c64
    8848:	4e203d21 	.word	0x4e203d21
    884c:	004c4c55 	.word	0x004c4c55
    8850:	642f2e2e 	.word	0x642f2e2e
    8854:	65766972 	.word	0x65766972
    8858:	662f7372 	.word	0x662f7372
    885c:	655f6c73 	.word	0x655f6c73
    8860:	2e616d64 	.word	0x2e616d64
    8864:	32313a63 	.word	0x32313a63
    8868:	3a203330 	.word	0x3a203330
    886c:	6e616820 	.word	0x6e616820
    8870:	20656c64 	.word	0x20656c64
    8874:	4e203d21 	.word	0x4e203d21
    8878:	004c4c55 	.word	0x004c4c55
    887c:	642f2e2e 	.word	0x642f2e2e
    8880:	65766972 	.word	0x65766972
    8884:	662f7372 	.word	0x662f7372
    8888:	655f6c73 	.word	0x655f6c73
    888c:	2e616d64 	.word	0x2e616d64
    8890:	32313a63 	.word	0x32313a63
    8894:	3a203836 	.word	0x3a203836
    8898:	6e616820 	.word	0x6e616820
    889c:	20656c64 	.word	0x20656c64
    88a0:	4e203d21 	.word	0x4e203d21
    88a4:	004c4c55 	.word	0x004c4c55
    88a8:	642f2e2e 	.word	0x642f2e2e
    88ac:	65766972 	.word	0x65766972
    88b0:	662f7372 	.word	0x662f7372
    88b4:	635f6c73 	.word	0x635f6c73
    88b8:	6b636f6c 	.word	0x6b636f6c
    88bc:	313a682e 	.word	0x313a682e
    88c0:	20313630 	.word	0x20313630
    88c4:	6e69203a 	.word	0x6e69203a
    88c8:	20786564 	.word	0x20786564
    88cc:	37203d3c 	.word	0x37203d3c
    88d0:	00000000 	.word	0x00000000
    88d4:	642f2e2e 	.word	0x642f2e2e
    88d8:	65766972 	.word	0x65766972
    88dc:	662f7372 	.word	0x662f7372
    88e0:	675f6c73 	.word	0x675f6c73
    88e4:	2e6f6970 	.word	0x2e6f6970
    88e8:	37353a63 	.word	0x37353a63
    88ec:	69203a20 	.word	0x69203a20
    88f0:	6174736e 	.word	0x6174736e
    88f4:	2065636e 	.word	0x2065636e
    88f8:	5241203c 	.word	0x5241203c
    88fc:	5f594152 	.word	0x5f594152
    8900:	455a4953 	.word	0x455a4953
    8904:	675f7328 	.word	0x675f7328
    8908:	426f6970 	.word	0x426f6970
    890c:	73657361 	.word	0x73657361
    8910:	00000029 	.word	0x00000029
    8914:	642f2e2e 	.word	0x642f2e2e
    8918:	65766972 	.word	0x65766972
    891c:	662f7372 	.word	0x662f7372
    8920:	675f6c73 	.word	0x675f6c73
    8924:	2e6f6970 	.word	0x2e6f6970
    8928:	31313a63 	.word	0x31313a63
    892c:	203a2033 	.word	0x203a2033
    8930:	206e6970 	.word	0x206e6970
    8934:	3233203c 	.word	0x3233203c
    8938:	ffffff00 	.word	0xffffff00

0000893c <s_gpioBases>:
    893c:	00000000 401b8000 401bc000 401c0000     .......@...@...@
    894c:	401c4000 400c0000 42000000 42004000     .@.@...@...B.@.B
    895c:	42008000 4200c000                       ...B...B

00008964 <s_gpioClock>:
    8964:	011affff 021a001e 011e030c 642f2e2e     ............../d
    8974:	65766972 662f7372 635f6c73 6b636f6c     rivers/fsl_clock
    8984:	313a682e 20313630 6e69203a 20786564     .h:1061 : index 
    8994:	37203d3c 00000000 642f2e2e 65766972     <= 7....../drive
    89a4:	662f7372 6c5f6c73 69707370 313a632e     rs/fsl_lpspi.c:1
    89b4:	3a203835 736e6920 636e6174 203c2065     58 : instance < 
    89c4:	41525241 49535f59 7328455a 73706c5f     ARRAY_SIZE(s_lps
    89d4:	61426970 29736573 00000000 642f2e2e     piBases)....../d
    89e4:	65766972 662f7372 6c5f6c73 69707370     rivers/fsl_lpspi
    89f4:	313a632e 3a203838 73616d20 43726574     .c:188 : masterC
    8a04:	69666e6f 00000067 642f2e2e 65766972     onfig...../drive
    8a14:	662f7372 6c5f6c73 69707370 323a632e     rs/fsl_lpspi.c:2
    8a24:	3a203035 73616d20 43726574 69666e6f     50 : masterConfi
    8a34:	00000067 642f2e2e 65766972 662f7372     g...../drivers/f
    8a44:	6c5f6c73 69707370 323a632e 3a203038     sl_lpspi.c:280 :
    8a54:	616c7320 6f436576 6769666e 00000000      slaveConfig....
    8a64:	642f2e2e 65766972 662f7372 6c5f6c73     ../drivers/fsl_l
    8a74:	69707370 333a632e 3a203732 616c7320     pspi.c:327 : sla
    8a84:	6f436576 6769666e 00000000 642f2e2e     veConfig....../d
    8a94:	65766972 662f7372 6c5f6c73 69707370     rivers/fsl_lpspi
    8aa4:	343a632e 3a203432 72637420 73657250     .c:424 : tcrPres
    8ab4:	656c6163 756c6156 00000065 642f2e2e     caleValue...../d
    8ac4:	65766972 662f7372 6c5f6c73 69707370     rivers/fsl_lpspi
    8ad4:	353a632e 3a203333 6c616620 00006573     .c:533 : false..
    8ae4:	642f2e2e 65766972 662f7372 6c5f6c73     ../drivers/fsl_l
    8af4:	69707370 363a632e 3a203039 6e616820     pspi.c:690 : han
    8b04:	00656c64 642f2e2e 65766972 662f7372     dle.../drivers/f
    8b14:	6c5f6c73 69707370 373a632e 3a203431     sl_lpspi.c:714 :
    8b24:	61727420 6566736e 00000072 642f2e2e      transfer...../d
    8b34:	65766972 662f7372 6c5f6c73 69707370     rivers/fsl_lpspi
    8b44:	373a632e 3a203038 61727420 6566736e     .c:780 : transfe
    8b54:	00000072 642f2e2e 65766972 662f7372     r...../drivers/f
    8b64:	6c5f6c73 69707370 393a632e 3a203236     sl_lpspi.c:962 :
    8b74:	6e616820 00656c64 642f2e2e 65766972      handle.../drive
    8b84:	662f7372 6c5f6c73 69707370 393a632e     rs/fsl_lpspi.c:9
    8b94:	3a203336 61727420 6566736e 00000072     63 : transfer...
    8ba4:	642f2e2e 65766972 662f7372 6c5f6c73     ../drivers/fsl_l
    8bb4:	69707370 313a632e 20313131 6168203a     pspi.c:1111 : ha
    8bc4:	656c646e 00000000 642f2e2e 65766972     ndle....../drive
    8bd4:	662f7372 6c5f6c73 69707370 313a632e     rs/fsl_lpspi.c:1
    8be4:	20313731 6168203a 656c646e 00000000     171 : handle....
    8bf4:	642f2e2e 65766972 662f7372 6c5f6c73     ../drivers/fsl_l
    8c04:	69707370 313a632e 20363931 6168203a     pspi.c:1196 : ha
    8c14:	656c646e 00000000 642f2e2e 65766972     ndle....../drive
    8c24:	662f7372 6c5f6c73 69707370 313a632e     rs/fsl_lpspi.c:1
    8c34:	20363332 6168203a 656c646e 00000000     236 : handle....
    8c44:	642f2e2e 65766972 662f7372 6c5f6c73     ../drivers/fsl_l
    8c54:	69707370 313a632e 20383532 6168203a     pspi.c:1258 : ha
    8c64:	656c646e 00000000 642f2e2e 65766972     ndle....../drive
    8c74:	662f7372 6c5f6c73 69707370 313a632e     rs/fsl_lpspi.c:1
    8c84:	20303733 6168203a 656c646e 00000000     370 : handle....
    8c94:	642f2e2e 65766972 662f7372 6c5f6c73     ../drivers/fsl_l
    8ca4:	69707370 313a632e 20343034 6168203a     pspi.c:1404 : ha
    8cb4:	656c646e 00000000 642f2e2e 65766972     ndle....../drive
    8cc4:	662f7372 6c5f6c73 69707370 313a632e     rs/fsl_lpspi.c:1
    8cd4:	20353034 7274203a 66736e61 00007265     405 : transfer..
    8ce4:	642f2e2e 65766972 662f7372 6c5f6c73     ../drivers/fsl_l
    8cf4:	69707370 313a632e 20343635 6168203a     pspi.c:1564 : ha
    8d04:	656c646e 00000000 642f2e2e 65766972     ndle....../drive
    8d14:	662f7372 6c5f6c73 69707370 313a632e     rs/fsl_lpspi.c:1
    8d24:	20333935 6168203a 656c646e 00000000     593 : handle....
    8d34:	642f2e2e 65766972 662f7372 6c5f6c73     ../drivers/fsl_l
    8d44:	69707370 313a632e 20393236 6168203a     pspi.c:1629 : ha
    8d54:	656c646e 00000000 642f2e2e 65766972     ndle....../drive
    8d64:	662f7372 6c5f6c73 69707370 313a632e     rs/fsl_lpspi.c:1
    8d74:	20393636 6168203a 656c646e 00000000     669 : handle....
    8d84:	642f2e2e 65766972 662f7372 6c5f6c73     ../drivers/fsl_l
    8d94:	69707370 313a632e 20313936 6168203a     pspi.c:1691 : ha
    8da4:	656c646e 00000000 642f2e2e 65766972     ndle....../drive
    8db4:	662f7372 6c5f6c73 69707370 313a632e     rs/fsl_lpspi.c:1
    8dc4:	20323138 7874203a 61746144 00000000     812 : txData....
    8dd4:	642f2e2e 65766972 662f7372 6c5f6c73     ../drivers/fsl_l
    8de4:	69707370 313a632e 20383838 6166203a     pspi.c:1888 : fa
    8df4:	0065736c 642f2e2e 65766972 662f7372     lse.../drivers/f
    8e04:	6c5f6c73 69707370 313a632e 20363938     sl_lpspi.c:1896 
    8e14:	7872203a 61746144 00000000 642f2e2e     : rxData....../d
    8e24:	65766972 662f7372 6c5f6c73 69707370     rivers/fsl_lpspi
    8e34:	313a632e 20393639 6166203a 0065736c     .c:1969 : false.
    8e44:	642f2e2e 65766972 662f7372 6c5f6c73     ../drivers/fsl_l
    8e54:	69707370 323a632e 20323030 5f73203a     pspi.c:2002 : s_
    8e64:	7073706c 6e614869 5b656c64 00005d31     lpspiHandle[1]..
    8e74:	642f2e2e 65766972 662f7372 6c5f6c73     ../drivers/fsl_l
    8e84:	69707370 323a632e 20303130 5f73203a     pspi.c:2010 : s_
    8e94:	7073706c 6e614869 5b656c64 00005d32     lpspiHandle[2]..
    8ea4:	642f2e2e 65766972 662f7372 6c5f6c73     ../drivers/fsl_l
    8eb4:	69707370 323a632e 20383130 5f73203a     pspi.c:2018 : s_
    8ec4:	7073706c 6e614869 5b656c64 00005d33     lpspiHandle[3]..
    8ed4:	642f2e2e 65766972 662f7372 6c5f6c73     ../drivers/fsl_l
    8ee4:	69707370 323a632e 20363230 5f73203a     pspi.c:2026 : s_
    8ef4:	7073706c 6e614869 5b656c64 ff005d34     lpspiHandle[4]..

00008f04 <s_baudratePrescaler>:
    8f04:	08040201 80402010                       ..... @.

00008f0c <s_lpspiBases>:
    8f0c:	00000000 40394000 40398000 4039c000     .....@9@..9@..9@
    8f1c:	403a0000                                ..:@

00008f20 <s_lpspiIRQ>:
    8f20:	0020ff80 00220021 ffff0023              .. .!.".#...

00008f2c <s_lpspiClocks>:
    8f2c:	0100ffff 01040102 ffff0106 642f2e2e     ............../d
    8f3c:	65766972 662f7372 635f6c73 6b636f6c     rivers/fsl_clock
    8f4c:	313a682e 20313630 6e69203a 20786564     .h:1061 : index 
    8f5c:	37203d3c ffffff00                       <= 7....

00008f64 <s_lpspiClock>:
    8f64:	0100ffff 01040102 ffff0106              ............

00008f70 <s_lpspiDriverVersion>:
    8f70:	02010202                                ....

00008f74 <LPSPI4_Resource>:
    8f74:	403a0000 00000004 0000081d              ..:@........

00008f80 <Driver_SPI4>:
    8f80:	000033dd 000068bd 00003705 00003729     .3...h...7..)7..
    8f90:	00003741 00003765 00003789 000037ad     A7..e7...7...7..
    8fa0:	000037d5 000037e9 0000380d 642f2e2e     .7...7...8..../d
    8fb0:	65766972 662f7372 635f6c73 6b636f6c     rivers/fsl_clock
    8fc0:	313a682e 20313630 6e69203a 20786564     .h:1061 : index 
    8fd0:	37203d3c 00000000 642f2e2e 65766972     <= 7....../drive
    8fe0:	662f7372 6c5f6c73 72617570 3a632e74     rs/fsl_lpuart.c:
    8ff0:	20323231 6e69203a 6e617473 3c206563     122 : instance <
    9000:	52524120 535f5941 28455a49 706c5f73      ARRAY_SIZE(s_lp
    9010:	74726175 65736142 00002973 642f2e2e     uartBases)..../d
    9020:	65766972 662f7372 6c5f6c73 72617570     rivers/fsl_lpuar
    9030:	3a632e74 20353331 554e203a 21204c4c     t.c:135 : NULL !
    9040:	6168203d 656c646e 00000000 642f2e2e     = handle....../d
    9050:	65766972 662f7372 6c5f6c73 72617570     rivers/fsl_lpuar
    9060:	3a632e74 20363531 554e203a 21204c4c     t.c:156 : NULL !
    9070:	6168203d 656c646e 00000000 642f2e2e     = handle....../d
    9080:	65766972 662f7372 6c5f6c73 72617570     rivers/fsl_lpuar
    9090:	3a632e74 20333731 554e203a 21204c4c     t.c:173 : NULL !
    90a0:	6164203d 00006174 642f2e2e 65766972     = data..../drive
    90b0:	662f7372 6c5f6c73 72617570 3a632e74     rs/fsl_lpuart.c:
    90c0:	20373831 554e203a 21204c4c 6164203d     187 : NULL != da
    90d0:	00006174 642f2e2e 65766972 662f7372     ta..../drivers/f
    90e0:	6c5f6c73 72617570 3a632e74 20313432     sl_lpuart.c:241 
    90f0:	554e203a 21204c4c 6f63203d 6769666e     : NULL != config
    9100:	00000000 642f2e2e 65766972 662f7372     ....../drivers/f
    9110:	6c5f6c73 72617570 3a632e74 20323432     sl_lpuart.c:242 
    9120:	5530203a 63203c20 69666e6f 623e2d67     : 0U < config->b
    9130:	52647561 5f657461 00737042 642f2e2e     audRate_Bps.../d
    9140:	65766972 662f7372 6c5f6c73 72617570     rivers/fsl_lpuar
    9150:	3a632e74 20343432 7528203a 38746e69     t.c:244 : (uint8
    9160:	4629745f 465f4c53 55544145 4c5f4552     _t)FSL_FEATURE_L
    9170:	52415550 49465f54 535f4f46 6e455a49     PUART_FIFO_SIZEn
    9180:	73616228 3e202965 6f63203d 6769666e     (base) >= config
    9190:	78743e2d 6f666946 65746157 72616d72     ->txFifoWatermar
    91a0:	0000006b 642f2e2e 65766972 662f7372     k...../drivers/f
    91b0:	6c5f6c73 72617570 3a632e74 20353432     sl_lpuart.c:245 
    91c0:	7528203a 38746e69 4629745f 465f4c53     : (uint8_t)FSL_F
    91d0:	55544145 4c5f4552 52415550 49465f54     EATURE_LPUART_FI
    91e0:	535f4f46 6e455a49 73616228 3e202965     FO_SIZEn(base) >
    91f0:	6f63203d 6769666e 78723e2d 6f666946     = config->rxFifo
    9200:	65746157 72616d72 0000006b 642f2e2e     Watermark...../d
    9210:	65766972 662f7372 6c5f6c73 72617570     rivers/fsl_lpuar
    9220:	3a632e74 20303235 554e203a 21204c4c     t.c:520 : NULL !
    9230:	6f63203d 6769666e 00000000 642f2e2e     = config....../d
    9240:	65766972 662f7372 6c5f6c73 72617570     rivers/fsl_lpuar
    9250:	3a632e74 20353635 5530203a 62203c20     t.c:565 : 0U < b
    9260:	52647561 5f657461 00737042 642f2e2e     audRate_Bps.../d
    9270:	65766972 662f7372 6c5f6c73 72617570     rivers/fsl_lpuar
    9280:	3a632e74 20333338 554e203a 21204c4c     t.c:833 : NULL !
    9290:	6164203d 00006174 642f2e2e 65766972     = data..../drive
    92a0:	662f7372 6c5f6c73 72617570 3a632e74     rs/fsl_lpuart.c:
    92b0:	20383638 554e203a 21204c4c 6164203d     868 : NULL != da
    92c0:	00006174 642f2e2e 65766972 662f7372     ta..../drivers/f
    92d0:	6c5f6c73 72617570 3a632e74 20303639     sl_lpuart.c:960 
    92e0:	554e203a 21204c4c 6168203d 656c646e     : NULL != handle
    92f0:	00000000 642f2e2e 65766972 662f7372     ....../drivers/f
    9300:	6c5f6c73 72617570 3a632e74 35323031     sl_lpuart.c:1025
    9310:	4e203a20 204c4c55 68203d21 6c646e61      : NULL != handl
    9320:	00000065 642f2e2e 65766972 662f7372     e...../drivers/f
    9330:	6c5f6c73 72617570 3a632e74 36323031     sl_lpuart.c:1026
    9340:	4e203a20 204c4c55 72203d21 42676e69      : NULL != ringB
    9350:	65666675 00000072 642f2e2e 65766972     uffer...../drive
    9360:	662f7372 6c5f6c73 72617570 3a632e74     rs/fsl_lpuart.c:
    9370:	39343031 4e203a20 204c4c55 68203d21     1049 : NULL != h
    9380:	6c646e61 00000065 642f2e2e 65766972     andle...../drive
    9390:	662f7372 6c5f6c73 72617570 3a632e74     rs/fsl_lpuart.c:
    93a0:	34383031 4e203a20 204c4c55 68203d21     1084 : NULL != h
    93b0:	6c646e61 00000065 642f2e2e 65766972     andle...../drive
    93c0:	662f7372 6c5f6c73 72617570 3a632e74     rs/fsl_lpuart.c:
    93d0:	35383031 4e203a20 204c4c55 78203d21     1085 : NULL != x
    93e0:	00726566 642f2e2e 65766972 662f7372     fer.../drivers/f
    93f0:	6c5f6c73 72617570 3a632e74 36383031     sl_lpuart.c:1086
    9400:	4e203a20 204c4c55 78203d21 2d726566      : NULL != xfer-
    9410:	7461643e 00000061 642f2e2e 65766972     >data...../drive
    9420:	662f7372 6c5f6c73 72617570 3a632e74     rs/fsl_lpuart.c:
    9430:	37383031 30203a20 3d212055 65667820     1087 : 0U != xfe
    9440:	643e2d72 53617461 00657a69 642f2e2e     r->dataSize.../d
    9450:	65766972 662f7372 6c5f6c73 72617570     rivers/fsl_lpuar
    9460:	3a632e74 33323131 4e203a20 204c4c55     t.c:1123 : NULL 
    9470:	68203d21 6c646e61 00000065 642f2e2e     != handle...../d
    9480:	65766972 662f7372 6c5f6c73 72617570     rivers/fsl_lpuar
    9490:	3a632e74 37343131 4e203a20 204c4c55     t.c:1147 : NULL 
    94a0:	68203d21 6c646e61 00000065 642f2e2e     != handle...../d
    94b0:	65766972 662f7372 6c5f6c73 72617570     rivers/fsl_lpuar
    94c0:	3a632e74 38343131 4e203a20 204c4c55     t.c:1148 : NULL 
    94d0:	63203d21 746e756f 00000000 642f2e2e     != count....../d
    94e0:	65766972 662f7372 6c5f6c73 72617570     rivers/fsl_lpuar
    94f0:	3a632e74 31393131 4e203a20 204c4c55     t.c:1191 : NULL 
    9500:	68203d21 6c646e61 00000065 642f2e2e     != handle...../d
    9510:	65766972 662f7372 6c5f6c73 72617570     rivers/fsl_lpuar
    9520:	3a632e74 32393131 4e203a20 204c4c55     t.c:1192 : NULL 
    9530:	78203d21 00726566 642f2e2e 65766972     != xfer.../drive
    9540:	662f7372 6c5f6c73 72617570 3a632e74     rs/fsl_lpuart.c:
    9550:	33393131 4e203a20 204c4c55 78203d21     1193 : NULL != x
    9560:	2d726566 7461643e 00000061 642f2e2e     fer->data...../d
    9570:	65766972 662f7372 6c5f6c73 72617570     rivers/fsl_lpuar
    9580:	3a632e74 34393131 30203a20 3d212055     t.c:1194 : 0U !=
    9590:	65667820 643e2d72 53617461 00657a69      xfer->dataSize.
    95a0:	642f2e2e 65766972 662f7372 6c5f6c73     ../drivers/fsl_l
    95b0:	72617570 3a632e74 35313331 4e203a20     puart.c:1315 : N
    95c0:	204c4c55 68203d21 6c646e61 00000065     ULL != handle...
    95d0:	642f2e2e 65766972 662f7372 6c5f6c73     ../drivers/fsl_l
    95e0:	72617570 3a632e74 34343331 4e203a20     puart.c:1344 : N
    95f0:	204c4c55 68203d21 6c646e61 00000065     ULL != handle...
    9600:	642f2e2e 65766972 662f7372 6c5f6c73     ../drivers/fsl_l
    9610:	72617570 3a632e74 35343331 4e203a20     puart.c:1345 : N
    9620:	204c4c55 63203d21 746e756f 00000000     ULL != count....
    9630:	642f2e2e 65766972 662f7372 6c5f6c73     ../drivers/fsl_l
    9640:	72617570 3a632e74 37363331 4e203a20     puart.c:1367 : N
    9650:	204c4c55 68203d21 6c646e61 ffff0065     ULL != handle...

00009660 <s_lpuartBases>:
    9660:	00000000 40184000 40188000 4018c000     .....@.@...@...@
    9670:	40190000 40194000 40198000 4019c000     ...@.@.@...@...@
    9680:	401a0000                                ...@

00009684 <s_lpuartClock>:
    9684:	0518ffff 000c001c 03020118 051a0306     ................
    9694:	ffff060e                                ....

00009698 <s_LpuartAdapterBase>:
    9698:	00000000 40184000 40188000 4018c000     .....@.@...@...@
    96a8:	40190000 40194000 40198000 4019c000     ...@.@.@...@...@
    96b8:	401a0000 632f2e2e 6f706d6f 746e656e     ...@../component
    96c8:	7261752f 706c2f74 74726175 6164615f     /uart/lpuart_ada
    96d8:	72657470 323a632e 3a203832 6e616820     pter.c:228 : han
    96e8:	00656c64 632f2e2e 6f706d6f 746e656e     dle.../component
    96f8:	7261752f 706c2f74 74726175 6164615f     /uart/lpuart_ada
    9708:	72657470 323a632e 3a203932 6e6f6320     pter.c:229 : con
    9718:	00676966 632f2e2e 6f706d6f 746e656e     fig.../component
    9728:	7261752f 706c2f74 74726175 6164615f     /uart/lpuart_ada
    9738:	72657470 323a632e 3a203033 6e6f6320     pter.c:230 : con
    9748:	2d676966 736e693e 636e6174 203c2065     fig->instance < 
    9758:	7a697328 28666f65 704c5f73 74726175     (sizeof(s_Lpuart
    9768:	70616441 42726574 29657361 73202f20     AdapterBase) / s
    9778:	6f657a69 504c2866 54524155 7079545f     izeof(LPUART_Typ
    9788:	292a2065 00000029 632f2e2e 6f706d6f     e *))...../compo
    9798:	746e656e 7261752f 706c2f74 74726175     nent/uart/lpuart
    97a8:	6164615f 72657470 323a632e 3a203133     _adapter.c:231 :
    97b8:	4c5f7320 72617570 61644174 72657470      s_LpuartAdapter
    97c8:	65736142 6e6f635b 2d676966 736e693e     Base[config->ins
    97d8:	636e6174 00005d65 632f2e2e 6f706d6f     tance]..../compo
    97e8:	746e656e 7261752f 706c2f74 74726175     nent/uart/lpuart
    97f8:	6164615f 72657470 323a632e 3a203939     _adapter.c:299 :
    9808:	6e616820 00656c64 632f2e2e 6f706d6f      handle.../compo
    9818:	746e656e 7261752f 706c2f74 74726175     nent/uart/lpuart
    9828:	6164615f 72657470 333a632e 3a203032     _adapter.c:320 :
    9838:	6e616820 00656c64 632f2e2e 6f706d6f      handle.../compo
    9848:	746e656e 7261752f 706c2f74 74726175     nent/uart/lpuart
    9858:	6164615f 72657470 333a632e 3a203132     _adapter.c:321 :
    9868:	74616420 00000061 632f2e2e 6f706d6f      data...../compo
    9878:	746e656e 7261752f 706c2f74 74726175     nent/uart/lpuart
    9888:	6164615f 72657470 333a632e 3a203232     _adapter.c:322 :
    9898:	6e656c20 00687467 632f2e2e 6f706d6f      length.../compo
    98a8:	746e656e 7261752f 706c2f74 74726175     nent/uart/lpuart
    98b8:	6164615f 72657470 333a632e 3a203134     _adapter.c:341 :
    98c8:	6e616820 00656c64 632f2e2e 6f706d6f      handle.../compo
    98d8:	746e656e 7261752f 706c2f74 74726175     nent/uart/lpuart
    98e8:	6164615f 72657470 333a632e 3a203234     _adapter.c:342 :
    98f8:	74616420 00000061 632f2e2e 6f706d6f      data...../compo
    9908:	746e656e 7261752f 706c2f74 74726175     nent/uart/lpuart
    9918:	6164615f 72657470 333a632e 3a203334     _adapter.c:343 :
    9928:	6e656c20 00687467 632f2e2e 6f706d6f      length.../compo
    9938:	746e656e 7265732f 5f6c6169 616e616d     nent/serial_mana
    9948:	2f726567 69726573 6d5f6c61 67616e61     ger/serial_manag
    9958:	632e7265 3437373a 77203a20 65746972     er.c:774 : write
    9968:	646e6148 0000656c 632f2e2e 6f706d6f     Handle..../compo
    9978:	746e656e 7265732f 5f6c6169 616e616d     nent/serial_mana
    9988:	2f726567 69726573 6d5f6c61 67616e61     ger/serial_manag
    9998:	632e7265 3537373a 62203a20 65666675     er.c:775 : buffe
    99a8:	00000072 632f2e2e 6f706d6f 746e656e     r...../component
    99b8:	7265732f 5f6c6169 616e616d 2f726567     /serial_manager/
    99c8:	69726573 6d5f6c61 67616e61 632e7265     serial_manager.c
    99d8:	3637373a 6c203a20 74676e65 00000068     :776 : length...
    99e8:	632f2e2e 6f706d6f 746e656e 7265732f     ../component/ser
    99f8:	5f6c6169 616e616d 2f726567 69726573     ial_manager/seri
    9a08:	6d5f6c61 67616e61 632e7265 3138373a     al_manager.c:781
    9a18:	68203a20 6c646e61 00000065 632f2e2e      : handle...../c
    9a28:	6f706d6f 746e656e 7265732f 5f6c6169     omponent/serial_
    9a38:	616e616d 2f726567 69726573 6d5f6c61     manager/serial_m
    9a48:	67616e61 632e7265 3139373a 72203a20     anager.c:791 : r
    9a58:	48646165 6c646e61 00000065 632f2e2e     eadHandle...../c
    9a68:	6f706d6f 746e656e 7265732f 5f6c6169     omponent/serial_
    9a78:	616e616d 2f726567 69726573 6d5f6c61     manager/serial_m
    9a88:	67616e61 632e7265 3239373a 62203a20     anager.c:792 : b
    9a98:	65666675 00000072 632f2e2e 6f706d6f     uffer...../compo
    9aa8:	746e656e 7265732f 5f6c6169 616e616d     nent/serial_mana
    9ab8:	2f726567 69726573 6d5f6c61 67616e61     ger/serial_manag
    9ac8:	632e7265 3339373a 6c203a20 74676e65     er.c:793 : lengt
    9ad8:	00000068 632f2e2e 6f706d6f 746e656e     h...../component
    9ae8:	7265732f 5f6c6169 616e616d 2f726567     /serial_manager/
    9af8:	69726573 6d5f6c61 67616e61 632e7265     serial_manager.c
    9b08:	3839373a 68203a20 6c646e61 00000065     :798 : handle...
    9b18:	632f2e2e 6f706d6f 746e656e 7265732f     ../component/ser
    9b28:	5f6c6169 616e616d 2f726567 69726573     ial_manager/seri
    9b38:	6d5f6c61 67616e61 632e7265 3930383a     al_manager.c:809
    9b48:	63203a20 69666e6f 00000067 632f2e2e      : config...../c
    9b58:	6f706d6f 746e656e 7265732f 5f6c6169     omponent/serial_
    9b68:	616e616d 2f726567 69726573 6d5f6c61     manager/serial_m
    9b78:	67616e61 632e7265 3431383a 73203a20     anager.c:814 : s
    9b88:	61697265 6e61486c 00656c64 632f2e2e     erialHandle.../c
    9b98:	6f706d6f 746e656e 7265732f 5f6c6169     omponent/serial_
    9ba8:	616e616d 2f726567 69726573 6d5f6c61     manager/serial_m
    9bb8:	67616e61 632e7265 3932393a 73203a20     anager.c:929 : s
    9bc8:	61697265 6e61486c 00656c64 632f2e2e     erialHandle.../c
    9bd8:	6f706d6f 746e656e 7265732f 5f6c6169     omponent/serial_
    9be8:	616e616d 2f726567 69726573 6d5f6c61     manager/serial_m
    9bf8:	67616e61 632e7265 3738393a 73203a20     anager.c:987 : s
    9c08:	61697265 6e61486c 00656c64 632f2e2e     erialHandle.../c
    9c18:	6f706d6f 746e656e 7265732f 5f6c6169     omponent/serial_
    9c28:	616e616d 2f726567 69726573 6d5f6c61     manager/serial_m
    9c38:	67616e61 632e7265 3838393a 77203a20     anager.c:988 : w
    9c48:	65746972 646e6148 0000656c 632f2e2e     riteHandle..../c
    9c58:	6f706d6f 746e656e 7265732f 5f6c6169     omponent/serial_
    9c68:	616e616d 2f726567 69726573 6d5f6c61     manager/serial_m
    9c78:	67616e61 632e7265 3130313a 203a2031     anager.c:1011 : 
    9c88:	74697277 6e614865 00656c64 632f2e2e     writeHandle.../c
    9c98:	6f706d6f 746e656e 7265732f 5f6c6169     omponent/serial_
    9ca8:	616e616d 2f726567 69726573 6d5f6c61     manager/serial_m
    9cb8:	67616e61 632e7265 3130313a 203a2036     anager.c:1016 : 
    9cc8:	646e6168 0000656c 632f2e2e 6f706d6f     handle..../compo
    9cd8:	746e656e 7265732f 5f6c6169 616e616d     nent/serial_mana
    9ce8:	2f726567 69726573 6d5f6c61 67616e61     ger/serial_manag
    9cf8:	632e7265 3330313a 203a2036 69726573     er.c:1036 : seri
    9d08:	61486c61 656c646e 00000000 632f2e2e     alHandle....../c
    9d18:	6f706d6f 746e656e 7265732f 5f6c6169     omponent/serial_
    9d28:	616e616d 2f726567 69726573 6d5f6c61     manager/serial_m
    9d38:	67616e61 632e7265 3330313a 203a2037     anager.c:1037 : 
    9d48:	64616572 646e6148 0000656c 632f2e2e     readHandle..../c
    9d58:	6f706d6f 746e656e 7265732f 5f6c6169     omponent/serial_
    9d68:	616e616d 2f726567 69726573 6d5f6c61     manager/serial_m
    9d78:	67616e61 632e7265 3630313a 203a2034     anager.c:1064 : 
    9d88:	64616572 646e6148 0000656c 632f2e2e     readHandle..../c
    9d98:	6f706d6f 746e656e 7265732f 5f6c6169     omponent/serial_
    9da8:	616e616d 2f726567 69726573 6d5f6c61     manager/serial_m
    9db8:	67616e61 632e7265 3630313a 203a2039     anager.c:1069 : 
    9dc8:	646e6168 0000656c 632f2e2e 6f706d6f     handle..../compo
    9dd8:	746e656e 7265732f 5f6c6169 616e616d     nent/serial_mana
    9de8:	2f726567 69726573 6d5f6c61 67616e61     ger/serial_manag
    9df8:	632e7265 3832313a 203a2039 69726573     er.c:1289 : seri
    9e08:	61486c61 656c646e 00000000 632f2e2e     alHandle....../c
    9e18:	6f706d6f 746e656e 7265732f 5f6c6169     omponent/serial_
    9e28:	616e616d 2f726567 69726573 6d5f6c61     manager/serial_m
    9e38:	67616e61 632e7265 3932313a 203a2036     anager.c:1296 : 
    9e48:	69726573 61486c61 656c646e ffffff00     serialHandle....
    9e58:	632f2e2e 6f706d6f 746e656e 7265732f     ../component/ser
    9e68:	5f6c6169 616e616d 2f726567 69726573     ial_manager/seri
    9e78:	705f6c61 5f74726f 74726175 313a632e     al_port_uart.c:1
    9e88:	3a203933 72657320 436c6169 69666e6f     39 : serialConfi
    9e98:	00000067 632f2e2e 6f706d6f 746e656e     g...../component
    9ea8:	7265732f 5f6c6169 616e616d 2f726567     /serial_manager/
    9eb8:	69726573 705f6c61 5f74726f 74726175     serial_port_uart
    9ec8:	313a632e 3a203034 72657320 486c6169     .c:140 : serialH
    9ed8:	6c646e61 00000065 632f2e2e 6f706d6f     andle...../compo
    9ee8:	746e656e 7265732f 5f6c6169 616e616d     nent/serial_mana
    9ef8:	2f726567 69726573 705f6c61 5f74726f     ger/serial_port_
    9f08:	74726175 323a632e 3a203030 72657320     uart.c:200 : ser
    9f18:	486c6169 6c646e61 00000065 632f2e2e     ialHandle...../c
    9f28:	6f706d6f 746e656e 7265732f 5f6c6169     omponent/serial_
    9f38:	616e616d 2f726567 69726573 705f6c61     manager/serial_p
    9f48:	5f74726f 74726175 323a632e 3a203736     ort_uart.c:267 :
    9f58:	72657320 486c6169 6c646e61 00000065      serialHandle...
    9f68:	632f2e2e 6f706d6f 746e656e 7265732f     ../component/ser
    9f78:	5f6c6169 616e616d 2f726567 69726573     ial_manager/seri
    9f88:	705f6c61 5f74726f 74726175 323a632e     al_port_uart.c:2
    9f98:	3a203836 66756220 00726566 632f2e2e     68 : buffer.../c
    9fa8:	6f706d6f 746e656e 7265732f 5f6c6169     omponent/serial_
    9fb8:	616e616d 2f726567 69726573 705f6c61     manager/serial_p
    9fc8:	5f74726f 74726175 323a632e 3a203936     ort_uart.c:269 :
    9fd8:	6e656c20 00687467 632f2e2e 6f706d6f      length.../compo
    9fe8:	746e656e 7265732f 5f6c6169 616e616d     nent/serial_mana
    9ff8:	2f726567 69726573 705f6c61 5f74726f     ger/serial_port_
    a008:	74726175 323a632e 3a203138 72657320     uart.c:281 : ser
    a018:	486c6169 6c646e61 00000065 632f2e2e     ialHandle...../c
    a028:	6f706d6f 746e656e 7265732f 5f6c6169     omponent/serial_
    a038:	616e616d 2f726567 69726573 705f6c61     manager/serial_p
    a048:	5f74726f 74726175 323a632e 3a203238     ort_uart.c:282 :
    a058:	66756220 00726566 632f2e2e 6f706d6f      buffer.../compo
    a068:	746e656e 7265732f 5f6c6169 616e616d     nent/serial_mana
    a078:	2f726567 69726573 705f6c61 5f74726f     ger/serial_port_
    a088:	74726175 323a632e 3a203338 6e656c20     uart.c:283 : len
    a098:	00687467 642f2e2e 65766972 662f7372     gth.../drivers/f
    a0a8:	635f6c73 6b636f6c 393a682e 3a203039     sl_clock.h:990 :
    a0b8:	73756220 69685379 3c207466 4343203d      busyShift <= CC
    a0c8:	4f4e5f4d 5355425f 41575f59 00005449     M_NO_BUSY_WAIT..
    a0d8:	642f2e2e 65766972 662f7372 635f6c73     ../drivers/fsl_c
    a0e8:	6b636f6c 313a682e 20373230 7562203a     lock.h:1027 : bu
    a0f8:	68537973 20746669 43203d3c 4e5f4d43     syShift <= CCM_N
    a108:	55425f4f 575f5953 00544941 642f2e2e     O_BUSY_WAIT.../d
    a118:	65766972 662f7372 635f6c73 6b636f6c     rivers/fsl_clock
    a128:	313a682e 20313630 6e69203a 20786564     .h:1061 : index 
    a138:	37203d3c ffffff00                       <= 7....

0000a140 <armPllConfig_BOARD_BootClockRUN>:
    a140:	00000064 00000000                       d.......

0000a148 <sysPllConfig_BOARD_BootClockRUN>:
    a148:	00000001 00000000 00000001 00000000     ................
    a158:	00000000 642f2e2e 65766972 662f7372     ....../drivers/f
    a168:	635f6c73 6b636f6c 313a682e 20313630     sl_clock.h:1061 
    a178:	6e69203a 20786564 37203d3c 00000000     : index <= 7....
    a188:	ff000101                                ....

0000a18c <__num_Ciob_streams>:
    a18c:	00000003 202a2a2a 65737361 66207472     ....*** assert f
    a19c:	656c6961 203a2064 2a2a2a00 73435f20     ailed : .*** _Cs
    a1ac:	615f7379 636f6c6c 69616620 0a64656c     ys_alloc failed.
    a1bc:	77007200 ffffff00                       .r.w....
