Archive member included to satisfy reference by file (symbol)

c:/nxp/mcuxpressoide_11.0.1_2563/ide/plugins/com.nxp.mcuxpresso.tools.win32_11.0.1.201907311258/tools/bin/../lib/gcc/arm-none-eabi/8.2.1/../../../../arm-none-eabi/lib/thumb/v7e-m+dp/hard\libcr_nohost_nf.a(_cr__main.o)
                              ./startup/startup_mimxrt1062.o (__main)
c:/nxp/mcuxpressoide_11.0.1_2563/ide/plugins/com.nxp.mcuxpresso.tools.win32_11.0.1.201907311258/tools/bin/../lib/gcc/arm-none-eabi/8.2.1/../../../../arm-none-eabi/lib/thumb/v7e-m+dp/hard\libcr_nohost_nf.a(_cr_assert.o)
                              ./utilities/fsl_debug_console.o (__assertion_failed)
c:/nxp/mcuxpressoide_11.0.1_2563/ide/plugins/com.nxp.mcuxpresso.tools.win32_11.0.1.201907311258/tools/bin/../lib/gcc/arm-none-eabi/8.2.1/../../../../arm-none-eabi/lib/thumb/v7e-m+dp/hard\libcr_nohost_nf.a(__ciob.o)
                              c:/nxp/mcuxpressoide_11.0.1_2563/ide/plugins/com.nxp.mcuxpresso.tools.win32_11.0.1.201907311258/tools/bin/../lib/gcc/arm-none-eabi/8.2.1/../../../../arm-none-eabi/lib/thumb/v7e-m+dp/hard\libcr_nohost_nf.a(_cr_assert.o) (__Ciob)
c:/nxp/mcuxpressoide_11.0.1_2563/ide/plugins/com.nxp.mcuxpresso.tools.win32_11.0.1.201907311258/tools/bin/../lib/gcc/arm-none-eabi/8.2.1/../../../../arm-none-eabi/lib/thumb/v7e-m+dp/hard\libcr_nohost_nf.a(__sys_appexit.o)
                              c:/nxp/mcuxpressoide_11.0.1_2563/ide/plugins/com.nxp.mcuxpresso.tools.win32_11.0.1.201907311258/tools/bin/../lib/gcc/arm-none-eabi/8.2.1/../../../../arm-none-eabi/lib/thumb/v7e-m+dp/hard\libcr_nohost_nf.a(_cr_assert.o) (__sys_appexit)
c:/nxp/mcuxpressoide_11.0.1_2563/ide/plugins/com.nxp.mcuxpresso.tools.win32_11.0.1.201907311258/tools/bin/../lib/gcc/arm-none-eabi/8.2.1/../../../../arm-none-eabi/lib/thumb/v7e-m+dp/hard\libcr_c.a(memset.o)
                              ./utilities/fsl_debug_console.o (memset)
c:/nxp/mcuxpressoide_11.0.1_2563/ide/plugins/com.nxp.mcuxpresso.tools.win32_11.0.1.201907311258/tools/bin/../lib/gcc/arm-none-eabi/8.2.1/../../../../arm-none-eabi/lib/thumb/v7e-m+dp/hard\libcr_c.a(_deferredlazyseek.o)
                              c:/nxp/mcuxpressoide_11.0.1_2563/ide/plugins/com.nxp.mcuxpresso.tools.win32_11.0.1.201907311258/tools/bin/../lib/gcc/arm-none-eabi/8.2.1/../../../../arm-none-eabi/lib/thumb/v7e-m+dp/hard\libcr_nohost_nf.a(_cr_assert.o) (__flsbuf)
c:/nxp/mcuxpressoide_11.0.1_2563/ide/plugins/com.nxp.mcuxpresso.tools.win32_11.0.1.201907311258/tools/bin/../lib/gcc/arm-none-eabi/8.2.1/../../../../arm-none-eabi/lib/thumb/v7e-m+dp/hard\libcr_c.a(_fflush.o)
                              c:/nxp/mcuxpressoide_11.0.1_2563/ide/plugins/com.nxp.mcuxpresso.tools.win32_11.0.1.201907311258/tools/bin/../lib/gcc/arm-none-eabi/8.2.1/../../../../arm-none-eabi/lib/thumb/v7e-m+dp/hard\libcr_c.a(_deferredlazyseek.o) (_fflush)
c:/nxp/mcuxpressoide_11.0.1_2563/ide/plugins/com.nxp.mcuxpresso.tools.win32_11.0.1.201907311258/tools/bin/../lib/gcc/arm-none-eabi/8.2.1/../../../../arm-none-eabi/lib/thumb/v7e-m+dp/hard\libcr_c.a(_writebuf.o)
                              c:/nxp/mcuxpressoide_11.0.1_2563/ide/plugins/com.nxp.mcuxpresso.tools.win32_11.0.1.201907311258/tools/bin/../lib/gcc/arm-none-eabi/8.2.1/../../../../arm-none-eabi/lib/thumb/v7e-m+dp/hard\libcr_c.a(_deferredlazyseek.o) (_Cwritebuf)
c:/nxp/mcuxpressoide_11.0.1_2563/ide/plugins/com.nxp.mcuxpresso.tools.win32_11.0.1.201907311258/tools/bin/../lib/gcc/arm-none-eabi/8.2.1/../../../../arm-none-eabi/lib/thumb/v7e-m+dp/hard\libcr_c.a(alloc.o)
                              ./drivers/fsl_common.o (malloc)
c:/nxp/mcuxpressoide_11.0.1_2563/ide/plugins/com.nxp.mcuxpresso.tools.win32_11.0.1.201907311258/tools/bin/../lib/gcc/arm-none-eabi/8.2.1/../../../../arm-none-eabi/lib/thumb/v7e-m+dp/hard\libcr_c.a(fputs.o)
                              c:/nxp/mcuxpressoide_11.0.1_2563/ide/plugins/com.nxp.mcuxpresso.tools.win32_11.0.1.201907311258/tools/bin/../lib/gcc/arm-none-eabi/8.2.1/../../../../arm-none-eabi/lib/thumb/v7e-m+dp/hard\libcr_nohost_nf.a(_cr_assert.o) (fputs)
c:/nxp/mcuxpressoide_11.0.1_2563/ide/plugins/com.nxp.mcuxpresso.tools.win32_11.0.1.201907311258/tools/bin/../lib/gcc/arm-none-eabi/8.2.1/../../../../arm-none-eabi/lib/thumb/v7e-m+dp/hard\libcr_c.a(fseek.o)
                              c:/nxp/mcuxpressoide_11.0.1_2563/ide/plugins/com.nxp.mcuxpresso.tools.win32_11.0.1.201907311258/tools/bin/../lib/gcc/arm-none-eabi/8.2.1/../../../../arm-none-eabi/lib/thumb/v7e-m+dp/hard\libcr_c.a(_deferredlazyseek.o) (fseek)
c:/nxp/mcuxpressoide_11.0.1_2563/ide/plugins/com.nxp.mcuxpresso.tools.win32_11.0.1.201907311258/tools/bin/../lib/gcc/arm-none-eabi/8.2.1/../../../../arm-none-eabi/lib/thumb/v7e-m+dp/hard\libcr_c.a(ftell.o)
                              c:/nxp/mcuxpressoide_11.0.1_2563/ide/plugins/com.nxp.mcuxpresso.tools.win32_11.0.1.201907311258/tools/bin/../lib/gcc/arm-none-eabi/8.2.1/../../../../arm-none-eabi/lib/thumb/v7e-m+dp/hard\libcr_c.a(fseek.o) (ftell)
c:/nxp/mcuxpressoide_11.0.1_2563/ide/plugins/com.nxp.mcuxpresso.tools.win32_11.0.1.201907311258/tools/bin/../lib/gcc/arm-none-eabi/8.2.1/../../../../arm-none-eabi/lib/thumb/v7e-m+dp/hard\libcr_c.a(initio.o)
                              c:/nxp/mcuxpressoide_11.0.1_2563/ide/plugins/com.nxp.mcuxpresso.tools.win32_11.0.1.201907311258/tools/bin/../lib/gcc/arm-none-eabi/8.2.1/../../../../arm-none-eabi/lib/thumb/v7e-m+dp/hard\libcr_nohost_nf.a(_cr__main.o) (_initio)
c:/nxp/mcuxpressoide_11.0.1_2563/ide/plugins/com.nxp.mcuxpresso.tools.win32_11.0.1.201907311258/tools/bin/../lib/gcc/arm-none-eabi/8.2.1/../../../../arm-none-eabi/lib/thumb/v7e-m+dp/hard\libcr_c.a(setvbuf.o)
                              c:/nxp/mcuxpressoide_11.0.1_2563/ide/plugins/com.nxp.mcuxpresso.tools.win32_11.0.1.201907311258/tools/bin/../lib/gcc/arm-none-eabi/8.2.1/../../../../arm-none-eabi/lib/thumb/v7e-m+dp/hard\libcr_c.a(initio.o) (setvbuf)
c:/nxp/mcuxpressoide_11.0.1_2563/ide/plugins/com.nxp.mcuxpresso.tools.win32_11.0.1.201907311258/tools/bin/../lib/gcc/arm-none-eabi/8.2.1/../../../../arm-none-eabi/lib/thumb/v7e-m+dp/hard\libcr_c.a(strlen.o)
                              ./utilities/fsl_str.o (strlen)
c:/nxp/mcuxpressoide_11.0.1_2563/ide/plugins/com.nxp.mcuxpresso.tools.win32_11.0.1.201907311258/tools/bin/../lib/gcc/arm-none-eabi/8.2.1/../../../../arm-none-eabi/lib/thumb/v7e-m+dp/hard\libcr_c.a(memcpy.o)
                              c:/nxp/mcuxpressoide_11.0.1_2563/ide/plugins/com.nxp.mcuxpresso.tools.win32_11.0.1.201907311258/tools/bin/../lib/gcc/arm-none-eabi/8.2.1/../../../../arm-none-eabi/lib/thumb/v7e-m+dp/hard\libcr_c.a(alloc.o) (memcpy)
c:/nxp/mcuxpressoide_11.0.1_2563/ide/plugins/com.nxp.mcuxpresso.tools.win32_11.0.1.201907311258/tools/bin/../lib/gcc/arm-none-eabi/8.2.1/../../../../arm-none-eabi/lib/thumb/v7e-m+dp/hard\libcr_c.a(__init_alloc.o)
                              c:/nxp/mcuxpressoide_11.0.1_2563/ide/plugins/com.nxp.mcuxpresso.tools.win32_11.0.1.201907311258/tools/bin/../lib/gcc/arm-none-eabi/8.2.1/../../../../arm-none-eabi/lib/thumb/v7e-m+dp/hard\libcr_c.a(alloc.o) (__heaps)
c:/nxp/mcuxpressoide_11.0.1_2563/ide/plugins/com.nxp.mcuxpresso.tools.win32_11.0.1.201907311258/tools/bin/../lib/gcc/arm-none-eabi/8.2.1/../../../../arm-none-eabi/lib/thumb/v7e-m+dp/hard\libcr_c.a(_cr_sbrk.o)
                              c:/nxp/mcuxpressoide_11.0.1_2563/ide/plugins/com.nxp.mcuxpresso.tools.win32_11.0.1.201907311258/tools/bin/../lib/gcc/arm-none-eabi/8.2.1/../../../../arm-none-eabi/lib/thumb/v7e-m+dp/hard\libcr_c.a(alloc.o) (_sbrk)
c:/nxp/mcuxpressoide_11.0.1_2563/ide/plugins/com.nxp.mcuxpresso.tools.win32_11.0.1.201907311258/tools/bin/../lib/gcc/arm-none-eabi/8.2.1/../../../../arm-none-eabi/lib/thumb/v7e-m+dp/hard\libcr_c.a(_fdopen.o)
                              c:/nxp/mcuxpressoide_11.0.1_2563/ide/plugins/com.nxp.mcuxpresso.tools.win32_11.0.1.201907311258/tools/bin/../lib/gcc/arm-none-eabi/8.2.1/../../../../arm-none-eabi/lib/thumb/v7e-m+dp/hard\libcr_c.a(initio.o) (_fdopen)
c:/nxp/mcuxpressoide_11.0.1_2563/ide/plugins/com.nxp.mcuxpresso.tools.win32_11.0.1.201907311258/tools/bin/../lib/gcc/arm-none-eabi/8.2.1/../../../../arm-none-eabi/lib/thumb/v7e-m+dp/hard\libcr_c.a(errno.o)
                              c:/nxp/mcuxpressoide_11.0.1_2563/ide/plugins/com.nxp.mcuxpresso.tools.win32_11.0.1.201907311258/tools/bin/../lib/gcc/arm-none-eabi/8.2.1/../../../../arm-none-eabi/lib/thumb/v7e-m+dp/hard\libcr_c.a(ftell.o) (errno)
c:/nxp/mcuxpressoide_11.0.1_2563/ide/plugins/com.nxp.mcuxpresso.tools.win32_11.0.1.201907311258/tools/bin/../lib/gcc/arm-none-eabi/8.2.1/../../../../arm-none-eabi/lib/thumb/v7e-m+dp/hard\libcr_c.a(fclose.o)
                              c:/nxp/mcuxpressoide_11.0.1_2563/ide/plugins/com.nxp.mcuxpresso.tools.win32_11.0.1.201907311258/tools/bin/../lib/gcc/arm-none-eabi/8.2.1/../../../../arm-none-eabi/lib/thumb/v7e-m+dp/hard\libcr_c.a(initio.o) (fclose)
c:/nxp/mcuxpressoide_11.0.1_2563/ide/plugins/com.nxp.mcuxpresso.tools.win32_11.0.1.201907311258/tools/bin/../lib/gcc/arm-none-eabi/8.2.1/../../../../arm-none-eabi/lib/thumb/v7e-m+dp/hard\libcr_c.a(fflush.o)
                              c:/nxp/mcuxpressoide_11.0.1_2563/ide/plugins/com.nxp.mcuxpresso.tools.win32_11.0.1.201907311258/tools/bin/../lib/gcc/arm-none-eabi/8.2.1/../../../../arm-none-eabi/lib/thumb/v7e-m+dp/hard\libcr_c.a(fclose.o) (fflush)
c:/nxp/mcuxpressoide_11.0.1_2563/ide/plugins/com.nxp.mcuxpresso.tools.win32_11.0.1.201907311258/tools/bin/../lib/gcc/arm-none-eabi/8.2.1/../../../../arm-none-eabi/lib/thumb/v7e-m+dp/hard\libcr_c.a(remove.o)
                              c:/nxp/mcuxpressoide_11.0.1_2563/ide/plugins/com.nxp.mcuxpresso.tools.win32_11.0.1.201907311258/tools/bin/../lib/gcc/arm-none-eabi/8.2.1/../../../../arm-none-eabi/lib/thumb/v7e-m+dp/hard\libcr_c.a(fclose.o) (remove)
c:/nxp/mcuxpressoide_11.0.1_2563/ide/plugins/com.nxp.mcuxpresso.tools.win32_11.0.1.201907311258/tools/bin/../lib/gcc/arm-none-eabi/8.2.1/../../../../arm-none-eabi/lib/thumb/v7e-m+dp/hard\libcr_c.a(_cr_check_heap.o)
                              c:/nxp/mcuxpressoide_11.0.1_2563/ide/plugins/com.nxp.mcuxpresso.tools.win32_11.0.1.201907311258/tools/bin/../lib/gcc/arm-none-eabi/8.2.1/../../../../arm-none-eabi/lib/thumb/v7e-m+dp/hard\libcr_c.a(_cr_sbrk.o) (__check_heap_overflow)
c:/nxp/mcuxpressoide_11.0.1_2563/ide/plugins/com.nxp.mcuxpresso.tools.win32_11.0.1.201907311258/tools/bin/../lib/gcc/arm-none-eabi/8.2.1/../../../../arm-none-eabi/lib/thumb/v7e-m+dp/hard\libcr_c.a(_do_fflush.o)
                              c:/nxp/mcuxpressoide_11.0.1_2563/ide/plugins/com.nxp.mcuxpresso.tools.win32_11.0.1.201907311258/tools/bin/../lib/gcc/arm-none-eabi/8.2.1/../../../../arm-none-eabi/lib/thumb/v7e-m+dp/hard\libcr_c.a(fflush.o) (_do_fflush)
c:/nxp/mcuxpressoide_11.0.1_2563/ide/plugins/com.nxp.mcuxpresso.tools.win32_11.0.1.201907311258/tools/bin/../lib/gcc/arm-none-eabi/8.2.1/thumb/v7e-m+dp/hard\libcr_eabihelpers.a(division_64.o)
                              ./drivers/fsl_lpspi.o (__aeabi_uldivmod)
c:/nxp/mcuxpressoide_11.0.1_2563/ide/plugins/com.nxp.mcuxpresso.tools.win32_11.0.1.201907311258/tools/bin/../lib/gcc/arm-none-eabi/8.2.1/thumb/v7e-m+dp/hard\libcr_eabihelpers.a(division_idiv0.o)
                              c:/nxp/mcuxpressoide_11.0.1_2563/ide/plugins/com.nxp.mcuxpresso.tools.win32_11.0.1.201907311258/tools/bin/../lib/gcc/arm-none-eabi/8.2.1/thumb/v7e-m+dp/hard\libcr_eabihelpers.a(division_64.o) (__aeabi_idiv0)
c:/nxp/mcuxpressoide_11.0.1_2563/ide/plugins/com.nxp.mcuxpresso.tools.win32_11.0.1.201907311258/tools/bin/../lib/gcc/arm-none-eabi/8.2.1/thumb/v7e-m+dp/hard\libcr_eabihelpers.a(memcpy.o)
                              c:/nxp/mcuxpressoide_11.0.1_2563/ide/plugins/com.nxp.mcuxpresso.tools.win32_11.0.1.201907311258/tools/bin/../lib/gcc/arm-none-eabi/8.2.1/../../../../arm-none-eabi/lib/thumb/v7e-m+dp/hard\libcr_c.a(memcpy.o) (__aeabi_memcpy)
c:/nxp/mcuxpressoide_11.0.1_2563/ide/plugins/com.nxp.mcuxpresso.tools.win32_11.0.1.201907311258/tools/bin/../lib/gcc/arm-none-eabi/8.2.1/../../../../arm-none-eabi/lib/thumb/v7e-m+dp/hard\libcr_nohost_nf.a(__sys_close.o)
                              c:/nxp/mcuxpressoide_11.0.1_2563/ide/plugins/com.nxp.mcuxpresso.tools.win32_11.0.1.201907311258/tools/bin/../lib/gcc/arm-none-eabi/8.2.1/../../../../arm-none-eabi/lib/thumb/v7e-m+dp/hard\libcr_c.a(fclose.o) (__sys_close)
c:/nxp/mcuxpressoide_11.0.1_2563/ide/plugins/com.nxp.mcuxpresso.tools.win32_11.0.1.201907311258/tools/bin/../lib/gcc/arm-none-eabi/8.2.1/../../../../arm-none-eabi/lib/thumb/v7e-m+dp/hard\libcr_nohost_nf.a(__sys_flen.o)
                              c:/nxp/mcuxpressoide_11.0.1_2563/ide/plugins/com.nxp.mcuxpresso.tools.win32_11.0.1.201907311258/tools/bin/../lib/gcc/arm-none-eabi/8.2.1/../../../../arm-none-eabi/lib/thumb/v7e-m+dp/hard\libcr_c.a(_writebuf.o) (__sys_flen)
c:/nxp/mcuxpressoide_11.0.1_2563/ide/plugins/com.nxp.mcuxpresso.tools.win32_11.0.1.201907311258/tools/bin/../lib/gcc/arm-none-eabi/8.2.1/../../../../arm-none-eabi/lib/thumb/v7e-m+dp/hard\libcr_nohost_nf.a(__sys_istty.o)
                              c:/nxp/mcuxpressoide_11.0.1_2563/ide/plugins/com.nxp.mcuxpresso.tools.win32_11.0.1.201907311258/tools/bin/../lib/gcc/arm-none-eabi/8.2.1/../../../../arm-none-eabi/lib/thumb/v7e-m+dp/hard\libcr_c.a(_deferredlazyseek.o) (__sys_istty)
c:/nxp/mcuxpressoide_11.0.1_2563/ide/plugins/com.nxp.mcuxpresso.tools.win32_11.0.1.201907311258/tools/bin/../lib/gcc/arm-none-eabi/8.2.1/../../../../arm-none-eabi/lib/thumb/v7e-m+dp/hard\libcr_nohost_nf.a(__sys_remove.o)
                              c:/nxp/mcuxpressoide_11.0.1_2563/ide/plugins/com.nxp.mcuxpresso.tools.win32_11.0.1.201907311258/tools/bin/../lib/gcc/arm-none-eabi/8.2.1/../../../../arm-none-eabi/lib/thumb/v7e-m+dp/hard\libcr_c.a(remove.o) (__sys_remove)
c:/nxp/mcuxpressoide_11.0.1_2563/ide/plugins/com.nxp.mcuxpresso.tools.win32_11.0.1.201907311258/tools/bin/../lib/gcc/arm-none-eabi/8.2.1/../../../../arm-none-eabi/lib/thumb/v7e-m+dp/hard\libcr_nohost_nf.a(__sys_rename.o)
                              c:/nxp/mcuxpressoide_11.0.1_2563/ide/plugins/com.nxp.mcuxpresso.tools.win32_11.0.1.201907311258/tools/bin/../lib/gcc/arm-none-eabi/8.2.1/../../../../arm-none-eabi/lib/thumb/v7e-m+dp/hard\libcr_c.a(remove.o) (__sys_rename)
c:/nxp/mcuxpressoide_11.0.1_2563/ide/plugins/com.nxp.mcuxpresso.tools.win32_11.0.1.201907311258/tools/bin/../lib/gcc/arm-none-eabi/8.2.1/../../../../arm-none-eabi/lib/thumb/v7e-m+dp/hard\libcr_nohost_nf.a(__sys_seek.o)
                              c:/nxp/mcuxpressoide_11.0.1_2563/ide/plugins/com.nxp.mcuxpresso.tools.win32_11.0.1.201907311258/tools/bin/../lib/gcc/arm-none-eabi/8.2.1/../../../../arm-none-eabi/lib/thumb/v7e-m+dp/hard\libcr_c.a(_writebuf.o) (__sys_seek)
c:/nxp/mcuxpressoide_11.0.1_2563/ide/plugins/com.nxp.mcuxpresso.tools.win32_11.0.1.201907311258/tools/bin/../lib/gcc/arm-none-eabi/8.2.1/../../../../arm-none-eabi/lib/thumb/v7e-m+dp/hard\libcr_nohost_nf.a(__sys_tmpnam.o)
                              c:/nxp/mcuxpressoide_11.0.1_2563/ide/plugins/com.nxp.mcuxpresso.tools.win32_11.0.1.201907311258/tools/bin/../lib/gcc/arm-none-eabi/8.2.1/../../../../arm-none-eabi/lib/thumb/v7e-m+dp/hard\libcr_c.a(fclose.o) (__sys_tmpnam)
c:/nxp/mcuxpressoide_11.0.1_2563/ide/plugins/com.nxp.mcuxpresso.tools.win32_11.0.1.201907311258/tools/bin/../lib/gcc/arm-none-eabi/8.2.1/../../../../arm-none-eabi/lib/thumb/v7e-m+dp/hard\libcr_nohost_nf.a(__sys_write.o)
                              c:/nxp/mcuxpressoide_11.0.1_2563/ide/plugins/com.nxp.mcuxpresso.tools.win32_11.0.1.201907311258/tools/bin/../lib/gcc/arm-none-eabi/8.2.1/../../../../arm-none-eabi/lib/thumb/v7e-m+dp/hard\libcr_c.a(_writebuf.o) (__sys_write)

Discarded input sections

 .group         0x00000000        0xc ./xip/evkmimxrt1060_flexspi_nor_config.o
 .group         0x00000000        0xc ./xip/evkmimxrt1060_flexspi_nor_config.o
 .group         0x00000000        0xc ./xip/evkmimxrt1060_flexspi_nor_config.o
 .group         0x00000000        0xc ./xip/evkmimxrt1060_flexspi_nor_config.o
 .group         0x00000000        0xc ./xip/evkmimxrt1060_flexspi_nor_config.o
 .group         0x00000000        0xc ./xip/evkmimxrt1060_flexspi_nor_config.o
 .group         0x00000000        0xc ./xip/evkmimxrt1060_flexspi_nor_config.o
 .group         0x00000000        0xc ./xip/evkmimxrt1060_flexspi_nor_config.o
 .group         0x00000000        0xc ./xip/evkmimxrt1060_flexspi_nor_config.o
 .group         0x00000000        0xc ./xip/evkmimxrt1060_flexspi_nor_config.o
 .group         0x00000000        0xc ./xip/evkmimxrt1060_flexspi_nor_config.o
 .group         0x00000000        0xc ./xip/evkmimxrt1060_flexspi_nor_config.o
 .group         0x00000000        0xc ./xip/evkmimxrt1060_flexspi_nor_config.o
 .group         0x00000000        0xc ./xip/evkmimxrt1060_flexspi_nor_config.o
 .group         0x00000000        0xc ./xip/evkmimxrt1060_flexspi_nor_config.o
 .group         0x00000000        0xc ./xip/evkmimxrt1060_flexspi_nor_config.o
 .group         0x00000000        0xc ./xip/evkmimxrt1060_flexspi_nor_config.o
 .group         0x00000000        0xc ./xip/evkmimxrt1060_flexspi_nor_config.o
 .group         0x00000000        0xc ./xip/evkmimxrt1060_flexspi_nor_config.o
 .group         0x00000000        0xc ./xip/evkmimxrt1060_flexspi_nor_config.o
 .group         0x00000000        0xc ./xip/evkmimxrt1060_flexspi_nor_config.o
 .text          0x00000000        0x0 ./xip/evkmimxrt1060_flexspi_nor_config.o
 .data          0x00000000        0x0 ./xip/evkmimxrt1060_flexspi_nor_config.o
 .bss           0x00000000        0x0 ./xip/evkmimxrt1060_flexspi_nor_config.o
 .boot_hdr.conf
                0x00000000      0x200 ./xip/evkmimxrt1060_flexspi_nor_config.o
 .debug_info    0x00000000      0x7dd ./xip/evkmimxrt1060_flexspi_nor_config.o
 .debug_abbrev  0x00000000      0x14c ./xip/evkmimxrt1060_flexspi_nor_config.o
 .debug_aranges
                0x00000000       0x18 ./xip/evkmimxrt1060_flexspi_nor_config.o
 .debug_macro   0x00000000      0x118 ./xip/evkmimxrt1060_flexspi_nor_config.o
 .debug_macro   0x00000000      0xae4 ./xip/evkmimxrt1060_flexspi_nor_config.o
 .debug_macro   0x00000000       0x10 ./xip/evkmimxrt1060_flexspi_nor_config.o
 .debug_macro   0x00000000      0x12e ./xip/evkmimxrt1060_flexspi_nor_config.o
 .debug_macro   0x00000000      0x5b3 ./xip/evkmimxrt1060_flexspi_nor_config.o
 .debug_macro   0x00000000       0x22 ./xip/evkmimxrt1060_flexspi_nor_config.o
 .debug_macro   0x00000000       0x16 ./xip/evkmimxrt1060_flexspi_nor_config.o
 .debug_macro   0x00000000       0x22 ./xip/evkmimxrt1060_flexspi_nor_config.o
 .debug_macro   0x00000000       0x10 ./xip/evkmimxrt1060_flexspi_nor_config.o
 .debug_macro   0x00000000       0x4d ./xip/evkmimxrt1060_flexspi_nor_config.o
 .debug_macro   0x00000000       0x1c ./xip/evkmimxrt1060_flexspi_nor_config.o
 .debug_macro   0x00000000       0x22 ./xip/evkmimxrt1060_flexspi_nor_config.o
 .debug_macro   0x00000000       0xdf ./xip/evkmimxrt1060_flexspi_nor_config.o
 .debug_macro   0x00000000     0x1295 ./xip/evkmimxrt1060_flexspi_nor_config.o
 .debug_macro   0x00000000       0xe2 ./xip/evkmimxrt1060_flexspi_nor_config.o
 .debug_macro   0x00000000       0x19 ./xip/evkmimxrt1060_flexspi_nor_config.o
 .debug_macro   0x00000000       0x22 ./xip/evkmimxrt1060_flexspi_nor_config.o
 .debug_macro   0x00000000    0x267dc ./xip/evkmimxrt1060_flexspi_nor_config.o
 .debug_macro   0x00000000      0x69b ./xip/evkmimxrt1060_flexspi_nor_config.o
 .debug_macro   0x00000000       0xd0 ./xip/evkmimxrt1060_flexspi_nor_config.o
 .debug_macro   0x00000000      0x224 ./xip/evkmimxrt1060_flexspi_nor_config.o
 .debug_macro   0x00000000      0x1a4 ./xip/evkmimxrt1060_flexspi_nor_config.o
 .debug_line    0x00000000      0x2bb ./xip/evkmimxrt1060_flexspi_nor_config.o
 .debug_str     0x00000000   0x14fa2e ./xip/evkmimxrt1060_flexspi_nor_config.o
 .comment       0x00000000       0x76 ./xip/evkmimxrt1060_flexspi_nor_config.o
 .ARM.attributes
                0x00000000       0x37 ./xip/evkmimxrt1060_flexspi_nor_config.o
 .group         0x00000000        0xc ./xip/evkmimxrt1060_sdram_ini_dcd.o
 .group         0x00000000        0xc ./xip/evkmimxrt1060_sdram_ini_dcd.o
 .group         0x00000000        0xc ./xip/evkmimxrt1060_sdram_ini_dcd.o
 .group         0x00000000        0xc ./xip/evkmimxrt1060_sdram_ini_dcd.o
 .group         0x00000000        0xc ./xip/evkmimxrt1060_sdram_ini_dcd.o
 .text          0x00000000        0x0 ./xip/evkmimxrt1060_sdram_ini_dcd.o
 .data          0x00000000        0x0 ./xip/evkmimxrt1060_sdram_ini_dcd.o
 .bss           0x00000000        0x0 ./xip/evkmimxrt1060_sdram_ini_dcd.o
 .rodata.dcd_data
                0x00000000        0x1 ./xip/evkmimxrt1060_sdram_ini_dcd.o
 .debug_info    0x00000000       0xd9 ./xip/evkmimxrt1060_sdram_ini_dcd.o
 .debug_abbrev  0x00000000       0x9f ./xip/evkmimxrt1060_sdram_ini_dcd.o
 .debug_aranges
                0x00000000       0x18 ./xip/evkmimxrt1060_sdram_ini_dcd.o
 .debug_macro   0x00000000       0x51 ./xip/evkmimxrt1060_sdram_ini_dcd.o
 .debug_macro   0x00000000      0xae4 ./xip/evkmimxrt1060_sdram_ini_dcd.o
 .debug_macro   0x00000000       0x10 ./xip/evkmimxrt1060_sdram_ini_dcd.o
 .debug_macro   0x00000000      0x12e ./xip/evkmimxrt1060_sdram_ini_dcd.o
 .debug_macro   0x00000000      0x5b3 ./xip/evkmimxrt1060_sdram_ini_dcd.o
 .debug_macro   0x00000000       0x22 ./xip/evkmimxrt1060_sdram_ini_dcd.o
 .debug_line    0x00000000      0x196 ./xip/evkmimxrt1060_sdram_ini_dcd.o
 .debug_str     0x00000000     0x46e8 ./xip/evkmimxrt1060_sdram_ini_dcd.o
 .comment       0x00000000       0x76 ./xip/evkmimxrt1060_sdram_ini_dcd.o
 .ARM.attributes
                0x00000000       0x37 ./xip/evkmimxrt1060_sdram_ini_dcd.o
 .group         0x00000000        0xc ./xip/fsl_flexspi_nor_boot.o
 .group         0x00000000        0xc ./xip/fsl_flexspi_nor_boot.o
 .group         0x00000000        0xc ./xip/fsl_flexspi_nor_boot.o
 .group         0x00000000        0xc ./xip/fsl_flexspi_nor_boot.o
 .group         0x00000000        0xc ./xip/fsl_flexspi_nor_boot.o
 .group         0x00000000        0xc ./xip/fsl_flexspi_nor_boot.o
 .group         0x00000000        0xc ./xip/fsl_flexspi_nor_boot.o
 .group         0x00000000        0xc ./xip/fsl_flexspi_nor_boot.o
 .group         0x00000000        0xc ./xip/fsl_flexspi_nor_boot.o
 .group         0x00000000        0xc ./xip/fsl_flexspi_nor_boot.o
 .group         0x00000000        0xc ./xip/fsl_flexspi_nor_boot.o
 .group         0x00000000        0xc ./xip/fsl_flexspi_nor_boot.o
 .group         0x00000000        0xc ./xip/fsl_flexspi_nor_boot.o
 .group         0x00000000        0xc ./xip/fsl_flexspi_nor_boot.o
 .group         0x00000000        0xc ./xip/fsl_flexspi_nor_boot.o
 .group         0x00000000        0xc ./xip/fsl_flexspi_nor_boot.o
 .group         0x00000000        0xc ./xip/fsl_flexspi_nor_boot.o
 .group         0x00000000        0xc ./xip/fsl_flexspi_nor_boot.o
 .group         0x00000000        0xc ./xip/fsl_flexspi_nor_boot.o
 .group         0x00000000        0xc ./xip/fsl_flexspi_nor_boot.o
 .group         0x00000000        0xc ./xip/fsl_flexspi_nor_boot.o
 .group         0x00000000        0xc ./xip/fsl_flexspi_nor_boot.o
 .group         0x00000000        0xc ./xip/fsl_flexspi_nor_boot.o
 .group         0x00000000        0xc ./xip/fsl_flexspi_nor_boot.o
 .text          0x00000000        0x0 ./xip/fsl_flexspi_nor_boot.o
 .data          0x00000000        0x0 ./xip/fsl_flexspi_nor_boot.o
 .bss           0x00000000        0x0 ./xip/fsl_flexspi_nor_boot.o
 .boot_hdr.boot_data
                0x00000000       0x10 ./xip/fsl_flexspi_nor_boot.o
 .boot_hdr.ivt  0x00000000       0x20 ./xip/fsl_flexspi_nor_boot.o
 .debug_info    0x00000000      0x5c2 ./xip/fsl_flexspi_nor_boot.o
 .debug_abbrev  0x00000000      0x13f ./xip/fsl_flexspi_nor_boot.o
 .debug_aranges
                0x00000000       0x18 ./xip/fsl_flexspi_nor_boot.o
 .debug_macro   0x00000000      0x143 ./xip/fsl_flexspi_nor_boot.o
 .debug_macro   0x00000000      0xae4 ./xip/fsl_flexspi_nor_boot.o
 .debug_macro   0x00000000       0x10 ./xip/fsl_flexspi_nor_boot.o
 .debug_macro   0x00000000      0x12e ./xip/fsl_flexspi_nor_boot.o
 .debug_macro   0x00000000      0x5b3 ./xip/fsl_flexspi_nor_boot.o
 .debug_macro   0x00000000       0x16 ./xip/fsl_flexspi_nor_boot.o
 .debug_macro   0x00000000       0x22 ./xip/fsl_flexspi_nor_boot.o
 .debug_macro   0x00000000       0x22 ./xip/fsl_flexspi_nor_boot.o
 .debug_macro   0x00000000       0x10 ./xip/fsl_flexspi_nor_boot.o
 .debug_macro   0x00000000       0x4d ./xip/fsl_flexspi_nor_boot.o
 .debug_macro   0x00000000       0x1c ./xip/fsl_flexspi_nor_boot.o
 .debug_macro   0x00000000       0x22 ./xip/fsl_flexspi_nor_boot.o
 .debug_macro   0x00000000       0xdf ./xip/fsl_flexspi_nor_boot.o
 .debug_macro   0x00000000     0x1295 ./xip/fsl_flexspi_nor_boot.o
 .debug_macro   0x00000000       0xe2 ./xip/fsl_flexspi_nor_boot.o
 .debug_macro   0x00000000       0x19 ./xip/fsl_flexspi_nor_boot.o
 .debug_macro   0x00000000       0x22 ./xip/fsl_flexspi_nor_boot.o
 .debug_macro   0x00000000    0x267dc ./xip/fsl_flexspi_nor_boot.o
 .debug_macro   0x00000000      0x69b ./xip/fsl_flexspi_nor_boot.o
 .debug_macro   0x00000000       0xd0 ./xip/fsl_flexspi_nor_boot.o
 .debug_macro   0x00000000      0x224 ./xip/fsl_flexspi_nor_boot.o
 .debug_macro   0x00000000      0x136 ./xip/fsl_flexspi_nor_boot.o
 .debug_macro   0x00000000       0x10 ./xip/fsl_flexspi_nor_boot.o
 .debug_macro   0x00000000      0x2b5 ./xip/fsl_flexspi_nor_boot.o
 .debug_macro   0x00000000       0x7c ./xip/fsl_flexspi_nor_boot.o
 .debug_line    0x00000000      0x2d7 ./xip/fsl_flexspi_nor_boot.o
 .debug_str     0x00000000   0x1510d3 ./xip/fsl_flexspi_nor_boot.o
 .comment       0x00000000       0x76 ./xip/fsl_flexspi_nor_boot.o
 .ARM.attributes
                0x00000000       0x37 ./xip/fsl_flexspi_nor_boot.o
 .group         0x00000000        0xc ./utilities/fsl_assert.o
 .group         0x00000000        0xc ./utilities/fsl_assert.o
 .group         0x00000000        0xc ./utilities/fsl_assert.o
 .group         0x00000000        0xc ./utilities/fsl_assert.o
 .group         0x00000000        0xc ./utilities/fsl_assert.o
 .group         0x00000000        0xc ./utilities/fsl_assert.o
 .group         0x00000000        0xc ./utilities/fsl_assert.o
 .group         0x00000000        0xc ./utilities/fsl_assert.o
 .group         0x00000000        0xc ./utilities/fsl_assert.o
 .group         0x00000000        0xc ./utilities/fsl_assert.o
 .group         0x00000000        0xc ./utilities/fsl_assert.o
 .group         0x00000000        0xc ./utilities/fsl_assert.o
 .group         0x00000000        0xc ./utilities/fsl_assert.o
 .group         0x00000000        0xc ./utilities/fsl_assert.o
 .group         0x00000000        0xc ./utilities/fsl_assert.o
 .group         0x00000000        0xc ./utilities/fsl_assert.o
 .group         0x00000000        0xc ./utilities/fsl_assert.o
 .group         0x00000000        0xc ./utilities/fsl_assert.o
 .group         0x00000000        0xc ./utilities/fsl_assert.o
 .group         0x00000000        0xc ./utilities/fsl_assert.o
 .group         0x00000000        0xc ./utilities/fsl_assert.o
 .group         0x00000000        0xc ./utilities/fsl_assert.o
 .group         0x00000000        0xc ./utilities/fsl_assert.o
 .group         0x00000000        0xc ./utilities/fsl_assert.o
 .text          0x00000000        0x0 ./utilities/fsl_assert.o
 .data          0x00000000        0x0 ./utilities/fsl_assert.o
 .bss           0x00000000        0x0 ./utilities/fsl_assert.o
 .rodata        0x00000000       0x3e ./utilities/fsl_assert.o
 .text.__assert_func
                0x00000000       0x28 ./utilities/fsl_assert.o
 .debug_info    0x00000000      0x181 ./utilities/fsl_assert.o
 .debug_abbrev  0x00000000       0xc2 ./utilities/fsl_assert.o
 .debug_aranges
                0x00000000       0x20 ./utilities/fsl_assert.o
 .debug_ranges  0x00000000       0x10 ./utilities/fsl_assert.o
 .debug_macro   0x00000000      0x123 ./utilities/fsl_assert.o
 .debug_macro   0x00000000      0xae4 ./utilities/fsl_assert.o
 .debug_macro   0x00000000       0x10 ./utilities/fsl_assert.o
 .debug_macro   0x00000000       0x1c ./utilities/fsl_assert.o
 .debug_macro   0x00000000       0x22 ./utilities/fsl_assert.o
 .debug_macro   0x00000000      0x12e ./utilities/fsl_assert.o
 .debug_macro   0x00000000      0x5b3 ./utilities/fsl_assert.o
 .debug_macro   0x00000000       0x22 ./utilities/fsl_assert.o
 .debug_macro   0x00000000       0x10 ./utilities/fsl_assert.o
 .debug_macro   0x00000000       0x4d ./utilities/fsl_assert.o
 .debug_macro   0x00000000       0x1c ./utilities/fsl_assert.o
 .debug_macro   0x00000000       0x22 ./utilities/fsl_assert.o
 .debug_macro   0x00000000       0xdf ./utilities/fsl_assert.o
 .debug_macro   0x00000000     0x1295 ./utilities/fsl_assert.o
 .debug_macro   0x00000000       0xe2 ./utilities/fsl_assert.o
 .debug_macro   0x00000000       0x19 ./utilities/fsl_assert.o
 .debug_macro   0x00000000       0x22 ./utilities/fsl_assert.o
 .debug_macro   0x00000000    0x267dc ./utilities/fsl_assert.o
 .debug_macro   0x00000000      0x69b ./utilities/fsl_assert.o
 .debug_macro   0x00000000       0xd0 ./utilities/fsl_assert.o
 .debug_macro   0x00000000      0x224 ./utilities/fsl_assert.o
 .debug_macro   0x00000000       0x34 ./utilities/fsl_assert.o
 .debug_macro   0x00000000       0x10 ./utilities/fsl_assert.o
 .debug_macro   0x00000000       0x32 ./utilities/fsl_assert.o
 .debug_macro   0x00000000       0x2e ./utilities/fsl_assert.o
 .debug_line    0x00000000      0x2fd ./utilities/fsl_assert.o
 .debug_str     0x00000000   0x14e8ff ./utilities/fsl_assert.o
 .comment       0x00000000       0x76 ./utilities/fsl_assert.o
 .debug_frame   0x00000000       0x30 ./utilities/fsl_assert.o
 .ARM.attributes
                0x00000000       0x32 ./utilities/fsl_assert.o
 .group         0x00000000        0xc ./utilities/fsl_debug_console.o
 .group         0x00000000        0xc ./utilities/fsl_debug_console.o
 .group         0x00000000        0xc ./utilities/fsl_debug_console.o
 .group         0x00000000        0xc ./utilities/fsl_debug_console.o
 .group         0x00000000        0xc ./utilities/fsl_debug_console.o
 .group         0x00000000        0xc ./utilities/fsl_debug_console.o
 .group         0x00000000        0xc ./utilities/fsl_debug_console.o
 .group         0x00000000        0xc ./utilities/fsl_debug_console.o
 .group         0x00000000        0xc ./utilities/fsl_debug_console.o
 .group         0x00000000        0xc ./utilities/fsl_debug_console.o
 .group         0x00000000        0xc ./utilities/fsl_debug_console.o
 .group         0x00000000        0xc ./utilities/fsl_debug_console.o
 .group         0x00000000        0xc ./utilities/fsl_debug_console.o
 .group         0x00000000        0xc ./utilities/fsl_debug_console.o
 .group         0x00000000        0xc ./utilities/fsl_debug_console.o
 .group         0x00000000        0xc ./utilities/fsl_debug_console.o
 .group         0x00000000        0xc ./utilities/fsl_debug_console.o
 .group         0x00000000        0xc ./utilities/fsl_debug_console.o
 .group         0x00000000        0xc ./utilities/fsl_debug_console.o
 .group         0x00000000        0xc ./utilities/fsl_debug_console.o
 .group         0x00000000        0xc ./utilities/fsl_debug_console.o
 .group         0x00000000        0xc ./utilities/fsl_debug_console.o
 .group         0x00000000        0xc ./utilities/fsl_debug_console.o
 .group         0x00000000        0xc ./utilities/fsl_debug_console.o
 .group         0x00000000        0xc ./utilities/fsl_debug_console.o
 .group         0x00000000        0xc ./utilities/fsl_debug_console.o
 .group         0x00000000        0xc ./utilities/fsl_debug_console.o
 .text          0x00000000        0x0 ./utilities/fsl_debug_console.o
 .data          0x00000000        0x0 ./utilities/fsl_debug_console.o
 .bss           0x00000000        0x0 ./utilities/fsl_debug_console.o
 .bss.s_debugConsoleReadWaitSemaphore
                0x00000000        0x1 ./utilities/fsl_debug_console.o
 .text.DbgConsole_ReadOneCharacter
                0x00000000       0x34 ./utilities/fsl_debug_console.o
 .text.DbgConsole_SendData
                0x00000000       0x58 ./utilities/fsl_debug_console.o
 .text.DbgConsole_ReadLine
                0x00000000       0xa0 ./utilities/fsl_debug_console.o
 .text.DbgConsole_ReadCharacter
                0x00000000       0x3c ./utilities/fsl_debug_console.o
 .text.DbgConsole_Deinit
                0x00000000       0x34 ./utilities/fsl_debug_console.o
 .text.DbgConsole_Flush
                0x00000000       0x10 ./utilities/fsl_debug_console.o
 .text.DbgConsole_Putchar
                0x00000000       0x1c ./utilities/fsl_debug_console.o
 .text.DbgConsole_Scanf
                0x00000000       0x46 ./utilities/fsl_debug_console.o
 .text.DbgConsole_Getchar
                0x00000000       0x1c ./utilities/fsl_debug_console.o
 .debug_macro   0x00000000      0xae4 ./utilities/fsl_debug_console.o
 .debug_macro   0x00000000       0x10 ./utilities/fsl_debug_console.o
 .debug_macro   0x00000000      0x12e ./utilities/fsl_debug_console.o
 .debug_macro   0x00000000       0x16 ./utilities/fsl_debug_console.o
 .debug_macro   0x00000000       0x22 ./utilities/fsl_debug_console.o
 .debug_macro   0x00000000      0x5b3 ./utilities/fsl_debug_console.o
 .debug_macro   0x00000000       0x10 ./utilities/fsl_debug_console.o
 .debug_macro   0x00000000       0x4d ./utilities/fsl_debug_console.o
 .debug_macro   0x00000000       0x1c ./utilities/fsl_debug_console.o
 .debug_macro   0x00000000       0x22 ./utilities/fsl_debug_console.o
 .debug_macro   0x00000000       0xdf ./utilities/fsl_debug_console.o
 .debug_macro   0x00000000     0x1295 ./utilities/fsl_debug_console.o
 .debug_macro   0x00000000       0xe2 ./utilities/fsl_debug_console.o
 .debug_macro   0x00000000       0x19 ./utilities/fsl_debug_console.o
 .debug_macro   0x00000000       0x22 ./utilities/fsl_debug_console.o
 .debug_macro   0x00000000    0x267dc ./utilities/fsl_debug_console.o
 .debug_macro   0x00000000      0x69b ./utilities/fsl_debug_console.o
 .debug_macro   0x00000000       0xd0 ./utilities/fsl_debug_console.o
 .debug_macro   0x00000000      0x224 ./utilities/fsl_debug_console.o
 .debug_macro   0x00000000       0x34 ./utilities/fsl_debug_console.o
 .debug_macro   0x00000000       0x10 ./utilities/fsl_debug_console.o
 .debug_macro   0x00000000       0x32 ./utilities/fsl_debug_console.o
 .group         0x00000000        0xc ./utilities/fsl_str.o
 .group         0x00000000        0xc ./utilities/fsl_str.o
 .group         0x00000000        0xc ./utilities/fsl_str.o
 .group         0x00000000        0xc ./utilities/fsl_str.o
 .group         0x00000000        0xc ./utilities/fsl_str.o
 .group         0x00000000        0xc ./utilities/fsl_str.o
 .group         0x00000000        0xc ./utilities/fsl_str.o
 .group         0x00000000        0xc ./utilities/fsl_str.o
 .group         0x00000000        0xc ./utilities/fsl_str.o
 .group         0x00000000        0xc ./utilities/fsl_str.o
 .group         0x00000000        0xc ./utilities/fsl_str.o
 .group         0x00000000        0xc ./utilities/fsl_str.o
 .group         0x00000000        0xc ./utilities/fsl_str.o
 .group         0x00000000        0xc ./utilities/fsl_str.o
 .group         0x00000000        0xc ./utilities/fsl_str.o
 .group         0x00000000        0xc ./utilities/fsl_str.o
 .group         0x00000000        0xc ./utilities/fsl_str.o
 .group         0x00000000        0xc ./utilities/fsl_str.o
 .group         0x00000000        0xc ./utilities/fsl_str.o
 .group         0x00000000        0xc ./utilities/fsl_str.o
 .group         0x00000000        0xc ./utilities/fsl_str.o
 .group         0x00000000        0xc ./utilities/fsl_str.o
 .group         0x00000000        0xc ./utilities/fsl_str.o
 .text          0x00000000        0x0 ./utilities/fsl_str.o
 .data          0x00000000        0x0 ./utilities/fsl_str.o
 .bss           0x00000000        0x0 ./utilities/fsl_str.o
 .text.ScanIgnoreWhiteSpace
                0x00000000       0x60 ./utilities/fsl_str.o
 .text.StrFormatScanf
                0x00000000      0x5e8 ./utilities/fsl_str.o
 .debug_macro   0x00000000      0xae4 ./utilities/fsl_str.o
 .debug_macro   0x00000000       0x10 ./utilities/fsl_str.o
 .debug_macro   0x00000000      0x12e ./utilities/fsl_str.o
 .debug_macro   0x00000000       0x28 ./utilities/fsl_str.o
 .debug_macro   0x00000000       0x16 ./utilities/fsl_str.o
 .debug_macro   0x00000000       0x22 ./utilities/fsl_str.o
 .debug_macro   0x00000000      0x5b3 ./utilities/fsl_str.o
 .debug_macro   0x00000000       0x10 ./utilities/fsl_str.o
 .debug_macro   0x00000000       0x4d ./utilities/fsl_str.o
 .debug_macro   0x00000000       0x1c ./utilities/fsl_str.o
 .debug_macro   0x00000000       0x22 ./utilities/fsl_str.o
 .debug_macro   0x00000000       0xdf ./utilities/fsl_str.o
 .debug_macro   0x00000000     0x1295 ./utilities/fsl_str.o
 .debug_macro   0x00000000       0xe2 ./utilities/fsl_str.o
 .debug_macro   0x00000000       0x19 ./utilities/fsl_str.o
 .debug_macro   0x00000000       0x22 ./utilities/fsl_str.o
 .debug_macro   0x00000000    0x267dc ./utilities/fsl_str.o
 .debug_macro   0x00000000      0x69b ./utilities/fsl_str.o
 .debug_macro   0x00000000       0xd0 ./utilities/fsl_str.o
 .debug_macro   0x00000000      0x224 ./utilities/fsl_str.o
 .debug_macro   0x00000000       0x5d ./utilities/fsl_str.o
 .group         0x00000000        0xc ./startup/startup_mimxrt1062.o
 .group         0x00000000        0xc ./startup/startup_mimxrt1062.o
 .group         0x00000000        0xc ./startup/startup_mimxrt1062.o
 .group         0x00000000        0xc ./startup/startup_mimxrt1062.o
 .group         0x00000000        0xc ./startup/startup_mimxrt1062.o
 .text          0x00000000        0x0 ./startup/startup_mimxrt1062.o
 .data          0x00000000        0x0 ./startup/startup_mimxrt1062.o
 .bss           0x00000000        0x0 ./startup/startup_mimxrt1062.o
 .bss.i.6074    0x00000000        0x4 ./startup/startup_mimxrt1062.o
 .debug_macro   0x00000000      0xae4 ./startup/startup_mimxrt1062.o
 .debug_macro   0x00000000       0x10 ./startup/startup_mimxrt1062.o
 .debug_macro   0x00000000      0x12e ./startup/startup_mimxrt1062.o
 .debug_macro   0x00000000      0x5b3 ./startup/startup_mimxrt1062.o
 .group         0x00000000        0xc ./source/cmsis_lpspi_int_b2b_transfer_master.o
 .group         0x00000000        0xc ./source/cmsis_lpspi_int_b2b_transfer_master.o
 .group         0x00000000        0xc ./source/cmsis_lpspi_int_b2b_transfer_master.o
 .group         0x00000000        0xc ./source/cmsis_lpspi_int_b2b_transfer_master.o
 .group         0x00000000        0xc ./source/cmsis_lpspi_int_b2b_transfer_master.o
 .group         0x00000000        0xc ./source/cmsis_lpspi_int_b2b_transfer_master.o
 .group         0x00000000        0xc ./source/cmsis_lpspi_int_b2b_transfer_master.o
 .group         0x00000000        0xc ./source/cmsis_lpspi_int_b2b_transfer_master.o
 .group         0x00000000        0xc ./source/cmsis_lpspi_int_b2b_transfer_master.o
 .group         0x00000000        0xc ./source/cmsis_lpspi_int_b2b_transfer_master.o
 .group         0x00000000        0xc ./source/cmsis_lpspi_int_b2b_transfer_master.o
 .group         0x00000000        0xc ./source/cmsis_lpspi_int_b2b_transfer_master.o
 .group         0x00000000        0xc ./source/cmsis_lpspi_int_b2b_transfer_master.o
 .group         0x00000000        0xc ./source/cmsis_lpspi_int_b2b_transfer_master.o
 .group         0x00000000        0xc ./source/cmsis_lpspi_int_b2b_transfer_master.o
 .group         0x00000000        0xc ./source/cmsis_lpspi_int_b2b_transfer_master.o
 .group         0x00000000        0xc ./source/cmsis_lpspi_int_b2b_transfer_master.o
 .group         0x00000000        0xc ./source/cmsis_lpspi_int_b2b_transfer_master.o
 .group         0x00000000        0xc ./source/cmsis_lpspi_int_b2b_transfer_master.o
 .group         0x00000000        0xc ./source/cmsis_lpspi_int_b2b_transfer_master.o
 .group         0x00000000        0xc ./source/cmsis_lpspi_int_b2b_transfer_master.o
 .group         0x00000000        0xc ./source/cmsis_lpspi_int_b2b_transfer_master.o
 .group         0x00000000        0xc ./source/cmsis_lpspi_int_b2b_transfer_master.o
 .group         0x00000000        0xc ./source/cmsis_lpspi_int_b2b_transfer_master.o
 .group         0x00000000        0xc ./source/cmsis_lpspi_int_b2b_transfer_master.o
 .group         0x00000000        0xc ./source/cmsis_lpspi_int_b2b_transfer_master.o
 .group         0x00000000        0xc ./source/cmsis_lpspi_int_b2b_transfer_master.o
 .group         0x00000000        0xc ./source/cmsis_lpspi_int_b2b_transfer_master.o
 .group         0x00000000        0xc ./source/cmsis_lpspi_int_b2b_transfer_master.o
 .group         0x00000000        0xc ./source/cmsis_lpspi_int_b2b_transfer_master.o
 .group         0x00000000        0xc ./source/cmsis_lpspi_int_b2b_transfer_master.o
 .group         0x00000000        0xc ./source/cmsis_lpspi_int_b2b_transfer_master.o
 .group         0x00000000        0xc ./source/cmsis_lpspi_int_b2b_transfer_master.o
 .group         0x00000000        0xc ./source/cmsis_lpspi_int_b2b_transfer_master.o
 .group         0x00000000        0xc ./source/cmsis_lpspi_int_b2b_transfer_master.o
 .group         0x00000000        0xc ./source/cmsis_lpspi_int_b2b_transfer_master.o
 .text          0x00000000        0x0 ./source/cmsis_lpspi_int_b2b_transfer_master.o
 .data          0x00000000        0x0 ./source/cmsis_lpspi_int_b2b_transfer_master.o
 .bss           0x00000000        0x0 ./source/cmsis_lpspi_int_b2b_transfer_master.o
 .debug_macro   0x00000000      0xae4 ./source/cmsis_lpspi_int_b2b_transfer_master.o
 .debug_macro   0x00000000       0x10 ./source/cmsis_lpspi_int_b2b_transfer_master.o
 .debug_macro   0x00000000      0x12e ./source/cmsis_lpspi_int_b2b_transfer_master.o
 .debug_macro   0x00000000      0x5b3 ./source/cmsis_lpspi_int_b2b_transfer_master.o
 .debug_macro   0x00000000       0x10 ./source/cmsis_lpspi_int_b2b_transfer_master.o
 .debug_macro   0x00000000       0x4d ./source/cmsis_lpspi_int_b2b_transfer_master.o
 .debug_macro   0x00000000       0x1c ./source/cmsis_lpspi_int_b2b_transfer_master.o
 .debug_macro   0x00000000       0x22 ./source/cmsis_lpspi_int_b2b_transfer_master.o
 .debug_macro   0x00000000       0xdf ./source/cmsis_lpspi_int_b2b_transfer_master.o
 .debug_macro   0x00000000     0x1295 ./source/cmsis_lpspi_int_b2b_transfer_master.o
 .debug_macro   0x00000000       0xe2 ./source/cmsis_lpspi_int_b2b_transfer_master.o
 .debug_macro   0x00000000       0x19 ./source/cmsis_lpspi_int_b2b_transfer_master.o
 .debug_macro   0x00000000       0x22 ./source/cmsis_lpspi_int_b2b_transfer_master.o
 .debug_macro   0x00000000    0x267dc ./source/cmsis_lpspi_int_b2b_transfer_master.o
 .debug_macro   0x00000000      0x69b ./source/cmsis_lpspi_int_b2b_transfer_master.o
 .debug_macro   0x00000000       0x16 ./source/cmsis_lpspi_int_b2b_transfer_master.o
 .debug_macro   0x00000000       0x22 ./source/cmsis_lpspi_int_b2b_transfer_master.o
 .debug_macro   0x00000000       0x22 ./source/cmsis_lpspi_int_b2b_transfer_master.o
 .debug_macro   0x00000000       0xd0 ./source/cmsis_lpspi_int_b2b_transfer_master.o
 .debug_macro   0x00000000      0x224 ./source/cmsis_lpspi_int_b2b_transfer_master.o
 .debug_macro   0x00000000       0x34 ./source/cmsis_lpspi_int_b2b_transfer_master.o
 .debug_macro   0x00000000       0x10 ./source/cmsis_lpspi_int_b2b_transfer_master.o
 .debug_macro   0x00000000       0x32 ./source/cmsis_lpspi_int_b2b_transfer_master.o
 .debug_macro   0x00000000       0x2e ./source/cmsis_lpspi_int_b2b_transfer_master.o
 .debug_macro   0x00000000       0x10 ./source/cmsis_lpspi_int_b2b_transfer_master.o
 .debug_macro   0x00000000      0x2b5 ./source/cmsis_lpspi_int_b2b_transfer_master.o
 .group         0x00000000        0xc ./source/semihost_hardfault.o
 .text          0x00000000        0x0 ./source/semihost_hardfault.o
 .data          0x00000000        0x0 ./source/semihost_hardfault.o
 .bss           0x00000000        0x0 ./source/semihost_hardfault.o
 .debug_macro   0x00000000      0xae4 ./source/semihost_hardfault.o
 .group         0x00000000        0xc ./drivers/ethernet_lib.o
 .group         0x00000000        0xc ./drivers/ethernet_lib.o
 .group         0x00000000        0xc ./drivers/ethernet_lib.o
 .group         0x00000000        0xc ./drivers/ethernet_lib.o
 .group         0x00000000        0xc ./drivers/ethernet_lib.o
 .group         0x00000000        0xc ./drivers/ethernet_lib.o
 .group         0x00000000        0xc ./drivers/ethernet_lib.o
 .group         0x00000000        0xc ./drivers/ethernet_lib.o
 .group         0x00000000        0xc ./drivers/ethernet_lib.o
 .group         0x00000000        0xc ./drivers/ethernet_lib.o
 .group         0x00000000        0xc ./drivers/ethernet_lib.o
 .group         0x00000000        0xc ./drivers/ethernet_lib.o
 .group         0x00000000        0xc ./drivers/ethernet_lib.o
 .group         0x00000000        0xc ./drivers/ethernet_lib.o
 .group         0x00000000        0xc ./drivers/ethernet_lib.o
 .group         0x00000000        0xc ./drivers/ethernet_lib.o
 .group         0x00000000        0xc ./drivers/ethernet_lib.o
 .group         0x00000000        0xc ./drivers/ethernet_lib.o
 .group         0x00000000        0xc ./drivers/ethernet_lib.o
 .group         0x00000000        0xc ./drivers/ethernet_lib.o
 .group         0x00000000        0xc ./drivers/ethernet_lib.o
 .group         0x00000000        0xc ./drivers/ethernet_lib.o
 .group         0x00000000        0xc ./drivers/ethernet_lib.o
 .group         0x00000000        0xc ./drivers/ethernet_lib.o
 .group         0x00000000        0xc ./drivers/ethernet_lib.o
 .group         0x00000000        0xc ./drivers/ethernet_lib.o
 .group         0x00000000        0xc ./drivers/ethernet_lib.o
 .group         0x00000000        0xc ./drivers/ethernet_lib.o
 .group         0x00000000        0xc ./drivers/ethernet_lib.o
 .group         0x00000000        0xc ./drivers/ethernet_lib.o
 .group         0x00000000        0xc ./drivers/ethernet_lib.o
 .group         0x00000000        0xc ./drivers/ethernet_lib.o
 .group         0x00000000        0xc ./drivers/ethernet_lib.o
 .group         0x00000000        0xc ./drivers/ethernet_lib.o
 .group         0x00000000        0xc ./drivers/ethernet_lib.o
 .group         0x00000000        0xc ./drivers/ethernet_lib.o
 .text          0x00000000        0x0 ./drivers/ethernet_lib.o
 .data          0x00000000        0x0 ./drivers/ethernet_lib.o
 .bss           0x00000000        0x0 ./drivers/ethernet_lib.o
 .debug_macro   0x00000000      0xae4 ./drivers/ethernet_lib.o
 .debug_macro   0x00000000       0x10 ./drivers/ethernet_lib.o
 .debug_macro   0x00000000      0x12e ./drivers/ethernet_lib.o
 .debug_macro   0x00000000      0x5b3 ./drivers/ethernet_lib.o
 .debug_macro   0x00000000       0x10 ./drivers/ethernet_lib.o
 .debug_macro   0x00000000       0x4d ./drivers/ethernet_lib.o
 .debug_macro   0x00000000       0x1c ./drivers/ethernet_lib.o
 .debug_macro   0x00000000       0x22 ./drivers/ethernet_lib.o
 .debug_macro   0x00000000       0xdf ./drivers/ethernet_lib.o
 .debug_macro   0x00000000     0x1295 ./drivers/ethernet_lib.o
 .debug_macro   0x00000000       0xe2 ./drivers/ethernet_lib.o
 .debug_macro   0x00000000       0x19 ./drivers/ethernet_lib.o
 .debug_macro   0x00000000       0x22 ./drivers/ethernet_lib.o
 .debug_macro   0x00000000    0x267dc ./drivers/ethernet_lib.o
 .debug_macro   0x00000000      0x69b ./drivers/ethernet_lib.o
 .debug_macro   0x00000000       0x16 ./drivers/ethernet_lib.o
 .debug_macro   0x00000000       0x22 ./drivers/ethernet_lib.o
 .debug_macro   0x00000000       0x22 ./drivers/ethernet_lib.o
 .debug_macro   0x00000000       0xd0 ./drivers/ethernet_lib.o
 .debug_macro   0x00000000      0x224 ./drivers/ethernet_lib.o
 .debug_macro   0x00000000       0x34 ./drivers/ethernet_lib.o
 .debug_macro   0x00000000       0x10 ./drivers/ethernet_lib.o
 .debug_macro   0x00000000       0x32 ./drivers/ethernet_lib.o
 .debug_macro   0x00000000       0x2e ./drivers/ethernet_lib.o
 .debug_macro   0x00000000      0x172 ./drivers/ethernet_lib.o
 .debug_macro   0x00000000       0x34 ./drivers/ethernet_lib.o
 .debug_macro   0x00000000      0x127 ./drivers/ethernet_lib.o
 .debug_macro   0x00000000       0x32 ./drivers/ethernet_lib.o
 .debug_macro   0x00000000       0x16 ./drivers/ethernet_lib.o
 .debug_macro   0x00000000       0x10 ./drivers/ethernet_lib.o
 .debug_macro   0x00000000       0x1c ./drivers/ethernet_lib.o
 .debug_macro   0x00000000      0x13c ./drivers/ethernet_lib.o
 .debug_macro   0x00000000       0x10 ./drivers/ethernet_lib.o
 .debug_macro   0x00000000      0x2b5 ./drivers/ethernet_lib.o
 .debug_macro   0x00000000       0x88 ./drivers/ethernet_lib.o
 .debug_macro   0x00000000      0x19c ./drivers/ethernet_lib.o
 .group         0x00000000        0xc ./drivers/fsl_clock.o
 .group         0x00000000        0xc ./drivers/fsl_clock.o
 .group         0x00000000        0xc ./drivers/fsl_clock.o
 .group         0x00000000        0xc ./drivers/fsl_clock.o
 .group         0x00000000        0xc ./drivers/fsl_clock.o
 .group         0x00000000        0xc ./drivers/fsl_clock.o
 .group         0x00000000        0xc ./drivers/fsl_clock.o
 .group         0x00000000        0xc ./drivers/fsl_clock.o
 .group         0x00000000        0xc ./drivers/fsl_clock.o
 .group         0x00000000        0xc ./drivers/fsl_clock.o
 .group         0x00000000        0xc ./drivers/fsl_clock.o
 .group         0x00000000        0xc ./drivers/fsl_clock.o
 .group         0x00000000        0xc ./drivers/fsl_clock.o
 .group         0x00000000        0xc ./drivers/fsl_clock.o
 .group         0x00000000        0xc ./drivers/fsl_clock.o
 .group         0x00000000        0xc ./drivers/fsl_clock.o
 .group         0x00000000        0xc ./drivers/fsl_clock.o
 .group         0x00000000        0xc ./drivers/fsl_clock.o
 .group         0x00000000        0xc ./drivers/fsl_clock.o
 .group         0x00000000        0xc ./drivers/fsl_clock.o
 .text          0x00000000        0x0 ./drivers/fsl_clock.o
 .data          0x00000000        0x0 ./drivers/fsl_clock.o
 .bss           0x00000000        0x0 ./drivers/fsl_clock.o
 .text.CLOCK_GetRtcFreq
                0x00000000       0x12 ./drivers/fsl_clock.o
 .text.CLOCK_GetPeriphClkFreq
                0x00000000       0xe0 ./drivers/fsl_clock.o
 .text.CLOCK_DeinitExternalClk
                0x00000000       0x1c ./drivers/fsl_clock.o
 .text.CLOCK_DeinitRcOsc24M
                0x00000000       0x24 ./drivers/fsl_clock.o
 .text.CLOCK_GetAhbFreq
                0x00000000       0x24 ./drivers/fsl_clock.o
 .text.CLOCK_GetSemcFreq
                0x00000000       0x5c ./drivers/fsl_clock.o
 .text.CLOCK_GetIpgFreq
                0x00000000       0x24 ./drivers/fsl_clock.o
 .text.CLOCK_GetPerClkFreq
                0x00000000       0x44 ./drivers/fsl_clock.o
 .text.CLOCK_GetFreq
                0x00000000      0x184 ./drivers/fsl_clock.o
 .text.CLOCK_EnableUsbhs0Clock
                0x00000000       0x7c ./drivers/fsl_clock.o
 .text.CLOCK_EnableUsbhs1Clock
                0x00000000       0x7c ./drivers/fsl_clock.o
 .text.CLOCK_EnableUsbhs0PhyPllClock
                0x00000000       0x70 ./drivers/fsl_clock.o
 .text.CLOCK_DisableUsbhs0PhyPllClock
                0x00000000       0x30 ./drivers/fsl_clock.o
 .text.CLOCK_DeinitArmPll
                0x00000000       0x1c ./drivers/fsl_clock.o
 .text.CLOCK_DeinitSysPll
                0x00000000       0x1c ./drivers/fsl_clock.o
 .text.CLOCK_InitUsb1Pll
                0x00000000       0x68 ./drivers/fsl_clock.o
 .text.CLOCK_DeinitUsb1Pll
                0x00000000       0x18 ./drivers/fsl_clock.o
 .text.CLOCK_InitUsb2Pll
                0x00000000       0x68 ./drivers/fsl_clock.o
 .text.CLOCK_InitAudioPll
                0x00000000      0x12c ./drivers/fsl_clock.o
 .text.CLOCK_InitVideoPll
                0x00000000      0x134 ./drivers/fsl_clock.o
 .text.CLOCK_InitEnetPll
                0x00000000       0xb0 ./drivers/fsl_clock.o
 .text.CLOCK_DeinitSysPfd
                0x00000000       0x34 ./drivers/fsl_clock.o
 .text.CLOCK_InitUsb1Pfd
                0x00000000       0x64 ./drivers/fsl_clock.o
 .text.CLOCK_DeinitUsb1Pfd
                0x00000000       0x34 ./drivers/fsl_clock.o
 .text.CLOCK_GetSysPfdFreq
                0x00000000       0xac ./drivers/fsl_clock.o
 .text.CLOCK_GetUsb1PfdFreq
                0x00000000       0xac ./drivers/fsl_clock.o
 .text.CLOCK_EnableUsbhs1PhyPllClock
                0x00000000       0x54 ./drivers/fsl_clock.o
 .text.CLOCK_DisableUsbhs1PhyPllClock
                0x00000000       0x30 ./drivers/fsl_clock.o
 .text.SDK_DelayAtLeastUs
                0x00000000      0x10c ./drivers/fsl_clock.o
 .debug_macro   0x00000000      0xae4 ./drivers/fsl_clock.o
 .debug_macro   0x00000000       0x10 ./drivers/fsl_clock.o
 .debug_macro   0x00000000       0x1c ./drivers/fsl_clock.o
 .debug_macro   0x00000000       0x22 ./drivers/fsl_clock.o
 .debug_macro   0x00000000      0x12e ./drivers/fsl_clock.o
 .debug_macro   0x00000000      0x5b3 ./drivers/fsl_clock.o
 .debug_macro   0x00000000       0x22 ./drivers/fsl_clock.o
 .debug_macro   0x00000000       0x10 ./drivers/fsl_clock.o
 .debug_macro   0x00000000       0x4d ./drivers/fsl_clock.o
 .debug_macro   0x00000000       0x1c ./drivers/fsl_clock.o
 .debug_macro   0x00000000       0x22 ./drivers/fsl_clock.o
 .debug_macro   0x00000000       0xdf ./drivers/fsl_clock.o
 .debug_macro   0x00000000     0x1295 ./drivers/fsl_clock.o
 .debug_macro   0x00000000       0xe2 ./drivers/fsl_clock.o
 .debug_macro   0x00000000       0x19 ./drivers/fsl_clock.o
 .debug_macro   0x00000000       0x22 ./drivers/fsl_clock.o
 .debug_macro   0x00000000    0x267dc ./drivers/fsl_clock.o
 .debug_macro   0x00000000      0x69b ./drivers/fsl_clock.o
 .debug_macro   0x00000000       0xd0 ./drivers/fsl_clock.o
 .debug_macro   0x00000000      0x224 ./drivers/fsl_clock.o
 .group         0x00000000        0xc ./drivers/fsl_common.o
 .group         0x00000000        0xc ./drivers/fsl_common.o
 .group         0x00000000        0xc ./drivers/fsl_common.o
 .group         0x00000000        0xc ./drivers/fsl_common.o
 .group         0x00000000        0xc ./drivers/fsl_common.o
 .group         0x00000000        0xc ./drivers/fsl_common.o
 .group         0x00000000        0xc ./drivers/fsl_common.o
 .group         0x00000000        0xc ./drivers/fsl_common.o
 .group         0x00000000        0xc ./drivers/fsl_common.o
 .group         0x00000000        0xc ./drivers/fsl_common.o
 .group         0x00000000        0xc ./drivers/fsl_common.o
 .group         0x00000000        0xc ./drivers/fsl_common.o
 .group         0x00000000        0xc ./drivers/fsl_common.o
 .group         0x00000000        0xc ./drivers/fsl_common.o
 .group         0x00000000        0xc ./drivers/fsl_common.o
 .group         0x00000000        0xc ./drivers/fsl_common.o
 .group         0x00000000        0xc ./drivers/fsl_common.o
 .group         0x00000000        0xc ./drivers/fsl_common.o
 .group         0x00000000        0xc ./drivers/fsl_common.o
 .group         0x00000000        0xc ./drivers/fsl_common.o
 .text          0x00000000        0x0 ./drivers/fsl_common.o
 .data          0x00000000        0x0 ./drivers/fsl_common.o
 .bss           0x00000000        0x0 ./drivers/fsl_common.o
 .text.SDK_Malloc
                0x00000000       0x6a ./drivers/fsl_common.o
 .text.SDK_Free
                0x00000000       0x32 ./drivers/fsl_common.o
 .debug_info    0x00000000      0x1fc ./drivers/fsl_common.o
 .debug_abbrev  0x00000000      0x11b ./drivers/fsl_common.o
 .debug_aranges
                0x00000000       0x28 ./drivers/fsl_common.o
 .debug_ranges  0x00000000       0x18 ./drivers/fsl_common.o
 .debug_macro   0x00000000      0x109 ./drivers/fsl_common.o
 .debug_macro   0x00000000      0xae4 ./drivers/fsl_common.o
 .debug_macro   0x00000000       0x10 ./drivers/fsl_common.o
 .debug_macro   0x00000000       0x1c ./drivers/fsl_common.o
 .debug_macro   0x00000000       0x22 ./drivers/fsl_common.o
 .debug_macro   0x00000000      0x12e ./drivers/fsl_common.o
 .debug_macro   0x00000000      0x5b3 ./drivers/fsl_common.o
 .debug_macro   0x00000000       0x22 ./drivers/fsl_common.o
 .debug_macro   0x00000000       0x10 ./drivers/fsl_common.o
 .debug_macro   0x00000000       0x4d ./drivers/fsl_common.o
 .debug_macro   0x00000000       0x1c ./drivers/fsl_common.o
 .debug_macro   0x00000000       0x22 ./drivers/fsl_common.o
 .debug_macro   0x00000000       0xdf ./drivers/fsl_common.o
 .debug_macro   0x00000000     0x1295 ./drivers/fsl_common.o
 .debug_macro   0x00000000       0xe2 ./drivers/fsl_common.o
 .debug_macro   0x00000000       0x19 ./drivers/fsl_common.o
 .debug_macro   0x00000000       0x22 ./drivers/fsl_common.o
 .debug_macro   0x00000000    0x267dc ./drivers/fsl_common.o
 .debug_macro   0x00000000      0x69b ./drivers/fsl_common.o
 .debug_macro   0x00000000       0xd0 ./drivers/fsl_common.o
 .debug_macro   0x00000000      0x224 ./drivers/fsl_common.o
 .debug_line    0x00000000      0x2f4 ./drivers/fsl_common.o
 .debug_str     0x00000000   0x14e649 ./drivers/fsl_common.o
 .comment       0x00000000       0x76 ./drivers/fsl_common.o
 .debug_frame   0x00000000       0x58 ./drivers/fsl_common.o
 .ARM.attributes
                0x00000000       0x32 ./drivers/fsl_common.o
 .group         0x00000000        0xc ./drivers/fsl_dmamux.o
 .group         0x00000000        0xc ./drivers/fsl_dmamux.o
 .group         0x00000000        0xc ./drivers/fsl_dmamux.o
 .group         0x00000000        0xc ./drivers/fsl_dmamux.o
 .group         0x00000000        0xc ./drivers/fsl_dmamux.o
 .group         0x00000000        0xc ./drivers/fsl_dmamux.o
 .group         0x00000000        0xc ./drivers/fsl_dmamux.o
 .group         0x00000000        0xc ./drivers/fsl_dmamux.o
 .group         0x00000000        0xc ./drivers/fsl_dmamux.o
 .group         0x00000000        0xc ./drivers/fsl_dmamux.o
 .group         0x00000000        0xc ./drivers/fsl_dmamux.o
 .group         0x00000000        0xc ./drivers/fsl_dmamux.o
 .group         0x00000000        0xc ./drivers/fsl_dmamux.o
 .group         0x00000000        0xc ./drivers/fsl_dmamux.o
 .group         0x00000000        0xc ./drivers/fsl_dmamux.o
 .group         0x00000000        0xc ./drivers/fsl_dmamux.o
 .group         0x00000000        0xc ./drivers/fsl_dmamux.o
 .group         0x00000000        0xc ./drivers/fsl_dmamux.o
 .group         0x00000000        0xc ./drivers/fsl_dmamux.o
 .group         0x00000000        0xc ./drivers/fsl_dmamux.o
 .text          0x00000000        0x0 ./drivers/fsl_dmamux.o
 .data          0x00000000        0x0 ./drivers/fsl_dmamux.o
 .bss           0x00000000        0x0 ./drivers/fsl_dmamux.o
 .rodata        0x00000000       0x6e ./drivers/fsl_dmamux.o
 .text.CLOCK_ControlGate
                0x00000000       0x64 ./drivers/fsl_dmamux.o
 .text.CLOCK_EnableClock
                0x00000000       0x1e ./drivers/fsl_dmamux.o
 .text.CLOCK_DisableClock
                0x00000000       0x1e ./drivers/fsl_dmamux.o
 .rodata.s_dmamuxBases
                0x00000000        0x4 ./drivers/fsl_dmamux.o
 .rodata.s_dmamuxClockName
                0x00000000        0x2 ./drivers/fsl_dmamux.o
 .text.DMAMUX_GetInstance
                0x00000000       0x44 ./drivers/fsl_dmamux.o
 .text.DMAMUX_Init
                0x00000000       0x20 ./drivers/fsl_dmamux.o
 .text.DMAMUX_Deinit
                0x00000000       0x20 ./drivers/fsl_dmamux.o
 .debug_info    0x00000000      0xac6 ./drivers/fsl_dmamux.o
 .debug_abbrev  0x00000000      0x1c3 ./drivers/fsl_dmamux.o
 .debug_aranges
                0x00000000       0x48 ./drivers/fsl_dmamux.o
 .debug_ranges  0x00000000       0x38 ./drivers/fsl_dmamux.o
 .debug_macro   0x00000000      0x113 ./drivers/fsl_dmamux.o
 .debug_macro   0x00000000      0xae4 ./drivers/fsl_dmamux.o
 .debug_macro   0x00000000       0x10 ./drivers/fsl_dmamux.o
 .debug_macro   0x00000000       0x1c ./drivers/fsl_dmamux.o
 .debug_macro   0x00000000       0x22 ./drivers/fsl_dmamux.o
 .debug_macro   0x00000000      0x12e ./drivers/fsl_dmamux.o
 .debug_macro   0x00000000      0x5b3 ./drivers/fsl_dmamux.o
 .debug_macro   0x00000000       0x22 ./drivers/fsl_dmamux.o
 .debug_macro   0x00000000       0x10 ./drivers/fsl_dmamux.o
 .debug_macro   0x00000000       0x4d ./drivers/fsl_dmamux.o
 .debug_macro   0x00000000       0x1c ./drivers/fsl_dmamux.o
 .debug_macro   0x00000000       0x22 ./drivers/fsl_dmamux.o
 .debug_macro   0x00000000       0xdf ./drivers/fsl_dmamux.o
 .debug_macro   0x00000000     0x1295 ./drivers/fsl_dmamux.o
 .debug_macro   0x00000000       0xe2 ./drivers/fsl_dmamux.o
 .debug_macro   0x00000000       0x19 ./drivers/fsl_dmamux.o
 .debug_macro   0x00000000       0x22 ./drivers/fsl_dmamux.o
 .debug_macro   0x00000000    0x267dc ./drivers/fsl_dmamux.o
 .debug_macro   0x00000000      0x69b ./drivers/fsl_dmamux.o
 .debug_macro   0x00000000       0xd0 ./drivers/fsl_dmamux.o
 .debug_macro   0x00000000      0x224 ./drivers/fsl_dmamux.o
 .debug_line    0x00000000      0x37b ./drivers/fsl_dmamux.o
 .debug_str     0x00000000   0x14f5f3 ./drivers/fsl_dmamux.o
 .comment       0x00000000       0x76 ./drivers/fsl_dmamux.o
 .debug_frame   0x00000000       0xe8 ./drivers/fsl_dmamux.o
 .ARM.attributes
                0x00000000       0x32 ./drivers/fsl_dmamux.o
 .group         0x00000000        0xc ./drivers/fsl_edma.o
 .group         0x00000000        0xc ./drivers/fsl_edma.o
 .group         0x00000000        0xc ./drivers/fsl_edma.o
 .group         0x00000000        0xc ./drivers/fsl_edma.o
 .group         0x00000000        0xc ./drivers/fsl_edma.o
 .group         0x00000000        0xc ./drivers/fsl_edma.o
 .group         0x00000000        0xc ./drivers/fsl_edma.o
 .group         0x00000000        0xc ./drivers/fsl_edma.o
 .group         0x00000000        0xc ./drivers/fsl_edma.o
 .group         0x00000000        0xc ./drivers/fsl_edma.o
 .group         0x00000000        0xc ./drivers/fsl_edma.o
 .group         0x00000000        0xc ./drivers/fsl_edma.o
 .group         0x00000000        0xc ./drivers/fsl_edma.o
 .group         0x00000000        0xc ./drivers/fsl_edma.o
 .group         0x00000000        0xc ./drivers/fsl_edma.o
 .group         0x00000000        0xc ./drivers/fsl_edma.o
 .group         0x00000000        0xc ./drivers/fsl_edma.o
 .group         0x00000000        0xc ./drivers/fsl_edma.o
 .group         0x00000000        0xc ./drivers/fsl_edma.o
 .group         0x00000000        0xc ./drivers/fsl_edma.o
 .group         0x00000000        0xc ./drivers/fsl_edma.o
 .text          0x00000000        0x0 ./drivers/fsl_edma.o
 .data          0x00000000        0x0 ./drivers/fsl_edma.o
 .bss           0x00000000        0x0 ./drivers/fsl_edma.o
 .text.__NVIC_EnableIRQ
                0x00000000       0x3c ./drivers/fsl_edma.o
 .text.CLOCK_ControlGate
                0x00000000       0x64 ./drivers/fsl_edma.o
 .text.CLOCK_EnableClock
                0x00000000       0x1e ./drivers/fsl_edma.o
 .text.CLOCK_DisableClock
                0x00000000       0x1e ./drivers/fsl_edma.o
 .text.EnableIRQ
                0x00000000       0x2c ./drivers/fsl_edma.o
 .text.DisableGlobalIRQ
                0x00000000       0x20 ./drivers/fsl_edma.o
 .text.EnableGlobalIRQ
                0x00000000       0x1e ./drivers/fsl_edma.o
 .rodata.s_edmaBases
                0x00000000        0x4 ./drivers/fsl_edma.o
 .rodata.s_edmaClockName
                0x00000000        0x2 ./drivers/fsl_edma.o
 .rodata.s_edmaIRQNumber
                0x00000000       0x40 ./drivers/fsl_edma.o
 .text.EDMA_GetInstance
                0x00000000       0x44 ./drivers/fsl_edma.o
 .text.EDMA_InstallTCD
                0x00000000      0x148 ./drivers/fsl_edma.o
 .text.EDMA_Init
                0x00000000       0x94 ./drivers/fsl_edma.o
 .text.EDMA_Deinit
                0x00000000       0x20 ./drivers/fsl_edma.o
 .text.EDMA_GetDefaultConfig
                0x00000000       0x44 ./drivers/fsl_edma.o
 .text.EDMA_ResetChannel
                0x00000000       0x34 ./drivers/fsl_edma.o
 .text.EDMA_SetTransferConfig
                0x00000000       0x60 ./drivers/fsl_edma.o
 .text.EDMA_SetMinorOffsetConfig
                0x00000000       0x88 ./drivers/fsl_edma.o
 .text.EDMA_SetChannelPreemptionConfig
                0x00000000       0x88 ./drivers/fsl_edma.o
 .text.EDMA_SetChannelLink
                0x00000000       0x4c ./drivers/fsl_edma.o
 .text.EDMA_SetBandWidth
                0x00000000       0x5c ./drivers/fsl_edma.o
 .text.EDMA_SetModulo
                0x00000000       0x74 ./drivers/fsl_edma.o
 .text.EDMA_EnableChannelInterrupts
                0x00000000       0xa8 ./drivers/fsl_edma.o
 .text.EDMA_DisableChannelInterrupts
                0x00000000       0xac ./drivers/fsl_edma.o
 .text.EDMA_TcdReset
                0x00000000       0x78 ./drivers/fsl_edma.o
 .text.EDMA_TcdSetTransferConfig
                0x00000000       0xe8 ./drivers/fsl_edma.o
 .text.EDMA_TcdSetMinorOffsetConfig
                0x00000000       0x70 ./drivers/fsl_edma.o
 .text.EDMA_TcdSetChannelLink
                0x00000000      0x130 ./drivers/fsl_edma.o
 .text.EDMA_TcdSetModulo
                0x00000000       0x6c ./drivers/fsl_edma.o
 .text.EDMA_TcdEnableInterrupts
                0x00000000       0x58 ./drivers/fsl_edma.o
 .text.EDMA_TcdDisableInterrupts
                0x00000000       0x58 ./drivers/fsl_edma.o
 .text.EDMA_GetRemainingMajorLoopCount
                0x00000000       0x94 ./drivers/fsl_edma.o
 .text.EDMA_ClearChannelStatusFlags
                0x00000000       0x5c ./drivers/fsl_edma.o
 .text.Get_StartInstance
                0x00000000       0x24 ./drivers/fsl_edma.o
 .text.EDMA_CreateHandle
                0x00000000       0xe4 ./drivers/fsl_edma.o
 .text.EDMA_InstallTCDMemory
                0x00000000       0x60 ./drivers/fsl_edma.o
 .text.EDMA_SetCallback
                0x00000000       0x30 ./drivers/fsl_edma.o
 .text.EDMA_PrepareTransfer
                0x00000000      0x2b8 ./drivers/fsl_edma.o
 .text.EDMA_SubmitTransfer
                0x00000000      0x2c8 ./drivers/fsl_edma.o
 .text.EDMA_StartTransfer
                0x00000000       0xb0 ./drivers/fsl_edma.o
 .text.EDMA_StopTransfer
                0x00000000       0x40 ./drivers/fsl_edma.o
 .text.EDMA_AbortTransfer
                0x00000000       0x6a ./drivers/fsl_edma.o
 .bss.StartInstanceNum.10265
                0x00000000        0x1 ./drivers/fsl_edma.o
 .debug_macro   0x00000000      0xae4 ./drivers/fsl_edma.o
 .debug_macro   0x00000000       0x10 ./drivers/fsl_edma.o
 .debug_macro   0x00000000       0x1c ./drivers/fsl_edma.o
 .debug_macro   0x00000000       0x22 ./drivers/fsl_edma.o
 .debug_macro   0x00000000      0x12e ./drivers/fsl_edma.o
 .debug_macro   0x00000000      0x5b3 ./drivers/fsl_edma.o
 .debug_macro   0x00000000       0x22 ./drivers/fsl_edma.o
 .debug_macro   0x00000000       0x10 ./drivers/fsl_edma.o
 .debug_macro   0x00000000       0x4d ./drivers/fsl_edma.o
 .debug_macro   0x00000000       0x1c ./drivers/fsl_edma.o
 .debug_macro   0x00000000       0x22 ./drivers/fsl_edma.o
 .debug_macro   0x00000000       0xdf ./drivers/fsl_edma.o
 .debug_macro   0x00000000     0x1295 ./drivers/fsl_edma.o
 .debug_macro   0x00000000       0xe2 ./drivers/fsl_edma.o
 .debug_macro   0x00000000       0x19 ./drivers/fsl_edma.o
 .debug_macro   0x00000000       0x22 ./drivers/fsl_edma.o
 .debug_macro   0x00000000    0x267dc ./drivers/fsl_edma.o
 .debug_macro   0x00000000      0x69b ./drivers/fsl_edma.o
 .debug_macro   0x00000000       0xd0 ./drivers/fsl_edma.o
 .debug_macro   0x00000000      0x224 ./drivers/fsl_edma.o
 .group         0x00000000        0xc ./drivers/fsl_gpio.o
 .group         0x00000000        0xc ./drivers/fsl_gpio.o
 .group         0x00000000        0xc ./drivers/fsl_gpio.o
 .group         0x00000000        0xc ./drivers/fsl_gpio.o
 .group         0x00000000        0xc ./drivers/fsl_gpio.o
 .group         0x00000000        0xc ./drivers/fsl_gpio.o
 .group         0x00000000        0xc ./drivers/fsl_gpio.o
 .group         0x00000000        0xc ./drivers/fsl_gpio.o
 .group         0x00000000        0xc ./drivers/fsl_gpio.o
 .group         0x00000000        0xc ./drivers/fsl_gpio.o
 .group         0x00000000        0xc ./drivers/fsl_gpio.o
 .group         0x00000000        0xc ./drivers/fsl_gpio.o
 .group         0x00000000        0xc ./drivers/fsl_gpio.o
 .group         0x00000000        0xc ./drivers/fsl_gpio.o
 .group         0x00000000        0xc ./drivers/fsl_gpio.o
 .group         0x00000000        0xc ./drivers/fsl_gpio.o
 .group         0x00000000        0xc ./drivers/fsl_gpio.o
 .group         0x00000000        0xc ./drivers/fsl_gpio.o
 .group         0x00000000        0xc ./drivers/fsl_gpio.o
 .group         0x00000000        0xc ./drivers/fsl_gpio.o
 .text          0x00000000        0x0 ./drivers/fsl_gpio.o
 .data          0x00000000        0x0 ./drivers/fsl_gpio.o
 .bss           0x00000000        0x0 ./drivers/fsl_gpio.o
 .debug_macro   0x00000000      0xae4 ./drivers/fsl_gpio.o
 .debug_macro   0x00000000       0x10 ./drivers/fsl_gpio.o
 .debug_macro   0x00000000       0x1c ./drivers/fsl_gpio.o
 .debug_macro   0x00000000       0x22 ./drivers/fsl_gpio.o
 .debug_macro   0x00000000      0x12e ./drivers/fsl_gpio.o
 .debug_macro   0x00000000      0x5b3 ./drivers/fsl_gpio.o
 .debug_macro   0x00000000       0x22 ./drivers/fsl_gpio.o
 .debug_macro   0x00000000       0x10 ./drivers/fsl_gpio.o
 .debug_macro   0x00000000       0x4d ./drivers/fsl_gpio.o
 .debug_macro   0x00000000       0x1c ./drivers/fsl_gpio.o
 .debug_macro   0x00000000       0x22 ./drivers/fsl_gpio.o
 .debug_macro   0x00000000       0xdf ./drivers/fsl_gpio.o
 .debug_macro   0x00000000     0x1295 ./drivers/fsl_gpio.o
 .debug_macro   0x00000000       0xe2 ./drivers/fsl_gpio.o
 .debug_macro   0x00000000       0x19 ./drivers/fsl_gpio.o
 .debug_macro   0x00000000       0x22 ./drivers/fsl_gpio.o
 .debug_macro   0x00000000    0x267dc ./drivers/fsl_gpio.o
 .debug_macro   0x00000000      0x69b ./drivers/fsl_gpio.o
 .debug_macro   0x00000000       0xd0 ./drivers/fsl_gpio.o
 .debug_macro   0x00000000      0x224 ./drivers/fsl_gpio.o
 .group         0x00000000        0xc ./drivers/fsl_lpspi.o
 .group         0x00000000        0xc ./drivers/fsl_lpspi.o
 .group         0x00000000        0xc ./drivers/fsl_lpspi.o
 .group         0x00000000        0xc ./drivers/fsl_lpspi.o
 .group         0x00000000        0xc ./drivers/fsl_lpspi.o
 .group         0x00000000        0xc ./drivers/fsl_lpspi.o
 .group         0x00000000        0xc ./drivers/fsl_lpspi.o
 .group         0x00000000        0xc ./drivers/fsl_lpspi.o
 .group         0x00000000        0xc ./drivers/fsl_lpspi.o
 .group         0x00000000        0xc ./drivers/fsl_lpspi.o
 .group         0x00000000        0xc ./drivers/fsl_lpspi.o
 .group         0x00000000        0xc ./drivers/fsl_lpspi.o
 .group         0x00000000        0xc ./drivers/fsl_lpspi.o
 .group         0x00000000        0xc ./drivers/fsl_lpspi.o
 .group         0x00000000        0xc ./drivers/fsl_lpspi.o
 .group         0x00000000        0xc ./drivers/fsl_lpspi.o
 .group         0x00000000        0xc ./drivers/fsl_lpspi.o
 .group         0x00000000        0xc ./drivers/fsl_lpspi.o
 .group         0x00000000        0xc ./drivers/fsl_lpspi.o
 .group         0x00000000        0xc ./drivers/fsl_lpspi.o
 .group         0x00000000        0xc ./drivers/fsl_lpspi.o
 .text          0x00000000        0x0 ./drivers/fsl_lpspi.o
 .data          0x00000000        0x0 ./drivers/fsl_lpspi.o
 .bss           0x00000000        0x0 ./drivers/fsl_lpspi.o
 .text.LPSPI_MasterTransferBlocking
                0x00000000      0x2e4 ./drivers/fsl_lpspi.o
 .text.LPSPI_MasterTransferGetCount
                0x00000000       0x68 ./drivers/fsl_lpspi.o
 .text.LPSPI_SlaveTransferGetCount
                0x00000000       0x68 ./drivers/fsl_lpspi.o
 .debug_macro   0x00000000      0xae4 ./drivers/fsl_lpspi.o
 .debug_macro   0x00000000       0x10 ./drivers/fsl_lpspi.o
 .debug_macro   0x00000000       0x1c ./drivers/fsl_lpspi.o
 .debug_macro   0x00000000       0x22 ./drivers/fsl_lpspi.o
 .debug_macro   0x00000000      0x12e ./drivers/fsl_lpspi.o
 .debug_macro   0x00000000      0x5b3 ./drivers/fsl_lpspi.o
 .debug_macro   0x00000000       0x22 ./drivers/fsl_lpspi.o
 .debug_macro   0x00000000       0x10 ./drivers/fsl_lpspi.o
 .debug_macro   0x00000000       0x4d ./drivers/fsl_lpspi.o
 .debug_macro   0x00000000       0x1c ./drivers/fsl_lpspi.o
 .debug_macro   0x00000000       0x22 ./drivers/fsl_lpspi.o
 .debug_macro   0x00000000       0xdf ./drivers/fsl_lpspi.o
 .debug_macro   0x00000000     0x1295 ./drivers/fsl_lpspi.o
 .debug_macro   0x00000000       0xe2 ./drivers/fsl_lpspi.o
 .debug_macro   0x00000000       0x19 ./drivers/fsl_lpspi.o
 .debug_macro   0x00000000       0x22 ./drivers/fsl_lpspi.o
 .debug_macro   0x00000000    0x267dc ./drivers/fsl_lpspi.o
 .debug_macro   0x00000000      0x69b ./drivers/fsl_lpspi.o
 .debug_macro   0x00000000       0xd0 ./drivers/fsl_lpspi.o
 .debug_macro   0x00000000      0x224 ./drivers/fsl_lpspi.o
 .group         0x00000000        0xc ./drivers/fsl_lpspi_cmsis.o
 .group         0x00000000        0xc ./drivers/fsl_lpspi_cmsis.o
 .group         0x00000000        0xc ./drivers/fsl_lpspi_cmsis.o
 .group         0x00000000        0xc ./drivers/fsl_lpspi_cmsis.o
 .group         0x00000000        0xc ./drivers/fsl_lpspi_cmsis.o
 .group         0x00000000        0xc ./drivers/fsl_lpspi_cmsis.o
 .group         0x00000000        0xc ./drivers/fsl_lpspi_cmsis.o
 .group         0x00000000        0xc ./drivers/fsl_lpspi_cmsis.o
 .group         0x00000000        0xc ./drivers/fsl_lpspi_cmsis.o
 .group         0x00000000        0xc ./drivers/fsl_lpspi_cmsis.o
 .group         0x00000000        0xc ./drivers/fsl_lpspi_cmsis.o
 .group         0x00000000        0xc ./drivers/fsl_lpspi_cmsis.o
 .group         0x00000000        0xc ./drivers/fsl_lpspi_cmsis.o
 .group         0x00000000        0xc ./drivers/fsl_lpspi_cmsis.o
 .group         0x00000000        0xc ./drivers/fsl_lpspi_cmsis.o
 .group         0x00000000        0xc ./drivers/fsl_lpspi_cmsis.o
 .group         0x00000000        0xc ./drivers/fsl_lpspi_cmsis.o
 .group         0x00000000        0xc ./drivers/fsl_lpspi_cmsis.o
 .group         0x00000000        0xc ./drivers/fsl_lpspi_cmsis.o
 .group         0x00000000        0xc ./drivers/fsl_lpspi_cmsis.o
 .group         0x00000000        0xc ./drivers/fsl_lpspi_cmsis.o
 .group         0x00000000        0xc ./drivers/fsl_lpspi_cmsis.o
 .group         0x00000000        0xc ./drivers/fsl_lpspi_cmsis.o
 .group         0x00000000        0xc ./drivers/fsl_lpspi_cmsis.o
 .group         0x00000000        0xc ./drivers/fsl_lpspi_cmsis.o
 .group         0x00000000        0xc ./drivers/fsl_lpspi_cmsis.o
 .group         0x00000000        0xc ./drivers/fsl_lpspi_cmsis.o
 .text          0x00000000        0x0 ./drivers/fsl_lpspi_cmsis.o
 .data          0x00000000        0x0 ./drivers/fsl_lpspi_cmsis.o
 .bss           0x00000000        0x0 ./drivers/fsl_lpspi_cmsis.o
 .rodata.s_lpspiDriverCapabilities
                0x00000000        0x4 ./drivers/fsl_lpspi_cmsis.o
 .debug_macro   0x00000000      0xae4 ./drivers/fsl_lpspi_cmsis.o
 .debug_macro   0x00000000       0x10 ./drivers/fsl_lpspi_cmsis.o
 .debug_macro   0x00000000       0x1c ./drivers/fsl_lpspi_cmsis.o
 .debug_macro   0x00000000       0x22 ./drivers/fsl_lpspi_cmsis.o
 .debug_macro   0x00000000      0x12e ./drivers/fsl_lpspi_cmsis.o
 .debug_macro   0x00000000      0x5b3 ./drivers/fsl_lpspi_cmsis.o
 .debug_macro   0x00000000       0x22 ./drivers/fsl_lpspi_cmsis.o
 .debug_macro   0x00000000       0x10 ./drivers/fsl_lpspi_cmsis.o
 .debug_macro   0x00000000       0x4d ./drivers/fsl_lpspi_cmsis.o
 .debug_macro   0x00000000       0x1c ./drivers/fsl_lpspi_cmsis.o
 .debug_macro   0x00000000       0x22 ./drivers/fsl_lpspi_cmsis.o
 .debug_macro   0x00000000       0xdf ./drivers/fsl_lpspi_cmsis.o
 .debug_macro   0x00000000     0x1295 ./drivers/fsl_lpspi_cmsis.o
 .debug_macro   0x00000000       0xe2 ./drivers/fsl_lpspi_cmsis.o
 .debug_macro   0x00000000       0x19 ./drivers/fsl_lpspi_cmsis.o
 .debug_macro   0x00000000       0x22 ./drivers/fsl_lpspi_cmsis.o
 .debug_macro   0x00000000    0x267dc ./drivers/fsl_lpspi_cmsis.o
 .debug_macro   0x00000000      0x69b ./drivers/fsl_lpspi_cmsis.o
 .debug_macro   0x00000000       0xd0 ./drivers/fsl_lpspi_cmsis.o
 .debug_macro   0x00000000      0x224 ./drivers/fsl_lpspi_cmsis.o
 .debug_macro   0x00000000      0x172 ./drivers/fsl_lpspi_cmsis.o
 .debug_macro   0x00000000       0x34 ./drivers/fsl_lpspi_cmsis.o
 .debug_macro   0x00000000      0x127 ./drivers/fsl_lpspi_cmsis.o
 .debug_macro   0x00000000       0x32 ./drivers/fsl_lpspi_cmsis.o
 .debug_macro   0x00000000       0x16 ./drivers/fsl_lpspi_cmsis.o
 .debug_macro   0x00000000       0x10 ./drivers/fsl_lpspi_cmsis.o
 .debug_macro   0x00000000       0x1c ./drivers/fsl_lpspi_cmsis.o
 .group         0x00000000        0xc ./drivers/fsl_lpspi_edma.o
 .group         0x00000000        0xc ./drivers/fsl_lpspi_edma.o
 .group         0x00000000        0xc ./drivers/fsl_lpspi_edma.o
 .group         0x00000000        0xc ./drivers/fsl_lpspi_edma.o
 .group         0x00000000        0xc ./drivers/fsl_lpspi_edma.o
 .group         0x00000000        0xc ./drivers/fsl_lpspi_edma.o
 .group         0x00000000        0xc ./drivers/fsl_lpspi_edma.o
 .group         0x00000000        0xc ./drivers/fsl_lpspi_edma.o
 .group         0x00000000        0xc ./drivers/fsl_lpspi_edma.o
 .group         0x00000000        0xc ./drivers/fsl_lpspi_edma.o
 .group         0x00000000        0xc ./drivers/fsl_lpspi_edma.o
 .group         0x00000000        0xc ./drivers/fsl_lpspi_edma.o
 .group         0x00000000        0xc ./drivers/fsl_lpspi_edma.o
 .group         0x00000000        0xc ./drivers/fsl_lpspi_edma.o
 .group         0x00000000        0xc ./drivers/fsl_lpspi_edma.o
 .group         0x00000000        0xc ./drivers/fsl_lpspi_edma.o
 .group         0x00000000        0xc ./drivers/fsl_lpspi_edma.o
 .group         0x00000000        0xc ./drivers/fsl_lpspi_edma.o
 .group         0x00000000        0xc ./drivers/fsl_lpspi_edma.o
 .group         0x00000000        0xc ./drivers/fsl_lpspi_edma.o
 .group         0x00000000        0xc ./drivers/fsl_lpspi_edma.o
 .group         0x00000000        0xc ./drivers/fsl_lpspi_edma.o
 .text          0x00000000        0x0 ./drivers/fsl_lpspi_edma.o
 .data          0x00000000        0x0 ./drivers/fsl_lpspi_edma.o
 .bss           0x00000000        0x0 ./drivers/fsl_lpspi_edma.o
 .text.LPSPI_Enable
                0x00000000       0x38 ./drivers/fsl_lpspi_edma.o
 .text.LPSPI_GetRxFifoSize
                0x00000000       0x22 ./drivers/fsl_lpspi_edma.o
 .text.LPSPI_GetRxFifoCount
                0x00000000       0x1e ./drivers/fsl_lpspi_edma.o
 .text.LPSPI_ClearStatusFlags
                0x00000000       0x1c ./drivers/fsl_lpspi_edma.o
 .text.LPSPI_DisableInterrupts
                0x00000000       0x24 ./drivers/fsl_lpspi_edma.o
 .text.LPSPI_EnableDMA
                0x00000000       0x22 ./drivers/fsl_lpspi_edma.o
 .text.LPSPI_DisableDMA
                0x00000000       0x24 ./drivers/fsl_lpspi_edma.o
 .text.LPSPI_GetTxRegisterAddress
                0x00000000       0x18 ./drivers/fsl_lpspi_edma.o
 .text.LPSPI_GetRxRegisterAddress
                0x00000000       0x18 ./drivers/fsl_lpspi_edma.o
 .text.LPSPI_FlushFifo
                0x00000000       0x30 ./drivers/fsl_lpspi_edma.o
 .text.LPSPI_SetFifoWatermarks
                0x00000000       0x2c ./drivers/fsl_lpspi_edma.o
 .text.LPSPI_ReadData
                0x00000000       0x18 ./drivers/fsl_lpspi_edma.o
 .rodata.s_lpspiBases
                0x00000000       0x14 ./drivers/fsl_lpspi_edma.o
 .bss.s_lpspiMasterEdmaPrivateHandle
                0x00000000       0x28 ./drivers/fsl_lpspi_edma.o
 .bss.s_lpspiSlaveEdmaPrivateHandle
                0x00000000       0x28 ./drivers/fsl_lpspi_edma.o
 .rodata        0x00000000      0x50e ./drivers/fsl_lpspi_edma.o
 .text.LPSPI_GetInstance
                0x00000000       0x50 ./drivers/fsl_lpspi_edma.o
 .text.LPSPI_SeparateEdmaReadData
                0x00000000      0x100 ./drivers/fsl_lpspi_edma.o
 .text.LPSPI_MasterTransferCreateHandleEDMA
                0x00000000       0x8c ./drivers/fsl_lpspi_edma.o
 .text.LPSPI_MasterTransferEDMA
                0x00000000      0x634 ./drivers/fsl_lpspi_edma.o
 .text.EDMA_LpspiMasterCallback
                0x00000000       0xd8 ./drivers/fsl_lpspi_edma.o
 .text.LPSPI_MasterTransferAbortEDMA
                0x00000000       0x48 ./drivers/fsl_lpspi_edma.o
 .text.LPSPI_MasterTransferGetCountEDMA
                0x00000000       0x78 ./drivers/fsl_lpspi_edma.o
 .text.LPSPI_SlaveTransferCreateHandleEDMA
                0x00000000       0x8c ./drivers/fsl_lpspi_edma.o
 .text.LPSPI_SlaveTransferEDMA
                0x00000000      0x588 ./drivers/fsl_lpspi_edma.o
 .text.EDMA_LpspiSlaveCallback
                0x00000000       0xd8 ./drivers/fsl_lpspi_edma.o
 .text.LPSPI_SlaveTransferAbortEDMA
                0x00000000       0x48 ./drivers/fsl_lpspi_edma.o
 .text.LPSPI_SlaveTransferGetCountEDMA
                0x00000000       0x74 ./drivers/fsl_lpspi_edma.o
 .debug_info    0x00000000     0x1b7f ./drivers/fsl_lpspi_edma.o
 .debug_abbrev  0x00000000      0x32a ./drivers/fsl_lpspi_edma.o
 .debug_aranges
                0x00000000       0xd8 ./drivers/fsl_lpspi_edma.o
 .debug_ranges  0x00000000       0xc8 ./drivers/fsl_lpspi_edma.o
 .debug_macro   0x00000000      0x12b ./drivers/fsl_lpspi_edma.o
 .debug_macro   0x00000000      0xae4 ./drivers/fsl_lpspi_edma.o
 .debug_macro   0x00000000       0x10 ./drivers/fsl_lpspi_edma.o
 .debug_macro   0x00000000       0x1c ./drivers/fsl_lpspi_edma.o
 .debug_macro   0x00000000       0x22 ./drivers/fsl_lpspi_edma.o
 .debug_macro   0x00000000      0x12e ./drivers/fsl_lpspi_edma.o
 .debug_macro   0x00000000      0x5b3 ./drivers/fsl_lpspi_edma.o
 .debug_macro   0x00000000       0x22 ./drivers/fsl_lpspi_edma.o
 .debug_macro   0x00000000       0x10 ./drivers/fsl_lpspi_edma.o
 .debug_macro   0x00000000       0x4d ./drivers/fsl_lpspi_edma.o
 .debug_macro   0x00000000       0x1c ./drivers/fsl_lpspi_edma.o
 .debug_macro   0x00000000       0x22 ./drivers/fsl_lpspi_edma.o
 .debug_macro   0x00000000       0xdf ./drivers/fsl_lpspi_edma.o
 .debug_macro   0x00000000     0x1295 ./drivers/fsl_lpspi_edma.o
 .debug_macro   0x00000000       0xe2 ./drivers/fsl_lpspi_edma.o
 .debug_macro   0x00000000       0x19 ./drivers/fsl_lpspi_edma.o
 .debug_macro   0x00000000       0x22 ./drivers/fsl_lpspi_edma.o
 .debug_macro   0x00000000    0x267dc ./drivers/fsl_lpspi_edma.o
 .debug_macro   0x00000000      0x69b ./drivers/fsl_lpspi_edma.o
 .debug_macro   0x00000000       0xd0 ./drivers/fsl_lpspi_edma.o
 .debug_macro   0x00000000      0x224 ./drivers/fsl_lpspi_edma.o
 .debug_macro   0x00000000       0x2c ./drivers/fsl_lpspi_edma.o
 .debug_macro   0x00000000       0x16 ./drivers/fsl_lpspi_edma.o
 .debug_line    0x00000000      0xe21 ./drivers/fsl_lpspi_edma.o
 .debug_str     0x00000000   0x14ff65 ./drivers/fsl_lpspi_edma.o
 .comment       0x00000000       0x76 ./drivers/fsl_lpspi_edma.o
 .debug_frame   0x00000000      0x3b8 ./drivers/fsl_lpspi_edma.o
 .ARM.attributes
                0x00000000       0x32 ./drivers/fsl_lpspi_edma.o
 .group         0x00000000        0xc ./drivers/fsl_lpuart.o
 .group         0x00000000        0xc ./drivers/fsl_lpuart.o
 .group         0x00000000        0xc ./drivers/fsl_lpuart.o
 .group         0x00000000        0xc ./drivers/fsl_lpuart.o
 .group         0x00000000        0xc ./drivers/fsl_lpuart.o
 .group         0x00000000        0xc ./drivers/fsl_lpuart.o
 .group         0x00000000        0xc ./drivers/fsl_lpuart.o
 .group         0x00000000        0xc ./drivers/fsl_lpuart.o
 .group         0x00000000        0xc ./drivers/fsl_lpuart.o
 .group         0x00000000        0xc ./drivers/fsl_lpuart.o
 .group         0x00000000        0xc ./drivers/fsl_lpuart.o
 .group         0x00000000        0xc ./drivers/fsl_lpuart.o
 .group         0x00000000        0xc ./drivers/fsl_lpuart.o
 .group         0x00000000        0xc ./drivers/fsl_lpuart.o
 .group         0x00000000        0xc ./drivers/fsl_lpuart.o
 .group         0x00000000        0xc ./drivers/fsl_lpuart.o
 .group         0x00000000        0xc ./drivers/fsl_lpuart.o
 .group         0x00000000        0xc ./drivers/fsl_lpuart.o
 .group         0x00000000        0xc ./drivers/fsl_lpuart.o
 .group         0x00000000        0xc ./drivers/fsl_lpuart.o
 .text          0x00000000        0x0 ./drivers/fsl_lpuart.o
 .data          0x00000000        0x0 ./drivers/fsl_lpuart.o
 .bss           0x00000000        0x0 ./drivers/fsl_lpuart.o
 .text.__NVIC_EnableIRQ
                0x00000000       0x3c ./drivers/fsl_lpuart.o
 .text.CLOCK_DisableClock
                0x00000000       0x1e ./drivers/fsl_lpuart.o
 .text.EnableIRQ
                0x00000000       0x2c ./drivers/fsl_lpuart.o
 .rodata.s_lpuartIRQ
                0x00000000       0x12 ./drivers/fsl_lpuart.o
 .text.LPUART_TransferGetRxRingBufferLength
                0x00000000       0x54 ./drivers/fsl_lpuart.o
 .text.LPUART_TransferIsRxRingBufferFull
                0x00000000       0x44 ./drivers/fsl_lpuart.o
 .text.LPUART_WriteNonBlocking
                0x00000000       0x48 ./drivers/fsl_lpuart.o
 .text.LPUART_ReadNonBlocking
                0x00000000       0x98 ./drivers/fsl_lpuart.o
 .text.LPUART_Deinit
                0x00000000       0x70 ./drivers/fsl_lpuart.o
 .text.LPUART_SetBaudRate
                0x00000000      0x148 ./drivers/fsl_lpuart.o
 .text.LPUART_EnableInterrupts
                0x00000000       0x52 ./drivers/fsl_lpuart.o
 .text.LPUART_DisableInterrupts
                0x00000000       0x58 ./drivers/fsl_lpuart.o
 .text.LPUART_GetEnabledInterrupts
                0x00000000       0x44 ./drivers/fsl_lpuart.o
 .text.LPUART_GetStatusFlags
                0x00000000       0x2c ./drivers/fsl_lpuart.o
 .text.LPUART_ClearStatusFlags
                0x00000000       0xa4 ./drivers/fsl_lpuart.o
 .text.LPUART_ReadBlocking
                0x00000000      0x148 ./drivers/fsl_lpuart.o
 .text.LPUART_TransferCreateHandle
                0x00000000       0xc0 ./drivers/fsl_lpuart.o
 .text.LPUART_TransferStartRingBuffer
                0x00000000       0x58 ./drivers/fsl_lpuart.o
 .text.LPUART_TransferStopRingBuffer
                0x00000000       0x50 ./drivers/fsl_lpuart.o
 .text.LPUART_TransferSendNonBlocking
                0x00000000       0x9c ./drivers/fsl_lpuart.o
 .text.LPUART_TransferAbortSend
                0x00000000       0x3c ./drivers/fsl_lpuart.o
 .text.LPUART_TransferGetSendCount
                0x00000000       0x54 ./drivers/fsl_lpuart.o
 .text.LPUART_TransferReceiveNonBlocking
                0x00000000      0x198 ./drivers/fsl_lpuart.o
 .text.LPUART_TransferAbortReceive
                0x00000000       0x44 ./drivers/fsl_lpuart.o
 .text.LPUART_TransferGetReceiveCount
                0x00000000       0x54 ./drivers/fsl_lpuart.o
 .text.LPUART_TransferHandleIRQ
                0x00000000      0x390 ./drivers/fsl_lpuart.o
 .text.LPUART_TransferHandleErrorIRQ
                0x00000000       0x16 ./drivers/fsl_lpuart.o
 .debug_macro   0x00000000      0xae4 ./drivers/fsl_lpuart.o
 .debug_macro   0x00000000       0x10 ./drivers/fsl_lpuart.o
 .debug_macro   0x00000000       0x1c ./drivers/fsl_lpuart.o
 .debug_macro   0x00000000       0x22 ./drivers/fsl_lpuart.o
 .debug_macro   0x00000000      0x12e ./drivers/fsl_lpuart.o
 .debug_macro   0x00000000      0x5b3 ./drivers/fsl_lpuart.o
 .debug_macro   0x00000000       0x22 ./drivers/fsl_lpuart.o
 .debug_macro   0x00000000       0x10 ./drivers/fsl_lpuart.o
 .debug_macro   0x00000000       0x4d ./drivers/fsl_lpuart.o
 .debug_macro   0x00000000       0x1c ./drivers/fsl_lpuart.o
 .debug_macro   0x00000000       0x22 ./drivers/fsl_lpuart.o
 .debug_macro   0x00000000       0xdf ./drivers/fsl_lpuart.o
 .debug_macro   0x00000000     0x1295 ./drivers/fsl_lpuart.o
 .debug_macro   0x00000000       0xe2 ./drivers/fsl_lpuart.o
 .debug_macro   0x00000000       0x19 ./drivers/fsl_lpuart.o
 .debug_macro   0x00000000       0x22 ./drivers/fsl_lpuart.o
 .debug_macro   0x00000000    0x267dc ./drivers/fsl_lpuart.o
 .debug_macro   0x00000000      0x69b ./drivers/fsl_lpuart.o
 .debug_macro   0x00000000       0xd0 ./drivers/fsl_lpuart.o
 .debug_macro   0x00000000      0x224 ./drivers/fsl_lpuart.o
 .group         0x00000000        0xc ./device/system_MIMXRT1062.o
 .group         0x00000000        0xc ./device/system_MIMXRT1062.o
 .group         0x00000000        0xc ./device/system_MIMXRT1062.o
 .group         0x00000000        0xc ./device/system_MIMXRT1062.o
 .group         0x00000000        0xc ./device/system_MIMXRT1062.o
 .group         0x00000000        0xc ./device/system_MIMXRT1062.o
 .group         0x00000000        0xc ./device/system_MIMXRT1062.o
 .group         0x00000000        0xc ./device/system_MIMXRT1062.o
 .group         0x00000000        0xc ./device/system_MIMXRT1062.o
 .group         0x00000000        0xc ./device/system_MIMXRT1062.o
 .group         0x00000000        0xc ./device/system_MIMXRT1062.o
 .group         0x00000000        0xc ./device/system_MIMXRT1062.o
 .group         0x00000000        0xc ./device/system_MIMXRT1062.o
 .group         0x00000000        0xc ./device/system_MIMXRT1062.o
 .group         0x00000000        0xc ./device/system_MIMXRT1062.o
 .text          0x00000000        0x0 ./device/system_MIMXRT1062.o
 .data          0x00000000        0x0 ./device/system_MIMXRT1062.o
 .bss           0x00000000        0x0 ./device/system_MIMXRT1062.o
 .text.SystemCoreClockUpdate
                0x00000000      0x200 ./device/system_MIMXRT1062.o
 .debug_macro   0x00000000      0xae4 ./device/system_MIMXRT1062.o
 .debug_macro   0x00000000       0x10 ./device/system_MIMXRT1062.o
 .debug_macro   0x00000000      0x12e ./device/system_MIMXRT1062.o
 .debug_macro   0x00000000      0x5b3 ./device/system_MIMXRT1062.o
 .debug_macro   0x00000000       0x10 ./device/system_MIMXRT1062.o
 .debug_macro   0x00000000       0x4d ./device/system_MIMXRT1062.o
 .debug_macro   0x00000000       0x1c ./device/system_MIMXRT1062.o
 .debug_macro   0x00000000       0x22 ./device/system_MIMXRT1062.o
 .debug_macro   0x00000000       0xdf ./device/system_MIMXRT1062.o
 .debug_macro   0x00000000     0x1295 ./device/system_MIMXRT1062.o
 .debug_macro   0x00000000       0xe2 ./device/system_MIMXRT1062.o
 .debug_macro   0x00000000       0x19 ./device/system_MIMXRT1062.o
 .debug_macro   0x00000000       0x22 ./device/system_MIMXRT1062.o
 .debug_macro   0x00000000    0x267dc ./device/system_MIMXRT1062.o
 .debug_macro   0x00000000      0x69b ./device/system_MIMXRT1062.o
 .group         0x00000000        0xc ./component/uart/lpuart_adapter.o
 .group         0x00000000        0xc ./component/uart/lpuart_adapter.o
 .group         0x00000000        0xc ./component/uart/lpuart_adapter.o
 .group         0x00000000        0xc ./component/uart/lpuart_adapter.o
 .group         0x00000000        0xc ./component/uart/lpuart_adapter.o
 .group         0x00000000        0xc ./component/uart/lpuart_adapter.o
 .group         0x00000000        0xc ./component/uart/lpuart_adapter.o
 .group         0x00000000        0xc ./component/uart/lpuart_adapter.o
 .group         0x00000000        0xc ./component/uart/lpuart_adapter.o
 .group         0x00000000        0xc ./component/uart/lpuart_adapter.o
 .group         0x00000000        0xc ./component/uart/lpuart_adapter.o
 .group         0x00000000        0xc ./component/uart/lpuart_adapter.o
 .group         0x00000000        0xc ./component/uart/lpuart_adapter.o
 .group         0x00000000        0xc ./component/uart/lpuart_adapter.o
 .group         0x00000000        0xc ./component/uart/lpuart_adapter.o
 .group         0x00000000        0xc ./component/uart/lpuart_adapter.o
 .group         0x00000000        0xc ./component/uart/lpuart_adapter.o
 .group         0x00000000        0xc ./component/uart/lpuart_adapter.o
 .group         0x00000000        0xc ./component/uart/lpuart_adapter.o
 .group         0x00000000        0xc ./component/uart/lpuart_adapter.o
 .group         0x00000000        0xc ./component/uart/lpuart_adapter.o
 .group         0x00000000        0xc ./component/uart/lpuart_adapter.o
 .text          0x00000000        0x0 ./component/uart/lpuart_adapter.o
 .data          0x00000000        0x0 ./component/uart/lpuart_adapter.o
 .bss           0x00000000        0x0 ./component/uart/lpuart_adapter.o
 .text.HAL_UartDeinit
                0x00000000       0x3c ./component/uart/lpuart_adapter.o
 .text.HAL_UartReceiveBlocking
                0x00000000       0x6c ./component/uart/lpuart_adapter.o
 .debug_macro   0x00000000      0xae4 ./component/uart/lpuart_adapter.o
 .debug_macro   0x00000000       0x10 ./component/uart/lpuart_adapter.o
 .debug_macro   0x00000000       0x1c ./component/uart/lpuart_adapter.o
 .debug_macro   0x00000000       0x22 ./component/uart/lpuart_adapter.o
 .debug_macro   0x00000000      0x12e ./component/uart/lpuart_adapter.o
 .debug_macro   0x00000000      0x5b3 ./component/uart/lpuart_adapter.o
 .debug_macro   0x00000000       0x22 ./component/uart/lpuart_adapter.o
 .debug_macro   0x00000000       0x10 ./component/uart/lpuart_adapter.o
 .debug_macro   0x00000000       0x4d ./component/uart/lpuart_adapter.o
 .debug_macro   0x00000000       0x1c ./component/uart/lpuart_adapter.o
 .debug_macro   0x00000000       0x22 ./component/uart/lpuart_adapter.o
 .debug_macro   0x00000000       0xdf ./component/uart/lpuart_adapter.o
 .debug_macro   0x00000000     0x1295 ./component/uart/lpuart_adapter.o
 .debug_macro   0x00000000       0xe2 ./component/uart/lpuart_adapter.o
 .debug_macro   0x00000000       0x19 ./component/uart/lpuart_adapter.o
 .debug_macro   0x00000000       0x22 ./component/uart/lpuart_adapter.o
 .debug_macro   0x00000000    0x267dc ./component/uart/lpuart_adapter.o
 .debug_macro   0x00000000      0x69b ./component/uart/lpuart_adapter.o
 .debug_macro   0x00000000       0xd0 ./component/uart/lpuart_adapter.o
 .debug_macro   0x00000000      0x224 ./component/uart/lpuart_adapter.o
 .group         0x00000000        0xc ./component/serial_manager/serial_manager.o
 .group         0x00000000        0xc ./component/serial_manager/serial_manager.o
 .group         0x00000000        0xc ./component/serial_manager/serial_manager.o
 .group         0x00000000        0xc ./component/serial_manager/serial_manager.o
 .group         0x00000000        0xc ./component/serial_manager/serial_manager.o
 .group         0x00000000        0xc ./component/serial_manager/serial_manager.o
 .group         0x00000000        0xc ./component/serial_manager/serial_manager.o
 .group         0x00000000        0xc ./component/serial_manager/serial_manager.o
 .group         0x00000000        0xc ./component/serial_manager/serial_manager.o
 .group         0x00000000        0xc ./component/serial_manager/serial_manager.o
 .group         0x00000000        0xc ./component/serial_manager/serial_manager.o
 .group         0x00000000        0xc ./component/serial_manager/serial_manager.o
 .group         0x00000000        0xc ./component/serial_manager/serial_manager.o
 .group         0x00000000        0xc ./component/serial_manager/serial_manager.o
 .group         0x00000000        0xc ./component/serial_manager/serial_manager.o
 .group         0x00000000        0xc ./component/serial_manager/serial_manager.o
 .group         0x00000000        0xc ./component/serial_manager/serial_manager.o
 .group         0x00000000        0xc ./component/serial_manager/serial_manager.o
 .group         0x00000000        0xc ./component/serial_manager/serial_manager.o
 .group         0x00000000        0xc ./component/serial_manager/serial_manager.o
 .group         0x00000000        0xc ./component/serial_manager/serial_manager.o
 .group         0x00000000        0xc ./component/serial_manager/serial_manager.o
 .group         0x00000000        0xc ./component/serial_manager/serial_manager.o
 .text          0x00000000        0x0 ./component/serial_manager/serial_manager.o
 .data          0x00000000        0x0 ./component/serial_manager/serial_manager.o
 .bss           0x00000000        0x0 ./component/serial_manager/serial_manager.o
 .text.SerialManager_StartReading
                0x00000000       0x4a ./component/serial_manager/serial_manager.o
 .text.SerialManager_Read
                0x00000000       0x6c ./component/serial_manager/serial_manager.o
 .text.SerialManager_Deinit
                0x00000000       0x54 ./component/serial_manager/serial_manager.o
 .text.SerialManager_CloseWriteHandle
                0x00000000       0x50 ./component/serial_manager/serial_manager.o
 .text.SerialManager_CloseReadHandle
                0x00000000       0x4c ./component/serial_manager/serial_manager.o
 .text.SerialManager_ReadBlocking
                0x00000000       0x20 ./component/serial_manager/serial_manager.o
 .text.SerialManager_EnterLowpower
                0x00000000       0x24 ./component/serial_manager/serial_manager.o
 .text.SerialManager_ExitLowpower
                0x00000000       0x24 ./component/serial_manager/serial_manager.o
 .debug_macro   0x00000000      0xae4 ./component/serial_manager/serial_manager.o
 .debug_macro   0x00000000       0x10 ./component/serial_manager/serial_manager.o
 .debug_macro   0x00000000       0x1c ./component/serial_manager/serial_manager.o
 .debug_macro   0x00000000       0x22 ./component/serial_manager/serial_manager.o
 .debug_macro   0x00000000      0x12e ./component/serial_manager/serial_manager.o
 .debug_macro   0x00000000      0x5b3 ./component/serial_manager/serial_manager.o
 .debug_macro   0x00000000       0x22 ./component/serial_manager/serial_manager.o
 .debug_macro   0x00000000       0x10 ./component/serial_manager/serial_manager.o
 .debug_macro   0x00000000       0x4d ./component/serial_manager/serial_manager.o
 .debug_macro   0x00000000       0x1c ./component/serial_manager/serial_manager.o
 .debug_macro   0x00000000       0x22 ./component/serial_manager/serial_manager.o
 .debug_macro   0x00000000       0xdf ./component/serial_manager/serial_manager.o
 .debug_macro   0x00000000     0x1295 ./component/serial_manager/serial_manager.o
 .debug_macro   0x00000000       0xe2 ./component/serial_manager/serial_manager.o
 .debug_macro   0x00000000       0x19 ./component/serial_manager/serial_manager.o
 .debug_macro   0x00000000       0x22 ./component/serial_manager/serial_manager.o
 .debug_macro   0x00000000    0x267dc ./component/serial_manager/serial_manager.o
 .debug_macro   0x00000000      0x69b ./component/serial_manager/serial_manager.o
 .debug_macro   0x00000000       0xd0 ./component/serial_manager/serial_manager.o
 .debug_macro   0x00000000      0x224 ./component/serial_manager/serial_manager.o
 .debug_macro   0x00000000       0x34 ./component/serial_manager/serial_manager.o
 .debug_macro   0x00000000       0x10 ./component/serial_manager/serial_manager.o
 .debug_macro   0x00000000       0x32 ./component/serial_manager/serial_manager.o
 .group         0x00000000        0xc ./component/serial_manager/serial_port_uart.o
 .group         0x00000000        0xc ./component/serial_manager/serial_port_uart.o
 .group         0x00000000        0xc ./component/serial_manager/serial_port_uart.o
 .group         0x00000000        0xc ./component/serial_manager/serial_port_uart.o
 .group         0x00000000        0xc ./component/serial_manager/serial_port_uart.o
 .group         0x00000000        0xc ./component/serial_manager/serial_port_uart.o
 .group         0x00000000        0xc ./component/serial_manager/serial_port_uart.o
 .group         0x00000000        0xc ./component/serial_manager/serial_port_uart.o
 .group         0x00000000        0xc ./component/serial_manager/serial_port_uart.o
 .group         0x00000000        0xc ./component/serial_manager/serial_port_uart.o
 .group         0x00000000        0xc ./component/serial_manager/serial_port_uart.o
 .group         0x00000000        0xc ./component/serial_manager/serial_port_uart.o
 .group         0x00000000        0xc ./component/serial_manager/serial_port_uart.o
 .group         0x00000000        0xc ./component/serial_manager/serial_port_uart.o
 .group         0x00000000        0xc ./component/serial_manager/serial_port_uart.o
 .group         0x00000000        0xc ./component/serial_manager/serial_port_uart.o
 .group         0x00000000        0xc ./component/serial_manager/serial_port_uart.o
 .group         0x00000000        0xc ./component/serial_manager/serial_port_uart.o
 .group         0x00000000        0xc ./component/serial_manager/serial_port_uart.o
 .group         0x00000000        0xc ./component/serial_manager/serial_port_uart.o
 .group         0x00000000        0xc ./component/serial_manager/serial_port_uart.o
 .group         0x00000000        0xc ./component/serial_manager/serial_port_uart.o
 .group         0x00000000        0xc ./component/serial_manager/serial_port_uart.o
 .group         0x00000000        0xc ./component/serial_manager/serial_port_uart.o
 .text          0x00000000        0x0 ./component/serial_manager/serial_port_uart.o
 .data          0x00000000        0x0 ./component/serial_manager/serial_port_uart.o
 .bss           0x00000000        0x0 ./component/serial_manager/serial_port_uart.o
 .text.Serial_UartDeinit
                0x00000000       0x30 ./component/serial_manager/serial_port_uart.o
 .text.Serial_UartRead
                0x00000000       0x58 ./component/serial_manager/serial_port_uart.o
 .debug_macro   0x00000000      0xae4 ./component/serial_manager/serial_port_uart.o
 .debug_macro   0x00000000       0x10 ./component/serial_manager/serial_port_uart.o
 .debug_macro   0x00000000       0x1c ./component/serial_manager/serial_port_uart.o
 .debug_macro   0x00000000       0x22 ./component/serial_manager/serial_port_uart.o
 .debug_macro   0x00000000      0x12e ./component/serial_manager/serial_port_uart.o
 .debug_macro   0x00000000      0x5b3 ./component/serial_manager/serial_port_uart.o
 .debug_macro   0x00000000       0x22 ./component/serial_manager/serial_port_uart.o
 .debug_macro   0x00000000       0x10 ./component/serial_manager/serial_port_uart.o
 .debug_macro   0x00000000       0x4d ./component/serial_manager/serial_port_uart.o
 .debug_macro   0x00000000       0x1c ./component/serial_manager/serial_port_uart.o
 .debug_macro   0x00000000       0x22 ./component/serial_manager/serial_port_uart.o
 .debug_macro   0x00000000       0xdf ./component/serial_manager/serial_port_uart.o
 .debug_macro   0x00000000     0x1295 ./component/serial_manager/serial_port_uart.o
 .debug_macro   0x00000000       0xe2 ./component/serial_manager/serial_port_uart.o
 .debug_macro   0x00000000       0x19 ./component/serial_manager/serial_port_uart.o
 .debug_macro   0x00000000       0x22 ./component/serial_manager/serial_port_uart.o
 .debug_macro   0x00000000    0x267dc ./component/serial_manager/serial_port_uart.o
 .debug_macro   0x00000000      0x69b ./component/serial_manager/serial_port_uart.o
 .debug_macro   0x00000000       0xd0 ./component/serial_manager/serial_port_uart.o
 .debug_macro   0x00000000      0x224 ./component/serial_manager/serial_port_uart.o
 .debug_macro   0x00000000       0x34 ./component/serial_manager/serial_port_uart.o
 .debug_macro   0x00000000       0x10 ./component/serial_manager/serial_port_uart.o
 .debug_macro   0x00000000       0x32 ./component/serial_manager/serial_port_uart.o
 .group         0x00000000        0xc ./component/lists/generic_list.o
 .group         0x00000000        0xc ./component/lists/generic_list.o
 .group         0x00000000        0xc ./component/lists/generic_list.o
 .group         0x00000000        0xc ./component/lists/generic_list.o
 .group         0x00000000        0xc ./component/lists/generic_list.o
 .group         0x00000000        0xc ./component/lists/generic_list.o
 .group         0x00000000        0xc ./component/lists/generic_list.o
 .group         0x00000000        0xc ./component/lists/generic_list.o
 .group         0x00000000        0xc ./component/lists/generic_list.o
 .group         0x00000000        0xc ./component/lists/generic_list.o
 .group         0x00000000        0xc ./component/lists/generic_list.o
 .group         0x00000000        0xc ./component/lists/generic_list.o
 .group         0x00000000        0xc ./component/lists/generic_list.o
 .group         0x00000000        0xc ./component/lists/generic_list.o
 .group         0x00000000        0xc ./component/lists/generic_list.o
 .group         0x00000000        0xc ./component/lists/generic_list.o
 .group         0x00000000        0xc ./component/lists/generic_list.o
 .group         0x00000000        0xc ./component/lists/generic_list.o
 .group         0x00000000        0xc ./component/lists/generic_list.o
 .group         0x00000000        0xc ./component/lists/generic_list.o
 .text          0x00000000        0x0 ./component/lists/generic_list.o
 .data          0x00000000        0x0 ./component/lists/generic_list.o
 .bss           0x00000000        0x0 ./component/lists/generic_list.o
 .text.DisableGlobalIRQ
                0x00000000       0x20 ./component/lists/generic_list.o
 .text.EnableGlobalIRQ
                0x00000000       0x1e ./component/lists/generic_list.o
 .text.LIST_Scan
                0x00000000       0x3a ./component/lists/generic_list.o
 .text.LIST_Init
                0x00000000       0x30 ./component/lists/generic_list.o
 .text.LIST_GetList
                0x00000000       0x18 ./component/lists/generic_list.o
 .text.LIST_AddTail
                0x00000000       0x9e ./component/lists/generic_list.o
 .text.LIST_AddHead
                0x00000000       0x9e ./component/lists/generic_list.o
 .text.LIST_RemoveHead
                0x00000000       0x6e ./component/lists/generic_list.o
 .text.LIST_GetHead
                0x00000000       0x18 ./component/lists/generic_list.o
 .text.LIST_GetNext
                0x00000000       0x18 ./component/lists/generic_list.o
 .text.LIST_GetPrev
                0x00000000       0x18 ./component/lists/generic_list.o
 .text.LIST_RemoveElement
                0x00000000       0x86 ./component/lists/generic_list.o
 .text.LIST_AddPrevElement
                0x00000000       0xba ./component/lists/generic_list.o
 .text.LIST_GetSize
                0x00000000       0x18 ./component/lists/generic_list.o
 .text.LIST_GetAvailableSize
                0x00000000       0x20 ./component/lists/generic_list.o
 .debug_info    0x00000000      0x5b7 ./component/lists/generic_list.o
 .debug_abbrev  0x00000000      0x2c3 ./component/lists/generic_list.o
 .debug_aranges
                0x00000000       0x90 ./component/lists/generic_list.o
 .debug_ranges  0x00000000       0x80 ./component/lists/generic_list.o
 .debug_macro   0x00000000      0x107 ./component/lists/generic_list.o
 .debug_macro   0x00000000      0xae4 ./component/lists/generic_list.o
 .debug_macro   0x00000000       0x10 ./component/lists/generic_list.o
 .debug_macro   0x00000000       0x1c ./component/lists/generic_list.o
 .debug_macro   0x00000000       0x22 ./component/lists/generic_list.o
 .debug_macro   0x00000000      0x12e ./component/lists/generic_list.o
 .debug_macro   0x00000000      0x5b3 ./component/lists/generic_list.o
 .debug_macro   0x00000000       0x22 ./component/lists/generic_list.o
 .debug_macro   0x00000000       0x10 ./component/lists/generic_list.o
 .debug_macro   0x00000000       0x4d ./component/lists/generic_list.o
 .debug_macro   0x00000000       0x1c ./component/lists/generic_list.o
 .debug_macro   0x00000000       0x22 ./component/lists/generic_list.o
 .debug_macro   0x00000000       0xdf ./component/lists/generic_list.o
 .debug_macro   0x00000000     0x1295 ./component/lists/generic_list.o
 .debug_macro   0x00000000       0xe2 ./component/lists/generic_list.o
 .debug_macro   0x00000000       0x19 ./component/lists/generic_list.o
 .debug_macro   0x00000000       0x22 ./component/lists/generic_list.o
 .debug_macro   0x00000000    0x267dc ./component/lists/generic_list.o
 .debug_macro   0x00000000      0x69b ./component/lists/generic_list.o
 .debug_macro   0x00000000       0xd0 ./component/lists/generic_list.o
 .debug_macro   0x00000000      0x224 ./component/lists/generic_list.o
 .debug_line    0x00000000      0x619 ./component/lists/generic_list.o
 .debug_str     0x00000000   0x14e790 ./component/lists/generic_list.o
 .comment       0x00000000       0x76 ./component/lists/generic_list.o
 .debug_frame   0x00000000      0x254 ./component/lists/generic_list.o
 .ARM.attributes
                0x00000000       0x32 ./component/lists/generic_list.o
 .group         0x00000000        0xc ./board/board.o
 .group         0x00000000        0xc ./board/board.o
 .group         0x00000000        0xc ./board/board.o
 .group         0x00000000        0xc ./board/board.o
 .group         0x00000000        0xc ./board/board.o
 .group         0x00000000        0xc ./board/board.o
 .group         0x00000000        0xc ./board/board.o
 .group         0x00000000        0xc ./board/board.o
 .group         0x00000000        0xc ./board/board.o
 .group         0x00000000        0xc ./board/board.o
 .group         0x00000000        0xc ./board/board.o
 .group         0x00000000        0xc ./board/board.o
 .group         0x00000000        0xc ./board/board.o
 .group         0x00000000        0xc ./board/board.o
 .group         0x00000000        0xc ./board/board.o
 .group         0x00000000        0xc ./board/board.o
 .group         0x00000000        0xc ./board/board.o
 .group         0x00000000        0xc ./board/board.o
 .group         0x00000000        0xc ./board/board.o
 .group         0x00000000        0xc ./board/board.o
 .group         0x00000000        0xc ./board/board.o
 .group         0x00000000        0xc ./board/board.o
 .group         0x00000000        0xc ./board/board.o
 .group         0x00000000        0xc ./board/board.o
 .group         0x00000000        0xc ./board/board.o
 .group         0x00000000        0xc ./board/board.o
 .group         0x00000000        0xc ./board/board.o
 .group         0x00000000        0xc ./board/board.o
 .text          0x00000000        0x0 ./board/board.o
 .data          0x00000000        0x0 ./board/board.o
 .bss           0x00000000        0x0 ./board/board.o
 .text.IOMUXC_SetPinConfig
                0x00000000       0x26 ./board/board.o
 .text.BOARD_SD_Pin_Config
                0x00000000      0x12c ./board/board.o
 .text.BOARD_MMC_Pin_Config
                0x00000000       0x16 ./board/board.o
 .debug_macro   0x00000000      0xae4 ./board/board.o
 .debug_macro   0x00000000       0x10 ./board/board.o
 .debug_macro   0x00000000       0x1c ./board/board.o
 .debug_macro   0x00000000       0x22 ./board/board.o
 .debug_macro   0x00000000      0x12e ./board/board.o
 .debug_macro   0x00000000      0x5b3 ./board/board.o
 .debug_macro   0x00000000       0x22 ./board/board.o
 .debug_macro   0x00000000       0x10 ./board/board.o
 .debug_macro   0x00000000       0x4d ./board/board.o
 .debug_macro   0x00000000       0x1c ./board/board.o
 .debug_macro   0x00000000       0x22 ./board/board.o
 .debug_macro   0x00000000       0xdf ./board/board.o
 .debug_macro   0x00000000     0x1295 ./board/board.o
 .debug_macro   0x00000000       0xe2 ./board/board.o
 .debug_macro   0x00000000       0x19 ./board/board.o
 .debug_macro   0x00000000       0x22 ./board/board.o
 .debug_macro   0x00000000    0x267dc ./board/board.o
 .debug_macro   0x00000000      0x69b ./board/board.o
 .debug_macro   0x00000000       0xd0 ./board/board.o
 .debug_macro   0x00000000      0x224 ./board/board.o
 .debug_macro   0x00000000       0x34 ./board/board.o
 .debug_macro   0x00000000       0x10 ./board/board.o
 .debug_macro   0x00000000       0x32 ./board/board.o
 .debug_macro   0x00000000       0x2e ./board/board.o
 .debug_macro   0x00000000      0x13c ./board/board.o
 .debug_macro   0x00000000       0x10 ./board/board.o
 .debug_macro   0x00000000      0x2b5 ./board/board.o
 .group         0x00000000        0xc ./board/clock_config.o
 .group         0x00000000        0xc ./board/clock_config.o
 .group         0x00000000        0xc ./board/clock_config.o
 .group         0x00000000        0xc ./board/clock_config.o
 .group         0x00000000        0xc ./board/clock_config.o
 .group         0x00000000        0xc ./board/clock_config.o
 .group         0x00000000        0xc ./board/clock_config.o
 .group         0x00000000        0xc ./board/clock_config.o
 .group         0x00000000        0xc ./board/clock_config.o
 .group         0x00000000        0xc ./board/clock_config.o
 .group         0x00000000        0xc ./board/clock_config.o
 .group         0x00000000        0xc ./board/clock_config.o
 .group         0x00000000        0xc ./board/clock_config.o
 .group         0x00000000        0xc ./board/clock_config.o
 .group         0x00000000        0xc ./board/clock_config.o
 .group         0x00000000        0xc ./board/clock_config.o
 .group         0x00000000        0xc ./board/clock_config.o
 .group         0x00000000        0xc ./board/clock_config.o
 .group         0x00000000        0xc ./board/clock_config.o
 .group         0x00000000        0xc ./board/clock_config.o
 .group         0x00000000        0xc ./board/clock_config.o
 .group         0x00000000        0xc ./board/clock_config.o
 .text          0x00000000        0x0 ./board/clock_config.o
 .data          0x00000000        0x0 ./board/clock_config.o
 .bss           0x00000000        0x0 ./board/clock_config.o
 .text.BOARD_InitBootClocks
                0x00000000        0xc ./board/clock_config.o
 .rodata.usb1PllConfig_BOARD_BootClockRUN
                0x00000000        0x2 ./board/clock_config.o
 .debug_macro   0x00000000      0xae4 ./board/clock_config.o
 .debug_macro   0x00000000       0x10 ./board/clock_config.o
 .debug_macro   0x00000000       0x1c ./board/clock_config.o
 .debug_macro   0x00000000       0x22 ./board/clock_config.o
 .debug_macro   0x00000000      0x12e ./board/clock_config.o
 .debug_macro   0x00000000      0x5b3 ./board/clock_config.o
 .debug_macro   0x00000000       0x22 ./board/clock_config.o
 .debug_macro   0x00000000       0x10 ./board/clock_config.o
 .debug_macro   0x00000000       0x4d ./board/clock_config.o
 .debug_macro   0x00000000       0x1c ./board/clock_config.o
 .debug_macro   0x00000000       0x22 ./board/clock_config.o
 .debug_macro   0x00000000       0xdf ./board/clock_config.o
 .debug_macro   0x00000000     0x1295 ./board/clock_config.o
 .debug_macro   0x00000000       0xe2 ./board/clock_config.o
 .debug_macro   0x00000000       0x19 ./board/clock_config.o
 .debug_macro   0x00000000       0x22 ./board/clock_config.o
 .debug_macro   0x00000000    0x267dc ./board/clock_config.o
 .debug_macro   0x00000000      0x69b ./board/clock_config.o
 .debug_macro   0x00000000       0xd0 ./board/clock_config.o
 .debug_macro   0x00000000      0x224 ./board/clock_config.o
 .debug_macro   0x00000000      0x136 ./board/clock_config.o
 .debug_macro   0x00000000     0x1b8c ./board/clock_config.o
 .group         0x00000000        0xc ./board/peripherals.o
 .group         0x00000000        0xc ./board/peripherals.o
 .group         0x00000000        0xc ./board/peripherals.o
 .group         0x00000000        0xc ./board/peripherals.o
 .group         0x00000000        0xc ./board/peripherals.o
 .group         0x00000000        0xc ./board/peripherals.o
 .group         0x00000000        0xc ./board/peripherals.o
 .group         0x00000000        0xc ./board/peripherals.o
 .group         0x00000000        0xc ./board/peripherals.o
 .group         0x00000000        0xc ./board/peripherals.o
 .group         0x00000000        0xc ./board/peripherals.o
 .group         0x00000000        0xc ./board/peripherals.o
 .group         0x00000000        0xc ./board/peripherals.o
 .group         0x00000000        0xc ./board/peripherals.o
 .group         0x00000000        0xc ./board/peripherals.o
 .group         0x00000000        0xc ./board/peripherals.o
 .group         0x00000000        0xc ./board/peripherals.o
 .group         0x00000000        0xc ./board/peripherals.o
 .group         0x00000000        0xc ./board/peripherals.o
 .group         0x00000000        0xc ./board/peripherals.o
 .group         0x00000000        0xc ./board/peripherals.o
 .group         0x00000000        0xc ./board/peripherals.o
 .group         0x00000000        0xc ./board/peripherals.o
 .text          0x00000000        0x0 ./board/peripherals.o
 .data          0x00000000        0x0 ./board/peripherals.o
 .bss           0x00000000        0x0 ./board/peripherals.o
 .rodata.LPUART_1_config
                0x00000000       0x14 ./board/peripherals.o
 .text.LPUART_1_init
                0x00000000       0x20 ./board/peripherals.o
 .rodata.LPSPI_4_config
                0x00000000       0x1c ./board/peripherals.o
 .text.LPSPI_4_init
                0x00000000       0x20 ./board/peripherals.o
 .text.BOARD_InitPeripherals
                0x00000000       0x10 ./board/peripherals.o
 .text.BOARD_InitBootPeripherals
                0x00000000        0xc ./board/peripherals.o
 .debug_info    0x00000000      0xa6d ./board/peripherals.o
 .debug_abbrev  0x00000000      0x140 ./board/peripherals.o
 .debug_aranges
                0x00000000       0x38 ./board/peripherals.o
 .debug_ranges  0x00000000       0x28 ./board/peripherals.o
 .debug_macro   0x00000000      0x122 ./board/peripherals.o
 .debug_macro   0x00000000      0xae4 ./board/peripherals.o
 .debug_macro   0x00000000       0x10 ./board/peripherals.o
 .debug_macro   0x00000000       0x1c ./board/peripherals.o
 .debug_macro   0x00000000       0x22 ./board/peripherals.o
 .debug_macro   0x00000000      0x12e ./board/peripherals.o
 .debug_macro   0x00000000      0x5b3 ./board/peripherals.o
 .debug_macro   0x00000000       0x22 ./board/peripherals.o
 .debug_macro   0x00000000       0x10 ./board/peripherals.o
 .debug_macro   0x00000000       0x4d ./board/peripherals.o
 .debug_macro   0x00000000       0x1c ./board/peripherals.o
 .debug_macro   0x00000000       0x22 ./board/peripherals.o
 .debug_macro   0x00000000       0xdf ./board/peripherals.o
 .debug_macro   0x00000000     0x1295 ./board/peripherals.o
 .debug_macro   0x00000000       0xe2 ./board/peripherals.o
 .debug_macro   0x00000000       0x19 ./board/peripherals.o
 .debug_macro   0x00000000       0x22 ./board/peripherals.o
 .debug_macro   0x00000000    0x267dc ./board/peripherals.o
 .debug_macro   0x00000000      0x69b ./board/peripherals.o
 .debug_macro   0x00000000       0xd0 ./board/peripherals.o
 .debug_macro   0x00000000      0x224 ./board/peripherals.o
 .debug_macro   0x00000000       0x10 ./board/peripherals.o
 .debug_macro   0x00000000       0x32 ./board/peripherals.o
 .debug_macro   0x00000000       0x1c ./board/peripherals.o
 .debug_line    0x00000000      0x313 ./board/peripherals.o
 .debug_str     0x00000000   0x14f73e ./board/peripherals.o
 .comment       0x00000000       0x76 ./board/peripherals.o
 .debug_frame   0x00000000       0x80 ./board/peripherals.o
 .ARM.attributes
                0x00000000       0x32 ./board/peripherals.o
 .group         0x00000000        0xc ./board/pin_mux.o
 .group         0x00000000        0xc ./board/pin_mux.o
 .group         0x00000000        0xc ./board/pin_mux.o
 .group         0x00000000        0xc ./board/pin_mux.o
 .group         0x00000000        0xc ./board/pin_mux.o
 .group         0x00000000        0xc ./board/pin_mux.o
 .group         0x00000000        0xc ./board/pin_mux.o
 .group         0x00000000        0xc ./board/pin_mux.o
 .group         0x00000000        0xc ./board/pin_mux.o
 .group         0x00000000        0xc ./board/pin_mux.o
 .group         0x00000000        0xc ./board/pin_mux.o
 .group         0x00000000        0xc ./board/pin_mux.o
 .group         0x00000000        0xc ./board/pin_mux.o
 .group         0x00000000        0xc ./board/pin_mux.o
 .group         0x00000000        0xc ./board/pin_mux.o
 .group         0x00000000        0xc ./board/pin_mux.o
 .group         0x00000000        0xc ./board/pin_mux.o
 .group         0x00000000        0xc ./board/pin_mux.o
 .group         0x00000000        0xc ./board/pin_mux.o
 .group         0x00000000        0xc ./board/pin_mux.o
 .group         0x00000000        0xc ./board/pin_mux.o
 .group         0x00000000        0xc ./board/pin_mux.o
 .group         0x00000000        0xc ./board/pin_mux.o
 .text          0x00000000        0x0 ./board/pin_mux.o
 .data          0x00000000        0x0 ./board/pin_mux.o
 .bss           0x00000000        0x0 ./board/pin_mux.o
 .text.BOARD_InitBootPins
                0x00000000        0xc ./board/pin_mux.o
 .debug_macro   0x00000000      0xae4 ./board/pin_mux.o
 .debug_macro   0x00000000       0x10 ./board/pin_mux.o
 .debug_macro   0x00000000       0x1c ./board/pin_mux.o
 .debug_macro   0x00000000       0x22 ./board/pin_mux.o
 .debug_macro   0x00000000      0x12e ./board/pin_mux.o
 .debug_macro   0x00000000      0x5b3 ./board/pin_mux.o
 .debug_macro   0x00000000       0x22 ./board/pin_mux.o
 .debug_macro   0x00000000       0x10 ./board/pin_mux.o
 .debug_macro   0x00000000       0x4d ./board/pin_mux.o
 .debug_macro   0x00000000       0x1c ./board/pin_mux.o
 .debug_macro   0x00000000       0x22 ./board/pin_mux.o
 .debug_macro   0x00000000       0xdf ./board/pin_mux.o
 .debug_macro   0x00000000     0x1295 ./board/pin_mux.o
 .debug_macro   0x00000000       0xe2 ./board/pin_mux.o
 .debug_macro   0x00000000       0x19 ./board/pin_mux.o
 .debug_macro   0x00000000       0x22 ./board/pin_mux.o
 .debug_macro   0x00000000    0x267dc ./board/pin_mux.o
 .debug_macro   0x00000000      0x69b ./board/pin_mux.o
 .debug_macro   0x00000000       0xd0 ./board/pin_mux.o
 .debug_macro   0x00000000      0x224 ./board/pin_mux.o
 .debug_macro   0x00000000     0x1b8c ./board/pin_mux.o
 .debug_macro   0x00000000       0x10 ./board/pin_mux.o
 .debug_macro   0x00000000       0x88 ./board/pin_mux.o
 .text          0x00000000        0x0 c:/nxp/mcuxpressoide_11.0.1_2563/ide/plugins/com.nxp.mcuxpresso.tools.win32_11.0.1.201907311258/tools/bin/../lib/gcc/arm-none-eabi/8.2.1/../../../../arm-none-eabi/lib/thumb/v7e-m+dp/hard\libcr_nohost_nf.a(_cr__main.o)
 .data          0x00000000        0x0 c:/nxp/mcuxpressoide_11.0.1_2563/ide/plugins/com.nxp.mcuxpresso.tools.win32_11.0.1.201907311258/tools/bin/../lib/gcc/arm-none-eabi/8.2.1/../../../../arm-none-eabi/lib/thumb/v7e-m+dp/hard\libcr_nohost_nf.a(_cr__main.o)
 .bss           0x00000000        0x0 c:/nxp/mcuxpressoide_11.0.1_2563/ide/plugins/com.nxp.mcuxpresso.tools.win32_11.0.1.201907311258/tools/bin/../lib/gcc/arm-none-eabi/8.2.1/../../../../arm-none-eabi/lib/thumb/v7e-m+dp/hard\libcr_nohost_nf.a(_cr__main.o)
 .text          0x00000000        0x0 c:/nxp/mcuxpressoide_11.0.1_2563/ide/plugins/com.nxp.mcuxpresso.tools.win32_11.0.1.201907311258/tools/bin/../lib/gcc/arm-none-eabi/8.2.1/../../../../arm-none-eabi/lib/thumb/v7e-m+dp/hard\libcr_nohost_nf.a(_cr_assert.o)
 .data          0x00000000        0x0 c:/nxp/mcuxpressoide_11.0.1_2563/ide/plugins/com.nxp.mcuxpresso.tools.win32_11.0.1.201907311258/tools/bin/../lib/gcc/arm-none-eabi/8.2.1/../../../../arm-none-eabi/lib/thumb/v7e-m+dp/hard\libcr_nohost_nf.a(_cr_assert.o)
 .bss           0x00000000        0x0 c:/nxp/mcuxpressoide_11.0.1_2563/ide/plugins/com.nxp.mcuxpresso.tools.win32_11.0.1.201907311258/tools/bin/../lib/gcc/arm-none-eabi/8.2.1/../../../../arm-none-eabi/lib/thumb/v7e-m+dp/hard\libcr_nohost_nf.a(_cr_assert.o)
 .text          0x00000000        0x0 c:/nxp/mcuxpressoide_11.0.1_2563/ide/plugins/com.nxp.mcuxpresso.tools.win32_11.0.1.201907311258/tools/bin/../lib/gcc/arm-none-eabi/8.2.1/../../../../arm-none-eabi/lib/thumb/v7e-m+dp/hard\libcr_nohost_nf.a(__ciob.o)
 .data          0x00000000        0x0 c:/nxp/mcuxpressoide_11.0.1_2563/ide/plugins/com.nxp.mcuxpresso.tools.win32_11.0.1.201907311258/tools/bin/../lib/gcc/arm-none-eabi/8.2.1/../../../../arm-none-eabi/lib/thumb/v7e-m+dp/hard\libcr_nohost_nf.a(__ciob.o)
 .bss           0x00000000        0x0 c:/nxp/mcuxpressoide_11.0.1_2563/ide/plugins/com.nxp.mcuxpresso.tools.win32_11.0.1.201907311258/tools/bin/../lib/gcc/arm-none-eabi/8.2.1/../../../../arm-none-eabi/lib/thumb/v7e-m+dp/hard\libcr_nohost_nf.a(__ciob.o)
 .text          0x00000000        0x0 c:/nxp/mcuxpressoide_11.0.1_2563/ide/plugins/com.nxp.mcuxpresso.tools.win32_11.0.1.201907311258/tools/bin/../lib/gcc/arm-none-eabi/8.2.1/../../../../arm-none-eabi/lib/thumb/v7e-m+dp/hard\libcr_nohost_nf.a(__sys_appexit.o)
 .data          0x00000000        0x0 c:/nxp/mcuxpressoide_11.0.1_2563/ide/plugins/com.nxp.mcuxpresso.tools.win32_11.0.1.201907311258/tools/bin/../lib/gcc/arm-none-eabi/8.2.1/../../../../arm-none-eabi/lib/thumb/v7e-m+dp/hard\libcr_nohost_nf.a(__sys_appexit.o)
 .bss           0x00000000        0x0 c:/nxp/mcuxpressoide_11.0.1_2563/ide/plugins/com.nxp.mcuxpresso.tools.win32_11.0.1.201907311258/tools/bin/../lib/gcc/arm-none-eabi/8.2.1/../../../../arm-none-eabi/lib/thumb/v7e-m+dp/hard\libcr_nohost_nf.a(__sys_appexit.o)
 .text          0x00000000        0x0 c:/nxp/mcuxpressoide_11.0.1_2563/ide/plugins/com.nxp.mcuxpresso.tools.win32_11.0.1.201907311258/tools/bin/../lib/gcc/arm-none-eabi/8.2.1/../../../../arm-none-eabi/lib/thumb/v7e-m+dp/hard\libcr_c.a(memset.o)
 .data          0x00000000        0x0 c:/nxp/mcuxpressoide_11.0.1_2563/ide/plugins/com.nxp.mcuxpresso.tools.win32_11.0.1.201907311258/tools/bin/../lib/gcc/arm-none-eabi/8.2.1/../../../../arm-none-eabi/lib/thumb/v7e-m+dp/hard\libcr_c.a(memset.o)
 .bss           0x00000000        0x0 c:/nxp/mcuxpressoide_11.0.1_2563/ide/plugins/com.nxp.mcuxpresso.tools.win32_11.0.1.201907311258/tools/bin/../lib/gcc/arm-none-eabi/8.2.1/../../../../arm-none-eabi/lib/thumb/v7e-m+dp/hard\libcr_c.a(memset.o)
 .text          0x00000000        0x0 c:/nxp/mcuxpressoide_11.0.1_2563/ide/plugins/com.nxp.mcuxpresso.tools.win32_11.0.1.201907311258/tools/bin/../lib/gcc/arm-none-eabi/8.2.1/../../../../arm-none-eabi/lib/thumb/v7e-m+dp/hard\libcr_c.a(_deferredlazyseek.o)
 .data          0x00000000        0x0 c:/nxp/mcuxpressoide_11.0.1_2563/ide/plugins/com.nxp.mcuxpresso.tools.win32_11.0.1.201907311258/tools/bin/../lib/gcc/arm-none-eabi/8.2.1/../../../../arm-none-eabi/lib/thumb/v7e-m+dp/hard\libcr_c.a(_deferredlazyseek.o)
 .bss           0x00000000        0x0 c:/nxp/mcuxpressoide_11.0.1_2563/ide/plugins/com.nxp.mcuxpresso.tools.win32_11.0.1.201907311258/tools/bin/../lib/gcc/arm-none-eabi/8.2.1/../../../../arm-none-eabi/lib/thumb/v7e-m+dp/hard\libcr_c.a(_deferredlazyseek.o)
 .text          0x00000000        0x0 c:/nxp/mcuxpressoide_11.0.1_2563/ide/plugins/com.nxp.mcuxpresso.tools.win32_11.0.1.201907311258/tools/bin/../lib/gcc/arm-none-eabi/8.2.1/../../../../arm-none-eabi/lib/thumb/v7e-m+dp/hard\libcr_c.a(_fflush.o)
 .data          0x00000000        0x0 c:/nxp/mcuxpressoide_11.0.1_2563/ide/plugins/com.nxp.mcuxpresso.tools.win32_11.0.1.201907311258/tools/bin/../lib/gcc/arm-none-eabi/8.2.1/../../../../arm-none-eabi/lib/thumb/v7e-m+dp/hard\libcr_c.a(_fflush.o)
 .bss           0x00000000        0x0 c:/nxp/mcuxpressoide_11.0.1_2563/ide/plugins/com.nxp.mcuxpresso.tools.win32_11.0.1.201907311258/tools/bin/../lib/gcc/arm-none-eabi/8.2.1/../../../../arm-none-eabi/lib/thumb/v7e-m+dp/hard\libcr_c.a(_fflush.o)
 .text          0x00000000        0x0 c:/nxp/mcuxpressoide_11.0.1_2563/ide/plugins/com.nxp.mcuxpresso.tools.win32_11.0.1.201907311258/tools/bin/../lib/gcc/arm-none-eabi/8.2.1/../../../../arm-none-eabi/lib/thumb/v7e-m+dp/hard\libcr_c.a(_writebuf.o)
 .data          0x00000000        0x0 c:/nxp/mcuxpressoide_11.0.1_2563/ide/plugins/com.nxp.mcuxpresso.tools.win32_11.0.1.201907311258/tools/bin/../lib/gcc/arm-none-eabi/8.2.1/../../../../arm-none-eabi/lib/thumb/v7e-m+dp/hard\libcr_c.a(_writebuf.o)
 .bss           0x00000000        0x0 c:/nxp/mcuxpressoide_11.0.1_2563/ide/plugins/com.nxp.mcuxpresso.tools.win32_11.0.1.201907311258/tools/bin/../lib/gcc/arm-none-eabi/8.2.1/../../../../arm-none-eabi/lib/thumb/v7e-m+dp/hard\libcr_c.a(_writebuf.o)
 .text          0x00000000        0x0 c:/nxp/mcuxpressoide_11.0.1_2563/ide/plugins/com.nxp.mcuxpresso.tools.win32_11.0.1.201907311258/tools/bin/../lib/gcc/arm-none-eabi/8.2.1/../../../../arm-none-eabi/lib/thumb/v7e-m+dp/hard\libcr_c.a(alloc.o)
 .data          0x00000000        0x0 c:/nxp/mcuxpressoide_11.0.1_2563/ide/plugins/com.nxp.mcuxpresso.tools.win32_11.0.1.201907311258/tools/bin/../lib/gcc/arm-none-eabi/8.2.1/../../../../arm-none-eabi/lib/thumb/v7e-m+dp/hard\libcr_c.a(alloc.o)
 .bss           0x00000000        0x0 c:/nxp/mcuxpressoide_11.0.1_2563/ide/plugins/com.nxp.mcuxpresso.tools.win32_11.0.1.201907311258/tools/bin/../lib/gcc/arm-none-eabi/8.2.1/../../../../arm-none-eabi/lib/thumb/v7e-m+dp/hard\libcr_c.a(alloc.o)
 .text.calloc   0x00000000       0x50 c:/nxp/mcuxpressoide_11.0.1_2563/ide/plugins/com.nxp.mcuxpresso.tools.win32_11.0.1.201907311258/tools/bin/../lib/gcc/arm-none-eabi/8.2.1/../../../../arm-none-eabi/lib/thumb/v7e-m+dp/hard\libcr_c.a(alloc.o)
 .text.realloc  0x00000000       0x24 c:/nxp/mcuxpressoide_11.0.1_2563/ide/plugins/com.nxp.mcuxpresso.tools.win32_11.0.1.201907311258/tools/bin/../lib/gcc/arm-none-eabi/8.2.1/../../../../arm-none-eabi/lib/thumb/v7e-m+dp/hard\libcr_c.a(alloc.o)
 .text          0x00000000        0x0 c:/nxp/mcuxpressoide_11.0.1_2563/ide/plugins/com.nxp.mcuxpresso.tools.win32_11.0.1.201907311258/tools/bin/../lib/gcc/arm-none-eabi/8.2.1/../../../../arm-none-eabi/lib/thumb/v7e-m+dp/hard\libcr_c.a(fputs.o)
 .data          0x00000000        0x0 c:/nxp/mcuxpressoide_11.0.1_2563/ide/plugins/com.nxp.mcuxpresso.tools.win32_11.0.1.201907311258/tools/bin/../lib/gcc/arm-none-eabi/8.2.1/../../../../arm-none-eabi/lib/thumb/v7e-m+dp/hard\libcr_c.a(fputs.o)
 .bss           0x00000000        0x0 c:/nxp/mcuxpressoide_11.0.1_2563/ide/plugins/com.nxp.mcuxpresso.tools.win32_11.0.1.201907311258/tools/bin/../lib/gcc/arm-none-eabi/8.2.1/../../../../arm-none-eabi/lib/thumb/v7e-m+dp/hard\libcr_c.a(fputs.o)
 .text          0x00000000        0x0 c:/nxp/mcuxpressoide_11.0.1_2563/ide/plugins/com.nxp.mcuxpresso.tools.win32_11.0.1.201907311258/tools/bin/../lib/gcc/arm-none-eabi/8.2.1/../../../../arm-none-eabi/lib/thumb/v7e-m+dp/hard\libcr_c.a(fseek.o)
 .data          0x00000000        0x0 c:/nxp/mcuxpressoide_11.0.1_2563/ide/plugins/com.nxp.mcuxpresso.tools.win32_11.0.1.201907311258/tools/bin/../lib/gcc/arm-none-eabi/8.2.1/../../../../arm-none-eabi/lib/thumb/v7e-m+dp/hard\libcr_c.a(fseek.o)
 .bss           0x00000000        0x0 c:/nxp/mcuxpressoide_11.0.1_2563/ide/plugins/com.nxp.mcuxpresso.tools.win32_11.0.1.201907311258/tools/bin/../lib/gcc/arm-none-eabi/8.2.1/../../../../arm-none-eabi/lib/thumb/v7e-m+dp/hard\libcr_c.a(fseek.o)
 .text          0x00000000        0x0 c:/nxp/mcuxpressoide_11.0.1_2563/ide/plugins/com.nxp.mcuxpresso.tools.win32_11.0.1.201907311258/tools/bin/../lib/gcc/arm-none-eabi/8.2.1/../../../../arm-none-eabi/lib/thumb/v7e-m+dp/hard\libcr_c.a(ftell.o)
 .data          0x00000000        0x0 c:/nxp/mcuxpressoide_11.0.1_2563/ide/plugins/com.nxp.mcuxpresso.tools.win32_11.0.1.201907311258/tools/bin/../lib/gcc/arm-none-eabi/8.2.1/../../../../arm-none-eabi/lib/thumb/v7e-m+dp/hard\libcr_c.a(ftell.o)
 .bss           0x00000000        0x0 c:/nxp/mcuxpressoide_11.0.1_2563/ide/plugins/com.nxp.mcuxpresso.tools.win32_11.0.1.201907311258/tools/bin/../lib/gcc/arm-none-eabi/8.2.1/../../../../arm-none-eabi/lib/thumb/v7e-m+dp/hard\libcr_c.a(ftell.o)
 .text          0x00000000        0x0 c:/nxp/mcuxpressoide_11.0.1_2563/ide/plugins/com.nxp.mcuxpresso.tools.win32_11.0.1.201907311258/tools/bin/../lib/gcc/arm-none-eabi/8.2.1/../../../../arm-none-eabi/lib/thumb/v7e-m+dp/hard\libcr_c.a(initio.o)
 .data          0x00000000        0x0 c:/nxp/mcuxpressoide_11.0.1_2563/ide/plugins/com.nxp.mcuxpresso.tools.win32_11.0.1.201907311258/tools/bin/../lib/gcc/arm-none-eabi/8.2.1/../../../../arm-none-eabi/lib/thumb/v7e-m+dp/hard\libcr_c.a(initio.o)
 .bss           0x00000000        0x0 c:/nxp/mcuxpressoide_11.0.1_2563/ide/plugins/com.nxp.mcuxpresso.tools.win32_11.0.1.201907311258/tools/bin/../lib/gcc/arm-none-eabi/8.2.1/../../../../arm-none-eabi/lib/thumb/v7e-m+dp/hard\libcr_c.a(initio.o)
 .text._terminateio
                0x00000000       0x50 c:/nxp/mcuxpressoide_11.0.1_2563/ide/plugins/com.nxp.mcuxpresso.tools.win32_11.0.1.201907311258/tools/bin/../lib/gcc/arm-none-eabi/8.2.1/../../../../arm-none-eabi/lib/thumb/v7e-m+dp/hard\libcr_c.a(initio.o)
 .text          0x00000000        0x0 c:/nxp/mcuxpressoide_11.0.1_2563/ide/plugins/com.nxp.mcuxpresso.tools.win32_11.0.1.201907311258/tools/bin/../lib/gcc/arm-none-eabi/8.2.1/../../../../arm-none-eabi/lib/thumb/v7e-m+dp/hard\libcr_c.a(setvbuf.o)
 .data          0x00000000        0x0 c:/nxp/mcuxpressoide_11.0.1_2563/ide/plugins/com.nxp.mcuxpresso.tools.win32_11.0.1.201907311258/tools/bin/../lib/gcc/arm-none-eabi/8.2.1/../../../../arm-none-eabi/lib/thumb/v7e-m+dp/hard\libcr_c.a(setvbuf.o)
 .bss           0x00000000        0x0 c:/nxp/mcuxpressoide_11.0.1_2563/ide/plugins/com.nxp.mcuxpresso.tools.win32_11.0.1.201907311258/tools/bin/../lib/gcc/arm-none-eabi/8.2.1/../../../../arm-none-eabi/lib/thumb/v7e-m+dp/hard\libcr_c.a(setvbuf.o)
 .text          0x00000000        0x0 c:/nxp/mcuxpressoide_11.0.1_2563/ide/plugins/com.nxp.mcuxpresso.tools.win32_11.0.1.201907311258/tools/bin/../lib/gcc/arm-none-eabi/8.2.1/../../../../arm-none-eabi/lib/thumb/v7e-m+dp/hard\libcr_c.a(strlen.o)
 .data          0x00000000        0x0 c:/nxp/mcuxpressoide_11.0.1_2563/ide/plugins/com.nxp.mcuxpresso.tools.win32_11.0.1.201907311258/tools/bin/../lib/gcc/arm-none-eabi/8.2.1/../../../../arm-none-eabi/lib/thumb/v7e-m+dp/hard\libcr_c.a(strlen.o)
 .bss           0x00000000        0x0 c:/nxp/mcuxpressoide_11.0.1_2563/ide/plugins/com.nxp.mcuxpresso.tools.win32_11.0.1.201907311258/tools/bin/../lib/gcc/arm-none-eabi/8.2.1/../../../../arm-none-eabi/lib/thumb/v7e-m+dp/hard\libcr_c.a(strlen.o)
 .text          0x00000000        0x0 c:/nxp/mcuxpressoide_11.0.1_2563/ide/plugins/com.nxp.mcuxpresso.tools.win32_11.0.1.201907311258/tools/bin/../lib/gcc/arm-none-eabi/8.2.1/../../../../arm-none-eabi/lib/thumb/v7e-m+dp/hard\libcr_c.a(memcpy.o)
 .data          0x00000000        0x0 c:/nxp/mcuxpressoide_11.0.1_2563/ide/plugins/com.nxp.mcuxpresso.tools.win32_11.0.1.201907311258/tools/bin/../lib/gcc/arm-none-eabi/8.2.1/../../../../arm-none-eabi/lib/thumb/v7e-m+dp/hard\libcr_c.a(memcpy.o)
 .bss           0x00000000        0x0 c:/nxp/mcuxpressoide_11.0.1_2563/ide/plugins/com.nxp.mcuxpresso.tools.win32_11.0.1.201907311258/tools/bin/../lib/gcc/arm-none-eabi/8.2.1/../../../../arm-none-eabi/lib/thumb/v7e-m+dp/hard\libcr_c.a(memcpy.o)
 .text.memcpy   0x00000000        0x4 c:/nxp/mcuxpressoide_11.0.1_2563/ide/plugins/com.nxp.mcuxpresso.tools.win32_11.0.1.201907311258/tools/bin/../lib/gcc/arm-none-eabi/8.2.1/../../../../arm-none-eabi/lib/thumb/v7e-m+dp/hard\libcr_c.a(memcpy.o)
 .comment       0x00000000       0x76 c:/nxp/mcuxpressoide_11.0.1_2563/ide/plugins/com.nxp.mcuxpresso.tools.win32_11.0.1.201907311258/tools/bin/../lib/gcc/arm-none-eabi/8.2.1/../../../../arm-none-eabi/lib/thumb/v7e-m+dp/hard\libcr_c.a(memcpy.o)
 .ARM.attributes
                0x00000000       0x32 c:/nxp/mcuxpressoide_11.0.1_2563/ide/plugins/com.nxp.mcuxpresso.tools.win32_11.0.1.201907311258/tools/bin/../lib/gcc/arm-none-eabi/8.2.1/../../../../arm-none-eabi/lib/thumb/v7e-m+dp/hard\libcr_c.a(memcpy.o)
 .text          0x00000000        0x0 c:/nxp/mcuxpressoide_11.0.1_2563/ide/plugins/com.nxp.mcuxpresso.tools.win32_11.0.1.201907311258/tools/bin/../lib/gcc/arm-none-eabi/8.2.1/../../../../arm-none-eabi/lib/thumb/v7e-m+dp/hard\libcr_c.a(__init_alloc.o)
 .data          0x00000000        0x0 c:/nxp/mcuxpressoide_11.0.1_2563/ide/plugins/com.nxp.mcuxpresso.tools.win32_11.0.1.201907311258/tools/bin/../lib/gcc/arm-none-eabi/8.2.1/../../../../arm-none-eabi/lib/thumb/v7e-m+dp/hard\libcr_c.a(__init_alloc.o)
 .bss           0x00000000        0x0 c:/nxp/mcuxpressoide_11.0.1_2563/ide/plugins/com.nxp.mcuxpresso.tools.win32_11.0.1.201907311258/tools/bin/../lib/gcc/arm-none-eabi/8.2.1/../../../../arm-none-eabi/lib/thumb/v7e-m+dp/hard\libcr_c.a(__init_alloc.o)
 .text._init_alloc
                0x00000000       0x14 c:/nxp/mcuxpressoide_11.0.1_2563/ide/plugins/com.nxp.mcuxpresso.tools.win32_11.0.1.201907311258/tools/bin/../lib/gcc/arm-none-eabi/8.2.1/../../../../arm-none-eabi/lib/thumb/v7e-m+dp/hard\libcr_c.a(__init_alloc.o)
 .text          0x00000000        0x0 c:/nxp/mcuxpressoide_11.0.1_2563/ide/plugins/com.nxp.mcuxpresso.tools.win32_11.0.1.201907311258/tools/bin/../lib/gcc/arm-none-eabi/8.2.1/../../../../arm-none-eabi/lib/thumb/v7e-m+dp/hard\libcr_c.a(_cr_sbrk.o)
 .data          0x00000000        0x0 c:/nxp/mcuxpressoide_11.0.1_2563/ide/plugins/com.nxp.mcuxpresso.tools.win32_11.0.1.201907311258/tools/bin/../lib/gcc/arm-none-eabi/8.2.1/../../../../arm-none-eabi/lib/thumb/v7e-m+dp/hard\libcr_c.a(_cr_sbrk.o)
 .bss           0x00000000        0x0 c:/nxp/mcuxpressoide_11.0.1_2563/ide/plugins/com.nxp.mcuxpresso.tools.win32_11.0.1.201907311258/tools/bin/../lib/gcc/arm-none-eabi/8.2.1/../../../../arm-none-eabi/lib/thumb/v7e-m+dp/hard\libcr_c.a(_cr_sbrk.o)
 .text          0x00000000        0x0 c:/nxp/mcuxpressoide_11.0.1_2563/ide/plugins/com.nxp.mcuxpresso.tools.win32_11.0.1.201907311258/tools/bin/../lib/gcc/arm-none-eabi/8.2.1/../../../../arm-none-eabi/lib/thumb/v7e-m+dp/hard\libcr_c.a(_fdopen.o)
 .data          0x00000000        0x0 c:/nxp/mcuxpressoide_11.0.1_2563/ide/plugins/com.nxp.mcuxpresso.tools.win32_11.0.1.201907311258/tools/bin/../lib/gcc/arm-none-eabi/8.2.1/../../../../arm-none-eabi/lib/thumb/v7e-m+dp/hard\libcr_c.a(_fdopen.o)
 .bss           0x00000000        0x0 c:/nxp/mcuxpressoide_11.0.1_2563/ide/plugins/com.nxp.mcuxpresso.tools.win32_11.0.1.201907311258/tools/bin/../lib/gcc/arm-none-eabi/8.2.1/../../../../arm-none-eabi/lib/thumb/v7e-m+dp/hard\libcr_c.a(_fdopen.o)
 .text          0x00000000        0x0 c:/nxp/mcuxpressoide_11.0.1_2563/ide/plugins/com.nxp.mcuxpresso.tools.win32_11.0.1.201907311258/tools/bin/../lib/gcc/arm-none-eabi/8.2.1/../../../../arm-none-eabi/lib/thumb/v7e-m+dp/hard\libcr_c.a(errno.o)
 .data          0x00000000        0x0 c:/nxp/mcuxpressoide_11.0.1_2563/ide/plugins/com.nxp.mcuxpresso.tools.win32_11.0.1.201907311258/tools/bin/../lib/gcc/arm-none-eabi/8.2.1/../../../../arm-none-eabi/lib/thumb/v7e-m+dp/hard\libcr_c.a(errno.o)
 .bss           0x00000000        0x0 c:/nxp/mcuxpressoide_11.0.1_2563/ide/plugins/com.nxp.mcuxpresso.tools.win32_11.0.1.201907311258/tools/bin/../lib/gcc/arm-none-eabi/8.2.1/../../../../arm-none-eabi/lib/thumb/v7e-m+dp/hard\libcr_c.a(errno.o)
 .text          0x00000000        0x0 c:/nxp/mcuxpressoide_11.0.1_2563/ide/plugins/com.nxp.mcuxpresso.tools.win32_11.0.1.201907311258/tools/bin/../lib/gcc/arm-none-eabi/8.2.1/../../../../arm-none-eabi/lib/thumb/v7e-m+dp/hard\libcr_c.a(fclose.o)
 .data          0x00000000        0x0 c:/nxp/mcuxpressoide_11.0.1_2563/ide/plugins/com.nxp.mcuxpresso.tools.win32_11.0.1.201907311258/tools/bin/../lib/gcc/arm-none-eabi/8.2.1/../../../../arm-none-eabi/lib/thumb/v7e-m+dp/hard\libcr_c.a(fclose.o)
 .bss           0x00000000        0x0 c:/nxp/mcuxpressoide_11.0.1_2563/ide/plugins/com.nxp.mcuxpresso.tools.win32_11.0.1.201907311258/tools/bin/../lib/gcc/arm-none-eabi/8.2.1/../../../../arm-none-eabi/lib/thumb/v7e-m+dp/hard\libcr_c.a(fclose.o)
 .text          0x00000000        0x0 c:/nxp/mcuxpressoide_11.0.1_2563/ide/plugins/com.nxp.mcuxpresso.tools.win32_11.0.1.201907311258/tools/bin/../lib/gcc/arm-none-eabi/8.2.1/../../../../arm-none-eabi/lib/thumb/v7e-m+dp/hard\libcr_c.a(fflush.o)
 .data          0x00000000        0x0 c:/nxp/mcuxpressoide_11.0.1_2563/ide/plugins/com.nxp.mcuxpresso.tools.win32_11.0.1.201907311258/tools/bin/../lib/gcc/arm-none-eabi/8.2.1/../../../../arm-none-eabi/lib/thumb/v7e-m+dp/hard\libcr_c.a(fflush.o)
 .bss           0x00000000        0x0 c:/nxp/mcuxpressoide_11.0.1_2563/ide/plugins/com.nxp.mcuxpresso.tools.win32_11.0.1.201907311258/tools/bin/../lib/gcc/arm-none-eabi/8.2.1/../../../../arm-none-eabi/lib/thumb/v7e-m+dp/hard\libcr_c.a(fflush.o)
 .text          0x00000000        0x0 c:/nxp/mcuxpressoide_11.0.1_2563/ide/plugins/com.nxp.mcuxpresso.tools.win32_11.0.1.201907311258/tools/bin/../lib/gcc/arm-none-eabi/8.2.1/../../../../arm-none-eabi/lib/thumb/v7e-m+dp/hard\libcr_c.a(remove.o)
 .data          0x00000000        0x0 c:/nxp/mcuxpressoide_11.0.1_2563/ide/plugins/com.nxp.mcuxpresso.tools.win32_11.0.1.201907311258/tools/bin/../lib/gcc/arm-none-eabi/8.2.1/../../../../arm-none-eabi/lib/thumb/v7e-m+dp/hard\libcr_c.a(remove.o)
 .bss           0x00000000        0x0 c:/nxp/mcuxpressoide_11.0.1_2563/ide/plugins/com.nxp.mcuxpresso.tools.win32_11.0.1.201907311258/tools/bin/../lib/gcc/arm-none-eabi/8.2.1/../../../../arm-none-eabi/lib/thumb/v7e-m+dp/hard\libcr_c.a(remove.o)
 .text.rename   0x00000000       0x28 c:/nxp/mcuxpressoide_11.0.1_2563/ide/plugins/com.nxp.mcuxpresso.tools.win32_11.0.1.201907311258/tools/bin/../lib/gcc/arm-none-eabi/8.2.1/../../../../arm-none-eabi/lib/thumb/v7e-m+dp/hard\libcr_c.a(remove.o)
 .text          0x00000000        0x0 c:/nxp/mcuxpressoide_11.0.1_2563/ide/plugins/com.nxp.mcuxpresso.tools.win32_11.0.1.201907311258/tools/bin/../lib/gcc/arm-none-eabi/8.2.1/../../../../arm-none-eabi/lib/thumb/v7e-m+dp/hard\libcr_c.a(_cr_check_heap.o)
 .data          0x00000000        0x0 c:/nxp/mcuxpressoide_11.0.1_2563/ide/plugins/com.nxp.mcuxpresso.tools.win32_11.0.1.201907311258/tools/bin/../lib/gcc/arm-none-eabi/8.2.1/../../../../arm-none-eabi/lib/thumb/v7e-m+dp/hard\libcr_c.a(_cr_check_heap.o)
 .bss           0x00000000        0x0 c:/nxp/mcuxpressoide_11.0.1_2563/ide/plugins/com.nxp.mcuxpresso.tools.win32_11.0.1.201907311258/tools/bin/../lib/gcc/arm-none-eabi/8.2.1/../../../../arm-none-eabi/lib/thumb/v7e-m+dp/hard\libcr_c.a(_cr_check_heap.o)
 .text          0x00000000        0x0 c:/nxp/mcuxpressoide_11.0.1_2563/ide/plugins/com.nxp.mcuxpresso.tools.win32_11.0.1.201907311258/tools/bin/../lib/gcc/arm-none-eabi/8.2.1/../../../../arm-none-eabi/lib/thumb/v7e-m+dp/hard\libcr_c.a(_do_fflush.o)
 .data          0x00000000        0x0 c:/nxp/mcuxpressoide_11.0.1_2563/ide/plugins/com.nxp.mcuxpresso.tools.win32_11.0.1.201907311258/tools/bin/../lib/gcc/arm-none-eabi/8.2.1/../../../../arm-none-eabi/lib/thumb/v7e-m+dp/hard\libcr_c.a(_do_fflush.o)
 .bss           0x00000000        0x0 c:/nxp/mcuxpressoide_11.0.1_2563/ide/plugins/com.nxp.mcuxpresso.tools.win32_11.0.1.201907311258/tools/bin/../lib/gcc/arm-none-eabi/8.2.1/../../../../arm-none-eabi/lib/thumb/v7e-m+dp/hard\libcr_c.a(_do_fflush.o)
 .text          0x00000000        0x0 c:/nxp/mcuxpressoide_11.0.1_2563/ide/plugins/com.nxp.mcuxpresso.tools.win32_11.0.1.201907311258/tools/bin/../lib/gcc/arm-none-eabi/8.2.1/thumb/v7e-m+dp/hard\libcr_eabihelpers.a(division_64.o)
 .data          0x00000000        0x0 c:/nxp/mcuxpressoide_11.0.1_2563/ide/plugins/com.nxp.mcuxpresso.tools.win32_11.0.1.201907311258/tools/bin/../lib/gcc/arm-none-eabi/8.2.1/thumb/v7e-m+dp/hard\libcr_eabihelpers.a(division_64.o)
 .bss           0x00000000        0x0 c:/nxp/mcuxpressoide_11.0.1_2563/ide/plugins/com.nxp.mcuxpresso.tools.win32_11.0.1.201907311258/tools/bin/../lib/gcc/arm-none-eabi/8.2.1/thumb/v7e-m+dp/hard\libcr_eabihelpers.a(division_64.o)
 .text.__aeabi_division_ldivmod
                0x00000000       0x26 c:/nxp/mcuxpressoide_11.0.1_2563/ide/plugins/com.nxp.mcuxpresso.tools.win32_11.0.1.201907311258/tools/bin/../lib/gcc/arm-none-eabi/8.2.1/thumb/v7e-m+dp/hard\libcr_eabihelpers.a(division_64.o)
 .text          0x00000000        0x0 c:/nxp/mcuxpressoide_11.0.1_2563/ide/plugins/com.nxp.mcuxpresso.tools.win32_11.0.1.201907311258/tools/bin/../lib/gcc/arm-none-eabi/8.2.1/thumb/v7e-m+dp/hard\libcr_eabihelpers.a(division_idiv0.o)
 .data          0x00000000        0x0 c:/nxp/mcuxpressoide_11.0.1_2563/ide/plugins/com.nxp.mcuxpresso.tools.win32_11.0.1.201907311258/tools/bin/../lib/gcc/arm-none-eabi/8.2.1/thumb/v7e-m+dp/hard\libcr_eabihelpers.a(division_idiv0.o)
 .bss           0x00000000        0x0 c:/nxp/mcuxpressoide_11.0.1_2563/ide/plugins/com.nxp.mcuxpresso.tools.win32_11.0.1.201907311258/tools/bin/../lib/gcc/arm-none-eabi/8.2.1/thumb/v7e-m+dp/hard\libcr_eabihelpers.a(division_idiv0.o)
 .text          0x00000000        0x0 c:/nxp/mcuxpressoide_11.0.1_2563/ide/plugins/com.nxp.mcuxpresso.tools.win32_11.0.1.201907311258/tools/bin/../lib/gcc/arm-none-eabi/8.2.1/thumb/v7e-m+dp/hard\libcr_eabihelpers.a(memcpy.o)
 .data          0x00000000        0x0 c:/nxp/mcuxpressoide_11.0.1_2563/ide/plugins/com.nxp.mcuxpresso.tools.win32_11.0.1.201907311258/tools/bin/../lib/gcc/arm-none-eabi/8.2.1/thumb/v7e-m+dp/hard\libcr_eabihelpers.a(memcpy.o)
 .bss           0x00000000        0x0 c:/nxp/mcuxpressoide_11.0.1_2563/ide/plugins/com.nxp.mcuxpresso.tools.win32_11.0.1.201907311258/tools/bin/../lib/gcc/arm-none-eabi/8.2.1/thumb/v7e-m+dp/hard\libcr_eabihelpers.a(memcpy.o)
 .text.__aeabi_memcpy
                0x00000000       0x34 c:/nxp/mcuxpressoide_11.0.1_2563/ide/plugins/com.nxp.mcuxpresso.tools.win32_11.0.1.201907311258/tools/bin/../lib/gcc/arm-none-eabi/8.2.1/thumb/v7e-m+dp/hard\libcr_eabihelpers.a(memcpy.o)
 .text.__aeabi_memmove
                0x00000000       0x1c c:/nxp/mcuxpressoide_11.0.1_2563/ide/plugins/com.nxp.mcuxpresso.tools.win32_11.0.1.201907311258/tools/bin/../lib/gcc/arm-none-eabi/8.2.1/thumb/v7e-m+dp/hard\libcr_eabihelpers.a(memcpy.o)
 .text.__aeabi_memclr
                0x00000000        0x8 c:/nxp/mcuxpressoide_11.0.1_2563/ide/plugins/com.nxp.mcuxpresso.tools.win32_11.0.1.201907311258/tools/bin/../lib/gcc/arm-none-eabi/8.2.1/thumb/v7e-m+dp/hard\libcr_eabihelpers.a(memcpy.o)
 .text.__aeabi_memset
                0x00000000        0xa c:/nxp/mcuxpressoide_11.0.1_2563/ide/plugins/com.nxp.mcuxpresso.tools.win32_11.0.1.201907311258/tools/bin/../lib/gcc/arm-none-eabi/8.2.1/thumb/v7e-m+dp/hard\libcr_eabihelpers.a(memcpy.o)
 .text          0x00000000        0x0 c:/nxp/mcuxpressoide_11.0.1_2563/ide/plugins/com.nxp.mcuxpresso.tools.win32_11.0.1.201907311258/tools/bin/../lib/gcc/arm-none-eabi/8.2.1/../../../../arm-none-eabi/lib/thumb/v7e-m+dp/hard\libcr_nohost_nf.a(__sys_close.o)
 .data          0x00000000        0x0 c:/nxp/mcuxpressoide_11.0.1_2563/ide/plugins/com.nxp.mcuxpresso.tools.win32_11.0.1.201907311258/tools/bin/../lib/gcc/arm-none-eabi/8.2.1/../../../../arm-none-eabi/lib/thumb/v7e-m+dp/hard\libcr_nohost_nf.a(__sys_close.o)
 .bss           0x00000000        0x0 c:/nxp/mcuxpressoide_11.0.1_2563/ide/plugins/com.nxp.mcuxpresso.tools.win32_11.0.1.201907311258/tools/bin/../lib/gcc/arm-none-eabi/8.2.1/../../../../arm-none-eabi/lib/thumb/v7e-m+dp/hard\libcr_nohost_nf.a(__sys_close.o)
 .text          0x00000000        0x0 c:/nxp/mcuxpressoide_11.0.1_2563/ide/plugins/com.nxp.mcuxpresso.tools.win32_11.0.1.201907311258/tools/bin/../lib/gcc/arm-none-eabi/8.2.1/../../../../arm-none-eabi/lib/thumb/v7e-m+dp/hard\libcr_nohost_nf.a(__sys_flen.o)
 .data          0x00000000        0x0 c:/nxp/mcuxpressoide_11.0.1_2563/ide/plugins/com.nxp.mcuxpresso.tools.win32_11.0.1.201907311258/tools/bin/../lib/gcc/arm-none-eabi/8.2.1/../../../../arm-none-eabi/lib/thumb/v7e-m+dp/hard\libcr_nohost_nf.a(__sys_flen.o)
 .bss           0x00000000        0x0 c:/nxp/mcuxpressoide_11.0.1_2563/ide/plugins/com.nxp.mcuxpresso.tools.win32_11.0.1.201907311258/tools/bin/../lib/gcc/arm-none-eabi/8.2.1/../../../../arm-none-eabi/lib/thumb/v7e-m+dp/hard\libcr_nohost_nf.a(__sys_flen.o)
 .text          0x00000000        0x0 c:/nxp/mcuxpressoide_11.0.1_2563/ide/plugins/com.nxp.mcuxpresso.tools.win32_11.0.1.201907311258/tools/bin/../lib/gcc/arm-none-eabi/8.2.1/../../../../arm-none-eabi/lib/thumb/v7e-m+dp/hard\libcr_nohost_nf.a(__sys_istty.o)
 .data          0x00000000        0x0 c:/nxp/mcuxpressoide_11.0.1_2563/ide/plugins/com.nxp.mcuxpresso.tools.win32_11.0.1.201907311258/tools/bin/../lib/gcc/arm-none-eabi/8.2.1/../../../../arm-none-eabi/lib/thumb/v7e-m+dp/hard\libcr_nohost_nf.a(__sys_istty.o)
 .bss           0x00000000        0x0 c:/nxp/mcuxpressoide_11.0.1_2563/ide/plugins/com.nxp.mcuxpresso.tools.win32_11.0.1.201907311258/tools/bin/../lib/gcc/arm-none-eabi/8.2.1/../../../../arm-none-eabi/lib/thumb/v7e-m+dp/hard\libcr_nohost_nf.a(__sys_istty.o)
 .text          0x00000000        0x0 c:/nxp/mcuxpressoide_11.0.1_2563/ide/plugins/com.nxp.mcuxpresso.tools.win32_11.0.1.201907311258/tools/bin/../lib/gcc/arm-none-eabi/8.2.1/../../../../arm-none-eabi/lib/thumb/v7e-m+dp/hard\libcr_nohost_nf.a(__sys_remove.o)
 .data          0x00000000        0x0 c:/nxp/mcuxpressoide_11.0.1_2563/ide/plugins/com.nxp.mcuxpresso.tools.win32_11.0.1.201907311258/tools/bin/../lib/gcc/arm-none-eabi/8.2.1/../../../../arm-none-eabi/lib/thumb/v7e-m+dp/hard\libcr_nohost_nf.a(__sys_remove.o)
 .bss           0x00000000        0x0 c:/nxp/mcuxpressoide_11.0.1_2563/ide/plugins/com.nxp.mcuxpresso.tools.win32_11.0.1.201907311258/tools/bin/../lib/gcc/arm-none-eabi/8.2.1/../../../../arm-none-eabi/lib/thumb/v7e-m+dp/hard\libcr_nohost_nf.a(__sys_remove.o)
 .text          0x00000000        0x0 c:/nxp/mcuxpressoide_11.0.1_2563/ide/plugins/com.nxp.mcuxpresso.tools.win32_11.0.1.201907311258/tools/bin/../lib/gcc/arm-none-eabi/8.2.1/../../../../arm-none-eabi/lib/thumb/v7e-m+dp/hard\libcr_nohost_nf.a(__sys_rename.o)
 .data          0x00000000        0x0 c:/nxp/mcuxpressoide_11.0.1_2563/ide/plugins/com.nxp.mcuxpresso.tools.win32_11.0.1.201907311258/tools/bin/../lib/gcc/arm-none-eabi/8.2.1/../../../../arm-none-eabi/lib/thumb/v7e-m+dp/hard\libcr_nohost_nf.a(__sys_rename.o)
 .bss           0x00000000        0x0 c:/nxp/mcuxpressoide_11.0.1_2563/ide/plugins/com.nxp.mcuxpresso.tools.win32_11.0.1.201907311258/tools/bin/../lib/gcc/arm-none-eabi/8.2.1/../../../../arm-none-eabi/lib/thumb/v7e-m+dp/hard\libcr_nohost_nf.a(__sys_rename.o)
 .text.__sys_rename
                0x00000000        0x6 c:/nxp/mcuxpressoide_11.0.1_2563/ide/plugins/com.nxp.mcuxpresso.tools.win32_11.0.1.201907311258/tools/bin/../lib/gcc/arm-none-eabi/8.2.1/../../../../arm-none-eabi/lib/thumb/v7e-m+dp/hard\libcr_nohost_nf.a(__sys_rename.o)
 .comment       0x00000000       0x76 c:/nxp/mcuxpressoide_11.0.1_2563/ide/plugins/com.nxp.mcuxpresso.tools.win32_11.0.1.201907311258/tools/bin/../lib/gcc/arm-none-eabi/8.2.1/../../../../arm-none-eabi/lib/thumb/v7e-m+dp/hard\libcr_nohost_nf.a(__sys_rename.o)
 .ARM.attributes
                0x00000000       0x32 c:/nxp/mcuxpressoide_11.0.1_2563/ide/plugins/com.nxp.mcuxpresso.tools.win32_11.0.1.201907311258/tools/bin/../lib/gcc/arm-none-eabi/8.2.1/../../../../arm-none-eabi/lib/thumb/v7e-m+dp/hard\libcr_nohost_nf.a(__sys_rename.o)
 .text          0x00000000        0x0 c:/nxp/mcuxpressoide_11.0.1_2563/ide/plugins/com.nxp.mcuxpresso.tools.win32_11.0.1.201907311258/tools/bin/../lib/gcc/arm-none-eabi/8.2.1/../../../../arm-none-eabi/lib/thumb/v7e-m+dp/hard\libcr_nohost_nf.a(__sys_seek.o)
 .data          0x00000000        0x0 c:/nxp/mcuxpressoide_11.0.1_2563/ide/plugins/com.nxp.mcuxpresso.tools.win32_11.0.1.201907311258/tools/bin/../lib/gcc/arm-none-eabi/8.2.1/../../../../arm-none-eabi/lib/thumb/v7e-m+dp/hard\libcr_nohost_nf.a(__sys_seek.o)
 .bss           0x00000000        0x0 c:/nxp/mcuxpressoide_11.0.1_2563/ide/plugins/com.nxp.mcuxpresso.tools.win32_11.0.1.201907311258/tools/bin/../lib/gcc/arm-none-eabi/8.2.1/../../../../arm-none-eabi/lib/thumb/v7e-m+dp/hard\libcr_nohost_nf.a(__sys_seek.o)
 .text          0x00000000        0x0 c:/nxp/mcuxpressoide_11.0.1_2563/ide/plugins/com.nxp.mcuxpresso.tools.win32_11.0.1.201907311258/tools/bin/../lib/gcc/arm-none-eabi/8.2.1/../../../../arm-none-eabi/lib/thumb/v7e-m+dp/hard\libcr_nohost_nf.a(__sys_tmpnam.o)
 .data          0x00000000        0x0 c:/nxp/mcuxpressoide_11.0.1_2563/ide/plugins/com.nxp.mcuxpresso.tools.win32_11.0.1.201907311258/tools/bin/../lib/gcc/arm-none-eabi/8.2.1/../../../../arm-none-eabi/lib/thumb/v7e-m+dp/hard\libcr_nohost_nf.a(__sys_tmpnam.o)
 .bss           0x00000000        0x0 c:/nxp/mcuxpressoide_11.0.1_2563/ide/plugins/com.nxp.mcuxpresso.tools.win32_11.0.1.201907311258/tools/bin/../lib/gcc/arm-none-eabi/8.2.1/../../../../arm-none-eabi/lib/thumb/v7e-m+dp/hard\libcr_nohost_nf.a(__sys_tmpnam.o)
 .text          0x00000000        0x0 c:/nxp/mcuxpressoide_11.0.1_2563/ide/plugins/com.nxp.mcuxpresso.tools.win32_11.0.1.201907311258/tools/bin/../lib/gcc/arm-none-eabi/8.2.1/../../../../arm-none-eabi/lib/thumb/v7e-m+dp/hard\libcr_nohost_nf.a(__sys_write.o)
 .data          0x00000000        0x0 c:/nxp/mcuxpressoide_11.0.1_2563/ide/plugins/com.nxp.mcuxpresso.tools.win32_11.0.1.201907311258/tools/bin/../lib/gcc/arm-none-eabi/8.2.1/../../../../arm-none-eabi/lib/thumb/v7e-m+dp/hard\libcr_nohost_nf.a(__sys_write.o)
 .bss           0x00000000        0x0 c:/nxp/mcuxpressoide_11.0.1_2563/ide/plugins/com.nxp.mcuxpresso.tools.win32_11.0.1.201907311258/tools/bin/../lib/gcc/arm-none-eabi/8.2.1/../../../../arm-none-eabi/lib/thumb/v7e-m+dp/hard\libcr_nohost_nf.a(__sys_write.o)

Memory Configuration

Name             Origin             Length             Attributes
SRAM_ITC         0x00000000         0x00080000         xrw
SRAM_DTC         0x20000000         0x00080000         xrw
SRAM_OC          0x20200000         0x00080000         xrw
Flash_00         0x60000000         0x001f0000         xr
*default*        0x00000000         0xffffffff

Linker script and memory map

LOAD ./xip/evkmimxrt1060_flexspi_nor_config.o
LOAD ./xip/evkmimxrt1060_sdram_ini_dcd.o
LOAD ./xip/fsl_flexspi_nor_boot.o
LOAD ./utilities/fsl_assert.o
LOAD ./utilities/fsl_debug_console.o
LOAD ./utilities/fsl_str.o
LOAD ./startup/startup_mimxrt1062.o
LOAD ./source/cmsis_lpspi_int_b2b_transfer_master.o
LOAD ./source/semihost_hardfault.o
LOAD ./drivers/ethernet_lib.o
LOAD ./drivers/fsl_clock.o
LOAD ./drivers/fsl_common.o
LOAD ./drivers/fsl_dmamux.o
LOAD ./drivers/fsl_edma.o
LOAD ./drivers/fsl_gpio.o
LOAD ./drivers/fsl_lpspi.o
LOAD ./drivers/fsl_lpspi_cmsis.o
LOAD ./drivers/fsl_lpspi_edma.o
LOAD ./drivers/fsl_lpuart.o
LOAD ./device/system_MIMXRT1062.o
LOAD ./component/uart/lpuart_adapter.o
LOAD ./component/serial_manager/serial_manager.o
LOAD ./component/serial_manager/serial_port_uart.o
LOAD ./component/lists/generic_list.o
LOAD ./board/board.o
LOAD ./board/clock_config.o
LOAD ./board/peripherals.o
LOAD ./board/pin_mux.o
START GROUP
LOAD c:/nxp/mcuxpressoide_11.0.1_2563/ide/plugins/com.nxp.mcuxpresso.tools.win32_11.0.1.201907311258/tools/bin/../lib/gcc/arm-none-eabi/8.2.1/../../../../arm-none-eabi/lib/thumb/v7e-m+dp/hard\libcr_nohost_nf.a
LOAD c:/nxp/mcuxpressoide_11.0.1_2563/ide/plugins/com.nxp.mcuxpresso.tools.win32_11.0.1.201907311258/tools/bin/../lib/gcc/arm-none-eabi/8.2.1/../../../../arm-none-eabi/lib/thumb/v7e-m+dp/hard\libcr_c.a
LOAD c:/nxp/mcuxpressoide_11.0.1_2563/ide/plugins/com.nxp.mcuxpresso.tools.win32_11.0.1.201907311258/tools/bin/../lib/gcc/arm-none-eabi/8.2.1/thumb/v7e-m+dp/hard\libcr_eabihelpers.a
LOAD c:/nxp/mcuxpressoide_11.0.1_2563/ide/plugins/com.nxp.mcuxpresso.tools.win32_11.0.1.201907311258/tools/bin/../lib/gcc/arm-none-eabi/8.2.1/thumb/v7e-m+dp/hard\libgcc.a
END GROUP
                0x00000000                __base_SRAM_ITC = 0x0
                0x00000000                __base_RAM = 0x0
                0x00080000                __top_SRAM_ITC = 0x80000
                0x00080000                __top_RAM = 0x80000
                0x20000000                __base_SRAM_DTC = 0x20000000
                0x20000000                __base_RAM2 = 0x20000000
                0x20080000                __top_SRAM_DTC = 0x20080000
                0x20080000                __top_RAM2 = 0x20080000
                0x20200000                __base_SRAM_OC = 0x20200000
                0x20200000                __base_RAM3 = 0x20200000
                0x20280000                __top_SRAM_OC = 0x20280000
                0x20280000                __top_RAM3 = 0x20280000
                0x60000000                __base_Flash_00 = 0x60000000
                0x60000000                __base_Flash = 0x60000000
                0x601f0000                __top_Flash_00 = 0x601f0000
                0x601f0000                __top_Flash = 0x601f0000

.boot_hdr       0x60000000     0x2000
 FILL mask 0xff
                0x60000000                __boot_hdr_start__ = ABSOLUTE (.)
 *(SORT_BY_ALIGNMENT(.boot_hdr.conf1))
 .boot_hdr.conf1
                0x60000000      0x200 ./startup/startup_mimxrt1062.o
                0x60000000                FlexSPI_NOR_Config
                0x00001000                . = 0x1000
 *fill*         0x60000200      0xe00 ff
 *(SORT_BY_ALIGNMENT(.boot_hdr.ivt1))
 .boot_hdr.ivt1
                0x60001000       0x20 ./startup/startup_mimxrt1062.o
                0x60001000                ImageVectorTable
                0x00001020                . = 0x1020
 *(SORT_BY_ALIGNMENT(.boot_hdr.boot_data1))
 .boot_hdr.boot_data1
                0x60001020        0xc ./startup/startup_mimxrt1062.o
                0x60001020                BootData
                0x00001030                . = 0x1030
 *fill*         0x6000102c        0x4 ff
 *(SORT_BY_ALIGNMENT(.boot_hdr.dcd_data))
                0x60001030                __boot_hdr_end__ = ABSOLUTE (.)
                0x00002000                . = 0x2000
 *fill*         0x60001030      0xfd0 ff

.teensy_boot    0x60002000       0x60
 FILL mask 0xff
                0x60002000                __teensy_vectors_start__ = ABSOLUTE (.)
 *(SORT_BY_ALIGNMENT(.teensy_boot.vectors))
 .teensy_boot.vectors
                0x60002000        0x8 ./startup/startup_mimxrt1062.o
                0x60002000                vector_table
 *(SORT_BY_ALIGNMENT(.teensy_boot.isr))
 .teensy_boot.isr
                0x60002008       0x34 ./startup/startup_mimxrt1062.o
                0x60002008                ResetISR_pre
 *(SORT_BY_ALIGNMENT(.teensy_boot.*))
 .teensy_boot.util
                0x6000203c       0x16 ./startup/startup_mimxrt1062.o
 *fill*         0x60002052        0x6 ff
 .teensy_boot.util.__stub
                0x60002058        0x8 linker stubs

.text           0x00000000     0xa1c4 load address 0x60002060
 FILL mask 0xff
                0x00000000                __vectors_start__ = ABSOLUTE (.)
 *(SORT_BY_ALIGNMENT(.isr_vector))
 .isr_vector    0x00000000      0x2b8 ./startup/startup_mimxrt1062.o
                0x00000000                g_pfnVectors
                0x00000000                __Vectors
                0x000002b8                . = ALIGN (0x4)
                0x000002b8                __section_table_start = .
                0x000002b8                __data_section_table = .
                0x000002b8        0x4 LONG 0x6000c224 LOADADDR (.data_RAM)
                0x000002bc        0x4 LONG 0xa1c4 ADDR (.data_RAM)
                0x000002c0        0x4 LONG 0x0 SIZEOF (.data_RAM)
                0x000002c4        0x4 LONG 0x6000c224 LOADADDR (.data)
                0x000002c8        0x4 LONG 0x20000000 ADDR (.data)
                0x000002cc        0x4 LONG 0x18 SIZEOF (.data)
                0x000002d0        0x4 LONG 0x6000c224 LOADADDR (.data_RAM3)
                0x000002d4        0x4 LONG 0x20200000 ADDR (.data_RAM3)
                0x000002d8        0x4 LONG 0x0 SIZEOF (.data_RAM3)
                0x000002dc                __data_section_table_end = .
                0x000002dc                __bss_section_table = .
                0x000002dc        0x4 LONG 0xa1c4 ADDR (.bss_RAM)
                0x000002e0        0x4 LONG 0x0 SIZEOF (.bss_RAM)
                0x000002e4        0x4 LONG 0x20000018 ADDR (.bss)
                0x000002e8        0x4 LONG 0x1f4 SIZEOF (.bss)
                0x000002ec        0x4 LONG 0x20200000 ADDR (.bss_RAM3)
                0x000002f0        0x4 LONG 0x0 SIZEOF (.bss_RAM3)
                0x000002f4                __bss_section_table_end = .
                0x000002f4                __section_table_end = .
 *(SORT_BY_ALIGNMENT(.after_vectors*))
 .after_vectors.reset
                0x000002f4       0x4c ./startup/startup_mimxrt1062.o
                0x000002f4                ResetISR
 .after_vectors.init_data
                0x00000340       0x1e ./startup/startup_mimxrt1062.o
                0x00000340                data_init
 .after_vectors.init_bss
                0x0000035e       0x12 ./startup/startup_mimxrt1062.o
                0x0000035e                bss_init
 .after_vectors
                0x00000370        0xc ./startup/startup_mimxrt1062.o
                0x00000370                NMI_Handler
                0x00000374                SVC_Handler
                0x00000376                PendSV_Handler
                0x00000378                SysTick_Handler
                0x0000037a                LCDIF_DriverIRQHandler
                0x0000037a                SAI3_RX_DriverIRQHandler
                0x0000037a                CCM_2_DriverIRQHandler
                0x0000037a                PIT_DriverIRQHandler
                0x0000037a                FLEXSPI2_DriverIRQHandler
                0x0000037a                Reserved87_DriverIRQHandler
                0x0000037a                FLEXRAM_DriverIRQHandler
                0x0000037a                SEMC_DriverIRQHandler
                0x0000037a                SPDIF_DriverIRQHandler
                0x0000037a                PMU_EVENT_DriverIRQHandler
                0x0000037a                PWM4_3_DriverIRQHandler
                0x0000037a                ENET2_DriverIRQHandler
                0x0000037a                KPP_DriverIRQHandler
                0x0000037a                PWM4_FAULT_DriverIRQHandler
                0x0000037a                USB_PHY1_DriverIRQHandler
                0x0000037a                GPIO3_Combined_0_15_DriverIRQHandler
                0x0000037a                CAN3_DriverIRQHandler
                0x0000037a                Reserved171_DriverIRQHandler
                0x0000037a                BEE_DriverIRQHandler
                0x0000037a                LPI2C3_DriverIRQHandler
                0x0000037a                GPR_IRQ_DriverIRQHandler
                0x0000037a                PWM2_FAULT_DriverIRQHandler
                0x0000037a                PWM3_1_DriverIRQHandler
                0x0000037a                TMR1_DriverIRQHandler
                0x0000037a                TRNG_DriverIRQHandler
                0x0000037a                PWM3_2_DriverIRQHandler
                0x0000037a                ENET_1588_Timer_DriverIRQHandler
                0x0000037a                FLEXIO2_DriverIRQHandler
                0x0000037a                GPIO2_Combined_16_31_DriverIRQHandler
                0x0000037a                Reserved143_DriverIRQHandler
                0x0000037a                PWM4_1_DriverIRQHandler
                0x0000037a                PWM3_3_DriverIRQHandler
                0x0000037a                IntDefaultHandler
                0x0000037a                SRC_DriverIRQHandler
                0x0000037a                GPIO1_INT4_DriverIRQHandler
                0x0000037a                Reserved144_DriverIRQHandler
                0x0000037a                USDHC1_DriverIRQHandler
                0x0000037a                ENC3_DriverIRQHandler
                0x0000037a                PWM3_FAULT_DriverIRQHandler
                0x0000037a                EWM_DriverIRQHandler
                0x0000037a                TSC_DIG_DriverIRQHandler
                0x0000037a                WDOG1_DriverIRQHandler
                0x0000037a                FLEXIO1_DriverIRQHandler
                0x0000037a                ENET_DriverIRQHandler
                0x0000037a                Reserved78_DriverIRQHandler
                0x0000037a                TMR4_DriverIRQHandler
                0x0000037a                ENC2_DriverIRQHandler
                0x0000037a                ADC_ETC_IRQ2_DriverIRQHandler
                0x0000037a                GPIO1_Combined_16_31_DriverIRQHandler
                0x0000037a                GPIO1_INT7_DriverIRQHandler
                0x0000037a                SAI1_DriverIRQHandler
                0x0000037a                DCDC_DriverIRQHandler
                0x0000037a                PWM4_0_DriverIRQHandler
                0x0000037a                ADC_ETC_ERROR_IRQ_DriverIRQHandler
                0x0000037a                ACMP2_DriverIRQHandler
                0x0000037a                GPIO5_Combined_0_15_DriverIRQHandler
                0x0000037a                GPIO1_INT0_DriverIRQHandler
                0x0000037a                GPIO1_INT2_DriverIRQHandler
                0x0000037a                RTWDOG_DriverIRQHandler
                0x0000037a                FLEXSPI_DriverIRQHandler
                0x0000037a                GPT2_DriverIRQHandler
                0x0000037a                USB_PHY2_DriverIRQHandler
                0x0000037a                PWM2_1_DriverIRQHandler
                0x0000037a                PWM1_1_DriverIRQHandler
                0x0000037a                PXP_DriverIRQHandler
                0x0000037a                ADC1_DriverIRQHandler
                0x0000037a                PWM1_0_DriverIRQHandler
                0x0000037a                SJC_DriverIRQHandler
                0x0000037a                ENC1_DriverIRQHandler
                0x0000037a                ENC4_DriverIRQHandler
                0x0000037a                CAN2_DriverIRQHandler
                0x0000037a                DCP_DriverIRQHandler
                0x0000037a                CTI0_ERROR_DriverIRQHandler
                0x0000037a                GPT1_DriverIRQHandler
                0x0000037a                ACMP3_DriverIRQHandler
                0x0000037a                CSU_DriverIRQHandler
                0x0000037a                GPIO1_INT5_DriverIRQHandler
                0x0000037a                TMR3_DriverIRQHandler
                0x0000037a                TMR2_DriverIRQHandler
                0x0000037a                CTI1_ERROR_DriverIRQHandler
                0x0000037a                GPIO1_Combined_0_15_DriverIRQHandler
                0x0000037a                USDHC2_DriverIRQHandler
                0x0000037a                PWM4_2_DriverIRQHandler
                0x0000037a                SAI2_DriverIRQHandler
                0x0000037a                CORE_DriverIRQHandler
                0x0000037a                ACMP4_DriverIRQHandler
                0x0000037a                CSI_DriverIRQHandler
                0x0000037a                PWM2_3_DriverIRQHandler
                0x0000037a                XBAR1_IRQ_2_3_DriverIRQHandler
                0x0000037a                SNVS_HP_WRAPPER_TZ_DriverIRQHandler
                0x0000037a                GPIO3_Combined_16_31_DriverIRQHandler
                0x0000037a                PWM1_FAULT_DriverIRQHandler
                0x0000037a                LPI2C1_DriverIRQHandler
                0x0000037a                ENET2_1588_Timer_DriverIRQHandler
                0x0000037a                PWM2_2_DriverIRQHandler
                0x0000037a                SNVS_HP_WRAPPER_DriverIRQHandler
                0x0000037a                XBAR1_IRQ_0_1_DriverIRQHandler
                0x0000037a                ADC_ETC_IRQ1_DriverIRQHandler
                0x0000037a                GPIO1_INT3_DriverIRQHandler
                0x0000037a                DCP_VMI_DriverIRQHandler
                0x0000037a                LPI2C4_DriverIRQHandler
                0x0000037a                GPC_DriverIRQHandler
                0x0000037a                GPIO2_Combined_0_15_DriverIRQHandler
                0x0000037a                PWM1_2_DriverIRQHandler
                0x0000037a                USB_OTG1_DriverIRQHandler
                0x0000037a                TEMP_LOW_HIGH_DriverIRQHandler
                0x0000037a                SAI3_TX_DriverIRQHandler
                0x0000037a                FLEXIO3_DriverIRQHandler
                0x0000037a                WDOG2_DriverIRQHandler
                0x0000037a                Reserved68_DriverIRQHandler
                0x0000037a                PWM3_0_DriverIRQHandler
                0x0000037a                GPIO4_Combined_0_15_DriverIRQHandler
                0x0000037a                GPIO4_Combined_16_31_DriverIRQHandler
                0x0000037a                GPIO6_7_8_9_DriverIRQHandler
                0x0000037a                GPIO5_Combined_16_31_DriverIRQHandler
                0x0000037a                CCM_1_DriverIRQHandler
                0x0000037a                ADC2_DriverIRQHandler
                0x0000037a                Reserved115_DriverIRQHandler
                0x0000037a                TEMP_PANIC_DriverIRQHandler
                0x0000037a                PWM1_3_DriverIRQHandler
                0x0000037a                ACMP1_DriverIRQHandler
                0x0000037a                LPI2C2_DriverIRQHandler
                0x0000037a                Reserved86_DriverIRQHandler
                0x0000037a                DMA_ERROR_DriverIRQHandler
                0x0000037a                ADC_ETC_IRQ0_DriverIRQHandler
                0x0000037a                CAN1_DriverIRQHandler
                0x0000037a                GPIO1_INT6_DriverIRQHandler
                0x0000037a                GPIO1_INT1_DriverIRQHandler
                0x0000037a                PWM2_0_DriverIRQHandler
                0x0000037a                SNVS_LP_WRAPPER_DriverIRQHandler
                0x0000037a                USB_OTG2_DriverIRQHandler
 *(SORT_BY_ALIGNMENT(.text*))
 *fill*         0x0000037c        0x4 ff
 .text.LPSPI_MasterSetDelayTimes
                0x00000380      0x20c ./drivers/fsl_lpspi.o
                0x00000380                LPSPI_MasterSetDelayTimes
 .text.DbgConsole_SendDataReliable
                0x0000058c       0x58 ./utilities/fsl_debug_console.o
                0x0000058c                DbgConsole_SendDataReliable
 .text.DbgConsole_Init
                0x000005e4      0x104 ./utilities/fsl_debug_console.o
                0x000005e4                DbgConsole_Init
 .text.DbgConsole_Printf
                0x000006e8       0x74 ./utilities/fsl_debug_console.o
                0x000006e8                DbgConsole_Printf
 .text.main     0x0000075c       0xc0 ./source/cmsis_lpspi_int_b2b_transfer_master.o
                0x0000075c                main
 .text.LPSPI4_GetFreq
                0x0000081c       0x14 ./drivers/ethernet_lib.o
                0x0000081c                LPSPI4_GetFreq
 .text.LPSPI_MasterSignalEvent_t
                0x00000830       0x48 ./drivers/ethernet_lib.o
                0x00000830                LPSPI_MasterSignalEvent_t
 .text.SPI_Write
                0x00000878       0xb8 ./drivers/ethernet_lib.o
                0x00000878                SPI_Write
 .text.SPI_Read
                0x00000930       0xbc ./drivers/ethernet_lib.o
                0x00000930                SPI_Read
 .text.W5100_Init
                0x000009ec      0x2cc ./drivers/ethernet_lib.o
                0x000009ec                W5100_Init
 .text.CLOCK_GetOscFreq
                0x00000cb8       0x30 ./drivers/fsl_clock.o
 .text.CLOCK_InitExternalClk
                0x00000ce8       0x6c ./drivers/fsl_clock.o
                0x00000ce8                CLOCK_InitExternalClk
 .text.CLOCK_SwitchOsc
                0x00000d54       0x34 ./drivers/fsl_clock.o
                0x00000d54                CLOCK_SwitchOsc
 .text.CLOCK_InitRcOsc24M
                0x00000d88       0x24 ./drivers/fsl_clock.o
                0x00000d88                CLOCK_InitRcOsc24M
 .text.CLOCK_InitArmPll
                0x00000dac       0x68 ./drivers/fsl_clock.o
                0x00000dac                CLOCK_InitArmPll
 .text.CLOCK_InitSysPll
                0x00000e14       0x9c ./drivers/fsl_clock.o
                0x00000e14                CLOCK_InitSysPll
 .text.CLOCK_DeinitUsb2Pll
                0x00000eb0       0x18 ./drivers/fsl_clock.o
                0x00000eb0                CLOCK_DeinitUsb2Pll
 .text.CLOCK_DeinitAudioPll
                0x00000ec8       0x1c ./drivers/fsl_clock.o
                0x00000ec8                CLOCK_DeinitAudioPll
 .text.CLOCK_DeinitVideoPll
                0x00000ee4       0x1c ./drivers/fsl_clock.o
                0x00000ee4                CLOCK_DeinitVideoPll
 .text.CLOCK_DeinitEnetPll
                0x00000f00       0x1c ./drivers/fsl_clock.o
                0x00000f00                CLOCK_DeinitEnetPll
 .text.CLOCK_GetPllFreq
                0x00000f1c      0x33c ./drivers/fsl_clock.o
                0x00000f1c                CLOCK_GetPllFreq
 .text.CLOCK_InitSysPfd
                0x00001258       0x64 ./drivers/fsl_clock.o
                0x00001258                CLOCK_InitSysPfd
 .text.EDMA_GetChannelStatusFlags
                0x000012bc       0x74 ./drivers/fsl_edma.o
                0x000012bc                EDMA_GetChannelStatusFlags
 .text.EDMA_HandleIRQ
                0x00001330      0x160 ./drivers/fsl_edma.o
                0x00001330                EDMA_HandleIRQ
 .text.DMA0_DMA16_DriverIRQHandler
                0x00001490       0x48 ./drivers/fsl_edma.o
                0x00001490                DMA0_DMA16_DriverIRQHandler
 .text.DMA1_DMA17_DriverIRQHandler
                0x000014d8       0x48 ./drivers/fsl_edma.o
                0x000014d8                DMA1_DMA17_DriverIRQHandler
 .text.DMA2_DMA18_DriverIRQHandler
                0x00001520       0x48 ./drivers/fsl_edma.o
                0x00001520                DMA2_DMA18_DriverIRQHandler
 .text.DMA3_DMA19_DriverIRQHandler
                0x00001568       0x48 ./drivers/fsl_edma.o
                0x00001568                DMA3_DMA19_DriverIRQHandler
 .text.DMA4_DMA20_DriverIRQHandler
                0x000015b0       0x48 ./drivers/fsl_edma.o
                0x000015b0                DMA4_DMA20_DriverIRQHandler
 .text.DMA5_DMA21_DriverIRQHandler
                0x000015f8       0x48 ./drivers/fsl_edma.o
                0x000015f8                DMA5_DMA21_DriverIRQHandler
 .text.DMA6_DMA22_DriverIRQHandler
                0x00001640       0x48 ./drivers/fsl_edma.o
                0x00001640                DMA6_DMA22_DriverIRQHandler
 .text.DMA7_DMA23_DriverIRQHandler
                0x00001688       0x48 ./drivers/fsl_edma.o
                0x00001688                DMA7_DMA23_DriverIRQHandler
 .text.DMA8_DMA24_DriverIRQHandler
                0x000016d0       0x48 ./drivers/fsl_edma.o
                0x000016d0                DMA8_DMA24_DriverIRQHandler
 .text.DMA9_DMA25_DriverIRQHandler
                0x00001718       0x48 ./drivers/fsl_edma.o
                0x00001718                DMA9_DMA25_DriverIRQHandler
 .text.DMA10_DMA26_DriverIRQHandler
                0x00001760       0x48 ./drivers/fsl_edma.o
                0x00001760                DMA10_DMA26_DriverIRQHandler
 .text.DMA11_DMA27_DriverIRQHandler
                0x000017a8       0x48 ./drivers/fsl_edma.o
                0x000017a8                DMA11_DMA27_DriverIRQHandler
 .text.DMA12_DMA28_DriverIRQHandler
                0x000017f0       0x48 ./drivers/fsl_edma.o
                0x000017f0                DMA12_DMA28_DriverIRQHandler
 .text.DMA13_DMA29_DriverIRQHandler
                0x00001838       0x48 ./drivers/fsl_edma.o
                0x00001838                DMA13_DMA29_DriverIRQHandler
 .text.DMA14_DMA30_DriverIRQHandler
                0x00001880       0x48 ./drivers/fsl_edma.o
                0x00001880                DMA14_DMA30_DriverIRQHandler
 .text.DMA15_DMA31_DriverIRQHandler
                0x000018c8       0x48 ./drivers/fsl_edma.o
                0x000018c8                DMA15_DMA31_DriverIRQHandler
 .text.CLOCK_ControlGate
                0x00001910       0x64 ./drivers/fsl_gpio.o
 .text.GPIO_GetInstance
                0x00001974       0x4c ./drivers/fsl_gpio.o
 .text.GPIO_PinInit
                0x000019c0       0xa4 ./drivers/fsl_gpio.o
                0x000019c0                GPIO_PinInit
 .text.GPIO_PinWrite
                0x00001a64       0x54 ./drivers/fsl_gpio.o
                0x00001a64                GPIO_PinWrite
 .text.GPIO_PinSetInterruptConfig
                0x00001ab8       0xfc ./drivers/fsl_gpio.o
                0x00001ab8                GPIO_PinSetInterruptConfig
 .text.__NVIC_EnableIRQ
                0x00001bb4       0x3c ./drivers/fsl_lpspi.o
 .text.CLOCK_ControlGate
                0x00001bf0       0x64 ./drivers/fsl_lpspi.o
 .text.LPSPI_GetInstance
                0x00001c54       0x50 ./drivers/fsl_lpspi.o
                0x00001c54                LPSPI_GetInstance
 .text.LPSPI_SetDummyData
                0x00001ca4       0x2c ./drivers/fsl_lpspi.o
                0x00001ca4                LPSPI_SetDummyData
 .text.LPSPI_MasterInit
                0x00001cd0      0x11c ./drivers/fsl_lpspi.o
                0x00001cd0                LPSPI_MasterInit
 .text.LPSPI_MasterGetDefaultConfig
                0x00001dec       0x98 ./drivers/fsl_lpspi.o
                0x00001dec                LPSPI_MasterGetDefaultConfig
 .text.LPSPI_SlaveInit
                0x00001e84       0xc0 ./drivers/fsl_lpspi.o
                0x00001e84                LPSPI_SlaveInit
 .text.LPSPI_SlaveGetDefaultConfig
                0x00001f44       0x5c ./drivers/fsl_lpspi.o
                0x00001f44                LPSPI_SlaveGetDefaultConfig
 .text.LPSPI_Deinit
                0x00001fa0       0x30 ./drivers/fsl_lpspi.o
                0x00001fa0                LPSPI_Deinit
 .text.LPSPI_MasterSetBaudRate
                0x00001fd0       0xf0 ./drivers/fsl_lpspi.o
                0x00001fd0                LPSPI_MasterSetBaudRate
 .text.LPSPI_MasterSetDelayScaler
                0x000020c0       0x70 ./drivers/fsl_lpspi.o
                0x000020c0                LPSPI_MasterSetDelayScaler
 .text.LPSPI_MasterTransferCreateHandle
                0x00002130       0x60 ./drivers/fsl_lpspi.o
                0x00002130                LPSPI_MasterTransferCreateHandle
 .text.LPSPI_CheckTransferArgument
                0x00002190       0x98 ./drivers/fsl_lpspi.o
                0x00002190                LPSPI_CheckTransferArgument
 .text.LPSPI_MasterTransferNonBlocking
                0x00002228      0x2e0 ./drivers/fsl_lpspi.o
                0x00002228                LPSPI_MasterTransferNonBlocking
 .text.LPSPI_MasterTransferFillUpTxFifo
                0x00002508      0x110 ./drivers/fsl_lpspi.o
 .text.LPSPI_MasterTransferComplete
                0x00002618       0x4c ./drivers/fsl_lpspi.o
 .text.LPSPI_MasterTransferAbort
                0x00002664       0x48 ./drivers/fsl_lpspi.o
                0x00002664                LPSPI_MasterTransferAbort
 .text.LPSPI_MasterTransferHandleIRQ
                0x000026ac      0x1a0 ./drivers/fsl_lpspi.o
                0x000026ac                LPSPI_MasterTransferHandleIRQ
 .text.LPSPI_SlaveTransferCreateHandle
                0x0000284c       0x60 ./drivers/fsl_lpspi.o
                0x0000284c                LPSPI_SlaveTransferCreateHandle
 .text.LPSPI_SlaveTransferNonBlocking
                0x000028ac      0x2d0 ./drivers/fsl_lpspi.o
                0x000028ac                LPSPI_SlaveTransferNonBlocking
 .text.LPSPI_SlaveTransferFillUpTxFifo
                0x00002b7c       0xa0 ./drivers/fsl_lpspi.o
 .text.LPSPI_SlaveTransferComplete
                0x00002c1c       0x68 ./drivers/fsl_lpspi.o
 .text.LPSPI_SlaveTransferAbort
                0x00002c84       0x44 ./drivers/fsl_lpspi.o
                0x00002c84                LPSPI_SlaveTransferAbort
 .text.LPSPI_SlaveTransferHandleIRQ
                0x00002cc8      0x250 ./drivers/fsl_lpspi.o
                0x00002cc8                LPSPI_SlaveTransferHandleIRQ
 .text.LPSPI_CombineWriteData
                0x00002f18      0x1bc ./drivers/fsl_lpspi.o
 .text.LPSPI_SeparateReadData
                0x000030d4      0x1a8 ./drivers/fsl_lpspi.o
 .text.LPSPI_CommonIRQHandler
                0x0000327c       0x3c ./drivers/fsl_lpspi.o
 .text.LPSPI1_DriverIRQHandler
                0x000032b8       0x30 ./drivers/fsl_lpspi.o
                0x000032b8                LPSPI1_DriverIRQHandler
 .text.LPSPI2_DriverIRQHandler
                0x000032e8       0x30 ./drivers/fsl_lpspi.o
                0x000032e8                LPSPI2_DriverIRQHandler
 .text.LPSPI3_DriverIRQHandler
                0x00003318       0x30 ./drivers/fsl_lpspi.o
                0x00003318                LPSPI3_DriverIRQHandler
 .text.LPSPI4_DriverIRQHandler
                0x00003348       0x30 ./drivers/fsl_lpspi.o
                0x00003348                LPSPI4_DriverIRQHandler
 .text.CLOCK_ControlGate
                0x00003378       0x64 ./drivers/fsl_lpspi_cmsis.o
 .text.LPSPIx_GetVersion
                0x000033dc       0x2c ./drivers/fsl_lpspi_cmsis.o
 .text.LPSPI_InterruptPowerControl
                0x00003408       0x98 ./drivers/fsl_lpspi_cmsis.o
 .text.LPSPI_InterruptControl
                0x000034a0      0x264 ./drivers/fsl_lpspi_cmsis.o
 .text.LPSPI4_InterruptInitialize
                0x00003704       0x24 ./drivers/fsl_lpspi_cmsis.o
 .text.LPSPI4_InterruptUninitialize
                0x00003728       0x18 ./drivers/fsl_lpspi_cmsis.o
 .text.LPSPI4_InterruptPowerControl
                0x00003740       0x24 ./drivers/fsl_lpspi_cmsis.o
 .text.LPSPI4_InterruptSend
                0x00003764       0x24 ./drivers/fsl_lpspi_cmsis.o
 .text.LPSPI4_InterruptReceive
                0x00003788       0x24 ./drivers/fsl_lpspi_cmsis.o
 .text.LPSPI4_InterruptTransfer
                0x000037ac       0x28 ./drivers/fsl_lpspi_cmsis.o
 .text.LPSPI4_InterruptGetCount
                0x000037d4       0x14 ./drivers/fsl_lpspi_cmsis.o
 .text.LPSPI4_InterruptControl
                0x000037e8       0x24 ./drivers/fsl_lpspi_cmsis.o
 .text.LPSPI4_InterruptGetStatus
                0x0000380c       0x14 ./drivers/fsl_lpspi_cmsis.o
 .text.CLOCK_ControlGate
                0x00003820       0x64 ./drivers/fsl_lpuart.o
 .text.LPUART_GetInstance
                0x00003884       0x4c ./drivers/fsl_lpuart.o
                0x00003884                LPUART_GetInstance
 .text.LPUART_Init
                0x000038d0      0x300 ./drivers/fsl_lpuart.o
                0x000038d0                LPUART_Init
 .text.LPUART_GetDefaultConfig
                0x00003bd0       0x88 ./drivers/fsl_lpuart.o
                0x00003bd0                LPUART_GetDefaultConfig
 .text.LPUART_WriteBlocking
                0x00003c58       0x58 ./drivers/fsl_lpuart.o
                0x00003c58                LPUART_WriteBlocking
 .text.LPUART1_DriverIRQHandler
                0x00003cb0       0x24 ./drivers/fsl_lpuart.o
                0x00003cb0                LPUART1_DriverIRQHandler
 .text.LPUART2_DriverIRQHandler
                0x00003cd4       0x24 ./drivers/fsl_lpuart.o
                0x00003cd4                LPUART2_DriverIRQHandler
 .text.LPUART3_DriverIRQHandler
                0x00003cf8       0x24 ./drivers/fsl_lpuart.o
                0x00003cf8                LPUART3_DriverIRQHandler
 .text.LPUART4_DriverIRQHandler
                0x00003d1c       0x24 ./drivers/fsl_lpuart.o
                0x00003d1c                LPUART4_DriverIRQHandler
 .text.LPUART5_DriverIRQHandler
                0x00003d40       0x24 ./drivers/fsl_lpuart.o
                0x00003d40                LPUART5_DriverIRQHandler
 .text.LPUART6_DriverIRQHandler
                0x00003d64       0x24 ./drivers/fsl_lpuart.o
                0x00003d64                LPUART6_DriverIRQHandler
 .text.LPUART7_DriverIRQHandler
                0x00003d88       0x24 ./drivers/fsl_lpuart.o
                0x00003d88                LPUART7_DriverIRQHandler
 .text.LPUART8_DriverIRQHandler
                0x00003dac       0x24 ./drivers/fsl_lpuart.o
                0x00003dac                LPUART8_DriverIRQHandler
 .text.SCB_EnableICache
                0x00003dd0       0x40 ./device/system_MIMXRT1062.o
 .text.SCB_EnableDCache
                0x00003e10       0x80 ./device/system_MIMXRT1062.o
 .text.SystemInit
                0x00003e90       0xf4 ./device/system_MIMXRT1062.o
                0x00003e90                SystemInit
 .text.HAL_UartInit
                0x00003f84      0x100 ./component/uart/lpuart_adapter.o
                0x00003f84                HAL_UartInit
 .text.HAL_UartSendBlocking
                0x00004084       0x64 ./component/uart/lpuart_adapter.o
                0x00004084                HAL_UartSendBlocking
 .text.SerialManager_Write
                0x000040e8       0x6c ./component/serial_manager/serial_manager.o
 .text.SerialManager_Init
                0x00004154       0x74 ./component/serial_manager/serial_manager.o
                0x00004154                SerialManager_Init
 .text.SerialManager_OpenWriteHandle
                0x000041c8       0x58 ./component/serial_manager/serial_manager.o
                0x000041c8                SerialManager_OpenWriteHandle
 .text.SerialManager_OpenReadHandle
                0x00004220       0x60 ./component/serial_manager/serial_manager.o
                0x00004220                SerialManager_OpenReadHandle
 .text.Serial_UartInit
                0x00004280       0x80 ./component/serial_manager/serial_port_uart.o
                0x00004280                Serial_UartInit
 .text.Serial_UartWrite
                0x00004300       0x58 ./component/serial_manager/serial_port_uart.o
                0x00004300                Serial_UartWrite
 .text.ARM_MPU_Enable
                0x00004358       0x3c ./board/board.o
 .text.ARM_MPU_Disable
                0x00004394       0x38 ./board/board.o
 .text.SCB_EnableICache
                0x000043cc       0x40 ./board/board.o
 .text.SCB_DisableICache
                0x0000440c       0x38 ./board/board.o
 .text.SCB_EnableDCache
                0x00004444       0x80 ./board/board.o
 .text.SCB_DisableDCache
                0x000044c4       0x68 ./board/board.o
 .text.CLOCK_GetMux
                0x0000452c       0x44 ./board/board.o
 .text.CLOCK_GetDiv
                0x00004570       0x44 ./board/board.o
 .text.CLOCK_GetOscFreq
                0x000045b4       0x30 ./board/board.o
 .text.BOARD_DebugConsoleSrcFreq
                0x000045e4       0x64 ./board/board.o
                0x000045e4                BOARD_DebugConsoleSrcFreq
 .text.BOARD_ConfigMPU
                0x00004648      0x100 ./board/board.o
                0x00004648                BOARD_ConfigMPU
 .text.CLOCK_SetMux
                0x00004748       0x9c ./board/clock_config.o
 .text.CLOCK_SetDiv
                0x000047e4       0x9c ./board/clock_config.o
 .text.CLOCK_ControlGate
                0x00004880       0x64 ./board/clock_config.o
 .text.CLOCK_SetXtalFreq
                0x000048e4       0x20 ./board/clock_config.o
 .text.CLOCK_SetRtcXtalFreq
                0x00004904       0x20 ./board/clock_config.o
 .text.IOMUXC_EnableMode
                0x00004924       0x48 ./board/clock_config.o
 .text.IOMUXC_MQSConfig
                0x0000496c       0x44 ./board/clock_config.o
 .text.BOARD_BootClockRUN
                0x000049b0      0x688 ./board/clock_config.o
                0x000049b0                BOARD_BootClockRUN
 .text.CLOCK_ControlGate
                0x00005038       0x64 ./board/pin_mux.o
 .text.BOARD_InitPins
                0x0000509c      0x234 ./board/pin_mux.o
                0x0000509c                BOARD_InitPins
 .text.__assertion_failed
                0x000052d0       0x4c c:/nxp/mcuxpressoide_11.0.1_2563/ide/plugins/com.nxp.mcuxpresso.tools.win32_11.0.1.201907311258/tools/bin/../lib/gcc/arm-none-eabi/8.2.1/../../../../arm-none-eabi/lib/thumb/v7e-m+dp/hard\libcr_nohost_nf.a(_cr_assert.o)
                0x000052d0                __assertion_failed
 .text._Cwritebuf
                0x0000531c       0x6c c:/nxp/mcuxpressoide_11.0.1_2563/ide/plugins/com.nxp.mcuxpresso.tools.win32_11.0.1.201907311258/tools/bin/../lib/gcc/arm-none-eabi/8.2.1/../../../../arm-none-eabi/lib/thumb/v7e-m+dp/hard\libcr_c.a(_writebuf.o)
                0x0000531c                _Cwritebuf
 .text.malloc   0x00005388       0xc8 c:/nxp/mcuxpressoide_11.0.1_2563/ide/plugins/com.nxp.mcuxpresso.tools.win32_11.0.1.201907311258/tools/bin/../lib/gcc/arm-none-eabi/8.2.1/../../../../arm-none-eabi/lib/thumb/v7e-m+dp/hard\libcr_c.a(alloc.o)
                0x00005388                malloc
 .text._Csys_alloc
                0x00005450       0x20 c:/nxp/mcuxpressoide_11.0.1_2563/ide/plugins/com.nxp.mcuxpresso.tools.win32_11.0.1.201907311258/tools/bin/../lib/gcc/arm-none-eabi/8.2.1/../../../../arm-none-eabi/lib/thumb/v7e-m+dp/hard\libcr_c.a(alloc.o)
                0x00005450                _Csys_alloc
 .text.fseek    0x00005470      0x100 c:/nxp/mcuxpressoide_11.0.1_2563/ide/plugins/com.nxp.mcuxpresso.tools.win32_11.0.1.201907311258/tools/bin/../lib/gcc/arm-none-eabi/8.2.1/../../../../arm-none-eabi/lib/thumb/v7e-m+dp/hard\libcr_c.a(fseek.o)
                0x00005470                fseek
 .text.ftell    0x00005570       0x48 c:/nxp/mcuxpressoide_11.0.1_2563/ide/plugins/com.nxp.mcuxpresso.tools.win32_11.0.1.201907311258/tools/bin/../lib/gcc/arm-none-eabi/8.2.1/../../../../arm-none-eabi/lib/thumb/v7e-m+dp/hard\libcr_c.a(ftell.o)
                0x00005570                ftell
 .text._initio  0x000055b8       0x78 c:/nxp/mcuxpressoide_11.0.1_2563/ide/plugins/com.nxp.mcuxpresso.tools.win32_11.0.1.201907311258/tools/bin/../lib/gcc/arm-none-eabi/8.2.1/../../../../arm-none-eabi/lib/thumb/v7e-m+dp/hard\libcr_c.a(initio.o)
                0x000055b8                _initio
 .text.setvbuf  0x00005630       0x40 c:/nxp/mcuxpressoide_11.0.1_2563/ide/plugins/com.nxp.mcuxpresso.tools.win32_11.0.1.201907311258/tools/bin/../lib/gcc/arm-none-eabi/8.2.1/../../../../arm-none-eabi/lib/thumb/v7e-m+dp/hard\libcr_c.a(setvbuf.o)
                0x00005630                setvbuf
 .text._sbrk    0x00005670       0x3c c:/nxp/mcuxpressoide_11.0.1_2563/ide/plugins/com.nxp.mcuxpresso.tools.win32_11.0.1.201907311258/tools/bin/../lib/gcc/arm-none-eabi/8.2.1/../../../../arm-none-eabi/lib/thumb/v7e-m+dp/hard\libcr_c.a(_cr_sbrk.o)
                0x00005670                _sbrk
 .text.fflush   0x000056ac       0x44 c:/nxp/mcuxpressoide_11.0.1_2563/ide/plugins/com.nxp.mcuxpresso.tools.win32_11.0.1.201907311258/tools/bin/../lib/gcc/arm-none-eabi/8.2.1/../../../../arm-none-eabi/lib/thumb/v7e-m+dp/hard\libcr_c.a(fflush.o)
                0x000056ac                fflush
 .text.__check_heap_overflow
                0x000056f0       0x18 c:/nxp/mcuxpressoide_11.0.1_2563/ide/plugins/com.nxp.mcuxpresso.tools.win32_11.0.1.201907311258/tools/bin/../lib/gcc/arm-none-eabi/8.2.1/../../../../arm-none-eabi/lib/thumb/v7e-m+dp/hard\libcr_c.a(_cr_check_heap.o)
                0x000056f0                __check_heap_overflow
 .text.DbgConsole_PrintCallback
                0x00005708       0x64 ./utilities/fsl_debug_console.o
 .text.ConvertRadixNumToString
                0x0000576c      0x114 ./utilities/fsl_str.o
 .text.StrFormatPrintf
                0x00005880      0x30c ./utilities/fsl_str.o
                0x00005880                StrFormatPrintf
 .text.DMA0_DMA16_IRQHandler
                0x00005b8c        0x8 ./startup/startup_mimxrt1062.o
                0x00005b8c                DMA0_DMA16_IRQHandler
 .text.DMA1_DMA17_IRQHandler
                0x00005b94        0x8 ./startup/startup_mimxrt1062.o
                0x00005b94                DMA1_DMA17_IRQHandler
 .text.DMA2_DMA18_IRQHandler
                0x00005b9c        0x8 ./startup/startup_mimxrt1062.o
                0x00005b9c                DMA2_DMA18_IRQHandler
 .text.DMA3_DMA19_IRQHandler
                0x00005ba4        0x8 ./startup/startup_mimxrt1062.o
                0x00005ba4                DMA3_DMA19_IRQHandler
 .text.DMA4_DMA20_IRQHandler
                0x00005bac        0x8 ./startup/startup_mimxrt1062.o
                0x00005bac                DMA4_DMA20_IRQHandler
 .text.DMA5_DMA21_IRQHandler
                0x00005bb4        0x8 ./startup/startup_mimxrt1062.o
                0x00005bb4                DMA5_DMA21_IRQHandler
 .text.DMA6_DMA22_IRQHandler
                0x00005bbc        0x8 ./startup/startup_mimxrt1062.o
                0x00005bbc                DMA6_DMA22_IRQHandler
 .text.DMA7_DMA23_IRQHandler
                0x00005bc4        0x8 ./startup/startup_mimxrt1062.o
                0x00005bc4                DMA7_DMA23_IRQHandler
 .text.DMA8_DMA24_IRQHandler
                0x00005bcc        0x8 ./startup/startup_mimxrt1062.o
                0x00005bcc                DMA8_DMA24_IRQHandler
 .text.DMA9_DMA25_IRQHandler
                0x00005bd4        0x8 ./startup/startup_mimxrt1062.o
                0x00005bd4                DMA9_DMA25_IRQHandler
 .text.DMA10_DMA26_IRQHandler
                0x00005bdc        0x8 ./startup/startup_mimxrt1062.o
                0x00005bdc                DMA10_DMA26_IRQHandler
 .text.DMA11_DMA27_IRQHandler
                0x00005be4        0x8 ./startup/startup_mimxrt1062.o
                0x00005be4                DMA11_DMA27_IRQHandler
 .text.DMA12_DMA28_IRQHandler
                0x00005bec        0x8 ./startup/startup_mimxrt1062.o
                0x00005bec                DMA12_DMA28_IRQHandler
 .text.DMA13_DMA29_IRQHandler
                0x00005bf4        0x8 ./startup/startup_mimxrt1062.o
                0x00005bf4                DMA13_DMA29_IRQHandler
 .text.DMA14_DMA30_IRQHandler
                0x00005bfc        0x8 ./startup/startup_mimxrt1062.o
                0x00005bfc                DMA14_DMA30_IRQHandler
 .text.DMA15_DMA31_IRQHandler
                0x00005c04        0x8 ./startup/startup_mimxrt1062.o
                0x00005c04                DMA15_DMA31_IRQHandler
 .text.DMA_ERROR_IRQHandler
                0x00005c0c        0x8 ./startup/startup_mimxrt1062.o
                0x00005c0c                DMA_ERROR_IRQHandler
 .text.CTI0_ERROR_IRQHandler
                0x00005c14        0x8 ./startup/startup_mimxrt1062.o
                0x00005c14                CTI0_ERROR_IRQHandler
 .text.CTI1_ERROR_IRQHandler
                0x00005c1c        0x8 ./startup/startup_mimxrt1062.o
                0x00005c1c                CTI1_ERROR_IRQHandler
 .text.CORE_IRQHandler
                0x00005c24        0x8 ./startup/startup_mimxrt1062.o
                0x00005c24                CORE_IRQHandler
 .text.LPUART1_IRQHandler
                0x00005c2c        0x8 ./startup/startup_mimxrt1062.o
                0x00005c2c                LPUART1_IRQHandler
 .text.LPUART2_IRQHandler
                0x00005c34        0x8 ./startup/startup_mimxrt1062.o
                0x00005c34                LPUART2_IRQHandler
 .text.LPUART3_IRQHandler
                0x00005c3c        0x8 ./startup/startup_mimxrt1062.o
                0x00005c3c                LPUART3_IRQHandler
 .text.LPUART4_IRQHandler
                0x00005c44        0x8 ./startup/startup_mimxrt1062.o
                0x00005c44                LPUART4_IRQHandler
 .text.LPUART5_IRQHandler
                0x00005c4c        0x8 ./startup/startup_mimxrt1062.o
                0x00005c4c                LPUART5_IRQHandler
 .text.LPUART6_IRQHandler
                0x00005c54        0x8 ./startup/startup_mimxrt1062.o
                0x00005c54                LPUART6_IRQHandler
 .text.LPUART7_IRQHandler
                0x00005c5c        0x8 ./startup/startup_mimxrt1062.o
                0x00005c5c                LPUART7_IRQHandler
 .text.LPUART8_IRQHandler
                0x00005c64        0x8 ./startup/startup_mimxrt1062.o
                0x00005c64                LPUART8_IRQHandler
 .text.LPI2C1_IRQHandler
                0x00005c6c        0x8 ./startup/startup_mimxrt1062.o
                0x00005c6c                LPI2C1_IRQHandler
 .text.LPI2C2_IRQHandler
                0x00005c74        0x8 ./startup/startup_mimxrt1062.o
                0x00005c74                LPI2C2_IRQHandler
 .text.LPI2C3_IRQHandler
                0x00005c7c        0x8 ./startup/startup_mimxrt1062.o
                0x00005c7c                LPI2C3_IRQHandler
 .text.LPI2C4_IRQHandler
                0x00005c84        0x8 ./startup/startup_mimxrt1062.o
                0x00005c84                LPI2C4_IRQHandler
 .text.LPSPI1_IRQHandler
                0x00005c8c        0x8 ./startup/startup_mimxrt1062.o
                0x00005c8c                LPSPI1_IRQHandler
 .text.LPSPI2_IRQHandler
                0x00005c94        0x8 ./startup/startup_mimxrt1062.o
                0x00005c94                LPSPI2_IRQHandler
 .text.LPSPI3_IRQHandler
                0x00005c9c        0x8 ./startup/startup_mimxrt1062.o
                0x00005c9c                LPSPI3_IRQHandler
 .text.LPSPI4_IRQHandler
                0x00005ca4        0x8 ./startup/startup_mimxrt1062.o
                0x00005ca4                LPSPI4_IRQHandler
 .text.CAN1_IRQHandler
                0x00005cac        0x8 ./startup/startup_mimxrt1062.o
                0x00005cac                CAN1_IRQHandler
 .text.CAN2_IRQHandler
                0x00005cb4        0x8 ./startup/startup_mimxrt1062.o
                0x00005cb4                CAN2_IRQHandler
 .text.FLEXRAM_IRQHandler
                0x00005cbc        0x8 ./startup/startup_mimxrt1062.o
                0x00005cbc                FLEXRAM_IRQHandler
 .text.KPP_IRQHandler
                0x00005cc4        0x8 ./startup/startup_mimxrt1062.o
                0x00005cc4                KPP_IRQHandler
 .text.TSC_DIG_IRQHandler
                0x00005ccc        0x8 ./startup/startup_mimxrt1062.o
                0x00005ccc                TSC_DIG_IRQHandler
 .text.GPR_IRQ_IRQHandler
                0x00005cd4        0x8 ./startup/startup_mimxrt1062.o
                0x00005cd4                GPR_IRQ_IRQHandler
 .text.LCDIF_IRQHandler
                0x00005cdc        0x8 ./startup/startup_mimxrt1062.o
                0x00005cdc                LCDIF_IRQHandler
 .text.CSI_IRQHandler
                0x00005ce4        0x8 ./startup/startup_mimxrt1062.o
                0x00005ce4                CSI_IRQHandler
 .text.PXP_IRQHandler
                0x00005cec        0x8 ./startup/startup_mimxrt1062.o
                0x00005cec                PXP_IRQHandler
 .text.WDOG2_IRQHandler
                0x00005cf4        0x8 ./startup/startup_mimxrt1062.o
                0x00005cf4                WDOG2_IRQHandler
 .text.SNVS_HP_WRAPPER_IRQHandler
                0x00005cfc        0x8 ./startup/startup_mimxrt1062.o
                0x00005cfc                SNVS_HP_WRAPPER_IRQHandler
 .text.SNVS_HP_WRAPPER_TZ_IRQHandler
                0x00005d04        0x8 ./startup/startup_mimxrt1062.o
                0x00005d04                SNVS_HP_WRAPPER_TZ_IRQHandler
 .text.SNVS_LP_WRAPPER_IRQHandler
                0x00005d0c        0x8 ./startup/startup_mimxrt1062.o
                0x00005d0c                SNVS_LP_WRAPPER_IRQHandler
 .text.CSU_IRQHandler
                0x00005d14        0x8 ./startup/startup_mimxrt1062.o
                0x00005d14                CSU_IRQHandler
 .text.DCP_IRQHandler
                0x00005d1c        0x8 ./startup/startup_mimxrt1062.o
                0x00005d1c                DCP_IRQHandler
 .text.DCP_VMI_IRQHandler
                0x00005d24        0x8 ./startup/startup_mimxrt1062.o
                0x00005d24                DCP_VMI_IRQHandler
 .text.Reserved68_IRQHandler
                0x00005d2c        0x8 ./startup/startup_mimxrt1062.o
                0x00005d2c                Reserved68_IRQHandler
 .text.TRNG_IRQHandler
                0x00005d34        0x8 ./startup/startup_mimxrt1062.o
                0x00005d34                TRNG_IRQHandler
 .text.SJC_IRQHandler
                0x00005d3c        0x8 ./startup/startup_mimxrt1062.o
                0x00005d3c                SJC_IRQHandler
 .text.BEE_IRQHandler
                0x00005d44        0x8 ./startup/startup_mimxrt1062.o
                0x00005d44                BEE_IRQHandler
 .text.SAI1_IRQHandler
                0x00005d4c        0x8 ./startup/startup_mimxrt1062.o
                0x00005d4c                SAI1_IRQHandler
 .text.SAI2_IRQHandler
                0x00005d54        0x8 ./startup/startup_mimxrt1062.o
                0x00005d54                SAI2_IRQHandler
 .text.SAI3_RX_IRQHandler
                0x00005d5c        0x8 ./startup/startup_mimxrt1062.o
                0x00005d5c                SAI3_RX_IRQHandler
 .text.SAI3_TX_IRQHandler
                0x00005d64        0x8 ./startup/startup_mimxrt1062.o
                0x00005d64                SAI3_TX_IRQHandler
 .text.SPDIF_IRQHandler
                0x00005d6c        0x8 ./startup/startup_mimxrt1062.o
                0x00005d6c                SPDIF_IRQHandler
 .text.PMU_EVENT_IRQHandler
                0x00005d74        0x8 ./startup/startup_mimxrt1062.o
                0x00005d74                PMU_EVENT_IRQHandler
 .text.Reserved78_IRQHandler
                0x00005d7c        0x8 ./startup/startup_mimxrt1062.o
                0x00005d7c                Reserved78_IRQHandler
 .text.TEMP_LOW_HIGH_IRQHandler
                0x00005d84        0x8 ./startup/startup_mimxrt1062.o
                0x00005d84                TEMP_LOW_HIGH_IRQHandler
 .text.TEMP_PANIC_IRQHandler
                0x00005d8c        0x8 ./startup/startup_mimxrt1062.o
                0x00005d8c                TEMP_PANIC_IRQHandler
 .text.USB_PHY1_IRQHandler
                0x00005d94        0x8 ./startup/startup_mimxrt1062.o
                0x00005d94                USB_PHY1_IRQHandler
 .text.USB_PHY2_IRQHandler
                0x00005d9c        0x8 ./startup/startup_mimxrt1062.o
                0x00005d9c                USB_PHY2_IRQHandler
 .text.ADC1_IRQHandler
                0x00005da4        0x8 ./startup/startup_mimxrt1062.o
                0x00005da4                ADC1_IRQHandler
 .text.ADC2_IRQHandler
                0x00005dac        0x8 ./startup/startup_mimxrt1062.o
                0x00005dac                ADC2_IRQHandler
 .text.DCDC_IRQHandler
                0x00005db4        0x8 ./startup/startup_mimxrt1062.o
                0x00005db4                DCDC_IRQHandler
 .text.Reserved86_IRQHandler
                0x00005dbc        0x8 ./startup/startup_mimxrt1062.o
                0x00005dbc                Reserved86_IRQHandler
 .text.Reserved87_IRQHandler
                0x00005dc4        0x8 ./startup/startup_mimxrt1062.o
                0x00005dc4                Reserved87_IRQHandler
 .text.GPIO1_INT0_IRQHandler
                0x00005dcc        0x8 ./startup/startup_mimxrt1062.o
                0x00005dcc                GPIO1_INT0_IRQHandler
 .text.GPIO1_INT1_IRQHandler
                0x00005dd4        0x8 ./startup/startup_mimxrt1062.o
                0x00005dd4                GPIO1_INT1_IRQHandler
 .text.GPIO1_INT2_IRQHandler
                0x00005ddc        0x8 ./startup/startup_mimxrt1062.o
                0x00005ddc                GPIO1_INT2_IRQHandler
 .text.GPIO1_INT3_IRQHandler
                0x00005de4        0x8 ./startup/startup_mimxrt1062.o
                0x00005de4                GPIO1_INT3_IRQHandler
 .text.GPIO1_INT4_IRQHandler
                0x00005dec        0x8 ./startup/startup_mimxrt1062.o
                0x00005dec                GPIO1_INT4_IRQHandler
 .text.GPIO1_INT5_IRQHandler
                0x00005df4        0x8 ./startup/startup_mimxrt1062.o
                0x00005df4                GPIO1_INT5_IRQHandler
 .text.GPIO1_INT6_IRQHandler
                0x00005dfc        0x8 ./startup/startup_mimxrt1062.o
                0x00005dfc                GPIO1_INT6_IRQHandler
 .text.GPIO1_INT7_IRQHandler
                0x00005e04        0x8 ./startup/startup_mimxrt1062.o
                0x00005e04                GPIO1_INT7_IRQHandler
 .text.GPIO1_Combined_0_15_IRQHandler
                0x00005e0c        0x8 ./startup/startup_mimxrt1062.o
                0x00005e0c                GPIO1_Combined_0_15_IRQHandler
 .text.GPIO1_Combined_16_31_IRQHandler
                0x00005e14        0x8 ./startup/startup_mimxrt1062.o
                0x00005e14                GPIO1_Combined_16_31_IRQHandler
 .text.GPIO2_Combined_0_15_IRQHandler
                0x00005e1c        0x8 ./startup/startup_mimxrt1062.o
                0x00005e1c                GPIO2_Combined_0_15_IRQHandler
 .text.GPIO2_Combined_16_31_IRQHandler
                0x00005e24        0x8 ./startup/startup_mimxrt1062.o
                0x00005e24                GPIO2_Combined_16_31_IRQHandler
 .text.GPIO3_Combined_0_15_IRQHandler
                0x00005e2c        0x8 ./startup/startup_mimxrt1062.o
                0x00005e2c                GPIO3_Combined_0_15_IRQHandler
 .text.GPIO3_Combined_16_31_IRQHandler
                0x00005e34        0x8 ./startup/startup_mimxrt1062.o
                0x00005e34                GPIO3_Combined_16_31_IRQHandler
 .text.GPIO4_Combined_0_15_IRQHandler
                0x00005e3c        0x8 ./startup/startup_mimxrt1062.o
                0x00005e3c                GPIO4_Combined_0_15_IRQHandler
 .text.GPIO4_Combined_16_31_IRQHandler
                0x00005e44        0x8 ./startup/startup_mimxrt1062.o
                0x00005e44                GPIO4_Combined_16_31_IRQHandler
 .text.GPIO5_Combined_0_15_IRQHandler
                0x00005e4c        0x8 ./startup/startup_mimxrt1062.o
                0x00005e4c                GPIO5_Combined_0_15_IRQHandler
 .text.GPIO5_Combined_16_31_IRQHandler
                0x00005e54        0x8 ./startup/startup_mimxrt1062.o
                0x00005e54                GPIO5_Combined_16_31_IRQHandler
 .text.FLEXIO1_IRQHandler
                0x00005e5c        0x8 ./startup/startup_mimxrt1062.o
                0x00005e5c                FLEXIO1_IRQHandler
 .text.FLEXIO2_IRQHandler
                0x00005e64        0x8 ./startup/startup_mimxrt1062.o
                0x00005e64                FLEXIO2_IRQHandler
 .text.WDOG1_IRQHandler
                0x00005e6c        0x8 ./startup/startup_mimxrt1062.o
                0x00005e6c                WDOG1_IRQHandler
 .text.RTWDOG_IRQHandler
                0x00005e74        0x8 ./startup/startup_mimxrt1062.o
                0x00005e74                RTWDOG_IRQHandler
 .text.EWM_IRQHandler
                0x00005e7c        0x8 ./startup/startup_mimxrt1062.o
                0x00005e7c                EWM_IRQHandler
 .text.CCM_1_IRQHandler
                0x00005e84        0x8 ./startup/startup_mimxrt1062.o
                0x00005e84                CCM_1_IRQHandler
 .text.CCM_2_IRQHandler
                0x00005e8c        0x8 ./startup/startup_mimxrt1062.o
                0x00005e8c                CCM_2_IRQHandler
 .text.GPC_IRQHandler
                0x00005e94        0x8 ./startup/startup_mimxrt1062.o
                0x00005e94                GPC_IRQHandler
 .text.SRC_IRQHandler
                0x00005e9c        0x8 ./startup/startup_mimxrt1062.o
                0x00005e9c                SRC_IRQHandler
 .text.Reserved115_IRQHandler
                0x00005ea4        0x8 ./startup/startup_mimxrt1062.o
                0x00005ea4                Reserved115_IRQHandler
 .text.GPT1_IRQHandler
                0x00005eac        0x8 ./startup/startup_mimxrt1062.o
                0x00005eac                GPT1_IRQHandler
 .text.GPT2_IRQHandler
                0x00005eb4        0x8 ./startup/startup_mimxrt1062.o
                0x00005eb4                GPT2_IRQHandler
 .text.PWM1_0_IRQHandler
                0x00005ebc        0x8 ./startup/startup_mimxrt1062.o
                0x00005ebc                PWM1_0_IRQHandler
 .text.PWM1_1_IRQHandler
                0x00005ec4        0x8 ./startup/startup_mimxrt1062.o
                0x00005ec4                PWM1_1_IRQHandler
 .text.PWM1_2_IRQHandler
                0x00005ecc        0x8 ./startup/startup_mimxrt1062.o
                0x00005ecc                PWM1_2_IRQHandler
 .text.PWM1_3_IRQHandler
                0x00005ed4        0x8 ./startup/startup_mimxrt1062.o
                0x00005ed4                PWM1_3_IRQHandler
 .text.PWM1_FAULT_IRQHandler
                0x00005edc        0x8 ./startup/startup_mimxrt1062.o
                0x00005edc                PWM1_FAULT_IRQHandler
 .text.FLEXSPI2_IRQHandler
                0x00005ee4        0x8 ./startup/startup_mimxrt1062.o
                0x00005ee4                FLEXSPI2_IRQHandler
 .text.FLEXSPI_IRQHandler
                0x00005eec        0x8 ./startup/startup_mimxrt1062.o
                0x00005eec                FLEXSPI_IRQHandler
 .text.SEMC_IRQHandler
                0x00005ef4        0x8 ./startup/startup_mimxrt1062.o
                0x00005ef4                SEMC_IRQHandler
 .text.USDHC1_IRQHandler
                0x00005efc        0x8 ./startup/startup_mimxrt1062.o
                0x00005efc                USDHC1_IRQHandler
 .text.USDHC2_IRQHandler
                0x00005f04        0x8 ./startup/startup_mimxrt1062.o
                0x00005f04                USDHC2_IRQHandler
 .text.USB_OTG2_IRQHandler
                0x00005f0c        0x8 ./startup/startup_mimxrt1062.o
                0x00005f0c                USB_OTG2_IRQHandler
 .text.USB_OTG1_IRQHandler
                0x00005f14        0x8 ./startup/startup_mimxrt1062.o
                0x00005f14                USB_OTG1_IRQHandler
 .text.ENET_IRQHandler
                0x00005f1c        0x8 ./startup/startup_mimxrt1062.o
                0x00005f1c                ENET_IRQHandler
 .text.ENET_1588_Timer_IRQHandler
                0x00005f24        0x8 ./startup/startup_mimxrt1062.o
                0x00005f24                ENET_1588_Timer_IRQHandler
 .text.XBAR1_IRQ_0_1_IRQHandler
                0x00005f2c        0x8 ./startup/startup_mimxrt1062.o
                0x00005f2c                XBAR1_IRQ_0_1_IRQHandler
 .text.XBAR1_IRQ_2_3_IRQHandler
                0x00005f34        0x8 ./startup/startup_mimxrt1062.o
                0x00005f34                XBAR1_IRQ_2_3_IRQHandler
 .text.ADC_ETC_IRQ0_IRQHandler
                0x00005f3c        0x8 ./startup/startup_mimxrt1062.o
                0x00005f3c                ADC_ETC_IRQ0_IRQHandler
 .text.ADC_ETC_IRQ1_IRQHandler
                0x00005f44        0x8 ./startup/startup_mimxrt1062.o
                0x00005f44                ADC_ETC_IRQ1_IRQHandler
 .text.ADC_ETC_IRQ2_IRQHandler
                0x00005f4c        0x8 ./startup/startup_mimxrt1062.o
                0x00005f4c                ADC_ETC_IRQ2_IRQHandler
 .text.ADC_ETC_ERROR_IRQ_IRQHandler
                0x00005f54        0x8 ./startup/startup_mimxrt1062.o
                0x00005f54                ADC_ETC_ERROR_IRQ_IRQHandler
 .text.PIT_IRQHandler
                0x00005f5c        0x8 ./startup/startup_mimxrt1062.o
                0x00005f5c                PIT_IRQHandler
 .text.ACMP1_IRQHandler
                0x00005f64        0x8 ./startup/startup_mimxrt1062.o
                0x00005f64                ACMP1_IRQHandler
 .text.ACMP2_IRQHandler
                0x00005f6c        0x8 ./startup/startup_mimxrt1062.o
                0x00005f6c                ACMP2_IRQHandler
 .text.ACMP3_IRQHandler
                0x00005f74        0x8 ./startup/startup_mimxrt1062.o
                0x00005f74                ACMP3_IRQHandler
 .text.ACMP4_IRQHandler
                0x00005f7c        0x8 ./startup/startup_mimxrt1062.o
                0x00005f7c                ACMP4_IRQHandler
 .text.Reserved143_IRQHandler
                0x00005f84        0x8 ./startup/startup_mimxrt1062.o
                0x00005f84                Reserved143_IRQHandler
 .text.Reserved144_IRQHandler
                0x00005f8c        0x8 ./startup/startup_mimxrt1062.o
                0x00005f8c                Reserved144_IRQHandler
 .text.ENC1_IRQHandler
                0x00005f94        0x8 ./startup/startup_mimxrt1062.o
                0x00005f94                ENC1_IRQHandler
 .text.ENC2_IRQHandler
                0x00005f9c        0x8 ./startup/startup_mimxrt1062.o
                0x00005f9c                ENC2_IRQHandler
 .text.ENC3_IRQHandler
                0x00005fa4        0x8 ./startup/startup_mimxrt1062.o
                0x00005fa4                ENC3_IRQHandler
 .text.ENC4_IRQHandler
                0x00005fac        0x8 ./startup/startup_mimxrt1062.o
                0x00005fac                ENC4_IRQHandler
 .text.TMR1_IRQHandler
                0x00005fb4        0x8 ./startup/startup_mimxrt1062.o
                0x00005fb4                TMR1_IRQHandler
 .text.TMR2_IRQHandler
                0x00005fbc        0x8 ./startup/startup_mimxrt1062.o
                0x00005fbc                TMR2_IRQHandler
 .text.TMR3_IRQHandler
                0x00005fc4        0x8 ./startup/startup_mimxrt1062.o
                0x00005fc4                TMR3_IRQHandler
 .text.TMR4_IRQHandler
                0x00005fcc        0x8 ./startup/startup_mimxrt1062.o
                0x00005fcc                TMR4_IRQHandler
 .text.PWM2_0_IRQHandler
                0x00005fd4        0x8 ./startup/startup_mimxrt1062.o
                0x00005fd4                PWM2_0_IRQHandler
 .text.PWM2_1_IRQHandler
                0x00005fdc        0x8 ./startup/startup_mimxrt1062.o
                0x00005fdc                PWM2_1_IRQHandler
 .text.PWM2_2_IRQHandler
                0x00005fe4        0x8 ./startup/startup_mimxrt1062.o
                0x00005fe4                PWM2_2_IRQHandler
 .text.PWM2_3_IRQHandler
                0x00005fec        0x8 ./startup/startup_mimxrt1062.o
                0x00005fec                PWM2_3_IRQHandler
 .text.PWM2_FAULT_IRQHandler
                0x00005ff4        0x8 ./startup/startup_mimxrt1062.o
                0x00005ff4                PWM2_FAULT_IRQHandler
 .text.PWM3_0_IRQHandler
                0x00005ffc        0x8 ./startup/startup_mimxrt1062.o
                0x00005ffc                PWM3_0_IRQHandler
 .text.PWM3_1_IRQHandler
                0x00006004        0x8 ./startup/startup_mimxrt1062.o
                0x00006004                PWM3_1_IRQHandler
 .text.PWM3_2_IRQHandler
                0x0000600c        0x8 ./startup/startup_mimxrt1062.o
                0x0000600c                PWM3_2_IRQHandler
 .text.PWM3_3_IRQHandler
                0x00006014        0x8 ./startup/startup_mimxrt1062.o
                0x00006014                PWM3_3_IRQHandler
 .text.PWM3_FAULT_IRQHandler
                0x0000601c        0x8 ./startup/startup_mimxrt1062.o
                0x0000601c                PWM3_FAULT_IRQHandler
 .text.PWM4_0_IRQHandler
                0x00006024        0x8 ./startup/startup_mimxrt1062.o
                0x00006024                PWM4_0_IRQHandler
 .text.PWM4_1_IRQHandler
                0x0000602c        0x8 ./startup/startup_mimxrt1062.o
                0x0000602c                PWM4_1_IRQHandler
 .text.PWM4_2_IRQHandler
                0x00006034        0x8 ./startup/startup_mimxrt1062.o
                0x00006034                PWM4_2_IRQHandler
 .text.PWM4_3_IRQHandler
                0x0000603c        0x8 ./startup/startup_mimxrt1062.o
                0x0000603c                PWM4_3_IRQHandler
 .text.PWM4_FAULT_IRQHandler
                0x00006044        0x8 ./startup/startup_mimxrt1062.o
                0x00006044                PWM4_FAULT_IRQHandler
 .text.ENET2_IRQHandler
                0x0000604c        0x8 ./startup/startup_mimxrt1062.o
                0x0000604c                ENET2_IRQHandler
 .text.ENET2_1588_Timer_IRQHandler
                0x00006054        0x8 ./startup/startup_mimxrt1062.o
                0x00006054                ENET2_1588_Timer_IRQHandler
 .text.CAN3_IRQHandler
                0x0000605c        0x8 ./startup/startup_mimxrt1062.o
                0x0000605c                CAN3_IRQHandler
 .text.Reserved171_IRQHandler
                0x00006064        0x8 ./startup/startup_mimxrt1062.o
                0x00006064                Reserved171_IRQHandler
 .text.FLEXIO3_IRQHandler
                0x0000606c        0x8 ./startup/startup_mimxrt1062.o
                0x0000606c                FLEXIO3_IRQHandler
 .text.GPIO6_7_8_9_IRQHandler
                0x00006074        0x8 ./startup/startup_mimxrt1062.o
                0x00006074                GPIO6_7_8_9_IRQHandler
 .text.HardFault_Handler
                0x0000607c       0x2c ./source/semihost_hardfault.o
                0x0000607c                HardFault_Handler
 .text._delay_ms
                0x000060a8       0x30 ./drivers/ethernet_lib.o
                0x000060a8                _delay_ms
 .text.CLOCK_IsPllBypassed
                0x000060d8       0x32 ./drivers/fsl_clock.o
 .text.CLOCK_IsPllEnabled
                0x0000610a       0x3c ./drivers/fsl_clock.o
 .text.CLOCK_GetPllBypassRefClk
                0x00006146       0x34 ./drivers/fsl_clock.o
 .text.CLOCK_EnableClock
                0x0000617a       0x1e ./drivers/fsl_gpio.o
 .text.GPIO_SetPinInterruptConfig
                0x00006198       0x22 ./drivers/fsl_gpio.o
 .text.CLOCK_EnableClock
                0x000061ba       0x1e ./drivers/fsl_lpspi.o
 .text.CLOCK_DisableClock
                0x000061d8       0x1e ./drivers/fsl_lpspi.o
 .text.EnableIRQ
                0x000061f6       0x2c ./drivers/fsl_lpspi.o
 .text.LPSPI_Enable
                0x00006222       0x38 ./drivers/fsl_lpspi.o
 .text.LPSPI_GetStatusFlags
                0x0000625a       0x18 ./drivers/fsl_lpspi.o
 .text.LPSPI_GetRxFifoSize
                0x00006272       0x22 ./drivers/fsl_lpspi.o
 .text.LPSPI_GetTxFifoCount
                0x00006294       0x1c ./drivers/fsl_lpspi.o
 .text.LPSPI_GetRxFifoCount
                0x000062b0       0x1e ./drivers/fsl_lpspi.o
 .text.LPSPI_ClearStatusFlags
                0x000062ce       0x1c ./drivers/fsl_lpspi.o
 .text.LPSPI_EnableInterrupts
                0x000062ea       0x22 ./drivers/fsl_lpspi.o
 .text.LPSPI_DisableInterrupts
                0x0000630c       0x24 ./drivers/fsl_lpspi.o
 .text.LPSPI_SetMasterSlaveMode
                0x00006330       0x2c ./drivers/fsl_lpspi.o
 .text.LPSPI_IsMaster
                0x0000635c       0x26 ./drivers/fsl_lpspi.o
 .text.LPSPI_FlushFifo
                0x00006382       0x30 ./drivers/fsl_lpspi.o
 .text.LPSPI_SetFifoWatermarks
                0x000063b2       0x2c ./drivers/fsl_lpspi.o
 .text.LPSPI_WriteData
                0x000063de       0x1c ./drivers/fsl_lpspi.o
 .text.LPSPI_ReadData
                0x000063fa       0x18 ./drivers/fsl_lpspi.o
 .text.LPSPI_Reset
                0x00006412       0x32 ./drivers/fsl_lpspi.o
                0x00006412                LPSPI_Reset
 .text.LPSPI_SetOnePcsPolarity
                0x00006444       0x44 ./drivers/fsl_lpspi.o
 .text.CLOCK_EnableClock
                0x00006488       0x1e ./drivers/fsl_lpspi_cmsis.o
 .text.LPSPI_Enable
                0x000064a6       0x38 ./drivers/fsl_lpspi_cmsis.o
 .text.LPSPI_SetMasterSlaveMode
                0x000064de       0x2c ./drivers/fsl_lpspi_cmsis.o
 .text.LPSPI_IsMaster
                0x0000650a       0x26 ./drivers/fsl_lpspi_cmsis.o
 .text.LPSPI_CommonControl
                0x00006530      0x2ea ./drivers/fsl_lpspi_cmsis.o
 .text.LPSPI_SetTransferConfigFlags
                0x0000681a       0xa2 ./drivers/fsl_lpspi_cmsis.o
 .text.LPSPIx_GetCapabilities
                0x000068bc       0x14 ./drivers/fsl_lpspi_cmsis.o
 .text.KSDK_LPSPI_MasterInterruptCallback
                0x000068d0       0x4a ./drivers/fsl_lpspi_cmsis.o
                0x000068d0                KSDK_LPSPI_MasterInterruptCallback
 .text.KSDK_LPSPI_SlaveInterruptCallback
                0x0000691a       0x48 ./drivers/fsl_lpspi_cmsis.o
                0x0000691a                KSDK_LPSPI_SlaveInterruptCallback
 .text.LPSPI_InterruptInitialize
                0x00006962       0x30 ./drivers/fsl_lpspi_cmsis.o
 .text.LPSPI_InterruptUninitialize
                0x00006992       0x1c ./drivers/fsl_lpspi_cmsis.o
 .text.LPSPI_InterruptSend
                0x000069ae       0xc6 ./drivers/fsl_lpspi_cmsis.o
 .text.LPSPI_InterruptReceive
                0x00006a74       0xc6 ./drivers/fsl_lpspi_cmsis.o
 .text.LPSPI_InterruptTransfer
                0x00006b3a       0xc8 ./drivers/fsl_lpspi_cmsis.o
 .text.LPSPI_InterruptGetCount
                0x00006c02       0x40 ./drivers/fsl_lpspi_cmsis.o
 .text.LPSPI_InterruptGetStatus
                0x00006c42       0xb2 ./drivers/fsl_lpspi_cmsis.o
                0x00006c42                LPSPI_InterruptGetStatus
 .text.CLOCK_EnableClock
                0x00006cf4       0x1e ./drivers/fsl_lpuart.o
 .text.LPUART_SoftwareReset
                0x00006d12       0x2c ./drivers/fsl_lpuart.o
 .text.SystemInitHook
                0x00006d3e        0xe ./device/system_MIMXRT1062.o
                0x00006d3e                SystemInitHook
 .text.HAL_UartGetStatus
                0x00006d4c       0x22 ./component/uart/lpuart_adapter.o
 .text.SerialManager_StartWriting
                0x00006d6e       0x4a ./component/serial_manager/serial_manager.o
 .text.SerialManager_WriteBlocking
                0x00006db8       0x20 ./component/serial_manager/serial_manager.o
                0x00006db8                SerialManager_WriteBlocking
 .text.BOARD_InitDebugConsole
                0x00006dd8       0x22 ./board/board.o
                0x00006dd8                BOARD_InitDebugConsole
 .text.CLOCK_DisableClock
                0x00006dfa       0x1e ./board/clock_config.o
 .text.CLOCK_SetPllBypass
                0x00006e18       0x4e ./board/clock_config.o
 .text.IOMUXC_SetSaiMClkClockSource
                0x00006e66       0x6c ./board/clock_config.o
 .text.CLOCK_EnableClock
                0x00006ed2       0x1e ./board/pin_mux.o
 .text.IOMUXC_SetPinMux
                0x00006ef0       0x3a ./board/pin_mux.o
 .text.IOMUXC_SetPinConfig
                0x00006f2a       0x26 ./board/pin_mux.o
 .text.LPSPI4_InitPins
                0x00006f50        0xe ./board/pin_mux.o
                0x00006f50                LPSPI4_InitPins
 .text.LPSPI4_DeinitPins
                0x00006f5e        0xe ./board/pin_mux.o
                0x00006f5e                LPSPI4_DeinitPins
 .text.__main   0x00006f6c        0xe c:/nxp/mcuxpressoide_11.0.1_2563/ide/plugins/com.nxp.mcuxpresso.tools.win32_11.0.1.201907311258/tools/bin/../lib/gcc/arm-none-eabi/8.2.1/../../../../arm-none-eabi/lib/thumb/v7e-m+dp/hard\libcr_nohost_nf.a(_cr__main.o)
                0x00006f6c                __main
 .text.__sys_appexit
                0x00006f7a        0x2 c:/nxp/mcuxpressoide_11.0.1_2563/ide/plugins/com.nxp.mcuxpresso.tools.win32_11.0.1.201907311258/tools/bin/../lib/gcc/arm-none-eabi/8.2.1/../../../../arm-none-eabi/lib/thumb/v7e-m+dp/hard\libcr_nohost_nf.a(__sys_appexit.o)
                0x00006f7a                __sys_appexit
                0x00006f7a                __exit
 .text.memset   0x00006f7c        0x4 c:/nxp/mcuxpressoide_11.0.1_2563/ide/plugins/com.nxp.mcuxpresso.tools.win32_11.0.1.201907311258/tools/bin/../lib/gcc/arm-none-eabi/8.2.1/../../../../arm-none-eabi/lib/thumb/v7e-m+dp/hard\libcr_c.a(memset.o)
                0x00006f7c                memset
 .text._deferredlazyseek
                0x00006f80       0x40 c:/nxp/mcuxpressoide_11.0.1_2563/ide/plugins/com.nxp.mcuxpresso.tools.win32_11.0.1.201907311258/tools/bin/../lib/gcc/arm-none-eabi/8.2.1/../../../../arm-none-eabi/lib/thumb/v7e-m+dp/hard\libcr_c.a(_deferredlazyseek.o)
                0x00006f80                _deferredlazyseek
 .text.__flsbuf
                0x00006fc0      0x140 c:/nxp/mcuxpressoide_11.0.1_2563/ide/plugins/com.nxp.mcuxpresso.tools.win32_11.0.1.201907311258/tools/bin/../lib/gcc/arm-none-eabi/8.2.1/../../../../arm-none-eabi/lib/thumb/v7e-m+dp/hard\libcr_c.a(_deferredlazyseek.o)
                0x00006fc0                __flsbuf
 .text._fflush  0x00007100       0x52 c:/nxp/mcuxpressoide_11.0.1_2563/ide/plugins/com.nxp.mcuxpresso.tools.win32_11.0.1.201907311258/tools/bin/../lib/gcc/arm-none-eabi/8.2.1/../../../../arm-none-eabi/lib/thumb/v7e-m+dp/hard\libcr_c.a(_fflush.o)
                0x00007100                _fflush
 .text.free     0x00007152       0x30 c:/nxp/mcuxpressoide_11.0.1_2563/ide/plugins/com.nxp.mcuxpresso.tools.win32_11.0.1.201907311258/tools/bin/../lib/gcc/arm-none-eabi/8.2.1/../../../../arm-none-eabi/lib/thumb/v7e-m+dp/hard\libcr_c.a(alloc.o)
                0x00007152                free
 .text.fputs    0x00007182       0x2c c:/nxp/mcuxpressoide_11.0.1_2563/ide/plugins/com.nxp.mcuxpresso.tools.win32_11.0.1.201907311258/tools/bin/../lib/gcc/arm-none-eabi/8.2.1/../../../../arm-none-eabi/lib/thumb/v7e-m+dp/hard\libcr_c.a(fputs.o)
                0x00007182                fputs
 .text.strlen   0x000071ae       0x4c c:/nxp/mcuxpressoide_11.0.1_2563/ide/plugins/com.nxp.mcuxpresso.tools.win32_11.0.1.201907311258/tools/bin/../lib/gcc/arm-none-eabi/8.2.1/../../../../arm-none-eabi/lib/thumb/v7e-m+dp/hard\libcr_c.a(strlen.o)
                0x000071ae                strlen
 .text._fdopen  0x000071fa       0x68 c:/nxp/mcuxpressoide_11.0.1_2563/ide/plugins/com.nxp.mcuxpresso.tools.win32_11.0.1.201907311258/tools/bin/../lib/gcc/arm-none-eabi/8.2.1/../../../../arm-none-eabi/lib/thumb/v7e-m+dp/hard\libcr_c.a(_fdopen.o)
                0x000071fa                _fdopen
 .text.fclose   0x00007262       0x58 c:/nxp/mcuxpressoide_11.0.1_2563/ide/plugins/com.nxp.mcuxpresso.tools.win32_11.0.1.201907311258/tools/bin/../lib/gcc/arm-none-eabi/8.2.1/../../../../arm-none-eabi/lib/thumb/v7e-m+dp/hard\libcr_c.a(fclose.o)
                0x00007262                fclose
 .text.remove   0x000072ba       0x14 c:/nxp/mcuxpressoide_11.0.1_2563/ide/plugins/com.nxp.mcuxpresso.tools.win32_11.0.1.201907311258/tools/bin/../lib/gcc/arm-none-eabi/8.2.1/../../../../arm-none-eabi/lib/thumb/v7e-m+dp/hard\libcr_c.a(remove.o)
                0x000072ba                remove
 .text._do_fflush
                0x000072ce       0x40 c:/nxp/mcuxpressoide_11.0.1_2563/ide/plugins/com.nxp.mcuxpresso.tools.win32_11.0.1.201907311258/tools/bin/../lib/gcc/arm-none-eabi/8.2.1/../../../../arm-none-eabi/lib/thumb/v7e-m+dp/hard\libcr_c.a(_do_fflush.o)
                0x000072ce                _do_fflush
 .text.__aeabi_division_uldivmod
                0x0000730e      0x174 c:/nxp/mcuxpressoide_11.0.1_2563/ide/plugins/com.nxp.mcuxpresso.tools.win32_11.0.1.201907311258/tools/bin/../lib/gcc/arm-none-eabi/8.2.1/thumb/v7e-m+dp/hard\libcr_eabihelpers.a(division_64.o)
                0x0000730e                __aeabi_uldivmod
                0x00007312                __bhs_ldivmod1
 .text.__aeabi_division_idiv0
                0x00007482        0x2 c:/nxp/mcuxpressoide_11.0.1_2563/ide/plugins/com.nxp.mcuxpresso.tools.win32_11.0.1.201907311258/tools/bin/../lib/gcc/arm-none-eabi/8.2.1/thumb/v7e-m+dp/hard\libcr_eabihelpers.a(division_idiv0.o)
                0x00007482                __aeabi_idiv0
 .text.__aeabi_memset_lowlevel
                0x00007484       0x32 c:/nxp/mcuxpressoide_11.0.1_2563/ide/plugins/com.nxp.mcuxpresso.tools.win32_11.0.1.201907311258/tools/bin/../lib/gcc/arm-none-eabi/8.2.1/thumb/v7e-m+dp/hard\libcr_eabihelpers.a(memcpy.o)
                0x00007484                __aeabi_lowlevel_memset
 .text.__sys_close
                0x000074b6        0x6 c:/nxp/mcuxpressoide_11.0.1_2563/ide/plugins/com.nxp.mcuxpresso.tools.win32_11.0.1.201907311258/tools/bin/../lib/gcc/arm-none-eabi/8.2.1/../../../../arm-none-eabi/lib/thumb/v7e-m+dp/hard\libcr_nohost_nf.a(__sys_close.o)
                0x000074b6                __sys_close
 .text.__sys_flen
                0x000074bc        0x6 c:/nxp/mcuxpressoide_11.0.1_2563/ide/plugins/com.nxp.mcuxpresso.tools.win32_11.0.1.201907311258/tools/bin/../lib/gcc/arm-none-eabi/8.2.1/../../../../arm-none-eabi/lib/thumb/v7e-m+dp/hard\libcr_nohost_nf.a(__sys_flen.o)
                0x000074bc                __sys_flen
 .text.__sys_istty
                0x000074c2        0x6 c:/nxp/mcuxpressoide_11.0.1_2563/ide/plugins/com.nxp.mcuxpresso.tools.win32_11.0.1.201907311258/tools/bin/../lib/gcc/arm-none-eabi/8.2.1/../../../../arm-none-eabi/lib/thumb/v7e-m+dp/hard\libcr_nohost_nf.a(__sys_istty.o)
                0x000074c2                __sys_istty
 .text.__sys_remove
                0x000074c8        0x6 c:/nxp/mcuxpressoide_11.0.1_2563/ide/plugins/com.nxp.mcuxpresso.tools.win32_11.0.1.201907311258/tools/bin/../lib/gcc/arm-none-eabi/8.2.1/../../../../arm-none-eabi/lib/thumb/v7e-m+dp/hard\libcr_nohost_nf.a(__sys_remove.o)
                0x000074c8                __sys_remove
 .text.__sys_seek
                0x000074ce        0x6 c:/nxp/mcuxpressoide_11.0.1_2563/ide/plugins/com.nxp.mcuxpresso.tools.win32_11.0.1.201907311258/tools/bin/../lib/gcc/arm-none-eabi/8.2.1/../../../../arm-none-eabi/lib/thumb/v7e-m+dp/hard\libcr_nohost_nf.a(__sys_seek.o)
                0x000074ce                __sys_seek
 .text.__sys_tmpnam
                0x000074d4        0x6 c:/nxp/mcuxpressoide_11.0.1_2563/ide/plugins/com.nxp.mcuxpresso.tools.win32_11.0.1.201907311258/tools/bin/../lib/gcc/arm-none-eabi/8.2.1/../../../../arm-none-eabi/lib/thumb/v7e-m+dp/hard\libcr_nohost_nf.a(__sys_tmpnam.o)
                0x000074d4                __sys_tmpnam
 .text.__sys_write
                0x000074da        0x4 c:/nxp/mcuxpressoide_11.0.1_2563/ide/plugins/com.nxp.mcuxpresso.tools.win32_11.0.1.201907311258/tools/bin/../lib/gcc/arm-none-eabi/8.2.1/../../../../arm-none-eabi/lib/thumb/v7e-m+dp/hard\libcr_nohost_nf.a(__sys_write.o)
                0x000074da                __sys_write
 *(SORT_BY_ALIGNMENT(.rodata) SORT_BY_ALIGNMENT(.rodata.*) SORT_BY_ALIGNMENT(.constdata) SORT_BY_ALIGNMENT(.constdata.*))
 *fill*         0x000074de        0x2 ff
 .rodata        0x000074e0      0x21f ./utilities/fsl_debug_console.o
 *fill*         0x000076ff        0x1 ff
 .rodata        0x00007700      0x1c2 ./source/cmsis_lpspi_int_b2b_transfer_master.o
 *fill*         0x000078c2        0x2 ff
 .rodata        0x000078c4      0x164 ./drivers/ethernet_lib.o
 .rodata        0x00007a28       0xc7 ./drivers/fsl_clock.o
 *fill*         0x00007aef        0x1 ff
 .rodata        0x00007af0      0xdb8 ./drivers/fsl_edma.o
 .rodata        0x000088a8       0x91 ./drivers/fsl_gpio.o
 *fill*         0x00008939        0x3 ff
 .rodata.s_gpioBases
                0x0000893c       0x28 ./drivers/fsl_gpio.o
 .rodata.s_gpioClock
                0x00008964        0xc ./drivers/fsl_gpio.o
 .rodata        0x00008970      0x593 ./drivers/fsl_lpspi.o
 *fill*         0x00008f03        0x1 ff
 .rodata.s_baudratePrescaler
                0x00008f04        0x8 ./drivers/fsl_lpspi.o
 .rodata.s_lpspiBases
                0x00008f0c       0x14 ./drivers/fsl_lpspi.o
 .rodata.s_lpspiIRQ
                0x00008f20        0xa ./drivers/fsl_lpspi.o
 *fill*         0x00008f2a        0x2 ff
 .rodata.s_lpspiClocks
                0x00008f2c        0xa ./drivers/fsl_lpspi.o
 *fill*         0x00008f36        0x2 ff
 .rodata        0x00008f38       0x29 ./drivers/fsl_lpspi_cmsis.o
 *fill*         0x00008f61        0x3 ff
 .rodata.s_lpspiClock
                0x00008f64        0xa ./drivers/fsl_lpspi_cmsis.o
 *fill*         0x00008f6e        0x2 ff
 .rodata.s_lpspiDriverVersion
                0x00008f70        0x4 ./drivers/fsl_lpspi_cmsis.o
 .rodata.LPSPI4_Resource
                0x00008f74        0xc ./drivers/fsl_lpspi_cmsis.o
                0x00008f74                LPSPI4_Resource
 .rodata.Driver_SPI4
                0x00008f80       0x2c ./drivers/fsl_lpspi_cmsis.o
                0x00008f80                Driver_SPI4
 .rodata        0x00008fac      0x6b2 ./drivers/fsl_lpuart.o
 *fill*         0x0000965e        0x2 ff
 .rodata.s_lpuartBases
                0x00009660       0x24 ./drivers/fsl_lpuart.o
 .rodata.s_lpuartClock
                0x00009684       0x12 ./drivers/fsl_lpuart.o
 *fill*         0x00009696        0x2 ff
 .rodata.s_LpuartAdapterBase
                0x00009698       0x24 ./component/uart/lpuart_adapter.o
 .rodata        0x000096bc      0x274 ./component/uart/lpuart_adapter.o
 .rodata        0x00009930      0x525 ./component/serial_manager/serial_manager.o
 *fill*         0x00009e55        0x3 ff
 .rodata        0x00009e58      0x244 ./component/serial_manager/serial_port_uart.o
 .rodata        0x0000a09c       0xa1 ./board/clock_config.o
 *fill*         0x0000a13d        0x3 ff
 .rodata.armPllConfig_BOARD_BootClockRUN
                0x0000a140        0x8 ./board/clock_config.o
                0x0000a140                armPllConfig_BOARD_BootClockRUN
 .rodata.sysPllConfig_BOARD_BootClockRUN
                0x0000a148       0x14 ./board/clock_config.o
                0x0000a148                sysPllConfig_BOARD_BootClockRUN
 .rodata        0x0000a15c       0x2f ./board/pin_mux.o
 *fill*         0x0000a18b        0x1 ff
 .rodata.__num_Ciob_streams
                0x0000a18c        0x4 c:/nxp/mcuxpressoide_11.0.1_2563/ide/plugins/com.nxp.mcuxpresso.tools.win32_11.0.1.201907311258/tools/bin/../lib/gcc/arm-none-eabi/8.2.1/../../../../arm-none-eabi/lib/thumb/v7e-m+dp/hard\libcr_nohost_nf.a(__ciob.o)
                0x0000a18c                __num_Ciob_streams
 .rodata.__assertion_failed.str1.1
                0x0000a190       0x15 c:/nxp/mcuxpressoide_11.0.1_2563/ide/plugins/com.nxp.mcuxpresso.tools.win32_11.0.1.201907311258/tools/bin/../lib/gcc/arm-none-eabi/8.2.1/../../../../arm-none-eabi/lib/thumb/v7e-m+dp/hard\libcr_nohost_nf.a(_cr_assert.o)
 .rodata._Csys_alloc.str1.1
                0x0000a1a5       0x18 c:/nxp/mcuxpressoide_11.0.1_2563/ide/plugins/com.nxp.mcuxpresso.tools.win32_11.0.1.201907311258/tools/bin/../lib/gcc/arm-none-eabi/8.2.1/../../../../arm-none-eabi/lib/thumb/v7e-m+dp/hard\libcr_c.a(alloc.o)
 .rodata._initio.str1.1
                0x0000a1bd        0x4 c:/nxp/mcuxpressoide_11.0.1_2563/ide/plugins/com.nxp.mcuxpresso.tools.win32_11.0.1.201907311258/tools/bin/../lib/gcc/arm-none-eabi/8.2.1/../../../../arm-none-eabi/lib/thumb/v7e-m+dp/hard\libcr_c.a(initio.o)
                0x0000a1c4                . = ALIGN (0x4)
 *fill*         0x0000a1c1        0x3 ff

.glue_7         0x0000a1c4        0x0 load address 0x6000c224
 .glue_7        0x0000a1c4        0x0 linker stubs

.glue_7t        0x0000a1c4        0x0 load address 0x6000c224
 .glue_7t       0x0000a1c4        0x0 linker stubs

.vfp11_veneer   0x0000a1c4        0x0 load address 0x6000c224
 .vfp11_veneer  0x0000a1c4        0x0 linker stubs

.v4_bx          0x0000a1c4        0x0 load address 0x6000c224
 .v4_bx         0x0000a1c4        0x0 linker stubs

.iplt           0x0000a1c4        0x0 load address 0x6000c224
 .iplt          0x0000a1c4        0x0 ./utilities/fsl_debug_console.o

.rel.dyn        0x0000a1c4        0x0 load address 0x6000c224
 .rel.iplt      0x0000a1c4        0x0 ./utilities/fsl_debug_console.o

.ARM.extab      0x0000a1c4        0x0 load address 0x6000c224
 *(SORT_BY_ALIGNMENT(.ARM.extab*) SORT_BY_ALIGNMENT(.gnu.linkonce.armextab.*))
                0x0000a1c4                __exidx_start = .

.ARM.exidx      0x0000a1c4        0x0 load address 0x6000c224
 *(SORT_BY_ALIGNMENT(.ARM.exidx*) SORT_BY_ALIGNMENT(.gnu.linkonce.armexidx.*))
                0x0000a1c4                __exidx_end = .
                0x0000a1c4                _etext = .

.data_RAM       0x0000a1c4        0x0 load address 0x6000c224
 FILL mask 0xff
                [!provide]                PROVIDE (__start_data_RAM = .)
 *(SORT_BY_ALIGNMENT(.ramfunc.$RAM))
 *(SORT_BY_ALIGNMENT(.ramfunc.$SRAM_ITC))
 *(SORT_BY_ALIGNMENT(.data.$RAM))
 *(SORT_BY_ALIGNMENT(.data.$SRAM_ITC))
 *(SORT_BY_ALIGNMENT(.data.$RAM.*))
 *(SORT_BY_ALIGNMENT(.data.$SRAM_ITC.*))
                0x0000a1c4                . = ALIGN (0x4)
                [!provide]                PROVIDE (__end_data_RAM = .)

.data_RAM3      0x20200000        0x0 load address 0x6000c224
 FILL mask 0xff
                [!provide]                PROVIDE (__start_data_RAM3 = .)
 *(SORT_BY_ALIGNMENT(.ramfunc.$RAM3))
 *(SORT_BY_ALIGNMENT(.ramfunc.$SRAM_OC))
 *(SORT_BY_ALIGNMENT(.data.$RAM3))
 *(SORT_BY_ALIGNMENT(.data.$SRAM_OC))
 *(SORT_BY_ALIGNMENT(.data.$RAM3.*))
 *(SORT_BY_ALIGNMENT(.data.$SRAM_OC.*))
                0x20200000                . = ALIGN (0x4)
                [!provide]                PROVIDE (__end_data_RAM3 = .)

.uninit_RESERVED
                0x20000000        0x0
                0x20000000                . = ALIGN (0x4)
 *(SORT_BY_ALIGNMENT(.bss.$RESERVED*))
                0x20000000                . = ALIGN (0x4)
                0x20000000                _end_uninit_RESERVED = .

.data           0x20000000       0x18 load address 0x6000c224
 FILL mask 0xff
                0x20000000                _data = .
 *(SORT_BY_ALIGNMENT(vtable))
 *(SORT_BY_ALIGNMENT(.ramfunc*))
 *(SORT_BY_ALIGNMENT(CodeQuickAccess))
 *(SORT_BY_ALIGNMENT(DataQuickAccess))
 *(SORT_BY_ALIGNMENT(RamFunction))
 *(SORT_BY_ALIGNMENT(NonCacheable.init))
 *(SORT_BY_ALIGNMENT(.data*))
 .data.LPSPI4_InterruptDriverState
                0x20000000       0x14 ./drivers/fsl_lpspi_cmsis.o
                0x20000000                LPSPI4_InterruptDriverState
 .data.SystemCoreClock
                0x20000014        0x4 ./device/system_MIMXRT1062.o
                0x20000014                SystemCoreClock
                0x20000018                . = ALIGN (0x4)
                0x20000018                _edata = .

.igot.plt       0x20000018        0x0 load address 0x6000c23c
 .igot.plt      0x20000018        0x0 ./utilities/fsl_debug_console.o

.bss_RAM        0x0000a1c4        0x0
                0x0000a1c4                . = ALIGN (0x4)
                [!provide]                PROVIDE (__start_bss_RAM = .)
 *(SORT_BY_ALIGNMENT(.bss.$RAM))
 *(SORT_BY_ALIGNMENT(.bss.$SRAM_ITC))
 *(SORT_BY_ALIGNMENT(.bss.$RAM.*))
 *(SORT_BY_ALIGNMENT(.bss.$SRAM_ITC.*))
                0x0000a1c4                . = ALIGN ((. != 0x0)?0x4:0x1)
                [!provide]                PROVIDE (__end_bss_RAM = .)

.bss_RAM3       0x20200000        0x0
                0x20200000                . = ALIGN (0x4)
                [!provide]                PROVIDE (__start_bss_RAM3 = .)
 *(SORT_BY_ALIGNMENT(.bss.$RAM3))
 *(SORT_BY_ALIGNMENT(.bss.$SRAM_OC))
 *(SORT_BY_ALIGNMENT(.bss.$RAM3.*))
 *(SORT_BY_ALIGNMENT(.bss.$SRAM_OC.*))
                0x20200000                . = ALIGN ((. != 0x0)?0x4:0x1)
                [!provide]                PROVIDE (__end_bss_RAM3 = .)

.bss            0x20000018      0x1f4
                0x20000018                . = ALIGN (0x4)
                0x20000018                _bss = .
 *(SORT_BY_ALIGNMENT(NonCacheable))
 *(SORT_BY_ALIGNMENT(.bss*))
 .bss.s_debugConsoleState
                0x20000018       0x1c ./utilities/fsl_debug_console.o
 .bss.g_serialHandle
                0x20000034        0x4 ./utilities/fsl_debug_console.o
                0x20000034                g_serialHandle
 .bss.masterRxData
                0x20000038        0x4 ./drivers/ethernet_lib.o
                0x20000038                masterRxData
 .bss.masterTxData
                0x2000003c        0x4 ./drivers/ethernet_lib.o
                0x2000003c                masterTxData
 .bss.g_xtalFreq
                0x20000040        0x4 ./drivers/fsl_clock.o
                0x20000040                g_xtalFreq
 .bss.g_rtcXtalFreq
                0x20000044        0x4 ./drivers/fsl_clock.o
                0x20000044                g_rtcXtalFreq
 .bss.s_EDMAHandle
                0x20000048       0x80 ./drivers/fsl_edma.o
 .bss.s_lpspiHandle
                0x200000c8       0x14 ./drivers/fsl_lpspi.o
 .bss.s_lpspiMasterIsr
                0x200000dc        0x4 ./drivers/fsl_lpspi.o
 .bss.s_lpspiSlaveIsr
                0x200000e0        0x4 ./drivers/fsl_lpspi.o
 .bss.g_lpspiDummyData
                0x200000e4        0x5 ./drivers/fsl_lpspi.o
                0x200000e4                g_lpspiDummyData
 *fill*         0x200000e9        0x3 
 .bss.LPSPI4_Handle
                0x200000ec       0x34 ./drivers/fsl_lpspi_cmsis.o
                0x200000ec                LPSPI4_Handle
 .bss.s_lpuartHandle
                0x20000120       0x24 ./drivers/fsl_lpuart.o
 .bss.s_lpuartIsr
                0x20000144        0x4 ./drivers/fsl_lpuart.o
 .bss.__Ciob    0x20000148       0xb4 c:/nxp/mcuxpressoide_11.0.1_2563/ide/plugins/com.nxp.mcuxpresso.tools.win32_11.0.1.201907311258/tools/bin/../lib/gcc/arm-none-eabi/8.2.1/../../../../arm-none-eabi/lib/thumb/v7e-m+dp/hard\libcr_nohost_nf.a(__ciob.o)
                0x20000148                __Ciob
 .bss.__end_of_heap
                0x200001fc        0x4 c:/nxp/mcuxpressoide_11.0.1_2563/ide/plugins/com.nxp.mcuxpresso.tools.win32_11.0.1.201907311258/tools/bin/../lib/gcc/arm-none-eabi/8.2.1/../../../../arm-none-eabi/lib/thumb/v7e-m+dp/hard\libcr_c.a(__init_alloc.o)
                0x200001fc                __end_of_heap
 .bss.__heaps   0x20000200        0x4 c:/nxp/mcuxpressoide_11.0.1_2563/ide/plugins/com.nxp.mcuxpresso.tools.win32_11.0.1.201907311258/tools/bin/../lib/gcc/arm-none-eabi/8.2.1/../../../../arm-none-eabi/lib/thumb/v7e-m+dp/hard\libcr_c.a(__init_alloc.o)
                0x20000200                __heaps
 .bss.errno     0x20000204        0x4 c:/nxp/mcuxpressoide_11.0.1_2563/ide/plugins/com.nxp.mcuxpresso.tools.win32_11.0.1.201907311258/tools/bin/../lib/gcc/arm-none-eabi/8.2.1/../../../../arm-none-eabi/lib/thumb/v7e-m+dp/hard\libcr_c.a(errno.o)
                0x20000204                errno
 .bss.i         0x20000208        0x1 ./drivers/ethernet_lib.o
                0x20000208                i
 .bss.isTransferCompleted
                0x20000209        0x1 ./drivers/ethernet_lib.o
                0x20000209                isTransferCompleted
 .bss.isMasterOnTransmit
                0x2000020a        0x1 ./drivers/ethernet_lib.o
                0x2000020a                isMasterOnTransmit
 .bss.isMasterOnReceive
                0x2000020b        0x1 ./drivers/ethernet_lib.o
                0x2000020b                isMasterOnReceive
 *(SORT_BY_ALIGNMENT(COMMON))
                0x2000020c                . = ALIGN (0x4)
                0x2000020c                _ebss = .
                [!provide]                PROVIDE (end = .)

.noinit_RAM     0x0000a1c4        0x0
                0x0000a1c4                . = ALIGN (0x4)
 *(SORT_BY_ALIGNMENT(.noinit.$RAM))
 *(SORT_BY_ALIGNMENT(.noinit.$SRAM_ITC))
 *(SORT_BY_ALIGNMENT(.noinit.$RAM.*))
 *(SORT_BY_ALIGNMENT(.noinit.$SRAM_ITC.*))
                0x0000a1c4                . = ALIGN (0x4)

.noinit_RAM3    0x20200000        0x0
                0x20200000                . = ALIGN (0x4)
 *(SORT_BY_ALIGNMENT(.noinit.$RAM3))
 *(SORT_BY_ALIGNMENT(.noinit.$SRAM_OC))
 *(SORT_BY_ALIGNMENT(.noinit.$RAM3.*))
 *(SORT_BY_ALIGNMENT(.noinit.$SRAM_OC.*))
                0x20200000                . = ALIGN (0x4)

.noinit         0x2000020c        0x0
                0x2000020c                . = ALIGN (0x4)
                0x2000020c                _noinit = .
 *(SORT_BY_ALIGNMENT(.noinit*))
                0x2000020c                . = ALIGN (0x4)
                0x2000020c                _end_noinit = .
                0x00001000                _HeapSize = 0x1000

.heap           0x2000020c     0x1000
                0x2000020c                _pvHeapStart = .
                0x2000120c                . = (. + _HeapSize)
 *fill*         0x2000020c     0x1000 
                0x2000120c                . = ALIGN (0x4)
                0x2000120c                _pvHeapLimit = .
                0x00001000                _StackSize = 0x1000

.stack          0x2000120c     0x1000
                0x2000120c                _vStackBase = .
                0x2000220c                . = (. + _StackSize)
 *fill*         0x2000120c     0x1000 
                0x2000220c                . = ALIGN (0x4)
                0x2000220c                _vStackTop = .
                0x0000a3d0                _itcm_size = (((((SIZEOF (.text) + SIZEOF (.ARM.extab)) + SIZEOF (.ARM.exidx)) + SIZEOF (.data)) + SIZEOF (.bss)) + SIZEOF (.noinit_RAM))
                0x00000000                _itcm_start = ORIGIN (SRAM_ITC)
                0x0000a3d0                _itcm_end = (_itcm_start + _itcm_size)
                0x60002060                _itcm_loadstart = LOADADDR (.text)
                0x00000002                _itcm_block_count = ((_itcm_size + 0x7ffe) >> 0xf)
                0xaaaaaaaf                _flexram_bank_config = (0xaaaaaaaa | ((0x1 << (_itcm_block_count * 0x2)) - 0x1))
                0x60002060                _image_start = LOADADDR (.text)
                0x6000c23c                _image_end = (LOADADDR (.data) + SIZEOF (.data))
                0x0000a1dc                _image_size = (_image_end - _image_start)
OUTPUT(evkmimxrt1060_cmsis_lpspi_ethernet_library.axf elf32-littlearm)

.debug_info     0x00000000    0x153d4
 .debug_info    0x00000000      0xa18 ./utilities/fsl_debug_console.o
 .debug_info    0x00000a18      0x55e ./utilities/fsl_str.o
 .debug_info    0x00000f76     0x1dc9 ./startup/startup_mimxrt1062.o
 .debug_info    0x00002d3f      0x65e ./source/cmsis_lpspi_int_b2b_transfer_master.o
 .debug_info    0x0000339d       0x3c ./source/semihost_hardfault.o
 .debug_info    0x000033d9      0x9c0 ./drivers/ethernet_lib.o
 .debug_info    0x00003d99     0x207c ./drivers/fsl_clock.o
 .debug_info    0x00005e15     0x2759 ./drivers/fsl_edma.o
 .debug_info    0x0000856e      0xcd9 ./drivers/fsl_gpio.o
 .debug_info    0x00009247     0x290d ./drivers/fsl_lpspi.o
 .debug_info    0x0000bb54     0x1d42 ./drivers/fsl_lpspi_cmsis.o
 .debug_info    0x0000d896     0x215f ./drivers/fsl_lpuart.o
 .debug_info    0x0000f9f5      0xd2a ./device/system_MIMXRT1062.o
 .debug_info    0x0001071f      0x9e4 ./component/uart/lpuart_adapter.o
 .debug_info    0x00011103      0x76c ./component/serial_manager/serial_manager.o
 .debug_info    0x0001186f      0x503 ./component/serial_manager/serial_port_uart.o
 .debug_info    0x00011d72     0x1169 ./board/board.o
 .debug_info    0x00012edb     0x18dc ./board/clock_config.o
 .debug_info    0x000147b7      0xc1d ./board/pin_mux.o

.debug_abbrev   0x00000000     0x2aca
 .debug_abbrev  0x00000000      0x1f8 ./utilities/fsl_debug_console.o
 .debug_abbrev  0x000001f8      0x1b3 ./utilities/fsl_str.o
 .debug_abbrev  0x000003ab      0x1f9 ./startup/startup_mimxrt1062.o
 .debug_abbrev  0x000005a4      0x19c ./source/cmsis_lpspi_int_b2b_transfer_master.o
 .debug_abbrev  0x00000740       0x31 ./source/semihost_hardfault.o
 .debug_abbrev  0x00000771      0x22b ./drivers/ethernet_lib.o
 .debug_abbrev  0x0000099c      0x3c1 ./drivers/fsl_clock.o
 .debug_abbrev  0x00000d5d      0x404 ./drivers/fsl_edma.o
 .debug_abbrev  0x00001161      0x255 ./drivers/fsl_gpio.o
 .debug_abbrev  0x000013b6      0x33b ./drivers/fsl_lpspi.o
 .debug_abbrev  0x000016f1      0x368 ./drivers/fsl_lpspi_cmsis.o
 .debug_abbrev  0x00001a59      0x348 ./drivers/fsl_lpuart.o
 .debug_abbrev  0x00001da1      0x19a ./device/system_MIMXRT1062.o
 .debug_abbrev  0x00001f3b      0x1b0 ./component/uart/lpuart_adapter.o
 .debug_abbrev  0x000020eb      0x17d ./component/serial_manager/serial_manager.o
 .debug_abbrev  0x00002268      0x160 ./component/serial_manager/serial_port_uart.o
 .debug_abbrev  0x000023c8      0x2e4 ./board/board.o
 .debug_abbrev  0x000026ac      0x218 ./board/clock_config.o
 .debug_abbrev  0x000028c4      0x206 ./board/pin_mux.o

.debug_aranges  0x00000000     0x1110
 .debug_aranges
                0x00000000       0x80 ./utilities/fsl_debug_console.o
 .debug_aranges
                0x00000080       0x38 ./utilities/fsl_str.o
 .debug_aranges
                0x000000b8      0x560 ./startup/startup_mimxrt1062.o
 .debug_aranges
                0x00000618       0x20 ./source/cmsis_lpspi_int_b2b_transfer_master.o
 .debug_aranges
                0x00000638       0x20 ./source/semihost_hardfault.o
 .debug_aranges
                0x00000658       0x48 ./drivers/ethernet_lib.o
 .debug_aranges
                0x000006a0      0x178 ./drivers/fsl_clock.o
 .debug_aranges
                0x00000818      0x1e0 ./drivers/fsl_edma.o
 .debug_aranges
                0x000009f8       0x50 ./drivers/fsl_gpio.o
 .debug_aranges
                0x00000a48      0x1c8 ./drivers/fsl_lpspi.o
 .debug_aranges
                0x00000c10      0x100 ./drivers/fsl_lpspi_cmsis.o
 .debug_aranges
                0x00000d10      0x160 ./drivers/fsl_lpuart.o
 .debug_aranges
                0x00000e70       0x40 ./device/system_MIMXRT1062.o
 .debug_aranges
                0x00000eb0       0x40 ./component/uart/lpuart_adapter.o
 .debug_aranges
                0x00000ef0       0x88 ./component/serial_manager/serial_manager.o
 .debug_aranges
                0x00000f78       0x38 ./component/serial_manager/serial_port_uart.o
 .debug_aranges
                0x00000fb0       0x90 ./board/board.o
 .debug_aranges
                0x00001040       0x78 ./board/clock_config.o
 .debug_aranges
                0x000010b8       0x58 ./board/pin_mux.o

.debug_ranges   0x00000000      0xfe0
 .debug_ranges  0x00000000       0x70 ./utilities/fsl_debug_console.o
 .debug_ranges  0x00000070       0x28 ./utilities/fsl_str.o
 .debug_ranges  0x00000098      0x550 ./startup/startup_mimxrt1062.o
 .debug_ranges  0x000005e8       0x10 ./source/cmsis_lpspi_int_b2b_transfer_master.o
 .debug_ranges  0x000005f8       0x10 ./source/semihost_hardfault.o
 .debug_ranges  0x00000608       0x38 ./drivers/ethernet_lib.o
 .debug_ranges  0x00000640      0x168 ./drivers/fsl_clock.o
 .debug_ranges  0x000007a8      0x1d0 ./drivers/fsl_edma.o
 .debug_ranges  0x00000978       0x40 ./drivers/fsl_gpio.o
 .debug_ranges  0x000009b8      0x1b8 ./drivers/fsl_lpspi.o
 .debug_ranges  0x00000b70       0xf0 ./drivers/fsl_lpspi_cmsis.o
 .debug_ranges  0x00000c60      0x150 ./drivers/fsl_lpuart.o
 .debug_ranges  0x00000db0       0x30 ./device/system_MIMXRT1062.o
 .debug_ranges  0x00000de0       0x30 ./component/uart/lpuart_adapter.o
 .debug_ranges  0x00000e10       0x78 ./component/serial_manager/serial_manager.o
 .debug_ranges  0x00000e88       0x28 ./component/serial_manager/serial_port_uart.o
 .debug_ranges  0x00000eb0       0x80 ./board/board.o
 .debug_ranges  0x00000f30       0x68 ./board/clock_config.o
 .debug_ranges  0x00000f98       0x48 ./board/pin_mux.o

.debug_macro    0x00000000     0x3a0f
 .debug_macro   0x00000000      0x17b ./utilities/fsl_debug_console.o
 .debug_macro   0x0000017b       0x16 ./utilities/fsl_debug_console.o
 .debug_macro   0x00000191       0x10 ./utilities/fsl_debug_console.o
 .debug_macro   0x000001a1       0x28 ./utilities/fsl_debug_console.o
 .debug_macro   0x000001c9       0x5d ./utilities/fsl_debug_console.o
 .debug_macro   0x00000226       0x34 ./utilities/fsl_debug_console.o
 .debug_macro   0x0000025a      0x122 ./utilities/fsl_str.o
 .debug_macro   0x0000037c       0xc4 ./utilities/fsl_str.o
 .debug_macro   0x00000440       0x1c ./utilities/fsl_str.o
 .debug_macro   0x0000045c       0x63 ./startup/startup_mimxrt1062.o
 .debug_macro   0x000004bf       0x66 ./startup/startup_mimxrt1062.o
 .debug_macro   0x00000525      0x1df ./source/cmsis_lpspi_int_b2b_transfer_master.o
 .debug_macro   0x00000704      0x172 ./source/cmsis_lpspi_int_b2b_transfer_master.o
 .debug_macro   0x00000876       0x34 ./source/cmsis_lpspi_int_b2b_transfer_master.o
 .debug_macro   0x000008aa      0x127 ./source/cmsis_lpspi_int_b2b_transfer_master.o
 .debug_macro   0x000009d1       0x32 ./source/cmsis_lpspi_int_b2b_transfer_master.o
 .debug_macro   0x00000a03       0x16 ./source/cmsis_lpspi_int_b2b_transfer_master.o
 .debug_macro   0x00000a19       0x10 ./source/cmsis_lpspi_int_b2b_transfer_master.o
 .debug_macro   0x00000a29       0x1c ./source/cmsis_lpspi_int_b2b_transfer_master.o
 .debug_macro   0x00000a45      0x13c ./source/cmsis_lpspi_int_b2b_transfer_master.o
 .debug_macro   0x00000b81       0x88 ./source/cmsis_lpspi_int_b2b_transfer_master.o
 .debug_macro   0x00000c09      0x19c ./source/cmsis_lpspi_int_b2b_transfer_master.o
 .debug_macro   0x00000da5       0x11 ./source/semihost_hardfault.o
 .debug_macro   0x00000db6      0x1db ./drivers/ethernet_lib.o
 .debug_macro   0x00000f91      0x103 ./drivers/fsl_clock.o
 .debug_macro   0x00001094      0x118 ./drivers/fsl_edma.o
 .debug_macro   0x000011ac       0x10 ./drivers/fsl_edma.o
 .debug_macro   0x000011bc      0x113 ./drivers/fsl_gpio.o
 .debug_macro   0x000012cf      0x112 ./drivers/fsl_lpspi.o
 .debug_macro   0x000013e1       0x2c ./drivers/fsl_lpspi.o
 .debug_macro   0x0000140d      0x17e ./drivers/fsl_lpspi_cmsis.o
 .debug_macro   0x0000158b      0x113 ./drivers/fsl_lpuart.o
 .debug_macro   0x0000169e       0xa7 ./device/system_MIMXRT1062.o
 .debug_macro   0x00001745      0x10f ./component/uart/lpuart_adapter.o
 .debug_macro   0x00001854       0x10 ./component/uart/lpuart_adapter.o
 .debug_macro   0x00001864       0x22 ./component/uart/lpuart_adapter.o
 .debug_macro   0x00001886      0x136 ./component/serial_manager/serial_manager.o
 .debug_macro   0x000019bc      0x127 ./component/serial_manager/serial_port_uart.o
 .debug_macro   0x00001ae3       0x22 ./component/serial_manager/serial_port_uart.o
 .debug_macro   0x00001b05      0x151 ./board/board.o
 .debug_macro   0x00001c56     0x1b8c ./board/board.o
 .debug_macro   0x000037e2      0x115 ./board/clock_config.o
 .debug_macro   0x000038f7      0x118 ./board/pin_mux.o

.debug_line     0x00000000     0xa824
 .debug_line    0x00000000      0x636 ./utilities/fsl_debug_console.o
 .debug_line    0x00000636      0x959 ./utilities/fsl_str.o
 .debug_line    0x00000f8f     0x1146 ./startup/startup_mimxrt1062.o
 .debug_line    0x000020d5      0x42d ./source/cmsis_lpspi_int_b2b_transfer_master.o
 .debug_line    0x00002502       0x5a ./source/semihost_hardfault.o
 .debug_line    0x0000255c      0x63b ./drivers/ethernet_lib.o
 .debug_line    0x00002b97      0xeda ./drivers/fsl_clock.o
 .debug_line    0x00003a71     0x12b3 ./drivers/fsl_edma.o
 .debug_line    0x00004d24      0x472 ./drivers/fsl_gpio.o
 .debug_line    0x00005196     0x162c ./drivers/fsl_lpspi.o
 .debug_line    0x000067c2      0xb3a ./drivers/fsl_lpspi_cmsis.o
 .debug_line    0x000072fc     0x10b8 ./drivers/fsl_lpuart.o
 .debug_line    0x000083b4      0x511 ./device/system_MIMXRT1062.o
 .debug_line    0x000088c5      0x3f6 ./component/uart/lpuart_adapter.o
 .debug_line    0x00008cbb      0x5ca ./component/serial_manager/serial_manager.o
 .debug_line    0x00009285      0x403 ./component/serial_manager/serial_port_uart.o
 .debug_line    0x00009688      0x756 ./board/board.o
 .debug_line    0x00009dde      0x649 ./board/clock_config.o
 .debug_line    0x0000a427      0x3fd ./board/pin_mux.o

.debug_str      0x00000000   0x16f42f
 .debug_str     0x00000000   0x14fa04 ./utilities/fsl_debug_console.o
                             0x14fb3b (size before relaxing)
 .debug_str     0x0014fa04      0x6c9 ./utilities/fsl_str.o
                             0x14eeb1 (size before relaxing)
 .debug_str     0x001500cd     0x1b63 ./startup/startup_mimxrt1062.o
                               0x620c (size before relaxing)
 .debug_str     0x00151c30     0x3e90 ./source/cmsis_lpspi_int_b2b_transfer_master.o
                             0x152825 (size before relaxing)
 .debug_str     0x00155ac0       0x1f ./source/semihost_hardfault.o
                               0x2f13 (size before relaxing)
 .debug_str     0x00155adf       0xec ./drivers/ethernet_lib.o
                             0x1530df (size before relaxing)
 .debug_str     0x00155bcb     0x10cb ./drivers/fsl_clock.o
                             0x14ff83 (size before relaxing)
 .debug_str     0x00156c96     0x215b ./drivers/fsl_edma.o
                             0x1511a3 (size before relaxing)
 .debug_str     0x00158df1      0x1e7 ./drivers/fsl_gpio.o
                             0x14f795 (size before relaxing)
 .debug_str     0x00158fd8     0x1164 ./drivers/fsl_lpspi.o
                             0x151272 (size before relaxing)
 .debug_str     0x0015a13c      0x460 ./drivers/fsl_lpspi_cmsis.o
                             0x151982 (size before relaxing)
 .debug_str     0x0015a59c     0x102b ./drivers/fsl_lpuart.o
                             0x1510b3 (size before relaxing)
 .debug_str     0x0015b5c7      0x204 ./device/system_MIMXRT1062.o
                             0x14d1fe (size before relaxing)
 .debug_str     0x0015b7cb      0x337 ./component/uart/lpuart_adapter.o
                             0x14f5af (size before relaxing)
 .debug_str     0x0015bb02      0x388 ./component/serial_manager/serial_manager.o
                             0x14ed75 (size before relaxing)
 .debug_str     0x0015be8a       0xfc ./component/serial_manager/serial_port_uart.o
                             0x14ee23 (size before relaxing)
 .debug_str     0x0015bf86    0x12fba ./board/board.o
                             0x163cf3 (size before relaxing)
 .debug_str     0x0016ef40      0x449 ./board/clock_config.o
                             0x1635f9 (size before relaxing)
 .debug_str     0x0016f389       0xa6 ./board/pin_mux.o
                             0x161e58 (size before relaxing)

.comment        0x00000000       0x75
 .comment       0x00000000       0x75 ./utilities/fsl_debug_console.o
                                 0x76 (size before relaxing)
 .comment       0x00000075       0x76 ./utilities/fsl_str.o
 .comment       0x00000075       0x76 ./startup/startup_mimxrt1062.o
 .comment       0x00000075       0x76 ./source/cmsis_lpspi_int_b2b_transfer_master.o
 .comment       0x00000075       0x76 ./source/semihost_hardfault.o
 .comment       0x00000075       0x76 ./drivers/ethernet_lib.o
 .comment       0x00000075       0x76 ./drivers/fsl_clock.o
 .comment       0x00000075       0x76 ./drivers/fsl_edma.o
 .comment       0x00000075       0x76 ./drivers/fsl_gpio.o
 .comment       0x00000075       0x76 ./drivers/fsl_lpspi.o
 .comment       0x00000075       0x76 ./drivers/fsl_lpspi_cmsis.o
 .comment       0x00000075       0x76 ./drivers/fsl_lpuart.o
 .comment       0x00000075       0x76 ./device/system_MIMXRT1062.o
 .comment       0x00000075       0x76 ./component/uart/lpuart_adapter.o
 .comment       0x00000075       0x76 ./component/serial_manager/serial_manager.o
 .comment       0x00000075       0x76 ./component/serial_manager/serial_port_uart.o
 .comment       0x00000075       0x76 ./board/board.o
 .comment       0x00000075       0x76 ./board/clock_config.o
 .comment       0x00000075       0x76 ./board/pin_mux.o
 .comment       0x00000075       0x76 c:/nxp/mcuxpressoide_11.0.1_2563/ide/plugins/com.nxp.mcuxpresso.tools.win32_11.0.1.201907311258/tools/bin/../lib/gcc/arm-none-eabi/8.2.1/../../../../arm-none-eabi/lib/thumb/v7e-m+dp/hard\libcr_nohost_nf.a(_cr__main.o)
 .comment       0x00000075       0x76 c:/nxp/mcuxpressoide_11.0.1_2563/ide/plugins/com.nxp.mcuxpresso.tools.win32_11.0.1.201907311258/tools/bin/../lib/gcc/arm-none-eabi/8.2.1/../../../../arm-none-eabi/lib/thumb/v7e-m+dp/hard\libcr_nohost_nf.a(_cr_assert.o)
 .comment       0x00000075       0x76 c:/nxp/mcuxpressoide_11.0.1_2563/ide/plugins/com.nxp.mcuxpresso.tools.win32_11.0.1.201907311258/tools/bin/../lib/gcc/arm-none-eabi/8.2.1/../../../../arm-none-eabi/lib/thumb/v7e-m+dp/hard\libcr_nohost_nf.a(__ciob.o)
 .comment       0x00000075       0x76 c:/nxp/mcuxpressoide_11.0.1_2563/ide/plugins/com.nxp.mcuxpresso.tools.win32_11.0.1.201907311258/tools/bin/../lib/gcc/arm-none-eabi/8.2.1/../../../../arm-none-eabi/lib/thumb/v7e-m+dp/hard\libcr_nohost_nf.a(__sys_appexit.o)
 .comment       0x00000075       0x76 c:/nxp/mcuxpressoide_11.0.1_2563/ide/plugins/com.nxp.mcuxpresso.tools.win32_11.0.1.201907311258/tools/bin/../lib/gcc/arm-none-eabi/8.2.1/../../../../arm-none-eabi/lib/thumb/v7e-m+dp/hard\libcr_c.a(memset.o)
 .comment       0x00000075       0x76 c:/nxp/mcuxpressoide_11.0.1_2563/ide/plugins/com.nxp.mcuxpresso.tools.win32_11.0.1.201907311258/tools/bin/../lib/gcc/arm-none-eabi/8.2.1/../../../../arm-none-eabi/lib/thumb/v7e-m+dp/hard\libcr_c.a(_deferredlazyseek.o)
 .comment       0x00000075       0x76 c:/nxp/mcuxpressoide_11.0.1_2563/ide/plugins/com.nxp.mcuxpresso.tools.win32_11.0.1.201907311258/tools/bin/../lib/gcc/arm-none-eabi/8.2.1/../../../../arm-none-eabi/lib/thumb/v7e-m+dp/hard\libcr_c.a(_fflush.o)
 .comment       0x00000075       0x76 c:/nxp/mcuxpressoide_11.0.1_2563/ide/plugins/com.nxp.mcuxpresso.tools.win32_11.0.1.201907311258/tools/bin/../lib/gcc/arm-none-eabi/8.2.1/../../../../arm-none-eabi/lib/thumb/v7e-m+dp/hard\libcr_c.a(_writebuf.o)
 .comment       0x00000075       0x76 c:/nxp/mcuxpressoide_11.0.1_2563/ide/plugins/com.nxp.mcuxpresso.tools.win32_11.0.1.201907311258/tools/bin/../lib/gcc/arm-none-eabi/8.2.1/../../../../arm-none-eabi/lib/thumb/v7e-m+dp/hard\libcr_c.a(alloc.o)
 .comment       0x00000075       0x76 c:/nxp/mcuxpressoide_11.0.1_2563/ide/plugins/com.nxp.mcuxpresso.tools.win32_11.0.1.201907311258/tools/bin/../lib/gcc/arm-none-eabi/8.2.1/../../../../arm-none-eabi/lib/thumb/v7e-m+dp/hard\libcr_c.a(fputs.o)
 .comment       0x00000075       0x76 c:/nxp/mcuxpressoide_11.0.1_2563/ide/plugins/com.nxp.mcuxpresso.tools.win32_11.0.1.201907311258/tools/bin/../lib/gcc/arm-none-eabi/8.2.1/../../../../arm-none-eabi/lib/thumb/v7e-m+dp/hard\libcr_c.a(fseek.o)
 .comment       0x00000075       0x76 c:/nxp/mcuxpressoide_11.0.1_2563/ide/plugins/com.nxp.mcuxpresso.tools.win32_11.0.1.201907311258/tools/bin/../lib/gcc/arm-none-eabi/8.2.1/../../../../arm-none-eabi/lib/thumb/v7e-m+dp/hard\libcr_c.a(ftell.o)
 .comment       0x00000075       0x76 c:/nxp/mcuxpressoide_11.0.1_2563/ide/plugins/com.nxp.mcuxpresso.tools.win32_11.0.1.201907311258/tools/bin/../lib/gcc/arm-none-eabi/8.2.1/../../../../arm-none-eabi/lib/thumb/v7e-m+dp/hard\libcr_c.a(initio.o)
 .comment       0x00000075       0x76 c:/nxp/mcuxpressoide_11.0.1_2563/ide/plugins/com.nxp.mcuxpresso.tools.win32_11.0.1.201907311258/tools/bin/../lib/gcc/arm-none-eabi/8.2.1/../../../../arm-none-eabi/lib/thumb/v7e-m+dp/hard\libcr_c.a(setvbuf.o)
 .comment       0x00000075       0x76 c:/nxp/mcuxpressoide_11.0.1_2563/ide/plugins/com.nxp.mcuxpresso.tools.win32_11.0.1.201907311258/tools/bin/../lib/gcc/arm-none-eabi/8.2.1/../../../../arm-none-eabi/lib/thumb/v7e-m+dp/hard\libcr_c.a(strlen.o)
 .comment       0x00000075       0x76 c:/nxp/mcuxpressoide_11.0.1_2563/ide/plugins/com.nxp.mcuxpresso.tools.win32_11.0.1.201907311258/tools/bin/../lib/gcc/arm-none-eabi/8.2.1/../../../../arm-none-eabi/lib/thumb/v7e-m+dp/hard\libcr_c.a(__init_alloc.o)
 .comment       0x00000075       0x76 c:/nxp/mcuxpressoide_11.0.1_2563/ide/plugins/com.nxp.mcuxpresso.tools.win32_11.0.1.201907311258/tools/bin/../lib/gcc/arm-none-eabi/8.2.1/../../../../arm-none-eabi/lib/thumb/v7e-m+dp/hard\libcr_c.a(_cr_sbrk.o)
 .comment       0x00000075       0x76 c:/nxp/mcuxpressoide_11.0.1_2563/ide/plugins/com.nxp.mcuxpresso.tools.win32_11.0.1.201907311258/tools/bin/../lib/gcc/arm-none-eabi/8.2.1/../../../../arm-none-eabi/lib/thumb/v7e-m+dp/hard\libcr_c.a(_fdopen.o)
 .comment       0x00000075       0x76 c:/nxp/mcuxpressoide_11.0.1_2563/ide/plugins/com.nxp.mcuxpresso.tools.win32_11.0.1.201907311258/tools/bin/../lib/gcc/arm-none-eabi/8.2.1/../../../../arm-none-eabi/lib/thumb/v7e-m+dp/hard\libcr_c.a(errno.o)
 .comment       0x00000075       0x76 c:/nxp/mcuxpressoide_11.0.1_2563/ide/plugins/com.nxp.mcuxpresso.tools.win32_11.0.1.201907311258/tools/bin/../lib/gcc/arm-none-eabi/8.2.1/../../../../arm-none-eabi/lib/thumb/v7e-m+dp/hard\libcr_c.a(fclose.o)
 .comment       0x00000075       0x76 c:/nxp/mcuxpressoide_11.0.1_2563/ide/plugins/com.nxp.mcuxpresso.tools.win32_11.0.1.201907311258/tools/bin/../lib/gcc/arm-none-eabi/8.2.1/../../../../arm-none-eabi/lib/thumb/v7e-m+dp/hard\libcr_c.a(fflush.o)
 .comment       0x00000075       0x76 c:/nxp/mcuxpressoide_11.0.1_2563/ide/plugins/com.nxp.mcuxpresso.tools.win32_11.0.1.201907311258/tools/bin/../lib/gcc/arm-none-eabi/8.2.1/../../../../arm-none-eabi/lib/thumb/v7e-m+dp/hard\libcr_c.a(remove.o)
 .comment       0x00000075       0x76 c:/nxp/mcuxpressoide_11.0.1_2563/ide/plugins/com.nxp.mcuxpresso.tools.win32_11.0.1.201907311258/tools/bin/../lib/gcc/arm-none-eabi/8.2.1/../../../../arm-none-eabi/lib/thumb/v7e-m+dp/hard\libcr_c.a(_cr_check_heap.o)
 .comment       0x00000075       0x76 c:/nxp/mcuxpressoide_11.0.1_2563/ide/plugins/com.nxp.mcuxpresso.tools.win32_11.0.1.201907311258/tools/bin/../lib/gcc/arm-none-eabi/8.2.1/../../../../arm-none-eabi/lib/thumb/v7e-m+dp/hard\libcr_c.a(_do_fflush.o)
 .comment       0x00000075       0x76 c:/nxp/mcuxpressoide_11.0.1_2563/ide/plugins/com.nxp.mcuxpresso.tools.win32_11.0.1.201907311258/tools/bin/../lib/gcc/arm-none-eabi/8.2.1/../../../../arm-none-eabi/lib/thumb/v7e-m+dp/hard\libcr_nohost_nf.a(__sys_close.o)
 .comment       0x00000075       0x76 c:/nxp/mcuxpressoide_11.0.1_2563/ide/plugins/com.nxp.mcuxpresso.tools.win32_11.0.1.201907311258/tools/bin/../lib/gcc/arm-none-eabi/8.2.1/../../../../arm-none-eabi/lib/thumb/v7e-m+dp/hard\libcr_nohost_nf.a(__sys_flen.o)
 .comment       0x00000075       0x76 c:/nxp/mcuxpressoide_11.0.1_2563/ide/plugins/com.nxp.mcuxpresso.tools.win32_11.0.1.201907311258/tools/bin/../lib/gcc/arm-none-eabi/8.2.1/../../../../arm-none-eabi/lib/thumb/v7e-m+dp/hard\libcr_nohost_nf.a(__sys_istty.o)
 .comment       0x00000075       0x76 c:/nxp/mcuxpressoide_11.0.1_2563/ide/plugins/com.nxp.mcuxpresso.tools.win32_11.0.1.201907311258/tools/bin/../lib/gcc/arm-none-eabi/8.2.1/../../../../arm-none-eabi/lib/thumb/v7e-m+dp/hard\libcr_nohost_nf.a(__sys_remove.o)
 .comment       0x00000075       0x76 c:/nxp/mcuxpressoide_11.0.1_2563/ide/plugins/com.nxp.mcuxpresso.tools.win32_11.0.1.201907311258/tools/bin/../lib/gcc/arm-none-eabi/8.2.1/../../../../arm-none-eabi/lib/thumb/v7e-m+dp/hard\libcr_nohost_nf.a(__sys_seek.o)
 .comment       0x00000075       0x76 c:/nxp/mcuxpressoide_11.0.1_2563/ide/plugins/com.nxp.mcuxpresso.tools.win32_11.0.1.201907311258/tools/bin/../lib/gcc/arm-none-eabi/8.2.1/../../../../arm-none-eabi/lib/thumb/v7e-m+dp/hard\libcr_nohost_nf.a(__sys_tmpnam.o)
 .comment       0x00000075       0x76 c:/nxp/mcuxpressoide_11.0.1_2563/ide/plugins/com.nxp.mcuxpresso.tools.win32_11.0.1.201907311258/tools/bin/../lib/gcc/arm-none-eabi/8.2.1/../../../../arm-none-eabi/lib/thumb/v7e-m+dp/hard\libcr_nohost_nf.a(__sys_write.o)

.ARM.attributes
                0x00000000       0x35
 .ARM.attributes
                0x00000000       0x32 ./utilities/fsl_debug_console.o
 .ARM.attributes
                0x00000032       0x32 ./utilities/fsl_str.o
 .ARM.attributes
                0x00000064       0x32 ./startup/startup_mimxrt1062.o
 .ARM.attributes
                0x00000096       0x32 ./source/cmsis_lpspi_int_b2b_transfer_master.o
 .ARM.attributes
                0x000000c8       0x32 ./source/semihost_hardfault.o
 .ARM.attributes
                0x000000fa       0x32 ./drivers/ethernet_lib.o
 .ARM.attributes
                0x0000012c       0x32 ./drivers/fsl_clock.o
 .ARM.attributes
                0x0000015e       0x32 ./drivers/fsl_edma.o
 .ARM.attributes
                0x00000190       0x32 ./drivers/fsl_gpio.o
 .ARM.attributes
                0x000001c2       0x32 ./drivers/fsl_lpspi.o
 .ARM.attributes
                0x000001f4       0x32 ./drivers/fsl_lpspi_cmsis.o
 .ARM.attributes
                0x00000226       0x32 ./drivers/fsl_lpuart.o
 .ARM.attributes
                0x00000258       0x32 ./device/system_MIMXRT1062.o
 .ARM.attributes
                0x0000028a       0x32 ./component/uart/lpuart_adapter.o
 .ARM.attributes
                0x000002bc       0x32 ./component/serial_manager/serial_manager.o
 .ARM.attributes
                0x000002ee       0x32 ./component/serial_manager/serial_port_uart.o
 .ARM.attributes
                0x00000320       0x32 ./board/board.o
 .ARM.attributes
                0x00000352       0x32 ./board/clock_config.o
 .ARM.attributes
                0x00000384       0x32 ./board/pin_mux.o
 .ARM.attributes
                0x000003b6       0x32 c:/nxp/mcuxpressoide_11.0.1_2563/ide/plugins/com.nxp.mcuxpresso.tools.win32_11.0.1.201907311258/tools/bin/../lib/gcc/arm-none-eabi/8.2.1/../../../../arm-none-eabi/lib/thumb/v7e-m+dp/hard\libcr_nohost_nf.a(_cr__main.o)
 .ARM.attributes
                0x000003e8       0x32 c:/nxp/mcuxpressoide_11.0.1_2563/ide/plugins/com.nxp.mcuxpresso.tools.win32_11.0.1.201907311258/tools/bin/../lib/gcc/arm-none-eabi/8.2.1/../../../../arm-none-eabi/lib/thumb/v7e-m+dp/hard\libcr_nohost_nf.a(_cr_assert.o)
 .ARM.attributes
                0x0000041a       0x37 c:/nxp/mcuxpressoide_11.0.1_2563/ide/plugins/com.nxp.mcuxpresso.tools.win32_11.0.1.201907311258/tools/bin/../lib/gcc/arm-none-eabi/8.2.1/../../../../arm-none-eabi/lib/thumb/v7e-m+dp/hard\libcr_nohost_nf.a(__ciob.o)
 .ARM.attributes
                0x00000451       0x32 c:/nxp/mcuxpressoide_11.0.1_2563/ide/plugins/com.nxp.mcuxpresso.tools.win32_11.0.1.201907311258/tools/bin/../lib/gcc/arm-none-eabi/8.2.1/../../../../arm-none-eabi/lib/thumb/v7e-m+dp/hard\libcr_nohost_nf.a(__sys_appexit.o)
 .ARM.attributes
                0x00000483       0x32 c:/nxp/mcuxpressoide_11.0.1_2563/ide/plugins/com.nxp.mcuxpresso.tools.win32_11.0.1.201907311258/tools/bin/../lib/gcc/arm-none-eabi/8.2.1/../../../../arm-none-eabi/lib/thumb/v7e-m+dp/hard\libcr_c.a(memset.o)
 .ARM.attributes
                0x000004b5       0x32 c:/nxp/mcuxpressoide_11.0.1_2563/ide/plugins/com.nxp.mcuxpresso.tools.win32_11.0.1.201907311258/tools/bin/../lib/gcc/arm-none-eabi/8.2.1/../../../../arm-none-eabi/lib/thumb/v7e-m+dp/hard\libcr_c.a(_deferredlazyseek.o)
 .ARM.attributes
                0x000004e7       0x32 c:/nxp/mcuxpressoide_11.0.1_2563/ide/plugins/com.nxp.mcuxpresso.tools.win32_11.0.1.201907311258/tools/bin/../lib/gcc/arm-none-eabi/8.2.1/../../../../arm-none-eabi/lib/thumb/v7e-m+dp/hard\libcr_c.a(_fflush.o)
 .ARM.attributes
                0x00000519       0x32 c:/nxp/mcuxpressoide_11.0.1_2563/ide/plugins/com.nxp.mcuxpresso.tools.win32_11.0.1.201907311258/tools/bin/../lib/gcc/arm-none-eabi/8.2.1/../../../../arm-none-eabi/lib/thumb/v7e-m+dp/hard\libcr_c.a(_writebuf.o)
 .ARM.attributes
                0x0000054b       0x32 c:/nxp/mcuxpressoide_11.0.1_2563/ide/plugins/com.nxp.mcuxpresso.tools.win32_11.0.1.201907311258/tools/bin/../lib/gcc/arm-none-eabi/8.2.1/../../../../arm-none-eabi/lib/thumb/v7e-m+dp/hard\libcr_c.a(alloc.o)
 .ARM.attributes
                0x0000057d       0x32 c:/nxp/mcuxpressoide_11.0.1_2563/ide/plugins/com.nxp.mcuxpresso.tools.win32_11.0.1.201907311258/tools/bin/../lib/gcc/arm-none-eabi/8.2.1/../../../../arm-none-eabi/lib/thumb/v7e-m+dp/hard\libcr_c.a(fputs.o)
 .ARM.attributes
                0x000005af       0x32 c:/nxp/mcuxpressoide_11.0.1_2563/ide/plugins/com.nxp.mcuxpresso.tools.win32_11.0.1.201907311258/tools/bin/../lib/gcc/arm-none-eabi/8.2.1/../../../../arm-none-eabi/lib/thumb/v7e-m+dp/hard\libcr_c.a(fseek.o)
 .ARM.attributes
                0x000005e1       0x32 c:/nxp/mcuxpressoide_11.0.1_2563/ide/plugins/com.nxp.mcuxpresso.tools.win32_11.0.1.201907311258/tools/bin/../lib/gcc/arm-none-eabi/8.2.1/../../../../arm-none-eabi/lib/thumb/v7e-m+dp/hard\libcr_c.a(ftell.o)
 .ARM.attributes
                0x00000613       0x32 c:/nxp/mcuxpressoide_11.0.1_2563/ide/plugins/com.nxp.mcuxpresso.tools.win32_11.0.1.201907311258/tools/bin/../lib/gcc/arm-none-eabi/8.2.1/../../../../arm-none-eabi/lib/thumb/v7e-m+dp/hard\libcr_c.a(initio.o)
 .ARM.attributes
                0x00000645       0x32 c:/nxp/mcuxpressoide_11.0.1_2563/ide/plugins/com.nxp.mcuxpresso.tools.win32_11.0.1.201907311258/tools/bin/../lib/gcc/arm-none-eabi/8.2.1/../../../../arm-none-eabi/lib/thumb/v7e-m+dp/hard\libcr_c.a(setvbuf.o)
 .ARM.attributes
                0x00000677       0x32 c:/nxp/mcuxpressoide_11.0.1_2563/ide/plugins/com.nxp.mcuxpresso.tools.win32_11.0.1.201907311258/tools/bin/../lib/gcc/arm-none-eabi/8.2.1/../../../../arm-none-eabi/lib/thumb/v7e-m+dp/hard\libcr_c.a(strlen.o)
 .ARM.attributes
                0x000006a9       0x32 c:/nxp/mcuxpressoide_11.0.1_2563/ide/plugins/com.nxp.mcuxpresso.tools.win32_11.0.1.201907311258/tools/bin/../lib/gcc/arm-none-eabi/8.2.1/../../../../arm-none-eabi/lib/thumb/v7e-m+dp/hard\libcr_c.a(__init_alloc.o)
 .ARM.attributes
                0x000006db       0x32 c:/nxp/mcuxpressoide_11.0.1_2563/ide/plugins/com.nxp.mcuxpresso.tools.win32_11.0.1.201907311258/tools/bin/../lib/gcc/arm-none-eabi/8.2.1/../../../../arm-none-eabi/lib/thumb/v7e-m+dp/hard\libcr_c.a(_cr_sbrk.o)
 .ARM.attributes
                0x0000070d       0x32 c:/nxp/mcuxpressoide_11.0.1_2563/ide/plugins/com.nxp.mcuxpresso.tools.win32_11.0.1.201907311258/tools/bin/../lib/gcc/arm-none-eabi/8.2.1/../../../../arm-none-eabi/lib/thumb/v7e-m+dp/hard\libcr_c.a(_fdopen.o)
 .ARM.attributes
                0x0000073f       0x37 c:/nxp/mcuxpressoide_11.0.1_2563/ide/plugins/com.nxp.mcuxpresso.tools.win32_11.0.1.201907311258/tools/bin/../lib/gcc/arm-none-eabi/8.2.1/../../../../arm-none-eabi/lib/thumb/v7e-m+dp/hard\libcr_c.a(errno.o)
 .ARM.attributes
                0x00000776       0x32 c:/nxp/mcuxpressoide_11.0.1_2563/ide/plugins/com.nxp.mcuxpresso.tools.win32_11.0.1.201907311258/tools/bin/../lib/gcc/arm-none-eabi/8.2.1/../../../../arm-none-eabi/lib/thumb/v7e-m+dp/hard\libcr_c.a(fclose.o)
 .ARM.attributes
                0x000007a8       0x32 c:/nxp/mcuxpressoide_11.0.1_2563/ide/plugins/com.nxp.mcuxpresso.tools.win32_11.0.1.201907311258/tools/bin/../lib/gcc/arm-none-eabi/8.2.1/../../../../arm-none-eabi/lib/thumb/v7e-m+dp/hard\libcr_c.a(fflush.o)
 .ARM.attributes
                0x000007da       0x32 c:/nxp/mcuxpressoide_11.0.1_2563/ide/plugins/com.nxp.mcuxpresso.tools.win32_11.0.1.201907311258/tools/bin/../lib/gcc/arm-none-eabi/8.2.1/../../../../arm-none-eabi/lib/thumb/v7e-m+dp/hard\libcr_c.a(remove.o)
 .ARM.attributes
                0x0000080c       0x32 c:/nxp/mcuxpressoide_11.0.1_2563/ide/plugins/com.nxp.mcuxpresso.tools.win32_11.0.1.201907311258/tools/bin/../lib/gcc/arm-none-eabi/8.2.1/../../../../arm-none-eabi/lib/thumb/v7e-m+dp/hard\libcr_c.a(_cr_check_heap.o)
 .ARM.attributes
                0x0000083e       0x32 c:/nxp/mcuxpressoide_11.0.1_2563/ide/plugins/com.nxp.mcuxpresso.tools.win32_11.0.1.201907311258/tools/bin/../lib/gcc/arm-none-eabi/8.2.1/../../../../arm-none-eabi/lib/thumb/v7e-m+dp/hard\libcr_c.a(_do_fflush.o)
 .ARM.attributes
                0x00000870       0x1e c:/nxp/mcuxpressoide_11.0.1_2563/ide/plugins/com.nxp.mcuxpresso.tools.win32_11.0.1.201907311258/tools/bin/../lib/gcc/arm-none-eabi/8.2.1/thumb/v7e-m+dp/hard\libcr_eabihelpers.a(division_64.o)
 .ARM.attributes
                0x0000088e       0x1e c:/nxp/mcuxpressoide_11.0.1_2563/ide/plugins/com.nxp.mcuxpresso.tools.win32_11.0.1.201907311258/tools/bin/../lib/gcc/arm-none-eabi/8.2.1/thumb/v7e-m+dp/hard\libcr_eabihelpers.a(division_idiv0.o)
 .ARM.attributes
                0x000008ac       0x1e c:/nxp/mcuxpressoide_11.0.1_2563/ide/plugins/com.nxp.mcuxpresso.tools.win32_11.0.1.201907311258/tools/bin/../lib/gcc/arm-none-eabi/8.2.1/thumb/v7e-m+dp/hard\libcr_eabihelpers.a(memcpy.o)
 .ARM.attributes
                0x000008ca       0x32 c:/nxp/mcuxpressoide_11.0.1_2563/ide/plugins/com.nxp.mcuxpresso.tools.win32_11.0.1.201907311258/tools/bin/../lib/gcc/arm-none-eabi/8.2.1/../../../../arm-none-eabi/lib/thumb/v7e-m+dp/hard\libcr_nohost_nf.a(__sys_close.o)
 .ARM.attributes
                0x000008fc       0x32 c:/nxp/mcuxpressoide_11.0.1_2563/ide/plugins/com.nxp.mcuxpresso.tools.win32_11.0.1.201907311258/tools/bin/../lib/gcc/arm-none-eabi/8.2.1/../../../../arm-none-eabi/lib/thumb/v7e-m+dp/hard\libcr_nohost_nf.a(__sys_flen.o)
 .ARM.attributes
                0x0000092e       0x32 c:/nxp/mcuxpressoide_11.0.1_2563/ide/plugins/com.nxp.mcuxpresso.tools.win32_11.0.1.201907311258/tools/bin/../lib/gcc/arm-none-eabi/8.2.1/../../../../arm-none-eabi/lib/thumb/v7e-m+dp/hard\libcr_nohost_nf.a(__sys_istty.o)
 .ARM.attributes
                0x00000960       0x32 c:/nxp/mcuxpressoide_11.0.1_2563/ide/plugins/com.nxp.mcuxpresso.tools.win32_11.0.1.201907311258/tools/bin/../lib/gcc/arm-none-eabi/8.2.1/../../../../arm-none-eabi/lib/thumb/v7e-m+dp/hard\libcr_nohost_nf.a(__sys_remove.o)
 .ARM.attributes
                0x00000992       0x32 c:/nxp/mcuxpressoide_11.0.1_2563/ide/plugins/com.nxp.mcuxpresso.tools.win32_11.0.1.201907311258/tools/bin/../lib/gcc/arm-none-eabi/8.2.1/../../../../arm-none-eabi/lib/thumb/v7e-m+dp/hard\libcr_nohost_nf.a(__sys_seek.o)
 .ARM.attributes
                0x000009c4       0x32 c:/nxp/mcuxpressoide_11.0.1_2563/ide/plugins/com.nxp.mcuxpresso.tools.win32_11.0.1.201907311258/tools/bin/../lib/gcc/arm-none-eabi/8.2.1/../../../../arm-none-eabi/lib/thumb/v7e-m+dp/hard\libcr_nohost_nf.a(__sys_tmpnam.o)
 .ARM.attributes
                0x000009f6       0x32 c:/nxp/mcuxpressoide_11.0.1_2563/ide/plugins/com.nxp.mcuxpresso.tools.win32_11.0.1.201907311258/tools/bin/../lib/gcc/arm-none-eabi/8.2.1/../../../../arm-none-eabi/lib/thumb/v7e-m+dp/hard\libcr_nohost_nf.a(__sys_write.o)

.debug_frame    0x00000000     0x3dd4
 .debug_frame   0x00000000      0x208 ./utilities/fsl_debug_console.o
 .debug_frame   0x00000208       0xb4 ./utilities/fsl_str.o
 .debug_frame   0x000002bc      0xfa4 ./startup/startup_mimxrt1062.o
 .debug_frame   0x00001260       0x2c ./source/cmsis_lpspi_int_b2b_transfer_master.o
 .debug_frame   0x0000128c       0x20 ./source/semihost_hardfault.o
 .debug_frame   0x000012ac       0xf8 ./drivers/ethernet_lib.o
 .debug_frame   0x000013a4      0x648 ./drivers/fsl_clock.o
 .debug_frame   0x000019ec      0x7a8 ./drivers/fsl_edma.o
 .debug_frame   0x00002194      0x110 ./drivers/fsl_gpio.o
 .debug_frame   0x000022a4      0x7f0 ./drivers/fsl_lpspi.o
 .debug_frame   0x00002a94      0x42c ./drivers/fsl_lpspi_cmsis.o
 .debug_frame   0x00002ec0      0x5bc ./drivers/fsl_lpuart.o
 .debug_frame   0x0000347c       0xbc ./device/system_MIMXRT1062.o
 .debug_frame   0x00003538       0xc8 ./component/uart/lpuart_adapter.o
 .debug_frame   0x00003600      0x208 ./component/serial_manager/serial_manager.o
 .debug_frame   0x00003808       0xa0 ./component/serial_manager/serial_port_uart.o
 .debug_frame   0x000038a8      0x238 ./board/board.o
 .debug_frame   0x00003ae0      0x1c8 ./board/clock_config.o
 .debug_frame   0x00003ca8      0x12c ./board/pin_mux.o

Cross Reference Table

Symbol                                            File
ACMP1_DriverIRQHandler                            ./startup/startup_mimxrt1062.o
ACMP1_IRQHandler                                  ./startup/startup_mimxrt1062.o
ACMP2_DriverIRQHandler                            ./startup/startup_mimxrt1062.o
ACMP2_IRQHandler                                  ./startup/startup_mimxrt1062.o
ACMP3_DriverIRQHandler                            ./startup/startup_mimxrt1062.o
ACMP3_IRQHandler                                  ./startup/startup_mimxrt1062.o
ACMP4_DriverIRQHandler                            ./startup/startup_mimxrt1062.o
ACMP4_IRQHandler                                  ./startup/startup_mimxrt1062.o
ADC1_DriverIRQHandler                             ./startup/startup_mimxrt1062.o
ADC1_IRQHandler                                   ./startup/startup_mimxrt1062.o
ADC2_DriverIRQHandler                             ./startup/startup_mimxrt1062.o
ADC2_IRQHandler                                   ./startup/startup_mimxrt1062.o
ADC_ETC_ERROR_IRQ_DriverIRQHandler                ./startup/startup_mimxrt1062.o
ADC_ETC_ERROR_IRQ_IRQHandler                      ./startup/startup_mimxrt1062.o
ADC_ETC_IRQ0_DriverIRQHandler                     ./startup/startup_mimxrt1062.o
ADC_ETC_IRQ0_IRQHandler                           ./startup/startup_mimxrt1062.o
ADC_ETC_IRQ1_DriverIRQHandler                     ./startup/startup_mimxrt1062.o
ADC_ETC_IRQ1_IRQHandler                           ./startup/startup_mimxrt1062.o
ADC_ETC_IRQ2_DriverIRQHandler                     ./startup/startup_mimxrt1062.o
ADC_ETC_IRQ2_IRQHandler                           ./startup/startup_mimxrt1062.o
BEE_DriverIRQHandler                              ./startup/startup_mimxrt1062.o
BEE_IRQHandler                                    ./startup/startup_mimxrt1062.o
BOARD_BootClockRUN                                ./board/clock_config.o
                                                  ./source/cmsis_lpspi_int_b2b_transfer_master.o
BOARD_ConfigMPU                                   ./board/board.o
                                                  ./source/cmsis_lpspi_int_b2b_transfer_master.o
BOARD_DebugConsoleSrcFreq                         ./board/board.o
BOARD_InitBootClocks                              ./board/clock_config.o
BOARD_InitBootPeripherals                         ./board/peripherals.o
BOARD_InitBootPins                                ./board/pin_mux.o
BOARD_InitDebugConsole                            ./board/board.o
                                                  ./source/cmsis_lpspi_int_b2b_transfer_master.o
BOARD_InitPeripherals                             ./board/peripherals.o
BOARD_InitPins                                    ./board/pin_mux.o
                                                  ./source/cmsis_lpspi_int_b2b_transfer_master.o
BOARD_MMC_Pin_Config                              ./board/board.o
BOARD_SD_Pin_Config                               ./board/board.o
BootData                                          ./startup/startup_mimxrt1062.o
CAN1_DriverIRQHandler                             ./startup/startup_mimxrt1062.o
CAN1_IRQHandler                                   ./startup/startup_mimxrt1062.o
CAN2_DriverIRQHandler                             ./startup/startup_mimxrt1062.o
CAN2_IRQHandler                                   ./startup/startup_mimxrt1062.o
CAN3_DriverIRQHandler                             ./startup/startup_mimxrt1062.o
CAN3_IRQHandler                                   ./startup/startup_mimxrt1062.o
CCM_1_DriverIRQHandler                            ./startup/startup_mimxrt1062.o
CCM_1_IRQHandler                                  ./startup/startup_mimxrt1062.o
CCM_2_DriverIRQHandler                            ./startup/startup_mimxrt1062.o
CCM_2_IRQHandler                                  ./startup/startup_mimxrt1062.o
CLOCK_DeinitArmPll                                ./drivers/fsl_clock.o
CLOCK_DeinitAudioPll                              ./drivers/fsl_clock.o
                                                  ./board/clock_config.o
CLOCK_DeinitEnetPll                               ./drivers/fsl_clock.o
                                                  ./board/clock_config.o
CLOCK_DeinitExternalClk                           ./drivers/fsl_clock.o
CLOCK_DeinitRcOsc24M                              ./drivers/fsl_clock.o
CLOCK_DeinitSysPfd                                ./drivers/fsl_clock.o
CLOCK_DeinitSysPll                                ./drivers/fsl_clock.o
CLOCK_DeinitUsb1Pfd                               ./drivers/fsl_clock.o
CLOCK_DeinitUsb1Pll                               ./drivers/fsl_clock.o
CLOCK_DeinitUsb2Pll                               ./drivers/fsl_clock.o
                                                  ./board/clock_config.o
CLOCK_DeinitVideoPll                              ./drivers/fsl_clock.o
                                                  ./board/clock_config.o
CLOCK_DisableUsbhs0PhyPllClock                    ./drivers/fsl_clock.o
CLOCK_DisableUsbhs1PhyPllClock                    ./drivers/fsl_clock.o
CLOCK_EnableUsbhs0Clock                           ./drivers/fsl_clock.o
CLOCK_EnableUsbhs0PhyPllClock                     ./drivers/fsl_clock.o
CLOCK_EnableUsbhs1Clock                           ./drivers/fsl_clock.o
CLOCK_EnableUsbhs1PhyPllClock                     ./drivers/fsl_clock.o
CLOCK_GetAhbFreq                                  ./drivers/fsl_clock.o
CLOCK_GetFreq                                     ./drivers/fsl_clock.o
CLOCK_GetIpgFreq                                  ./drivers/fsl_clock.o
CLOCK_GetPerClkFreq                               ./drivers/fsl_clock.o
CLOCK_GetPllFreq                                  ./drivers/fsl_clock.o
                                                  ./board/board.o
CLOCK_GetSemcFreq                                 ./drivers/fsl_clock.o
CLOCK_GetSysPfdFreq                               ./drivers/fsl_clock.o
CLOCK_GetUsb1PfdFreq                              ./drivers/fsl_clock.o
CLOCK_InitArmPll                                  ./drivers/fsl_clock.o
                                                  ./board/clock_config.o
CLOCK_InitAudioPll                                ./drivers/fsl_clock.o
CLOCK_InitEnetPll                                 ./drivers/fsl_clock.o
CLOCK_InitExternalClk                             ./drivers/fsl_clock.o
                                                  ./board/clock_config.o
CLOCK_InitRcOsc24M                                ./drivers/fsl_clock.o
                                                  ./board/clock_config.o
CLOCK_InitSysPfd                                  ./drivers/fsl_clock.o
                                                  ./board/clock_config.o
CLOCK_InitSysPll                                  ./drivers/fsl_clock.o
                                                  ./board/clock_config.o
CLOCK_InitUsb1Pfd                                 ./drivers/fsl_clock.o
CLOCK_InitUsb1Pll                                 ./drivers/fsl_clock.o
CLOCK_InitUsb2Pll                                 ./drivers/fsl_clock.o
CLOCK_InitVideoPll                                ./drivers/fsl_clock.o
CLOCK_SwitchOsc                                   ./drivers/fsl_clock.o
                                                  ./board/clock_config.o
CORE_DriverIRQHandler                             ./startup/startup_mimxrt1062.o
CORE_IRQHandler                                   ./startup/startup_mimxrt1062.o
CSI_DriverIRQHandler                              ./startup/startup_mimxrt1062.o
CSI_IRQHandler                                    ./startup/startup_mimxrt1062.o
CSU_DriverIRQHandler                              ./startup/startup_mimxrt1062.o
CSU_IRQHandler                                    ./startup/startup_mimxrt1062.o
CTI0_ERROR_DriverIRQHandler                       ./startup/startup_mimxrt1062.o
CTI0_ERROR_IRQHandler                             ./startup/startup_mimxrt1062.o
CTI1_ERROR_DriverIRQHandler                       ./startup/startup_mimxrt1062.o
CTI1_ERROR_IRQHandler                             ./startup/startup_mimxrt1062.o
DCDC_DriverIRQHandler                             ./startup/startup_mimxrt1062.o
DCDC_IRQHandler                                   ./startup/startup_mimxrt1062.o
DCP_DriverIRQHandler                              ./startup/startup_mimxrt1062.o
DCP_IRQHandler                                    ./startup/startup_mimxrt1062.o
DCP_VMI_DriverIRQHandler                          ./startup/startup_mimxrt1062.o
DCP_VMI_IRQHandler                                ./startup/startup_mimxrt1062.o
DMA0_DMA16_DriverIRQHandler                       ./drivers/fsl_edma.o
                                                  ./startup/startup_mimxrt1062.o
DMA0_DMA16_IRQHandler                             ./startup/startup_mimxrt1062.o
DMA10_DMA26_DriverIRQHandler                      ./drivers/fsl_edma.o
                                                  ./startup/startup_mimxrt1062.o
DMA10_DMA26_IRQHandler                            ./startup/startup_mimxrt1062.o
DMA11_DMA27_DriverIRQHandler                      ./drivers/fsl_edma.o
                                                  ./startup/startup_mimxrt1062.o
DMA11_DMA27_IRQHandler                            ./startup/startup_mimxrt1062.o
DMA12_DMA28_DriverIRQHandler                      ./drivers/fsl_edma.o
                                                  ./startup/startup_mimxrt1062.o
DMA12_DMA28_IRQHandler                            ./startup/startup_mimxrt1062.o
DMA13_DMA29_DriverIRQHandler                      ./drivers/fsl_edma.o
                                                  ./startup/startup_mimxrt1062.o
DMA13_DMA29_IRQHandler                            ./startup/startup_mimxrt1062.o
DMA14_DMA30_DriverIRQHandler                      ./drivers/fsl_edma.o
                                                  ./startup/startup_mimxrt1062.o
DMA14_DMA30_IRQHandler                            ./startup/startup_mimxrt1062.o
DMA15_DMA31_DriverIRQHandler                      ./drivers/fsl_edma.o
                                                  ./startup/startup_mimxrt1062.o
DMA15_DMA31_IRQHandler                            ./startup/startup_mimxrt1062.o
DMA1_DMA17_DriverIRQHandler                       ./drivers/fsl_edma.o
                                                  ./startup/startup_mimxrt1062.o
DMA1_DMA17_IRQHandler                             ./startup/startup_mimxrt1062.o
DMA2_DMA18_DriverIRQHandler                       ./drivers/fsl_edma.o
                                                  ./startup/startup_mimxrt1062.o
DMA2_DMA18_IRQHandler                             ./startup/startup_mimxrt1062.o
DMA3_DMA19_DriverIRQHandler                       ./drivers/fsl_edma.o
                                                  ./startup/startup_mimxrt1062.o
DMA3_DMA19_IRQHandler                             ./startup/startup_mimxrt1062.o
DMA4_DMA20_DriverIRQHandler                       ./drivers/fsl_edma.o
                                                  ./startup/startup_mimxrt1062.o
DMA4_DMA20_IRQHandler                             ./startup/startup_mimxrt1062.o
DMA5_DMA21_DriverIRQHandler                       ./drivers/fsl_edma.o
                                                  ./startup/startup_mimxrt1062.o
DMA5_DMA21_IRQHandler                             ./startup/startup_mimxrt1062.o
DMA6_DMA22_DriverIRQHandler                       ./drivers/fsl_edma.o
                                                  ./startup/startup_mimxrt1062.o
DMA6_DMA22_IRQHandler                             ./startup/startup_mimxrt1062.o
DMA7_DMA23_DriverIRQHandler                       ./drivers/fsl_edma.o
                                                  ./startup/startup_mimxrt1062.o
DMA7_DMA23_IRQHandler                             ./startup/startup_mimxrt1062.o
DMA8_DMA24_DriverIRQHandler                       ./drivers/fsl_edma.o
                                                  ./startup/startup_mimxrt1062.o
DMA8_DMA24_IRQHandler                             ./startup/startup_mimxrt1062.o
DMA9_DMA25_DriverIRQHandler                       ./drivers/fsl_edma.o
                                                  ./startup/startup_mimxrt1062.o
DMA9_DMA25_IRQHandler                             ./startup/startup_mimxrt1062.o
DMAMUX_Deinit                                     ./drivers/fsl_dmamux.o
DMAMUX_Init                                       ./drivers/fsl_dmamux.o
DMA_ERROR_DriverIRQHandler                        ./startup/startup_mimxrt1062.o
DMA_ERROR_IRQHandler                              ./startup/startup_mimxrt1062.o
DbgConsole_Deinit                                 ./utilities/fsl_debug_console.o
DbgConsole_Flush                                  ./utilities/fsl_debug_console.o
DbgConsole_Getchar                                ./utilities/fsl_debug_console.o
DbgConsole_Init                                   ./utilities/fsl_debug_console.o
                                                  ./board/board.o
DbgConsole_Printf                                 ./utilities/fsl_debug_console.o
                                                  ./drivers/ethernet_lib.o
                                                  ./source/cmsis_lpspi_int_b2b_transfer_master.o
                                                  ./utilities/fsl_assert.o
DbgConsole_Putchar                                ./utilities/fsl_debug_console.o
DbgConsole_ReadCharacter                          ./utilities/fsl_debug_console.o
DbgConsole_ReadLine                               ./utilities/fsl_debug_console.o
DbgConsole_ReadOneCharacter                       ./utilities/fsl_debug_console.o
DbgConsole_Scanf                                  ./utilities/fsl_debug_console.o
DbgConsole_SendData                               ./utilities/fsl_debug_console.o
DbgConsole_SendDataReliable                       ./utilities/fsl_debug_console.o
Driver_SPI4                                       ./drivers/fsl_lpspi_cmsis.o
                                                  ./drivers/ethernet_lib.o
                                                  ./source/cmsis_lpspi_int_b2b_transfer_master.o
EDMA_AbortTransfer                                ./drivers/fsl_edma.o
                                                  ./drivers/fsl_lpspi_edma.o
EDMA_ClearChannelStatusFlags                      ./drivers/fsl_edma.o
EDMA_CreateHandle                                 ./drivers/fsl_edma.o
EDMA_Deinit                                       ./drivers/fsl_edma.o
EDMA_DisableChannelInterrupts                     ./drivers/fsl_edma.o
EDMA_EnableChannelInterrupts                      ./drivers/fsl_edma.o
                                                  ./drivers/fsl_lpspi_edma.o
EDMA_GetChannelStatusFlags                        ./drivers/fsl_edma.o
EDMA_GetDefaultConfig                             ./drivers/fsl_edma.o
EDMA_GetRemainingMajorLoopCount                   ./drivers/fsl_edma.o
                                                  ./drivers/fsl_lpspi_edma.o
EDMA_HandleIRQ                                    ./drivers/fsl_edma.o
EDMA_Init                                         ./drivers/fsl_edma.o
EDMA_InstallTCD                                   ./drivers/fsl_edma.o
EDMA_InstallTCDMemory                             ./drivers/fsl_edma.o
EDMA_PrepareTransfer                              ./drivers/fsl_edma.o
EDMA_ResetChannel                                 ./drivers/fsl_edma.o
                                                  ./drivers/fsl_lpspi_edma.o
EDMA_SetBandWidth                                 ./drivers/fsl_edma.o
EDMA_SetCallback                                  ./drivers/fsl_edma.o
                                                  ./drivers/fsl_lpspi_edma.o
EDMA_SetChannelLink                               ./drivers/fsl_edma.o
EDMA_SetChannelPreemptionConfig                   ./drivers/fsl_edma.o
EDMA_SetMinorOffsetConfig                         ./drivers/fsl_edma.o
EDMA_SetModulo                                    ./drivers/fsl_edma.o
EDMA_SetTransferConfig                            ./drivers/fsl_edma.o
                                                  ./drivers/fsl_lpspi_edma.o
EDMA_StartTransfer                                ./drivers/fsl_edma.o
                                                  ./drivers/fsl_lpspi_edma.o
EDMA_StopTransfer                                 ./drivers/fsl_edma.o
EDMA_SubmitTransfer                               ./drivers/fsl_edma.o
EDMA_TcdDisableInterrupts                         ./drivers/fsl_edma.o
EDMA_TcdEnableInterrupts                          ./drivers/fsl_edma.o
EDMA_TcdReset                                     ./drivers/fsl_edma.o
                                                  ./drivers/fsl_lpspi_edma.o
EDMA_TcdSetChannelLink                            ./drivers/fsl_edma.o
EDMA_TcdSetMinorOffsetConfig                      ./drivers/fsl_edma.o
EDMA_TcdSetModulo                                 ./drivers/fsl_edma.o
EDMA_TcdSetTransferConfig                         ./drivers/fsl_edma.o
                                                  ./drivers/fsl_lpspi_edma.o
ENC1_DriverIRQHandler                             ./startup/startup_mimxrt1062.o
ENC1_IRQHandler                                   ./startup/startup_mimxrt1062.o
ENC2_DriverIRQHandler                             ./startup/startup_mimxrt1062.o
ENC2_IRQHandler                                   ./startup/startup_mimxrt1062.o
ENC3_DriverIRQHandler                             ./startup/startup_mimxrt1062.o
ENC3_IRQHandler                                   ./startup/startup_mimxrt1062.o
ENC4_DriverIRQHandler                             ./startup/startup_mimxrt1062.o
ENC4_IRQHandler                                   ./startup/startup_mimxrt1062.o
ENET2_1588_Timer_DriverIRQHandler                 ./startup/startup_mimxrt1062.o
ENET2_1588_Timer_IRQHandler                       ./startup/startup_mimxrt1062.o
ENET2_DriverIRQHandler                            ./startup/startup_mimxrt1062.o
ENET2_IRQHandler                                  ./startup/startup_mimxrt1062.o
ENET_1588_Timer_DriverIRQHandler                  ./startup/startup_mimxrt1062.o
ENET_1588_Timer_IRQHandler                        ./startup/startup_mimxrt1062.o
ENET_DriverIRQHandler                             ./startup/startup_mimxrt1062.o
ENET_IRQHandler                                   ./startup/startup_mimxrt1062.o
EWM_DriverIRQHandler                              ./startup/startup_mimxrt1062.o
EWM_IRQHandler                                    ./startup/startup_mimxrt1062.o
FLEXIO1_DriverIRQHandler                          ./startup/startup_mimxrt1062.o
FLEXIO1_IRQHandler                                ./startup/startup_mimxrt1062.o
FLEXIO2_DriverIRQHandler                          ./startup/startup_mimxrt1062.o
FLEXIO2_IRQHandler                                ./startup/startup_mimxrt1062.o
FLEXIO3_DriverIRQHandler                          ./startup/startup_mimxrt1062.o
FLEXIO3_IRQHandler                                ./startup/startup_mimxrt1062.o
FLEXRAM_DriverIRQHandler                          ./startup/startup_mimxrt1062.o
FLEXRAM_IRQHandler                                ./startup/startup_mimxrt1062.o
FLEXSPI2_DriverIRQHandler                         ./startup/startup_mimxrt1062.o
FLEXSPI2_IRQHandler                               ./startup/startup_mimxrt1062.o
FLEXSPI_DriverIRQHandler                          ./startup/startup_mimxrt1062.o
FLEXSPI_IRQHandler                                ./startup/startup_mimxrt1062.o
FlexSPI_NOR_Config                                ./startup/startup_mimxrt1062.o
GPC_DriverIRQHandler                              ./startup/startup_mimxrt1062.o
GPC_IRQHandler                                    ./startup/startup_mimxrt1062.o
GPIO1_Combined_0_15_DriverIRQHandler              ./startup/startup_mimxrt1062.o
GPIO1_Combined_0_15_IRQHandler                    ./startup/startup_mimxrt1062.o
GPIO1_Combined_16_31_DriverIRQHandler             ./startup/startup_mimxrt1062.o
GPIO1_Combined_16_31_IRQHandler                   ./startup/startup_mimxrt1062.o
GPIO1_INT0_DriverIRQHandler                       ./startup/startup_mimxrt1062.o
GPIO1_INT0_IRQHandler                             ./startup/startup_mimxrt1062.o
GPIO1_INT1_DriverIRQHandler                       ./startup/startup_mimxrt1062.o
GPIO1_INT1_IRQHandler                             ./startup/startup_mimxrt1062.o
GPIO1_INT2_DriverIRQHandler                       ./startup/startup_mimxrt1062.o
GPIO1_INT2_IRQHandler                             ./startup/startup_mimxrt1062.o
GPIO1_INT3_DriverIRQHandler                       ./startup/startup_mimxrt1062.o
GPIO1_INT3_IRQHandler                             ./startup/startup_mimxrt1062.o
GPIO1_INT4_DriverIRQHandler                       ./startup/startup_mimxrt1062.o
GPIO1_INT4_IRQHandler                             ./startup/startup_mimxrt1062.o
GPIO1_INT5_DriverIRQHandler                       ./startup/startup_mimxrt1062.o
GPIO1_INT5_IRQHandler                             ./startup/startup_mimxrt1062.o
GPIO1_INT6_DriverIRQHandler                       ./startup/startup_mimxrt1062.o
GPIO1_INT6_IRQHandler                             ./startup/startup_mimxrt1062.o
GPIO1_INT7_DriverIRQHandler                       ./startup/startup_mimxrt1062.o
GPIO1_INT7_IRQHandler                             ./startup/startup_mimxrt1062.o
GPIO2_Combined_0_15_DriverIRQHandler              ./startup/startup_mimxrt1062.o
GPIO2_Combined_0_15_IRQHandler                    ./startup/startup_mimxrt1062.o
GPIO2_Combined_16_31_DriverIRQHandler             ./startup/startup_mimxrt1062.o
GPIO2_Combined_16_31_IRQHandler                   ./startup/startup_mimxrt1062.o
GPIO3_Combined_0_15_DriverIRQHandler              ./startup/startup_mimxrt1062.o
GPIO3_Combined_0_15_IRQHandler                    ./startup/startup_mimxrt1062.o
GPIO3_Combined_16_31_DriverIRQHandler             ./startup/startup_mimxrt1062.o
GPIO3_Combined_16_31_IRQHandler                   ./startup/startup_mimxrt1062.o
GPIO4_Combined_0_15_DriverIRQHandler              ./startup/startup_mimxrt1062.o
GPIO4_Combined_0_15_IRQHandler                    ./startup/startup_mimxrt1062.o
GPIO4_Combined_16_31_DriverIRQHandler             ./startup/startup_mimxrt1062.o
GPIO4_Combined_16_31_IRQHandler                   ./startup/startup_mimxrt1062.o
GPIO5_Combined_0_15_DriverIRQHandler              ./startup/startup_mimxrt1062.o
GPIO5_Combined_0_15_IRQHandler                    ./startup/startup_mimxrt1062.o
GPIO5_Combined_16_31_DriverIRQHandler             ./startup/startup_mimxrt1062.o
GPIO5_Combined_16_31_IRQHandler                   ./startup/startup_mimxrt1062.o
GPIO6_7_8_9_DriverIRQHandler                      ./startup/startup_mimxrt1062.o
GPIO6_7_8_9_IRQHandler                            ./startup/startup_mimxrt1062.o
GPIO_PinInit                                      ./drivers/fsl_gpio.o
                                                  ./board/pin_mux.o
GPIO_PinSetInterruptConfig                        ./drivers/fsl_gpio.o
GPIO_PinWrite                                     ./drivers/fsl_gpio.o
                                                  ./source/cmsis_lpspi_int_b2b_transfer_master.o
GPR_IRQ_DriverIRQHandler                          ./startup/startup_mimxrt1062.o
GPR_IRQ_IRQHandler                                ./startup/startup_mimxrt1062.o
GPT1_DriverIRQHandler                             ./startup/startup_mimxrt1062.o
GPT1_IRQHandler                                   ./startup/startup_mimxrt1062.o
GPT2_DriverIRQHandler                             ./startup/startup_mimxrt1062.o
GPT2_IRQHandler                                   ./startup/startup_mimxrt1062.o
HAL_UartDeinit                                    ./component/uart/lpuart_adapter.o
                                                  ./component/serial_manager/serial_port_uart.o
HAL_UartInit                                      ./component/uart/lpuart_adapter.o
                                                  ./component/serial_manager/serial_port_uart.o
HAL_UartReceiveBlocking                           ./component/uart/lpuart_adapter.o
                                                  ./component/serial_manager/serial_port_uart.o
HAL_UartSendBlocking                              ./component/uart/lpuart_adapter.o
                                                  ./component/serial_manager/serial_port_uart.o
HardFault_Handler                                 ./source/semihost_hardfault.o
                                                  ./startup/startup_mimxrt1062.o
ImageVectorTable                                  ./startup/startup_mimxrt1062.o
IntDefaultHandler                                 ./startup/startup_mimxrt1062.o
KPP_DriverIRQHandler                              ./startup/startup_mimxrt1062.o
KPP_IRQHandler                                    ./startup/startup_mimxrt1062.o
KSDK_LPSPI_MasterInterruptCallback                ./drivers/fsl_lpspi_cmsis.o
KSDK_LPSPI_SlaveInterruptCallback                 ./drivers/fsl_lpspi_cmsis.o
LCDIF_DriverIRQHandler                            ./startup/startup_mimxrt1062.o
LCDIF_IRQHandler                                  ./startup/startup_mimxrt1062.o
LIST_AddHead                                      ./component/lists/generic_list.o
LIST_AddPrevElement                               ./component/lists/generic_list.o
LIST_AddTail                                      ./component/lists/generic_list.o
LIST_GetAvailableSize                             ./component/lists/generic_list.o
LIST_GetHead                                      ./component/lists/generic_list.o
LIST_GetList                                      ./component/lists/generic_list.o
LIST_GetNext                                      ./component/lists/generic_list.o
LIST_GetPrev                                      ./component/lists/generic_list.o
LIST_GetSize                                      ./component/lists/generic_list.o
LIST_Init                                         ./component/lists/generic_list.o
LIST_RemoveElement                                ./component/lists/generic_list.o
LIST_RemoveHead                                   ./component/lists/generic_list.o
LPI2C1_DriverIRQHandler                           ./startup/startup_mimxrt1062.o
LPI2C1_IRQHandler                                 ./startup/startup_mimxrt1062.o
LPI2C2_DriverIRQHandler                           ./startup/startup_mimxrt1062.o
LPI2C2_IRQHandler                                 ./startup/startup_mimxrt1062.o
LPI2C3_DriverIRQHandler                           ./startup/startup_mimxrt1062.o
LPI2C3_IRQHandler                                 ./startup/startup_mimxrt1062.o
LPI2C4_DriverIRQHandler                           ./startup/startup_mimxrt1062.o
LPI2C4_IRQHandler                                 ./startup/startup_mimxrt1062.o
LPSPI1_DriverIRQHandler                           ./drivers/fsl_lpspi.o
                                                  ./startup/startup_mimxrt1062.o
LPSPI1_IRQHandler                                 ./startup/startup_mimxrt1062.o
LPSPI2_DriverIRQHandler                           ./drivers/fsl_lpspi.o
                                                  ./startup/startup_mimxrt1062.o
LPSPI2_IRQHandler                                 ./startup/startup_mimxrt1062.o
LPSPI3_DriverIRQHandler                           ./drivers/fsl_lpspi.o
                                                  ./startup/startup_mimxrt1062.o
LPSPI3_IRQHandler                                 ./startup/startup_mimxrt1062.o
LPSPI4_DeinitPins                                 ./board/pin_mux.o
                                                  ./drivers/fsl_lpspi_cmsis.o
LPSPI4_DriverIRQHandler                           ./drivers/fsl_lpspi.o
                                                  ./startup/startup_mimxrt1062.o
LPSPI4_GetFreq                                    ./drivers/ethernet_lib.o
                                                  ./drivers/fsl_lpspi_cmsis.o
LPSPI4_Handle                                     ./drivers/fsl_lpspi_cmsis.o
LPSPI4_IRQHandler                                 ./startup/startup_mimxrt1062.o
LPSPI4_InitPins                                   ./board/pin_mux.o
                                                  ./drivers/fsl_lpspi_cmsis.o
LPSPI4_InterruptDriverState                       ./drivers/fsl_lpspi_cmsis.o
LPSPI4_Resource                                   ./drivers/fsl_lpspi_cmsis.o
LPSPI_4_config                                    ./board/peripherals.o
LPSPI_4_init                                      ./board/peripherals.o
LPSPI_CheckTransferArgument                       ./drivers/fsl_lpspi.o
                                                  ./drivers/fsl_lpspi_edma.o
LPSPI_Deinit                                      ./drivers/fsl_lpspi.o
                                                  ./drivers/fsl_lpspi_cmsis.o
LPSPI_GetInstance                                 ./drivers/fsl_lpspi.o
LPSPI_InterruptGetStatus                          ./drivers/fsl_lpspi_cmsis.o
LPSPI_MasterGetDefaultConfig                      ./drivers/fsl_lpspi.o
                                                  ./drivers/fsl_lpspi_cmsis.o
LPSPI_MasterInit                                  ./drivers/fsl_lpspi.o
                                                  ./board/peripherals.o
                                                  ./drivers/fsl_lpspi_cmsis.o
LPSPI_MasterSetBaudRate                           ./drivers/fsl_lpspi.o
                                                  ./drivers/fsl_lpspi_cmsis.o
LPSPI_MasterSetDelayScaler                        ./drivers/fsl_lpspi.o
LPSPI_MasterSetDelayTimes                         ./drivers/fsl_lpspi.o
LPSPI_MasterSignalEvent_t                         ./drivers/ethernet_lib.o
                                                  ./source/cmsis_lpspi_int_b2b_transfer_master.o
LPSPI_MasterTransferAbort                         ./drivers/fsl_lpspi.o
                                                  ./drivers/fsl_lpspi_cmsis.o
LPSPI_MasterTransferAbortEDMA                     ./drivers/fsl_lpspi_edma.o
LPSPI_MasterTransferBlocking                      ./drivers/fsl_lpspi.o
LPSPI_MasterTransferCreateHandle                  ./drivers/fsl_lpspi.o
                                                  ./drivers/fsl_lpspi_cmsis.o
LPSPI_MasterTransferCreateHandleEDMA              ./drivers/fsl_lpspi_edma.o
LPSPI_MasterTransferEDMA                          ./drivers/fsl_lpspi_edma.o
LPSPI_MasterTransferGetCount                      ./drivers/fsl_lpspi.o
LPSPI_MasterTransferGetCountEDMA                  ./drivers/fsl_lpspi_edma.o
LPSPI_MasterTransferHandleIRQ                     ./drivers/fsl_lpspi.o
LPSPI_MasterTransferNonBlocking                   ./drivers/fsl_lpspi.o
                                                  ./drivers/fsl_lpspi_cmsis.o
LPSPI_Reset                                       ./drivers/fsl_lpspi.o
LPSPI_SetDummyData                                ./drivers/fsl_lpspi.o
                                                  ./drivers/fsl_lpspi_cmsis.o
LPSPI_SlaveGetDefaultConfig                       ./drivers/fsl_lpspi.o
                                                  ./drivers/fsl_lpspi_cmsis.o
LPSPI_SlaveInit                                   ./drivers/fsl_lpspi.o
                                                  ./drivers/fsl_lpspi_cmsis.o
LPSPI_SlaveTransferAbort                          ./drivers/fsl_lpspi.o
                                                  ./drivers/fsl_lpspi_cmsis.o
LPSPI_SlaveTransferAbortEDMA                      ./drivers/fsl_lpspi_edma.o
LPSPI_SlaveTransferCreateHandle                   ./drivers/fsl_lpspi.o
                                                  ./drivers/fsl_lpspi_cmsis.o
LPSPI_SlaveTransferCreateHandleEDMA               ./drivers/fsl_lpspi_edma.o
LPSPI_SlaveTransferEDMA                           ./drivers/fsl_lpspi_edma.o
LPSPI_SlaveTransferGetCount                       ./drivers/fsl_lpspi.o
LPSPI_SlaveTransferGetCountEDMA                   ./drivers/fsl_lpspi_edma.o
LPSPI_SlaveTransferHandleIRQ                      ./drivers/fsl_lpspi.o
LPSPI_SlaveTransferNonBlocking                    ./drivers/fsl_lpspi.o
                                                  ./drivers/fsl_lpspi_cmsis.o
LPUART1_DriverIRQHandler                          ./drivers/fsl_lpuart.o
                                                  ./startup/startup_mimxrt1062.o
LPUART1_IRQHandler                                ./startup/startup_mimxrt1062.o
LPUART2_DriverIRQHandler                          ./drivers/fsl_lpuart.o
                                                  ./startup/startup_mimxrt1062.o
LPUART2_IRQHandler                                ./startup/startup_mimxrt1062.o
LPUART3_DriverIRQHandler                          ./drivers/fsl_lpuart.o
                                                  ./startup/startup_mimxrt1062.o
LPUART3_IRQHandler                                ./startup/startup_mimxrt1062.o
LPUART4_DriverIRQHandler                          ./drivers/fsl_lpuart.o
                                                  ./startup/startup_mimxrt1062.o
LPUART4_IRQHandler                                ./startup/startup_mimxrt1062.o
LPUART5_DriverIRQHandler                          ./drivers/fsl_lpuart.o
                                                  ./startup/startup_mimxrt1062.o
LPUART5_IRQHandler                                ./startup/startup_mimxrt1062.o
LPUART6_DriverIRQHandler                          ./drivers/fsl_lpuart.o
                                                  ./startup/startup_mimxrt1062.o
LPUART6_IRQHandler                                ./startup/startup_mimxrt1062.o
LPUART7_DriverIRQHandler                          ./drivers/fsl_lpuart.o
                                                  ./startup/startup_mimxrt1062.o
LPUART7_IRQHandler                                ./startup/startup_mimxrt1062.o
LPUART8_DriverIRQHandler                          ./drivers/fsl_lpuart.o
                                                  ./startup/startup_mimxrt1062.o
LPUART8_IRQHandler                                ./startup/startup_mimxrt1062.o
LPUART_1_config                                   ./board/peripherals.o
LPUART_1_init                                     ./board/peripherals.o
LPUART_ClearStatusFlags                           ./drivers/fsl_lpuart.o
LPUART_Deinit                                     ./drivers/fsl_lpuart.o
                                                  ./component/uart/lpuart_adapter.o
LPUART_DisableInterrupts                          ./drivers/fsl_lpuart.o
LPUART_EnableInterrupts                           ./drivers/fsl_lpuart.o
LPUART_GetDefaultConfig                           ./drivers/fsl_lpuart.o
                                                  ./component/uart/lpuart_adapter.o
LPUART_GetEnabledInterrupts                       ./drivers/fsl_lpuart.o
LPUART_GetInstance                                ./drivers/fsl_lpuart.o
LPUART_GetStatusFlags                             ./drivers/fsl_lpuart.o
LPUART_Init                                       ./drivers/fsl_lpuart.o
                                                  ./board/peripherals.o
                                                  ./component/uart/lpuart_adapter.o
LPUART_ReadBlocking                               ./drivers/fsl_lpuart.o
                                                  ./component/uart/lpuart_adapter.o
LPUART_SetBaudRate                                ./drivers/fsl_lpuart.o
LPUART_TransferAbortReceive                       ./drivers/fsl_lpuart.o
LPUART_TransferAbortSend                          ./drivers/fsl_lpuart.o
LPUART_TransferCreateHandle                       ./drivers/fsl_lpuart.o
LPUART_TransferGetReceiveCount                    ./drivers/fsl_lpuart.o
LPUART_TransferGetRxRingBufferLength              ./drivers/fsl_lpuart.o
LPUART_TransferGetSendCount                       ./drivers/fsl_lpuart.o
LPUART_TransferHandleErrorIRQ                     ./drivers/fsl_lpuart.o
LPUART_TransferHandleIRQ                          ./drivers/fsl_lpuart.o
LPUART_TransferReceiveNonBlocking                 ./drivers/fsl_lpuart.o
LPUART_TransferSendNonBlocking                    ./drivers/fsl_lpuart.o
LPUART_TransferStartRingBuffer                    ./drivers/fsl_lpuart.o
LPUART_TransferStopRingBuffer                     ./drivers/fsl_lpuart.o
LPUART_WriteBlocking                              ./drivers/fsl_lpuart.o
                                                  ./component/uart/lpuart_adapter.o
NMI_Handler                                       ./startup/startup_mimxrt1062.o
PIT_DriverIRQHandler                              ./startup/startup_mimxrt1062.o
PIT_IRQHandler                                    ./startup/startup_mimxrt1062.o
PMU_EVENT_DriverIRQHandler                        ./startup/startup_mimxrt1062.o
PMU_EVENT_IRQHandler                              ./startup/startup_mimxrt1062.o
PWM1_0_DriverIRQHandler                           ./startup/startup_mimxrt1062.o
PWM1_0_IRQHandler                                 ./startup/startup_mimxrt1062.o
PWM1_1_DriverIRQHandler                           ./startup/startup_mimxrt1062.o
PWM1_1_IRQHandler                                 ./startup/startup_mimxrt1062.o
PWM1_2_DriverIRQHandler                           ./startup/startup_mimxrt1062.o
PWM1_2_IRQHandler                                 ./startup/startup_mimxrt1062.o
PWM1_3_DriverIRQHandler                           ./startup/startup_mimxrt1062.o
PWM1_3_IRQHandler                                 ./startup/startup_mimxrt1062.o
PWM1_FAULT_DriverIRQHandler                       ./startup/startup_mimxrt1062.o
PWM1_FAULT_IRQHandler                             ./startup/startup_mimxrt1062.o
PWM2_0_DriverIRQHandler                           ./startup/startup_mimxrt1062.o
PWM2_0_IRQHandler                                 ./startup/startup_mimxrt1062.o
PWM2_1_DriverIRQHandler                           ./startup/startup_mimxrt1062.o
PWM2_1_IRQHandler                                 ./startup/startup_mimxrt1062.o
PWM2_2_DriverIRQHandler                           ./startup/startup_mimxrt1062.o
PWM2_2_IRQHandler                                 ./startup/startup_mimxrt1062.o
PWM2_3_DriverIRQHandler                           ./startup/startup_mimxrt1062.o
PWM2_3_IRQHandler                                 ./startup/startup_mimxrt1062.o
PWM2_FAULT_DriverIRQHandler                       ./startup/startup_mimxrt1062.o
PWM2_FAULT_IRQHandler                             ./startup/startup_mimxrt1062.o
PWM3_0_DriverIRQHandler                           ./startup/startup_mimxrt1062.o
PWM3_0_IRQHandler                                 ./startup/startup_mimxrt1062.o
PWM3_1_DriverIRQHandler                           ./startup/startup_mimxrt1062.o
PWM3_1_IRQHandler                                 ./startup/startup_mimxrt1062.o
PWM3_2_DriverIRQHandler                           ./startup/startup_mimxrt1062.o
PWM3_2_IRQHandler                                 ./startup/startup_mimxrt1062.o
PWM3_3_DriverIRQHandler                           ./startup/startup_mimxrt1062.o
PWM3_3_IRQHandler                                 ./startup/startup_mimxrt1062.o
PWM3_FAULT_DriverIRQHandler                       ./startup/startup_mimxrt1062.o
PWM3_FAULT_IRQHandler                             ./startup/startup_mimxrt1062.o
PWM4_0_DriverIRQHandler                           ./startup/startup_mimxrt1062.o
PWM4_0_IRQHandler                                 ./startup/startup_mimxrt1062.o
PWM4_1_DriverIRQHandler                           ./startup/startup_mimxrt1062.o
PWM4_1_IRQHandler                                 ./startup/startup_mimxrt1062.o
PWM4_2_DriverIRQHandler                           ./startup/startup_mimxrt1062.o
PWM4_2_IRQHandler                                 ./startup/startup_mimxrt1062.o
PWM4_3_DriverIRQHandler                           ./startup/startup_mimxrt1062.o
PWM4_3_IRQHandler                                 ./startup/startup_mimxrt1062.o
PWM4_FAULT_DriverIRQHandler                       ./startup/startup_mimxrt1062.o
PWM4_FAULT_IRQHandler                             ./startup/startup_mimxrt1062.o
PXP_DriverIRQHandler                              ./startup/startup_mimxrt1062.o
PXP_IRQHandler                                    ./startup/startup_mimxrt1062.o
PendSV_Handler                                    ./startup/startup_mimxrt1062.o
RTWDOG_DriverIRQHandler                           ./startup/startup_mimxrt1062.o
RTWDOG_IRQHandler                                 ./startup/startup_mimxrt1062.o
Reserved115_DriverIRQHandler                      ./startup/startup_mimxrt1062.o
Reserved115_IRQHandler                            ./startup/startup_mimxrt1062.o
Reserved143_DriverIRQHandler                      ./startup/startup_mimxrt1062.o
Reserved143_IRQHandler                            ./startup/startup_mimxrt1062.o
Reserved144_DriverIRQHandler                      ./startup/startup_mimxrt1062.o
Reserved144_IRQHandler                            ./startup/startup_mimxrt1062.o
Reserved171_DriverIRQHandler                      ./startup/startup_mimxrt1062.o
Reserved171_IRQHandler                            ./startup/startup_mimxrt1062.o
Reserved68_DriverIRQHandler                       ./startup/startup_mimxrt1062.o
Reserved68_IRQHandler                             ./startup/startup_mimxrt1062.o
Reserved78_DriverIRQHandler                       ./startup/startup_mimxrt1062.o
Reserved78_IRQHandler                             ./startup/startup_mimxrt1062.o
Reserved86_DriverIRQHandler                       ./startup/startup_mimxrt1062.o
Reserved86_IRQHandler                             ./startup/startup_mimxrt1062.o
Reserved87_DriverIRQHandler                       ./startup/startup_mimxrt1062.o
Reserved87_IRQHandler                             ./startup/startup_mimxrt1062.o
ResetISR                                          ./startup/startup_mimxrt1062.o
ResetISR_pre                                      ./startup/startup_mimxrt1062.o
SAI1_DriverIRQHandler                             ./startup/startup_mimxrt1062.o
SAI1_IRQHandler                                   ./startup/startup_mimxrt1062.o
SAI2_DriverIRQHandler                             ./startup/startup_mimxrt1062.o
SAI2_IRQHandler                                   ./startup/startup_mimxrt1062.o
SAI3_RX_DriverIRQHandler                          ./startup/startup_mimxrt1062.o
SAI3_RX_IRQHandler                                ./startup/startup_mimxrt1062.o
SAI3_TX_DriverIRQHandler                          ./startup/startup_mimxrt1062.o
SAI3_TX_IRQHandler                                ./startup/startup_mimxrt1062.o
SDK_DelayAtLeastUs                                ./drivers/fsl_clock.o
SDK_Free                                          ./drivers/fsl_common.o
SDK_Malloc                                        ./drivers/fsl_common.o
SEMC_DriverIRQHandler                             ./startup/startup_mimxrt1062.o
SEMC_IRQHandler                                   ./startup/startup_mimxrt1062.o
SJC_DriverIRQHandler                              ./startup/startup_mimxrt1062.o
SJC_IRQHandler                                    ./startup/startup_mimxrt1062.o
SNVS_HP_WRAPPER_DriverIRQHandler                  ./startup/startup_mimxrt1062.o
SNVS_HP_WRAPPER_IRQHandler                        ./startup/startup_mimxrt1062.o
SNVS_HP_WRAPPER_TZ_DriverIRQHandler               ./startup/startup_mimxrt1062.o
SNVS_HP_WRAPPER_TZ_IRQHandler                     ./startup/startup_mimxrt1062.o
SNVS_LP_WRAPPER_DriverIRQHandler                  ./startup/startup_mimxrt1062.o
SNVS_LP_WRAPPER_IRQHandler                        ./startup/startup_mimxrt1062.o
SPDIF_DriverIRQHandler                            ./startup/startup_mimxrt1062.o
SPDIF_IRQHandler                                  ./startup/startup_mimxrt1062.o
SPI_Read                                          ./drivers/ethernet_lib.o
SPI_Write                                         ./drivers/ethernet_lib.o
SRC_DriverIRQHandler                              ./startup/startup_mimxrt1062.o
SRC_IRQHandler                                    ./startup/startup_mimxrt1062.o
SVC_Handler                                       ./startup/startup_mimxrt1062.o
SerialManager_CloseReadHandle                     ./component/serial_manager/serial_manager.o
                                                  ./utilities/fsl_debug_console.o
SerialManager_CloseWriteHandle                    ./component/serial_manager/serial_manager.o
                                                  ./utilities/fsl_debug_console.o
SerialManager_Deinit                              ./component/serial_manager/serial_manager.o
SerialManager_EnterLowpower                       ./component/serial_manager/serial_manager.o
SerialManager_ExitLowpower                        ./component/serial_manager/serial_manager.o
SerialManager_Init                                ./component/serial_manager/serial_manager.o
                                                  ./utilities/fsl_debug_console.o
SerialManager_OpenReadHandle                      ./component/serial_manager/serial_manager.o
                                                  ./utilities/fsl_debug_console.o
SerialManager_OpenWriteHandle                     ./component/serial_manager/serial_manager.o
                                                  ./utilities/fsl_debug_console.o
SerialManager_ReadBlocking                        ./component/serial_manager/serial_manager.o
                                                  ./utilities/fsl_debug_console.o
SerialManager_WriteBlocking                       ./component/serial_manager/serial_manager.o
                                                  ./utilities/fsl_debug_console.o
Serial_UartDeinit                                 ./component/serial_manager/serial_port_uart.o
                                                  ./component/serial_manager/serial_manager.o
Serial_UartInit                                   ./component/serial_manager/serial_port_uart.o
                                                  ./component/serial_manager/serial_manager.o
Serial_UartRead                                   ./component/serial_manager/serial_port_uart.o
                                                  ./component/serial_manager/serial_manager.o
Serial_UartWrite                                  ./component/serial_manager/serial_port_uart.o
                                                  ./component/serial_manager/serial_manager.o
StrFormatPrintf                                   ./utilities/fsl_str.o
                                                  ./utilities/fsl_debug_console.o
StrFormatScanf                                    ./utilities/fsl_str.o
                                                  ./utilities/fsl_debug_console.o
SysTick_Handler                                   ./startup/startup_mimxrt1062.o
SystemCoreClock                                   ./device/system_MIMXRT1062.o
                                                  ./board/clock_config.o
SystemCoreClockUpdate                             ./device/system_MIMXRT1062.o
SystemInit                                        ./device/system_MIMXRT1062.o
                                                  ./startup/startup_mimxrt1062.o
SystemInitHook                                    ./device/system_MIMXRT1062.o
TEMP_LOW_HIGH_DriverIRQHandler                    ./startup/startup_mimxrt1062.o
TEMP_LOW_HIGH_IRQHandler                          ./startup/startup_mimxrt1062.o
TEMP_PANIC_DriverIRQHandler                       ./startup/startup_mimxrt1062.o
TEMP_PANIC_IRQHandler                             ./startup/startup_mimxrt1062.o
TMR1_DriverIRQHandler                             ./startup/startup_mimxrt1062.o
TMR1_IRQHandler                                   ./startup/startup_mimxrt1062.o
TMR2_DriverIRQHandler                             ./startup/startup_mimxrt1062.o
TMR2_IRQHandler                                   ./startup/startup_mimxrt1062.o
TMR3_DriverIRQHandler                             ./startup/startup_mimxrt1062.o
TMR3_IRQHandler                                   ./startup/startup_mimxrt1062.o
TMR4_DriverIRQHandler                             ./startup/startup_mimxrt1062.o
TMR4_IRQHandler                                   ./startup/startup_mimxrt1062.o
TRNG_DriverIRQHandler                             ./startup/startup_mimxrt1062.o
TRNG_IRQHandler                                   ./startup/startup_mimxrt1062.o
TSC_DIG_DriverIRQHandler                          ./startup/startup_mimxrt1062.o
TSC_DIG_IRQHandler                                ./startup/startup_mimxrt1062.o
USB_OTG1_DriverIRQHandler                         ./startup/startup_mimxrt1062.o
USB_OTG1_IRQHandler                               ./startup/startup_mimxrt1062.o
USB_OTG2_DriverIRQHandler                         ./startup/startup_mimxrt1062.o
USB_OTG2_IRQHandler                               ./startup/startup_mimxrt1062.o
USB_PHY1_DriverIRQHandler                         ./startup/startup_mimxrt1062.o
USB_PHY1_IRQHandler                               ./startup/startup_mimxrt1062.o
USB_PHY2_DriverIRQHandler                         ./startup/startup_mimxrt1062.o
USB_PHY2_IRQHandler                               ./startup/startup_mimxrt1062.o
USDHC1_DriverIRQHandler                           ./startup/startup_mimxrt1062.o
USDHC1_IRQHandler                                 ./startup/startup_mimxrt1062.o
USDHC2_DriverIRQHandler                           ./startup/startup_mimxrt1062.o
USDHC2_IRQHandler                                 ./startup/startup_mimxrt1062.o
W5100_Init                                        ./drivers/ethernet_lib.o
                                                  ./source/cmsis_lpspi_int_b2b_transfer_master.o
WDOG1_DriverIRQHandler                            ./startup/startup_mimxrt1062.o
WDOG1_IRQHandler                                  ./startup/startup_mimxrt1062.o
WDOG2_DriverIRQHandler                            ./startup/startup_mimxrt1062.o
WDOG2_IRQHandler                                  ./startup/startup_mimxrt1062.o
XBAR1_IRQ_0_1_DriverIRQHandler                    ./startup/startup_mimxrt1062.o
XBAR1_IRQ_0_1_IRQHandler                          ./startup/startup_mimxrt1062.o
XBAR1_IRQ_2_3_DriverIRQHandler                    ./startup/startup_mimxrt1062.o
XBAR1_IRQ_2_3_IRQHandler                          ./startup/startup_mimxrt1062.o
_Csys_alloc                                       c:/nxp/mcuxpressoide_11.0.1_2563/ide/plugins/com.nxp.mcuxpresso.tools.win32_11.0.1.201907311258/tools/bin/../lib/gcc/arm-none-eabi/8.2.1/../../../../arm-none-eabi/lib/thumb/v7e-m+dp/hard\libcr_c.a(alloc.o)
                                                  c:/nxp/mcuxpressoide_11.0.1_2563/ide/plugins/com.nxp.mcuxpresso.tools.win32_11.0.1.201907311258/tools/bin/../lib/gcc/arm-none-eabi/8.2.1/../../../../arm-none-eabi/lib/thumb/v7e-m+dp/hard\libcr_c.a(_deferredlazyseek.o)
_Cwritebuf                                        c:/nxp/mcuxpressoide_11.0.1_2563/ide/plugins/com.nxp.mcuxpresso.tools.win32_11.0.1.201907311258/tools/bin/../lib/gcc/arm-none-eabi/8.2.1/../../../../arm-none-eabi/lib/thumb/v7e-m+dp/hard\libcr_c.a(_writebuf.o)
                                                  c:/nxp/mcuxpressoide_11.0.1_2563/ide/plugins/com.nxp.mcuxpresso.tools.win32_11.0.1.201907311258/tools/bin/../lib/gcc/arm-none-eabi/8.2.1/../../../../arm-none-eabi/lib/thumb/v7e-m+dp/hard\libcr_c.a(_fflush.o)
                                                  c:/nxp/mcuxpressoide_11.0.1_2563/ide/plugins/com.nxp.mcuxpresso.tools.win32_11.0.1.201907311258/tools/bin/../lib/gcc/arm-none-eabi/8.2.1/../../../../arm-none-eabi/lib/thumb/v7e-m+dp/hard\libcr_c.a(_deferredlazyseek.o)
__Ciob                                            c:/nxp/mcuxpressoide_11.0.1_2563/ide/plugins/com.nxp.mcuxpresso.tools.win32_11.0.1.201907311258/tools/bin/../lib/gcc/arm-none-eabi/8.2.1/../../../../arm-none-eabi/lib/thumb/v7e-m+dp/hard\libcr_nohost_nf.a(__ciob.o)
                                                  c:/nxp/mcuxpressoide_11.0.1_2563/ide/plugins/com.nxp.mcuxpresso.tools.win32_11.0.1.201907311258/tools/bin/../lib/gcc/arm-none-eabi/8.2.1/../../../../arm-none-eabi/lib/thumb/v7e-m+dp/hard\libcr_c.a(fflush.o)
                                                  c:/nxp/mcuxpressoide_11.0.1_2563/ide/plugins/com.nxp.mcuxpresso.tools.win32_11.0.1.201907311258/tools/bin/../lib/gcc/arm-none-eabi/8.2.1/../../../../arm-none-eabi/lib/thumb/v7e-m+dp/hard\libcr_c.a(initio.o)
                                                  c:/nxp/mcuxpressoide_11.0.1_2563/ide/plugins/com.nxp.mcuxpresso.tools.win32_11.0.1.201907311258/tools/bin/../lib/gcc/arm-none-eabi/8.2.1/../../../../arm-none-eabi/lib/thumb/v7e-m+dp/hard\libcr_nohost_nf.a(_cr_assert.o)
__Vectors                                         ./startup/startup_mimxrt1062.o
                                                  ./xip/fsl_flexspi_nor_boot.o
__aeabi_idiv0                                     c:/nxp/mcuxpressoide_11.0.1_2563/ide/plugins/com.nxp.mcuxpresso.tools.win32_11.0.1.201907311258/tools/bin/../lib/gcc/arm-none-eabi/8.2.1/thumb/v7e-m+dp/hard\libcr_eabihelpers.a(division_idiv0.o)
                                                  c:/nxp/mcuxpressoide_11.0.1_2563/ide/plugins/com.nxp.mcuxpresso.tools.win32_11.0.1.201907311258/tools/bin/../lib/gcc/arm-none-eabi/8.2.1/thumb/v7e-m+dp/hard\libcr_eabihelpers.a(division_64.o)
__aeabi_ldivmod                                   c:/nxp/mcuxpressoide_11.0.1_2563/ide/plugins/com.nxp.mcuxpresso.tools.win32_11.0.1.201907311258/tools/bin/../lib/gcc/arm-none-eabi/8.2.1/thumb/v7e-m+dp/hard\libcr_eabihelpers.a(division_64.o)
__aeabi_lowlevel_memset                           c:/nxp/mcuxpressoide_11.0.1_2563/ide/plugins/com.nxp.mcuxpresso.tools.win32_11.0.1.201907311258/tools/bin/../lib/gcc/arm-none-eabi/8.2.1/thumb/v7e-m+dp/hard\libcr_eabihelpers.a(memcpy.o)
                                                  c:/nxp/mcuxpressoide_11.0.1_2563/ide/plugins/com.nxp.mcuxpresso.tools.win32_11.0.1.201907311258/tools/bin/../lib/gcc/arm-none-eabi/8.2.1/../../../../arm-none-eabi/lib/thumb/v7e-m+dp/hard\libcr_c.a(memset.o)
__aeabi_memclr                                    c:/nxp/mcuxpressoide_11.0.1_2563/ide/plugins/com.nxp.mcuxpresso.tools.win32_11.0.1.201907311258/tools/bin/../lib/gcc/arm-none-eabi/8.2.1/thumb/v7e-m+dp/hard\libcr_eabihelpers.a(memcpy.o)
__aeabi_memclr4                                   c:/nxp/mcuxpressoide_11.0.1_2563/ide/plugins/com.nxp.mcuxpresso.tools.win32_11.0.1.201907311258/tools/bin/../lib/gcc/arm-none-eabi/8.2.1/thumb/v7e-m+dp/hard\libcr_eabihelpers.a(memcpy.o)
__aeabi_memclr8                                   c:/nxp/mcuxpressoide_11.0.1_2563/ide/plugins/com.nxp.mcuxpresso.tools.win32_11.0.1.201907311258/tools/bin/../lib/gcc/arm-none-eabi/8.2.1/thumb/v7e-m+dp/hard\libcr_eabihelpers.a(memcpy.o)
__aeabi_memcpy                                    c:/nxp/mcuxpressoide_11.0.1_2563/ide/plugins/com.nxp.mcuxpresso.tools.win32_11.0.1.201907311258/tools/bin/../lib/gcc/arm-none-eabi/8.2.1/thumb/v7e-m+dp/hard\libcr_eabihelpers.a(memcpy.o)
                                                  c:/nxp/mcuxpressoide_11.0.1_2563/ide/plugins/com.nxp.mcuxpresso.tools.win32_11.0.1.201907311258/tools/bin/../lib/gcc/arm-none-eabi/8.2.1/../../../../arm-none-eabi/lib/thumb/v7e-m+dp/hard\libcr_c.a(memcpy.o)
__aeabi_memcpy4                                   c:/nxp/mcuxpressoide_11.0.1_2563/ide/plugins/com.nxp.mcuxpresso.tools.win32_11.0.1.201907311258/tools/bin/../lib/gcc/arm-none-eabi/8.2.1/thumb/v7e-m+dp/hard\libcr_eabihelpers.a(memcpy.o)
__aeabi_memcpy8                                   c:/nxp/mcuxpressoide_11.0.1_2563/ide/plugins/com.nxp.mcuxpresso.tools.win32_11.0.1.201907311258/tools/bin/../lib/gcc/arm-none-eabi/8.2.1/thumb/v7e-m+dp/hard\libcr_eabihelpers.a(memcpy.o)
__aeabi_memmove                                   c:/nxp/mcuxpressoide_11.0.1_2563/ide/plugins/com.nxp.mcuxpresso.tools.win32_11.0.1.201907311258/tools/bin/../lib/gcc/arm-none-eabi/8.2.1/thumb/v7e-m+dp/hard\libcr_eabihelpers.a(memcpy.o)
__aeabi_memmove4                                  c:/nxp/mcuxpressoide_11.0.1_2563/ide/plugins/com.nxp.mcuxpresso.tools.win32_11.0.1.201907311258/tools/bin/../lib/gcc/arm-none-eabi/8.2.1/thumb/v7e-m+dp/hard\libcr_eabihelpers.a(memcpy.o)
__aeabi_memmove8                                  c:/nxp/mcuxpressoide_11.0.1_2563/ide/plugins/com.nxp.mcuxpresso.tools.win32_11.0.1.201907311258/tools/bin/../lib/gcc/arm-none-eabi/8.2.1/thumb/v7e-m+dp/hard\libcr_eabihelpers.a(memcpy.o)
__aeabi_memset                                    c:/nxp/mcuxpressoide_11.0.1_2563/ide/plugins/com.nxp.mcuxpresso.tools.win32_11.0.1.201907311258/tools/bin/../lib/gcc/arm-none-eabi/8.2.1/thumb/v7e-m+dp/hard\libcr_eabihelpers.a(memcpy.o)
__aeabi_memset4                                   c:/nxp/mcuxpressoide_11.0.1_2563/ide/plugins/com.nxp.mcuxpresso.tools.win32_11.0.1.201907311258/tools/bin/../lib/gcc/arm-none-eabi/8.2.1/thumb/v7e-m+dp/hard\libcr_eabihelpers.a(memcpy.o)
__aeabi_memset8                                   c:/nxp/mcuxpressoide_11.0.1_2563/ide/plugins/com.nxp.mcuxpresso.tools.win32_11.0.1.201907311258/tools/bin/../lib/gcc/arm-none-eabi/8.2.1/thumb/v7e-m+dp/hard\libcr_eabihelpers.a(memcpy.o)
__aeabi_uldivmod                                  c:/nxp/mcuxpressoide_11.0.1_2563/ide/plugins/com.nxp.mcuxpresso.tools.win32_11.0.1.201907311258/tools/bin/../lib/gcc/arm-none-eabi/8.2.1/thumb/v7e-m+dp/hard\libcr_eabihelpers.a(division_64.o)
                                                  ./device/system_MIMXRT1062.o
                                                  ./drivers/fsl_lpspi.o
__assert_func                                     ./utilities/fsl_assert.o
__assertion_failed                                c:/nxp/mcuxpressoide_11.0.1_2563/ide/plugins/com.nxp.mcuxpresso.tools.win32_11.0.1.201907311258/tools/bin/../lib/gcc/arm-none-eabi/8.2.1/../../../../arm-none-eabi/lib/thumb/v7e-m+dp/hard\libcr_nohost_nf.a(_cr_assert.o)
                                                  ./board/pin_mux.o
                                                  ./board/clock_config.o
                                                  ./component/serial_manager/serial_port_uart.o
                                                  ./component/serial_manager/serial_manager.o
                                                  ./component/uart/lpuart_adapter.o
                                                  ./drivers/fsl_lpuart.o
                                                  ./drivers/fsl_lpspi_edma.o
                                                  ./drivers/fsl_lpspi_cmsis.o
                                                  ./drivers/fsl_lpspi.o
                                                  ./drivers/fsl_gpio.o
                                                  ./drivers/fsl_edma.o
                                                  ./drivers/fsl_dmamux.o
                                                  ./drivers/fsl_clock.o
                                                  ./utilities/fsl_debug_console.o
__bhs_ldivmod1                                    c:/nxp/mcuxpressoide_11.0.1_2563/ide/plugins/com.nxp.mcuxpresso.tools.win32_11.0.1.201907311258/tools/bin/../lib/gcc/arm-none-eabi/8.2.1/thumb/v7e-m+dp/hard\libcr_eabihelpers.a(division_64.o)
__boot_hdr_start__                                ./xip/fsl_flexspi_nor_boot.o
__bss_section_table_end                           ./startup/startup_mimxrt1062.o
__check_heap_overflow                             c:/nxp/mcuxpressoide_11.0.1_2563/ide/plugins/com.nxp.mcuxpresso.tools.win32_11.0.1.201907311258/tools/bin/../lib/gcc/arm-none-eabi/8.2.1/../../../../arm-none-eabi/lib/thumb/v7e-m+dp/hard\libcr_c.a(_cr_check_heap.o)
                                                  c:/nxp/mcuxpressoide_11.0.1_2563/ide/plugins/com.nxp.mcuxpresso.tools.win32_11.0.1.201907311258/tools/bin/../lib/gcc/arm-none-eabi/8.2.1/../../../../arm-none-eabi/lib/thumb/v7e-m+dp/hard\libcr_c.a(_cr_sbrk.o)
__data_section_table                              ./startup/startup_mimxrt1062.o
__data_section_table_end                          ./startup/startup_mimxrt1062.o
__end_of_heap                                     c:/nxp/mcuxpressoide_11.0.1_2563/ide/plugins/com.nxp.mcuxpresso.tools.win32_11.0.1.201907311258/tools/bin/../lib/gcc/arm-none-eabi/8.2.1/../../../../arm-none-eabi/lib/thumb/v7e-m+dp/hard\libcr_c.a(__init_alloc.o)
                                                  c:/nxp/mcuxpressoide_11.0.1_2563/ide/plugins/com.nxp.mcuxpresso.tools.win32_11.0.1.201907311258/tools/bin/../lib/gcc/arm-none-eabi/8.2.1/../../../../arm-none-eabi/lib/thumb/v7e-m+dp/hard\libcr_c.a(_cr_sbrk.o)
__exit                                            c:/nxp/mcuxpressoide_11.0.1_2563/ide/plugins/com.nxp.mcuxpresso.tools.win32_11.0.1.201907311258/tools/bin/../lib/gcc/arm-none-eabi/8.2.1/../../../../arm-none-eabi/lib/thumb/v7e-m+dp/hard\libcr_nohost_nf.a(__sys_appexit.o)
__flsbuf                                          c:/nxp/mcuxpressoide_11.0.1_2563/ide/plugins/com.nxp.mcuxpresso.tools.win32_11.0.1.201907311258/tools/bin/../lib/gcc/arm-none-eabi/8.2.1/../../../../arm-none-eabi/lib/thumb/v7e-m+dp/hard\libcr_c.a(_deferredlazyseek.o)
                                                  c:/nxp/mcuxpressoide_11.0.1_2563/ide/plugins/com.nxp.mcuxpresso.tools.win32_11.0.1.201907311258/tools/bin/../lib/gcc/arm-none-eabi/8.2.1/../../../../arm-none-eabi/lib/thumb/v7e-m+dp/hard\libcr_c.a(fputs.o)
                                                  c:/nxp/mcuxpressoide_11.0.1_2563/ide/plugins/com.nxp.mcuxpresso.tools.win32_11.0.1.201907311258/tools/bin/../lib/gcc/arm-none-eabi/8.2.1/../../../../arm-none-eabi/lib/thumb/v7e-m+dp/hard\libcr_nohost_nf.a(_cr_assert.o)
__heaps                                           c:/nxp/mcuxpressoide_11.0.1_2563/ide/plugins/com.nxp.mcuxpresso.tools.win32_11.0.1.201907311258/tools/bin/../lib/gcc/arm-none-eabi/8.2.1/../../../../arm-none-eabi/lib/thumb/v7e-m+dp/hard\libcr_c.a(__init_alloc.o)
                                                  c:/nxp/mcuxpressoide_11.0.1_2563/ide/plugins/com.nxp.mcuxpresso.tools.win32_11.0.1.201907311258/tools/bin/../lib/gcc/arm-none-eabi/8.2.1/../../../../arm-none-eabi/lib/thumb/v7e-m+dp/hard\libcr_c.a(alloc.o)
__main                                            c:/nxp/mcuxpressoide_11.0.1_2563/ide/plugins/com.nxp.mcuxpresso.tools.win32_11.0.1.201907311258/tools/bin/../lib/gcc/arm-none-eabi/8.2.1/../../../../arm-none-eabi/lib/thumb/v7e-m+dp/hard\libcr_nohost_nf.a(_cr__main.o)
                                                  ./startup/startup_mimxrt1062.o
__num_Ciob_streams                                c:/nxp/mcuxpressoide_11.0.1_2563/ide/plugins/com.nxp.mcuxpresso.tools.win32_11.0.1.201907311258/tools/bin/../lib/gcc/arm-none-eabi/8.2.1/../../../../arm-none-eabi/lib/thumb/v7e-m+dp/hard\libcr_nohost_nf.a(__ciob.o)
                                                  c:/nxp/mcuxpressoide_11.0.1_2563/ide/plugins/com.nxp.mcuxpresso.tools.win32_11.0.1.201907311258/tools/bin/../lib/gcc/arm-none-eabi/8.2.1/../../../../arm-none-eabi/lib/thumb/v7e-m+dp/hard\libcr_c.a(fflush.o)
                                                  c:/nxp/mcuxpressoide_11.0.1_2563/ide/plugins/com.nxp.mcuxpresso.tools.win32_11.0.1.201907311258/tools/bin/../lib/gcc/arm-none-eabi/8.2.1/../../../../arm-none-eabi/lib/thumb/v7e-m+dp/hard\libcr_c.a(initio.o)
__sys_appexit                                     c:/nxp/mcuxpressoide_11.0.1_2563/ide/plugins/com.nxp.mcuxpresso.tools.win32_11.0.1.201907311258/tools/bin/../lib/gcc/arm-none-eabi/8.2.1/../../../../arm-none-eabi/lib/thumb/v7e-m+dp/hard\libcr_nohost_nf.a(__sys_appexit.o)
                                                  c:/nxp/mcuxpressoide_11.0.1_2563/ide/plugins/com.nxp.mcuxpresso.tools.win32_11.0.1.201907311258/tools/bin/../lib/gcc/arm-none-eabi/8.2.1/../../../../arm-none-eabi/lib/thumb/v7e-m+dp/hard\libcr_c.a(alloc.o)
                                                  c:/nxp/mcuxpressoide_11.0.1_2563/ide/plugins/com.nxp.mcuxpresso.tools.win32_11.0.1.201907311258/tools/bin/../lib/gcc/arm-none-eabi/8.2.1/../../../../arm-none-eabi/lib/thumb/v7e-m+dp/hard\libcr_nohost_nf.a(_cr_assert.o)
__sys_close                                       c:/nxp/mcuxpressoide_11.0.1_2563/ide/plugins/com.nxp.mcuxpresso.tools.win32_11.0.1.201907311258/tools/bin/../lib/gcc/arm-none-eabi/8.2.1/../../../../arm-none-eabi/lib/thumb/v7e-m+dp/hard\libcr_nohost_nf.a(__sys_close.o)
                                                  c:/nxp/mcuxpressoide_11.0.1_2563/ide/plugins/com.nxp.mcuxpresso.tools.win32_11.0.1.201907311258/tools/bin/../lib/gcc/arm-none-eabi/8.2.1/../../../../arm-none-eabi/lib/thumb/v7e-m+dp/hard\libcr_c.a(fclose.o)
__sys_flen                                        c:/nxp/mcuxpressoide_11.0.1_2563/ide/plugins/com.nxp.mcuxpresso.tools.win32_11.0.1.201907311258/tools/bin/../lib/gcc/arm-none-eabi/8.2.1/../../../../arm-none-eabi/lib/thumb/v7e-m+dp/hard\libcr_nohost_nf.a(__sys_flen.o)
                                                  c:/nxp/mcuxpressoide_11.0.1_2563/ide/plugins/com.nxp.mcuxpresso.tools.win32_11.0.1.201907311258/tools/bin/../lib/gcc/arm-none-eabi/8.2.1/../../../../arm-none-eabi/lib/thumb/v7e-m+dp/hard\libcr_c.a(fseek.o)
                                                  c:/nxp/mcuxpressoide_11.0.1_2563/ide/plugins/com.nxp.mcuxpresso.tools.win32_11.0.1.201907311258/tools/bin/../lib/gcc/arm-none-eabi/8.2.1/../../../../arm-none-eabi/lib/thumb/v7e-m+dp/hard\libcr_c.a(_writebuf.o)
__sys_istty                                       c:/nxp/mcuxpressoide_11.0.1_2563/ide/plugins/com.nxp.mcuxpresso.tools.win32_11.0.1.201907311258/tools/bin/../lib/gcc/arm-none-eabi/8.2.1/../../../../arm-none-eabi/lib/thumb/v7e-m+dp/hard\libcr_nohost_nf.a(__sys_istty.o)
                                                  c:/nxp/mcuxpressoide_11.0.1_2563/ide/plugins/com.nxp.mcuxpresso.tools.win32_11.0.1.201907311258/tools/bin/../lib/gcc/arm-none-eabi/8.2.1/../../../../arm-none-eabi/lib/thumb/v7e-m+dp/hard\libcr_c.a(fseek.o)
                                                  c:/nxp/mcuxpressoide_11.0.1_2563/ide/plugins/com.nxp.mcuxpresso.tools.win32_11.0.1.201907311258/tools/bin/../lib/gcc/arm-none-eabi/8.2.1/../../../../arm-none-eabi/lib/thumb/v7e-m+dp/hard\libcr_c.a(_deferredlazyseek.o)
__sys_remove                                      c:/nxp/mcuxpressoide_11.0.1_2563/ide/plugins/com.nxp.mcuxpresso.tools.win32_11.0.1.201907311258/tools/bin/../lib/gcc/arm-none-eabi/8.2.1/../../../../arm-none-eabi/lib/thumb/v7e-m+dp/hard\libcr_nohost_nf.a(__sys_remove.o)
                                                  c:/nxp/mcuxpressoide_11.0.1_2563/ide/plugins/com.nxp.mcuxpresso.tools.win32_11.0.1.201907311258/tools/bin/../lib/gcc/arm-none-eabi/8.2.1/../../../../arm-none-eabi/lib/thumb/v7e-m+dp/hard\libcr_c.a(remove.o)
__sys_rename                                      c:/nxp/mcuxpressoide_11.0.1_2563/ide/plugins/com.nxp.mcuxpresso.tools.win32_11.0.1.201907311258/tools/bin/../lib/gcc/arm-none-eabi/8.2.1/../../../../arm-none-eabi/lib/thumb/v7e-m+dp/hard\libcr_nohost_nf.a(__sys_rename.o)
                                                  c:/nxp/mcuxpressoide_11.0.1_2563/ide/plugins/com.nxp.mcuxpresso.tools.win32_11.0.1.201907311258/tools/bin/../lib/gcc/arm-none-eabi/8.2.1/../../../../arm-none-eabi/lib/thumb/v7e-m+dp/hard\libcr_c.a(remove.o)
__sys_seek                                        c:/nxp/mcuxpressoide_11.0.1_2563/ide/plugins/com.nxp.mcuxpresso.tools.win32_11.0.1.201907311258/tools/bin/../lib/gcc/arm-none-eabi/8.2.1/../../../../arm-none-eabi/lib/thumb/v7e-m+dp/hard\libcr_nohost_nf.a(__sys_seek.o)
                                                  c:/nxp/mcuxpressoide_11.0.1_2563/ide/plugins/com.nxp.mcuxpresso.tools.win32_11.0.1.201907311258/tools/bin/../lib/gcc/arm-none-eabi/8.2.1/../../../../arm-none-eabi/lib/thumb/v7e-m+dp/hard\libcr_c.a(_writebuf.o)
__sys_tmpnam                                      c:/nxp/mcuxpressoide_11.0.1_2563/ide/plugins/com.nxp.mcuxpresso.tools.win32_11.0.1.201907311258/tools/bin/../lib/gcc/arm-none-eabi/8.2.1/../../../../arm-none-eabi/lib/thumb/v7e-m+dp/hard\libcr_nohost_nf.a(__sys_tmpnam.o)
                                                  c:/nxp/mcuxpressoide_11.0.1_2563/ide/plugins/com.nxp.mcuxpresso.tools.win32_11.0.1.201907311258/tools/bin/../lib/gcc/arm-none-eabi/8.2.1/../../../../arm-none-eabi/lib/thumb/v7e-m+dp/hard\libcr_c.a(fclose.o)
__sys_write                                       c:/nxp/mcuxpressoide_11.0.1_2563/ide/plugins/com.nxp.mcuxpresso.tools.win32_11.0.1.201907311258/tools/bin/../lib/gcc/arm-none-eabi/8.2.1/../../../../arm-none-eabi/lib/thumb/v7e-m+dp/hard\libcr_nohost_nf.a(__sys_write.o)
                                                  c:/nxp/mcuxpressoide_11.0.1_2563/ide/plugins/com.nxp.mcuxpresso.tools.win32_11.0.1.201907311258/tools/bin/../lib/gcc/arm-none-eabi/8.2.1/../../../../arm-none-eabi/lib/thumb/v7e-m+dp/hard\libcr_c.a(alloc.o)
                                                  c:/nxp/mcuxpressoide_11.0.1_2563/ide/plugins/com.nxp.mcuxpresso.tools.win32_11.0.1.201907311258/tools/bin/../lib/gcc/arm-none-eabi/8.2.1/../../../../arm-none-eabi/lib/thumb/v7e-m+dp/hard\libcr_c.a(_writebuf.o)
__teensy_vectors_start__                          ./startup/startup_mimxrt1062.o
_deferredlazyseek                                 c:/nxp/mcuxpressoide_11.0.1_2563/ide/plugins/com.nxp.mcuxpresso.tools.win32_11.0.1.201907311258/tools/bin/../lib/gcc/arm-none-eabi/8.2.1/../../../../arm-none-eabi/lib/thumb/v7e-m+dp/hard\libcr_c.a(_deferredlazyseek.o)
                                                  c:/nxp/mcuxpressoide_11.0.1_2563/ide/plugins/com.nxp.mcuxpresso.tools.win32_11.0.1.201907311258/tools/bin/../lib/gcc/arm-none-eabi/8.2.1/../../../../arm-none-eabi/lib/thumb/v7e-m+dp/hard\libcr_c.a(_do_fflush.o)
_delay_ms                                         ./drivers/ethernet_lib.o
                                                  ./source/cmsis_lpspi_int_b2b_transfer_master.o
_do_fflush                                        c:/nxp/mcuxpressoide_11.0.1_2563/ide/plugins/com.nxp.mcuxpresso.tools.win32_11.0.1.201907311258/tools/bin/../lib/gcc/arm-none-eabi/8.2.1/../../../../arm-none-eabi/lib/thumb/v7e-m+dp/hard\libcr_c.a(_do_fflush.o)
                                                  c:/nxp/mcuxpressoide_11.0.1_2563/ide/plugins/com.nxp.mcuxpresso.tools.win32_11.0.1.201907311258/tools/bin/../lib/gcc/arm-none-eabi/8.2.1/../../../../arm-none-eabi/lib/thumb/v7e-m+dp/hard\libcr_c.a(fflush.o)
_fdopen                                           c:/nxp/mcuxpressoide_11.0.1_2563/ide/plugins/com.nxp.mcuxpresso.tools.win32_11.0.1.201907311258/tools/bin/../lib/gcc/arm-none-eabi/8.2.1/../../../../arm-none-eabi/lib/thumb/v7e-m+dp/hard\libcr_c.a(_fdopen.o)
                                                  c:/nxp/mcuxpressoide_11.0.1_2563/ide/plugins/com.nxp.mcuxpresso.tools.win32_11.0.1.201907311258/tools/bin/../lib/gcc/arm-none-eabi/8.2.1/../../../../arm-none-eabi/lib/thumb/v7e-m+dp/hard\libcr_c.a(initio.o)
_fflush                                           c:/nxp/mcuxpressoide_11.0.1_2563/ide/plugins/com.nxp.mcuxpresso.tools.win32_11.0.1.201907311258/tools/bin/../lib/gcc/arm-none-eabi/8.2.1/../../../../arm-none-eabi/lib/thumb/v7e-m+dp/hard\libcr_c.a(_fflush.o)
                                                  c:/nxp/mcuxpressoide_11.0.1_2563/ide/plugins/com.nxp.mcuxpresso.tools.win32_11.0.1.201907311258/tools/bin/../lib/gcc/arm-none-eabi/8.2.1/../../../../arm-none-eabi/lib/thumb/v7e-m+dp/hard\libcr_c.a(_do_fflush.o)
                                                  c:/nxp/mcuxpressoide_11.0.1_2563/ide/plugins/com.nxp.mcuxpresso.tools.win32_11.0.1.201907311258/tools/bin/../lib/gcc/arm-none-eabi/8.2.1/../../../../arm-none-eabi/lib/thumb/v7e-m+dp/hard\libcr_c.a(_deferredlazyseek.o)
_flexram_bank_config                              ./startup/startup_mimxrt1062.o
_image_size                                       ./startup/startup_mimxrt1062.o
_init_alloc                                       c:/nxp/mcuxpressoide_11.0.1_2563/ide/plugins/com.nxp.mcuxpresso.tools.win32_11.0.1.201907311258/tools/bin/../lib/gcc/arm-none-eabi/8.2.1/../../../../arm-none-eabi/lib/thumb/v7e-m+dp/hard\libcr_c.a(__init_alloc.o)
_initio                                           c:/nxp/mcuxpressoide_11.0.1_2563/ide/plugins/com.nxp.mcuxpresso.tools.win32_11.0.1.201907311258/tools/bin/../lib/gcc/arm-none-eabi/8.2.1/../../../../arm-none-eabi/lib/thumb/v7e-m+dp/hard\libcr_c.a(initio.o)
                                                  c:/nxp/mcuxpressoide_11.0.1_2563/ide/plugins/com.nxp.mcuxpresso.tools.win32_11.0.1.201907311258/tools/bin/../lib/gcc/arm-none-eabi/8.2.1/../../../../arm-none-eabi/lib/thumb/v7e-m+dp/hard\libcr_nohost_nf.a(_cr__main.o)
_itcm_end                                         ./startup/startup_mimxrt1062.o
_itcm_loadstart                                   ./startup/startup_mimxrt1062.o
_itcm_start                                       ./startup/startup_mimxrt1062.o
_pvHeapLimit                                      c:/nxp/mcuxpressoide_11.0.1_2563/ide/plugins/com.nxp.mcuxpresso.tools.win32_11.0.1.201907311258/tools/bin/../lib/gcc/arm-none-eabi/8.2.1/../../../../arm-none-eabi/lib/thumb/v7e-m+dp/hard\libcr_c.a(_cr_check_heap.o)
_pvHeapStart                                      c:/nxp/mcuxpressoide_11.0.1_2563/ide/plugins/com.nxp.mcuxpresso.tools.win32_11.0.1.201907311258/tools/bin/../lib/gcc/arm-none-eabi/8.2.1/../../../../arm-none-eabi/lib/thumb/v7e-m+dp/hard\libcr_c.a(_cr_sbrk.o)
_sbrk                                             c:/nxp/mcuxpressoide_11.0.1_2563/ide/plugins/com.nxp.mcuxpresso.tools.win32_11.0.1.201907311258/tools/bin/../lib/gcc/arm-none-eabi/8.2.1/../../../../arm-none-eabi/lib/thumb/v7e-m+dp/hard\libcr_c.a(_cr_sbrk.o)
                                                  c:/nxp/mcuxpressoide_11.0.1_2563/ide/plugins/com.nxp.mcuxpresso.tools.win32_11.0.1.201907311258/tools/bin/../lib/gcc/arm-none-eabi/8.2.1/../../../../arm-none-eabi/lib/thumb/v7e-m+dp/hard\libcr_c.a(alloc.o)
_terminateio                                      c:/nxp/mcuxpressoide_11.0.1_2563/ide/plugins/com.nxp.mcuxpresso.tools.win32_11.0.1.201907311258/tools/bin/../lib/gcc/arm-none-eabi/8.2.1/../../../../arm-none-eabi/lib/thumb/v7e-m+dp/hard\libcr_c.a(initio.o)
_vStackTop                                        ./startup/startup_mimxrt1062.o
armPllConfig_BOARD_BootClockRUN                   ./board/clock_config.o
boot_data                                         ./xip/fsl_flexspi_nor_boot.o
bss_init                                          ./startup/startup_mimxrt1062.o
calloc                                            c:/nxp/mcuxpressoide_11.0.1_2563/ide/plugins/com.nxp.mcuxpresso.tools.win32_11.0.1.201907311258/tools/bin/../lib/gcc/arm-none-eabi/8.2.1/../../../../arm-none-eabi/lib/thumb/v7e-m+dp/hard\libcr_c.a(alloc.o)
data_init                                         ./startup/startup_mimxrt1062.o
dcd_data                                          ./xip/evkmimxrt1060_sdram_ini_dcd.o
                                                  ./xip/fsl_flexspi_nor_boot.o
errno                                             c:/nxp/mcuxpressoide_11.0.1_2563/ide/plugins/com.nxp.mcuxpresso.tools.win32_11.0.1.201907311258/tools/bin/../lib/gcc/arm-none-eabi/8.2.1/../../../../arm-none-eabi/lib/thumb/v7e-m+dp/hard\libcr_c.a(errno.o)
                                                  c:/nxp/mcuxpressoide_11.0.1_2563/ide/plugins/com.nxp.mcuxpresso.tools.win32_11.0.1.201907311258/tools/bin/../lib/gcc/arm-none-eabi/8.2.1/../../../../arm-none-eabi/lib/thumb/v7e-m+dp/hard\libcr_c.a(_cr_sbrk.o)
                                                  c:/nxp/mcuxpressoide_11.0.1_2563/ide/plugins/com.nxp.mcuxpresso.tools.win32_11.0.1.201907311258/tools/bin/../lib/gcc/arm-none-eabi/8.2.1/../../../../arm-none-eabi/lib/thumb/v7e-m+dp/hard\libcr_c.a(ftell.o)
fclose                                            c:/nxp/mcuxpressoide_11.0.1_2563/ide/plugins/com.nxp.mcuxpresso.tools.win32_11.0.1.201907311258/tools/bin/../lib/gcc/arm-none-eabi/8.2.1/../../../../arm-none-eabi/lib/thumb/v7e-m+dp/hard\libcr_c.a(fclose.o)
                                                  c:/nxp/mcuxpressoide_11.0.1_2563/ide/plugins/com.nxp.mcuxpresso.tools.win32_11.0.1.201907311258/tools/bin/../lib/gcc/arm-none-eabi/8.2.1/../../../../arm-none-eabi/lib/thumb/v7e-m+dp/hard\libcr_c.a(_fdopen.o)
                                                  c:/nxp/mcuxpressoide_11.0.1_2563/ide/plugins/com.nxp.mcuxpresso.tools.win32_11.0.1.201907311258/tools/bin/../lib/gcc/arm-none-eabi/8.2.1/../../../../arm-none-eabi/lib/thumb/v7e-m+dp/hard\libcr_c.a(initio.o)
fflush                                            c:/nxp/mcuxpressoide_11.0.1_2563/ide/plugins/com.nxp.mcuxpresso.tools.win32_11.0.1.201907311258/tools/bin/../lib/gcc/arm-none-eabi/8.2.1/../../../../arm-none-eabi/lib/thumb/v7e-m+dp/hard\libcr_c.a(fflush.o)
                                                  c:/nxp/mcuxpressoide_11.0.1_2563/ide/plugins/com.nxp.mcuxpresso.tools.win32_11.0.1.201907311258/tools/bin/../lib/gcc/arm-none-eabi/8.2.1/../../../../arm-none-eabi/lib/thumb/v7e-m+dp/hard\libcr_c.a(fclose.o)
fputs                                             c:/nxp/mcuxpressoide_11.0.1_2563/ide/plugins/com.nxp.mcuxpresso.tools.win32_11.0.1.201907311258/tools/bin/../lib/gcc/arm-none-eabi/8.2.1/../../../../arm-none-eabi/lib/thumb/v7e-m+dp/hard\libcr_c.a(fputs.o)
                                                  c:/nxp/mcuxpressoide_11.0.1_2563/ide/plugins/com.nxp.mcuxpresso.tools.win32_11.0.1.201907311258/tools/bin/../lib/gcc/arm-none-eabi/8.2.1/../../../../arm-none-eabi/lib/thumb/v7e-m+dp/hard\libcr_nohost_nf.a(_cr_assert.o)
free                                              c:/nxp/mcuxpressoide_11.0.1_2563/ide/plugins/com.nxp.mcuxpresso.tools.win32_11.0.1.201907311258/tools/bin/../lib/gcc/arm-none-eabi/8.2.1/../../../../arm-none-eabi/lib/thumb/v7e-m+dp/hard\libcr_c.a(alloc.o)
                                                  c:/nxp/mcuxpressoide_11.0.1_2563/ide/plugins/com.nxp.mcuxpresso.tools.win32_11.0.1.201907311258/tools/bin/../lib/gcc/arm-none-eabi/8.2.1/../../../../arm-none-eabi/lib/thumb/v7e-m+dp/hard\libcr_c.a(fclose.o)
                                                  ./drivers/fsl_common.o
fseek                                             c:/nxp/mcuxpressoide_11.0.1_2563/ide/plugins/com.nxp.mcuxpresso.tools.win32_11.0.1.201907311258/tools/bin/../lib/gcc/arm-none-eabi/8.2.1/../../../../arm-none-eabi/lib/thumb/v7e-m+dp/hard\libcr_c.a(fseek.o)
                                                  c:/nxp/mcuxpressoide_11.0.1_2563/ide/plugins/com.nxp.mcuxpresso.tools.win32_11.0.1.201907311258/tools/bin/../lib/gcc/arm-none-eabi/8.2.1/../../../../arm-none-eabi/lib/thumb/v7e-m+dp/hard\libcr_c.a(_do_fflush.o)
                                                  c:/nxp/mcuxpressoide_11.0.1_2563/ide/plugins/com.nxp.mcuxpresso.tools.win32_11.0.1.201907311258/tools/bin/../lib/gcc/arm-none-eabi/8.2.1/../../../../arm-none-eabi/lib/thumb/v7e-m+dp/hard\libcr_c.a(_fdopen.o)
                                                  c:/nxp/mcuxpressoide_11.0.1_2563/ide/plugins/com.nxp.mcuxpresso.tools.win32_11.0.1.201907311258/tools/bin/../lib/gcc/arm-none-eabi/8.2.1/../../../../arm-none-eabi/lib/thumb/v7e-m+dp/hard\libcr_c.a(_deferredlazyseek.o)
ftell                                             c:/nxp/mcuxpressoide_11.0.1_2563/ide/plugins/com.nxp.mcuxpresso.tools.win32_11.0.1.201907311258/tools/bin/../lib/gcc/arm-none-eabi/8.2.1/../../../../arm-none-eabi/lib/thumb/v7e-m+dp/hard\libcr_c.a(ftell.o)
                                                  c:/nxp/mcuxpressoide_11.0.1_2563/ide/plugins/com.nxp.mcuxpresso.tools.win32_11.0.1.201907311258/tools/bin/../lib/gcc/arm-none-eabi/8.2.1/../../../../arm-none-eabi/lib/thumb/v7e-m+dp/hard\libcr_c.a(fseek.o)
g_lpspiDummyData                                  ./drivers/fsl_lpspi.o
                                                  ./drivers/fsl_lpspi_edma.o
g_pfnVectors                                      ./startup/startup_mimxrt1062.o
                                                  ./device/system_MIMXRT1062.o
g_rtcXtalFreq                                     ./drivers/fsl_clock.o
                                                  ./board/clock_config.o
g_serialHandle                                    ./utilities/fsl_debug_console.o
g_xtalFreq                                        ./drivers/fsl_clock.o
                                                  ./board/clock_config.o
                                                  ./board/board.o
i                                                 ./drivers/ethernet_lib.o
image_vector_table                                ./xip/fsl_flexspi_nor_boot.o
isMasterOnReceive                                 ./drivers/ethernet_lib.o
isMasterOnTransmit                                ./drivers/ethernet_lib.o
isTransferCompleted                               ./drivers/ethernet_lib.o
main                                              ./source/cmsis_lpspi_int_b2b_transfer_master.o
                                                  c:/nxp/mcuxpressoide_11.0.1_2563/ide/plugins/com.nxp.mcuxpresso.tools.win32_11.0.1.201907311258/tools/bin/../lib/gcc/arm-none-eabi/8.2.1/../../../../arm-none-eabi/lib/thumb/v7e-m+dp/hard\libcr_nohost_nf.a(_cr__main.o)
malloc                                            c:/nxp/mcuxpressoide_11.0.1_2563/ide/plugins/com.nxp.mcuxpresso.tools.win32_11.0.1.201907311258/tools/bin/../lib/gcc/arm-none-eabi/8.2.1/../../../../arm-none-eabi/lib/thumb/v7e-m+dp/hard\libcr_c.a(alloc.o)
                                                  ./drivers/fsl_common.o
masterRxData                                      ./drivers/ethernet_lib.o
masterTxData                                      ./drivers/ethernet_lib.o
memcpy                                            c:/nxp/mcuxpressoide_11.0.1_2563/ide/plugins/com.nxp.mcuxpresso.tools.win32_11.0.1.201907311258/tools/bin/../lib/gcc/arm-none-eabi/8.2.1/../../../../arm-none-eabi/lib/thumb/v7e-m+dp/hard\libcr_c.a(memcpy.o)
                                                  c:/nxp/mcuxpressoide_11.0.1_2563/ide/plugins/com.nxp.mcuxpresso.tools.win32_11.0.1.201907311258/tools/bin/../lib/gcc/arm-none-eabi/8.2.1/../../../../arm-none-eabi/lib/thumb/v7e-m+dp/hard\libcr_c.a(alloc.o)
memset                                            c:/nxp/mcuxpressoide_11.0.1_2563/ide/plugins/com.nxp.mcuxpresso.tools.win32_11.0.1.201907311258/tools/bin/../lib/gcc/arm-none-eabi/8.2.1/../../../../arm-none-eabi/lib/thumb/v7e-m+dp/hard\libcr_c.a(memset.o)
                                                  c:/nxp/mcuxpressoide_11.0.1_2563/ide/plugins/com.nxp.mcuxpresso.tools.win32_11.0.1.201907311258/tools/bin/../lib/gcc/arm-none-eabi/8.2.1/../../../../arm-none-eabi/lib/thumb/v7e-m+dp/hard\libcr_c.a(fclose.o)
                                                  c:/nxp/mcuxpressoide_11.0.1_2563/ide/plugins/com.nxp.mcuxpresso.tools.win32_11.0.1.201907311258/tools/bin/../lib/gcc/arm-none-eabi/8.2.1/../../../../arm-none-eabi/lib/thumb/v7e-m+dp/hard\libcr_c.a(alloc.o)
                                                  ./component/serial_manager/serial_manager.o
                                                  ./drivers/fsl_lpuart.o
                                                  ./drivers/fsl_lpspi_edma.o
                                                  ./drivers/fsl_lpspi.o
                                                  ./drivers/fsl_edma.o
                                                  ./utilities/fsl_debug_console.o
qspiflash_config                                  ./xip/evkmimxrt1060_flexspi_nor_config.o
realloc                                           c:/nxp/mcuxpressoide_11.0.1_2563/ide/plugins/com.nxp.mcuxpresso.tools.win32_11.0.1.201907311258/tools/bin/../lib/gcc/arm-none-eabi/8.2.1/../../../../arm-none-eabi/lib/thumb/v7e-m+dp/hard\libcr_c.a(alloc.o)
remove                                            c:/nxp/mcuxpressoide_11.0.1_2563/ide/plugins/com.nxp.mcuxpresso.tools.win32_11.0.1.201907311258/tools/bin/../lib/gcc/arm-none-eabi/8.2.1/../../../../arm-none-eabi/lib/thumb/v7e-m+dp/hard\libcr_c.a(remove.o)
                                                  c:/nxp/mcuxpressoide_11.0.1_2563/ide/plugins/com.nxp.mcuxpresso.tools.win32_11.0.1.201907311258/tools/bin/../lib/gcc/arm-none-eabi/8.2.1/../../../../arm-none-eabi/lib/thumb/v7e-m+dp/hard\libcr_c.a(fclose.o)
rename                                            c:/nxp/mcuxpressoide_11.0.1_2563/ide/plugins/com.nxp.mcuxpresso.tools.win32_11.0.1.201907311258/tools/bin/../lib/gcc/arm-none-eabi/8.2.1/../../../../arm-none-eabi/lib/thumb/v7e-m+dp/hard\libcr_c.a(remove.o)
setvbuf                                           c:/nxp/mcuxpressoide_11.0.1_2563/ide/plugins/com.nxp.mcuxpresso.tools.win32_11.0.1.201907311258/tools/bin/../lib/gcc/arm-none-eabi/8.2.1/../../../../arm-none-eabi/lib/thumb/v7e-m+dp/hard\libcr_c.a(setvbuf.o)
                                                  c:/nxp/mcuxpressoide_11.0.1_2563/ide/plugins/com.nxp.mcuxpresso.tools.win32_11.0.1.201907311258/tools/bin/../lib/gcc/arm-none-eabi/8.2.1/../../../../arm-none-eabi/lib/thumb/v7e-m+dp/hard\libcr_c.a(initio.o)
strlen                                            c:/nxp/mcuxpressoide_11.0.1_2563/ide/plugins/com.nxp.mcuxpresso.tools.win32_11.0.1.201907311258/tools/bin/../lib/gcc/arm-none-eabi/8.2.1/../../../../arm-none-eabi/lib/thumb/v7e-m+dp/hard\libcr_c.a(strlen.o)
                                                  c:/nxp/mcuxpressoide_11.0.1_2563/ide/plugins/com.nxp.mcuxpresso.tools.win32_11.0.1.201907311258/tools/bin/../lib/gcc/arm-none-eabi/8.2.1/../../../../arm-none-eabi/lib/thumb/v7e-m+dp/hard\libcr_c.a(remove.o)
                                                  ./utilities/fsl_str.o
sysPllConfig_BOARD_BootClockRUN                   ./board/clock_config.o
usb1PllConfig_BOARD_BootClockRUN                  ./board/clock_config.o
vector_table                                      ./startup/startup_mimxrt1062.o
