
evkmimxrt1060_cmsis_lpspi_wiznet_API.axf:     file format elf32-littlearm
evkmimxrt1060_cmsis_lpspi_wiznet_API.axf
architecture: armv7e-m, flags 0x00000112:
EXEC_P, HAS_SYMS, D_PAGED
start address 0x60001000

Program Header:
    LOAD off    0x0001007c vaddr 0x2000007c paddr 0x2000007c align 2**16
         filesz 0x00000000 memsz 0x00002a40 flags rw-
    LOAD off    0x00010000 vaddr 0x60000000 paddr 0x60000000 align 2**16
         filesz 0x00002060 memsz 0x00002060 flags rwx
    LOAD off    0x00020000 vaddr 0x00000000 paddr 0x60002060 align 2**16
         filesz 0x0000d388 memsz 0x0000d388 flags r-x
    LOAD off    0x00030000 vaddr 0x20000000 paddr 0x6000f3e8 align 2**16
         filesz 0x0000007c memsz 0x0000007c flags rw-
private flags = 5000400: [Version5 EABI] [hard-float ABI]

Sections:
Idx Name          Size      VMA       LMA       File off  Algn
  0 .boot_hdr     00002000  60000000  60000000  00010000  2**2
                  CONTENTS, ALLOC, LOAD, DATA
  1 .teensy_boot  00000060  60002000  60002000  00012000  2**3
                  CONTENTS, ALLOC, LOAD, READONLY, CODE
  2 .text         0000d388  00000000  60002060  00020000  2**3
                  CONTENTS, ALLOC, LOAD, READONLY, CODE
  3 .data_RAM     00000000  0000d388  0000d388  0003007c  2**0
                  CONTENTS
  4 .data         0000007c  20000000  6000f3e8  00030000  2**2
                  CONTENTS, ALLOC, LOAD, DATA
  5 .data_RAM3    00000000  20200000  20200000  0003007c  2**2
                  CONTENTS
  6 .bss_RAM      00000000  0000d388  0000d388  0003007c  2**0
                  CONTENTS
  7 .bss          00000a40  2000007c  2000007c  0001007c  2**2
                  ALLOC
  8 .bss_RAM3     00000000  20200000  20200000  0003007c  2**0
                  CONTENTS
  9 .uninit_RESERVED 00000000  20000000  20000000  0003007c  2**0
                  CONTENTS
 10 .noinit_RAM   00000000  0000d388  0000d388  0003007c  2**0
                  CONTENTS
 11 .noinit_RAM3  00000000  20200000  20200000  0003007c  2**0
                  CONTENTS
 12 .noinit       00000000  20000abc  20000abc  0003007c  2**0
                  CONTENTS
 13 .heap         00001000  20000abc  20000abc  0001007c  2**2
                  ALLOC
 14 .stack        00001000  20001abc  20001abc  0001007c  2**2
                  ALLOC
 15 .debug_info   0001a8d7  00000000  00000000  0003007c  2**0
                  CONTENTS, READONLY, DEBUGGING
 16 .debug_abbrev 00003879  00000000  00000000  0004a953  2**0
                  CONTENTS, READONLY, DEBUGGING
 17 .debug_aranges 00001460  00000000  00000000  0004e1cc  2**0
                  CONTENTS, READONLY, DEBUGGING
 18 .debug_ranges 000012f0  00000000  00000000  0004f62c  2**0
                  CONTENTS, READONLY, DEBUGGING
 19 .debug_macro  00003d96  00000000  00000000  0005091c  2**0
                  CONTENTS, READONLY, DEBUGGING
 20 .debug_line   0000ddbc  00000000  00000000  000546b2  2**0
                  CONTENTS, READONLY, DEBUGGING
 21 .debug_str    001736db  00000000  00000000  0006246e  2**0
                  CONTENTS, READONLY, DEBUGGING
 22 .comment      00000075  00000000  00000000  001d5b49  2**0
                  CONTENTS, READONLY
 23 .ARM.attributes 00000035  00000000  00000000  001d5bbe  2**0
                  CONTENTS, READONLY
 24 .debug_frame  00004b98  00000000  00000000  001d5bf4  2**2
                  CONTENTS, READONLY, DEBUGGING
SYMBOL TABLE:
60000000 l    d  .boot_hdr	00000000 .boot_hdr
60002000 l    d  .teensy_boot	00000000 .teensy_boot
00000000 l    d  .text	00000000 .text
0000d388 l    d  .data_RAM	00000000 .data_RAM
20000000 l    d  .data	00000000 .data
20200000 l    d  .data_RAM3	00000000 .data_RAM3
0000d388 l    d  .bss_RAM	00000000 .bss_RAM
2000007c l    d  .bss	00000000 .bss
20200000 l    d  .bss_RAM3	00000000 .bss_RAM3
20000000 l    d  .uninit_RESERVED	00000000 .uninit_RESERVED
0000d388 l    d  .noinit_RAM	00000000 .noinit_RAM
20200000 l    d  .noinit_RAM3	00000000 .noinit_RAM3
20000abc l    d  .noinit	00000000 .noinit
20000abc l    d  .heap	00000000 .heap
20001abc l    d  .stack	00000000 .stack
00000000 l    d  .debug_info	00000000 .debug_info
00000000 l    d  .debug_abbrev	00000000 .debug_abbrev
00000000 l    d  .debug_aranges	00000000 .debug_aranges
00000000 l    d  .debug_ranges	00000000 .debug_ranges
00000000 l    d  .debug_macro	00000000 .debug_macro
00000000 l    d  .debug_line	00000000 .debug_line
00000000 l    d  .debug_str	00000000 .debug_str
00000000 l    d  .comment	00000000 .comment
00000000 l    d  .ARM.attributes	00000000 .ARM.attributes
00000000 l    d  .debug_frame	00000000 .debug_frame
00000000 l    df *ABS*	00000000 startup_mimxrt1062.c
6000203c l     F .teensy_boot	00000016 memory_copy
00000000 l    df *ABS*	00000000 fsl_lpspi.c
00004068 l     F .text	0000003c __NVIC_EnableIRQ
000040a4 l     F .text	00000064 CLOCK_ControlGate
0000912e l     F .text	0000001e CLOCK_EnableClock
0000914c l     F .text	0000001e CLOCK_DisableClock
0000916a l     F .text	0000002c EnableIRQ
00009196 l     F .text	00000038 LPSPI_Enable
000091ce l     F .text	00000018 LPSPI_GetStatusFlags
000091e6 l     F .text	00000022 LPSPI_GetRxFifoSize
00009208 l     F .text	0000001c LPSPI_GetTxFifoCount
00009224 l     F .text	0000001e LPSPI_GetRxFifoCount
00009242 l     F .text	0000001c LPSPI_ClearStatusFlags
0000925e l     F .text	00000022 LPSPI_EnableInterrupts
00009280 l     F .text	00000024 LPSPI_DisableInterrupts
000092a4 l     F .text	0000002c LPSPI_SetMasterSlaveMode
000092d0 l     F .text	00000026 LPSPI_IsMaster
000092f6 l     F .text	00000030 LPSPI_FlushFifo
00009326 l     F .text	0000002c LPSPI_SetFifoWatermarks
00009352 l     F .text	0000001c LPSPI_WriteData
0000936e l     F .text	00000018 LPSPI_ReadData
0000bff4 l     O .text	00000008 s_baudratePrescaler
0000bffc l     O .text	00000014 s_lpspiBases
0000c010 l     O .text	0000000a s_lpspiIRQ
0000c01c l     O .text	0000000a s_lpspiClocks
20000970 l     O .bss	00000014 s_lpspiHandle
20000984 l     O .bss	00000004 s_lpspiMasterIsr
20000988 l     O .bss	00000004 s_lpspiSlaveIsr
000093b8 l     F .text	00000044 LPSPI_SetOnePcsPolarity
000053cc l     F .text	000001bc LPSPI_CombineWriteData
00005588 l     F .text	000001a8 LPSPI_SeparateReadData
000049bc l     F .text	00000110 LPSPI_MasterTransferFillUpTxFifo
00004acc l     F .text	0000004c LPSPI_MasterTransferComplete
00005030 l     F .text	000000a0 LPSPI_SlaveTransferFillUpTxFifo
000050d0 l     F .text	00000068 LPSPI_SlaveTransferComplete
00005730 l     F .text	0000003c LPSPI_CommonIRQHandler
00000000 l    df *ABS*	00000000 fsl_debug_console.c
2000007c l     O .bss	0000001c s_debugConsoleState
00007e14 l     F .text	00000064 DbgConsole_PrintCallback
00000000 l    df *ABS*	00000000 dhcp.c
00000000 l    df *ABS*	00000000 w5100.c
00000000 l    df *ABS*	00000000 socket.c
20000078 l     O .data	00000002 sock_any_port
20000ab0 l     O .bss	00000002 sock_io_mode
20000ab2 l     O .bss	00000002 sock_is_sending
200000c8 l     O .bss	00000008 sock_remained_size
00000000 l    df *ABS*	00000000 wizchip_conf.c
200000d4 l     O .bss	00000004 _DNS_
20000aba l     O .bss	00000001 _DHCP_
00000000 l    df *ABS*	00000000 cmsis_lpspi_int_b2b_transfer_master.c
00008f90 l     F .text	0000004e QTMR_StartTimer
00000000 l    df *ABS*	00000000 fsl_clock.c
00002cc8 l     F .text	00000030 CLOCK_GetOscFreq
0000903a l     F .text	00000012 CLOCK_GetRtcFreq
0000904c l     F .text	00000032 CLOCK_IsPllBypassed
0000907e l     F .text	0000003c CLOCK_IsPllEnabled
000090ba l     F .text	00000034 CLOCK_GetPllBypassRefClk
00002cf8 l     F .text	000000e0 CLOCK_GetPeriphClkFreq
00000000 l    df *ABS*	00000000 fsl_edma.c
200008f0 l     O .bss	00000080 s_EDMAHandle
00000000 l    df *ABS*	00000000 fsl_gpio.c
00003dc4 l     F .text	00000064 CLOCK_ControlGate
000090ee l     F .text	0000001e CLOCK_EnableClock
0000910c l     F .text	00000022 GPIO_SetPinInterruptConfig
0000ba2c l     O .text	00000028 s_gpioBases
0000ba54 l     O .text	0000000c s_gpioClock
00003e28 l     F .text	0000004c GPIO_GetInstance
00000000 l    df *ABS*	00000000 fsl_lpspi_cmsis.c
0000582c l     F .text	00000064 CLOCK_ControlGate
000093fc l     F .text	0000001e CLOCK_EnableClock
0000941a l     F .text	00000038 LPSPI_Enable
00009452 l     F .text	0000002c LPSPI_SetMasterSlaveMode
0000947e l     F .text	00000026 LPSPI_IsMaster
0000c054 l     O .text	0000000a s_lpspiClock
0000c060 l     O .text	00000004 s_lpspiDriverVersion
000094a4 l     F .text	000002ea LPSPI_CommonControl
0000978e l     F .text	000000a2 LPSPI_SetTransferConfigFlags
00005890 l     F .text	0000002c LPSPIx_GetVersion
00009830 l     F .text	00000014 LPSPIx_GetCapabilities
000098d6 l     F .text	00000030 LPSPI_InterruptInitialize
00009906 l     F .text	0000001c LPSPI_InterruptUninitialize
000058bc l     F .text	00000098 LPSPI_InterruptPowerControl
00009922 l     F .text	000000c6 LPSPI_InterruptSend
000099e8 l     F .text	000000c6 LPSPI_InterruptReceive
00009aae l     F .text	000000c8 LPSPI_InterruptTransfer
00009b76 l     F .text	00000040 LPSPI_InterruptGetCount
00005954 l     F .text	00000264 LPSPI_InterruptControl
00005bb8 l     F .text	00000024 LPSPI4_InterruptInitialize
00005bdc l     F .text	00000018 LPSPI4_InterruptUninitialize
00005bf4 l     F .text	00000024 LPSPI4_InterruptPowerControl
00005c18 l     F .text	00000024 LPSPI4_InterruptSend
00005c3c l     F .text	00000024 LPSPI4_InterruptReceive
00005c60 l     F .text	00000028 LPSPI4_InterruptTransfer
00005c88 l     F .text	00000014 LPSPI4_InterruptGetCount
00005c9c l     F .text	00000024 LPSPI4_InterruptControl
00005cc0 l     F .text	00000014 LPSPI4_InterruptGetStatus
00000000 l    df *ABS*	00000000 fsl_lpuart.c
00005cd4 l     F .text	00000064 CLOCK_ControlGate
00009c68 l     F .text	0000001e CLOCK_EnableClock
00009c86 l     F .text	0000002c LPUART_SoftwareReset
0000c750 l     O .text	00000024 s_lpuartBases
200009c8 l     O .bss	00000024 s_lpuartHandle
0000c774 l     O .text	00000012 s_lpuartClock
200009ec l     O .bss	00000004 s_lpuartIsr
00000000 l    df *ABS*	00000000 fsl_qtmr.c
00006284 l     F .text	00000064 CLOCK_ControlGate
00009cb2 l     F .text	0000001e CLOCK_EnableClock
0000c83c l     O .text	00000014 s_qtmrBases
0000c850 l     O .text	0000000a s_qtmrClocks
000062e8 l     F .text	0000004c QTMR_GetInstance
00000000 l    df *ABS*	00000000 system_MIMXRT1062.c
00006490 l     F .text	00000040 SCB_EnableICache
000064d0 l     F .text	00000080 SCB_EnableDCache
00000000 l    df *ABS*	00000000 lpuart_adapter.c
0000c85c l     O .text	00000024 s_LpuartAdapterBase
00009ec8 l     F .text	00000022 HAL_UartGetStatus
00000000 l    df *ABS*	00000000 serial_manager.c
00009eea l     F .text	0000004a SerialManager_StartWriting
000067a8 l     F .text	0000006c SerialManager_Write
00000000 l    df *ABS*	00000000 serial_port_uart.c
00000000 l    df *ABS*	00000000 board.c
00006a18 l     F .text	0000003c ARM_MPU_Enable
00006a54 l     F .text	00000038 ARM_MPU_Disable
00006a8c l     F .text	00000040 SCB_EnableICache
00006acc l     F .text	00000038 SCB_DisableICache
00006b04 l     F .text	00000080 SCB_EnableDCache
00006b84 l     F .text	00000068 SCB_DisableDCache
00006bec l     F .text	00000044 CLOCK_GetMux
00006c30 l     F .text	00000044 CLOCK_GetDiv
00006c74 l     F .text	00000030 CLOCK_GetOscFreq
00000000 l    df *ABS*	00000000 clock_config.c
00006e08 l     F .text	0000009c CLOCK_SetMux
00006ea4 l     F .text	0000009c CLOCK_SetDiv
00006f40 l     F .text	00000064 CLOCK_ControlGate
00009f76 l     F .text	0000001e CLOCK_DisableClock
00006fa4 l     F .text	00000020 CLOCK_SetXtalFreq
00006fc4 l     F .text	00000020 CLOCK_SetRtcXtalFreq
00009f94 l     F .text	0000004e CLOCK_SetPllBypass
00006fe4 l     F .text	00000048 IOMUXC_EnableMode
00009fe2 l     F .text	0000006c IOMUXC_SetSaiMClkClockSource
0000702c l     F .text	00000044 IOMUXC_MQSConfig
00000000 l    df *ABS*	00000000 pin_mux.c
000076f8 l     F .text	00000064 CLOCK_ControlGate
0000a04e l     F .text	0000001e CLOCK_EnableClock
0000a06c l     F .text	0000003a IOMUXC_SetPinMux
0000a0a6 l     F .text	00000026 IOMUXC_SetPinConfig
00000000 l    df *ABS*	00000000 _cr_assert.c
00000000 l    df *ABS*	00000000 _writebuf.c
00000000 l    df *ABS*	00000000 alloc.c
00000000 l    df *ABS*	00000000 fseek.c
00000000 l    df *ABS*	00000000 ftell.c
00000000 l    df *ABS*	00000000 initio.c
00000000 l    df *ABS*	00000000 setvbuf.c
00000000 l    df *ABS*	00000000 _cr_sbrk.c
00000000 l    df *ABS*	00000000 fflush.c
00000000 l    df *ABS*	00000000 _cr_check_heap.c
00000000 l    df *ABS*	00000000 fsl_str.c
00007e78 l     F .text	00000114 ConvertRadixNumToString
00000000 l    df *ABS*	00000000 semihost_hardfault.c
0000901c l       .text	00000000 _MSP
00009020 l       .text	00000000 _process
0000902e l       .text	00000000 _semihost_return
00000000 l    df *ABS*	00000000 _cr__main.c
00000000 l    df *ABS*	00000000 __sys_appexit.c
00000000 l    df *ABS*	00000000 memset.c
00000000 l    df *ABS*	00000000 _deferredlazyseek.c
00000000 l    df *ABS*	00000000 _fflush.c
00000000 l    df *ABS*	00000000 fputs.c
00000000 l    df *ABS*	00000000 strlen.c
00000000 l    df *ABS*	00000000 _fdopen.c
00000000 l    df *ABS*	00000000 fclose.c
00000000 l    df *ABS*	00000000 remove.c
00000000 l    df *ABS*	00000000 _do_fflush.c
00000000 l    df *ABS*	00000000 division_64.o
0000a4be l       .text	00000000 ldiv64
0000a55c l       .text	00000000 ldiv_divzero
0000a48e l       .text	00000000 ldiv32
0000a568 l       .text	00000000 udiv6432
0000a496 l       .text	00000000 ldiv_return
0000a4ac l       .text	00000000 ldiv_sign
0000a546 l       .text	00000000 ldiv_res01
0000a584 l       .text	00000000 udiv6432_entry
0000a570 l       .text	00000000 udiv6432_loop1
0000a586 l       .text	00000000 udiv6432_loop
00000000 l    df *ABS*	00000000 division_idiv0.o
00000000 l    df *ABS*	00000000 memcpy.o
0000a60a l       .text	00000000 memset1a
0000a5f8 l       .text	00000000 __bhs_memset4
0000a5fa l       .text	00000000 memset4
0000a606 l       .text	00000000 memset1
00000000 l    df *ABS*	00000000 __sys_close.c
00000000 l    df *ABS*	00000000 __sys_flen.c
00000000 l    df *ABS*	00000000 __sys_istty.c
00000000 l    df *ABS*	00000000 __sys_remove.c
00000000 l    df *ABS*	00000000 __sys_seek.c
00000000 l    df *ABS*	00000000 __sys_tmpnam.c
00000000 l    df *ABS*	00000000 __sys_write.c
00000000 l    df *ABS*	00000000 __ciob.c
60002058 l     F .teensy_boot	00000008 __ResetISR_veneer
0000037a  w    F .text	00000002 ACMP4_DriverIRQHandler
000009c4 g     F .text	00000358 send_DHCP_DISCOVER
00002828 g     F .text	00000018 wizchip_cs_select
000084a0  w    F .text	00000008 USB_PHY1_IRQHandler
00000380 g     F .text	0000020c LPSPI_MasterSetDelayTimes
0000037a  w    F .text	00000002 Reserved87_DriverIRQHandler
00006260 g     F .text	00000024 LPUART8_DriverIRQHandler
00004158 g     F .text	0000002c LPSPI_SetDummyData
60000000 g       *ABS*	00000000 __boot_hdr_start__
00008780 g     F .text	00000032 NibbleToHex
000082a8  w    F .text	00000008 DMA2_DMA18_IRQHandler
0000037a  w    F .text	00000002 KPP_DriverIRQHandler
0000a0cc g     F .text	0000000e __main
0000037a  w    F .text	00000002 FLEXSPI2_DriverIRQHandler
0000579c g     F .text	00000030 LPSPI2_DriverIRQHandler
00005d84 g     F .text	000002fe LPUART_Init
00008448  w    F .text	00000008 SJC_IRQHandler
00008648  w    F .text	00000008 ADC_ETC_IRQ0_IRQHandler
00000000 g     O .text	000002b8 __Vectors
0000a0e0 g     F .text	00000040 _deferredlazyseek
0000037a  w    F .text	00000002 LCDIF_DriverIRQHandler
0000037a  w    F .text	00000002 SAI3_RX_DriverIRQHandler
0000037a  w    F .text	00000002 CCM_2_DriverIRQHandler
0000037a  w    F .text	00000002 PIT_DriverIRQHandler
000002b8 g       .text	00000000 __section_table_start
0000a0da  w    F .text	00000002 __exit
0000037a  w    F .text	00000002 PMU_EVENT_DriverIRQHandler
000083f8  w    F .text	00000008 PXP_IRQHandler
0000037a  w    F .text	00000002 PWM4_FAULT_DriverIRQHandler
00003cec g     F .text	00000048 DMA13_DMA29_DriverIRQHandler
0000d30c g     O .text	00000014 sysPllConfig_BOARD_BootClockRUN
0000a634 g     F .text	00000006 __sys_tmpnam
00004484 g     F .text	000000f0 LPSPI_MasterSetBaudRate
00008d26 g     F .text	0000001e wizchip_bus_writedata
00009f54 g     F .text	00000022 BOARD_InitDebugConsole
0000037a  w    F .text	00000002 FLEXRAM_DriverIRQHandler
000027bc g     F .text	00000024 waitfortransfer
00002858 g     F .text	00000030 wizchip_spi_readbyte
00001b10 g     F .text	000000d0 DHCP_init
0000900e g     F .text	0000002c HardFault_Handler
000084c8  w    F .text	00000008 Reserved86_IRQHandler
00000000 g       *ABS*	00000000 __vectors_start__
000085a8  w    F .text	00000008 SRC_IRQHandler
0000643c g     F .text	00000054 QTMR_GetDefaultConfig
000057fc g     F .text	00000030 LPSPI4_DriverIRQHandler
00001000 g       *ABS*	00000000 _HeapSize
00008fde g     F .text	00000030 _delay_ms
000042a0 g     F .text	00000098 LPSPI_MasterGetDefaultConfig
0000037a  w    F .text	00000002 SEMC_DriverIRQHandler
000082b0  w    F .text	00000008 DMA3_DMA19_IRQHandler
00008528  w    F .text	00000008 GPIO2_Combined_0_15_IRQHandler
00008b08 g     F .text	0000016c wiz_recv_data
0000892a g     F .text	0000006c getSn_TxBASE
0000037a  w    F .text	00000002 SPDIF_DriverIRQHandler
000084e8  w    F .text	00000008 GPIO1_INT2_IRQHandler
000083f0  w    F .text	00000008 CSI_IRQHandler
00000378  w    F .text	00000002 SysTick_Handler
0000037a  w    F .text	00000002 PWM4_3_DriverIRQHandler
0000037a  w    F .text	00000002 ENET2_DriverIRQHandler
601f0000 g       *ABS*	00000000 __top_Flash_00
0000610c g     F .text	00000058 LPUART_WriteBlocking
200000c0 g     O .bss	00000006 DHCP_CHADDR
20200000 g       *ABS*	00000000 __base_SRAM_OC
00008418  w    F .text	00000008 SNVS_LP_WRAPPER_IRQHandler
000086a8  w    F .text	00000008 ENC2_IRQHandler
60002060 g       *ABS*	00000000 _itcm_loadstart
000086e8  w    F .text	00000008 PWM2_2_IRQHandler
20000000 g       *ABS*	00000000 __base_RAM2
00000376  w    F .text	00000002 PendSV_Handler
00000370  w    F .text	00000002 NMI_Handler
0000d388 g       .text	00000000 __exidx_end
000002dc g       .text	00000000 __data_section_table_end
00003170 g     F .text	0000009c CLOCK_InitSysPll
0000320c g     F .text	00000018 CLOCK_DeinitUsb2Pll
00008748  w    F .text	00000008 PWM4_FAULT_IRQHandler
00008308  w    F .text	00000008 DMA14_DMA30_IRQHandler
00008510  w    F .text	00000008 GPIO1_INT7_IRQHandler
0000a120 g     F .text	00000140 __flsbuf
0000037a  w    F .text	00000002 USB_PHY1_DriverIRQHandler
60001000 g     O .boot_hdr	00000020 ImageVectorTable
00008590  w    F .text	00000008 CCM_1_IRQHandler
000083b8  w    F .text	00000008 CAN1_IRQHandler
00008cf0 g     F .text	0000000e wizchip_cris_enter
0000037a  w    F .text	00000002 GPIO3_Combined_0_15_DriverIRQHandler
0000037a  w    F .text	00000002 CAN3_DriverIRQHandler
2000098c g     O .bss	00000005 g_lpspiDummyData
00008650  w    F .text	00000008 ADC_ETC_IRQ1_IRQHandler
0000037a  w    F .text	00000002 Reserved171_DriverIRQHandler
000082b8  w    F .text	00000008 DMA4_DMA20_IRQHandler
00008570  w    F .text	00000008 FLEXIO2_IRQHandler
00008568  w    F .text	00000008 FLEXIO1_IRQHandler
00008996 g     F .text	00000172 wiz_send_data
000083a8  w    F .text	00000008 LPSPI3_IRQHandler
20000aac g     O .bss	00000004 errno
00003b3c g     F .text	00000048 DMA7_DMA23_DriverIRQHandler
0000d388 g       .text	00000000 _etext
00008320  w    F .text	00000008 CTI0_ERROR_IRQHandler
0000037a  w    F .text	00000002 BEE_DriverIRQHandler
00002888 g     F .text	00000038 wizchip_spi_writebyte
00008558  w    F .text	00000008 GPIO5_Combined_0_15_IRQHandler
000085c8  w    F .text	00000008 PWM1_0_IRQHandler
00008438  w    F .text	00000008 Reserved68_IRQHandler
00000d1c g     F .text	00000518 send_DHCP_REQUEST
00002dd8 g     F .text	0000006c CLOCK_InitExternalClk
0000037a  w    F .text	00000002 LPI2C3_DriverIRQHandler
000037e4 g     F .text	00000160 EDMA_HandleIRQ
0000037a  w    F .text	00000002 GPR_IRQ_DriverIRQHandler
00008360  w    F .text	00000008 LPUART6_IRQHandler
0000517c g     F .text	00000250 LPSPI_SlaveTransferHandleIRQ
00008dcc g     F .text	000001c4 wizchip_init
000084a8  w    F .text	00000008 USB_PHY2_IRQHandler
000082c8  w    F .text	00000008 DMA6_DMA22_IRQHandler
20000ab5 g     O .bss	00000001 dhcp_state
00006940 g     F .text	00000080 Serial_UartInit
20000994 g     O .bss	00000034 LPSPI4_Handle
000083d8  w    F .text	00000008 TSC_DIG_IRQHandler
000082e0  w    F .text	00000008 DMA9_DMA25_IRQHandler
00002e44 g     F .text	00000034 CLOCK_SwitchOsc
20000004 g     O .data	00000004 dhcp_tick_next
00001000 g       *ABS*	00000000 _StackSize
0000037a  w    F .text	00000002 PWM2_FAULT_DriverIRQHandler
0000035e g     F .text	00000012 bss_init
00008548  w    F .text	00000008 GPIO4_Combined_0_15_IRQHandler
0000037a  w    F .text	00000002 PWM3_1_DriverIRQHandler
00008350  w    F .text	00000008 LPUART4_IRQHandler
00001d20 g     F .text	0000009c WIZCHIP_WRITE_BUF
00008630  w    F .text	00000008 ENET_1588_Timer_IRQHandler
00006888 g     F .text	00000058 SerialManager_OpenWriteHandle
00007d3c g     F .text	00000040 setvbuf
00009cd0 g     F .text	000000ce QTMR_EnableInterrupts
0000c070 g     O .text	0000002c Driver_SPI4
000086d8  w    F .text	00000008 PWM2_0_IRQHandler
00008430  w    F .text	00000008 DCP_VMI_IRQHandler
00008468  w    F .text	00000008 SAI3_RX_IRQHandler
00003d34 g     F .text	00000048 DMA14_DMA30_DriverIRQHandler
000085f0  w    F .text	00000008 FLEXSPI2_IRQHandler
00001c68 g     F .text	0000005c WIZCHIP_WRITE
0000037a  w    F .text	00000002 TMR1_DriverIRQHandler
0000037a  w    F .text	00000002 TRNG_DriverIRQHandler
0000a46e g     F .text	00000174 __aeabi_uldivmod
20000abc g       .noinit	00000000 _noinit
0000037a  w    F .text	00000002 PWM3_2_DriverIRQHandler
60000000 g     O .boot_hdr	00000200 FlexSPI_NOR_Config
0000037a  w    F .text	00000002 ENET_1588_Timer_DriverIRQHandler
00008608  w    F .text	00000008 USDHC1_IRQHandler
000086e0  w    F .text	00000008 PWM2_1_IRQHandler
20000074 g     O .data	00000004 SystemCoreClock
00005138 g     F .text	00000044 LPSPI_SlaveTransferAbort
000082d8  w    F .text	00000008 DMA8_DMA24_IRQHandler
200008e8 g     O .bss	00000004 g_xtalFreq
00007a94 g     F .text	000000c8 malloc
0000a41a g     F .text	00000014 remove
200000d8 g     O .bss	00000004 loop_counter
200000a0 g     O .bss	00000004 OLD_allocated_ip
000086f8  w    F .text	00000008 PWM2_FAULT_IRQHandler
0000037a  w    F .text	00000002 FLEXIO2_DriverIRQHandler
0000037a  w    F .text	00000002 GPIO2_Combined_16_31_DriverIRQHandler
00008760  w    F .text	00000008 CAN3_IRQHandler
0000037a  w    F .text	00000002 Reserved143_DriverIRQHandler
00080000 g       *ABS*	00000000 __top_RAM
00007870 g     F .text	000000d8 LPSPI4_InitPins
00008578  w    F .text	00000008 WDOG1_IRQHandler
00006ca4 g     F .text	00000064 BOARD_DebugConsoleSrcFreq
0000037a  w    F .text	00000002 PWM4_1_DriverIRQHandler
000083b0  w    F .text	00000008 LPSPI4_IRQHandler
000023dc g     F .text	000003bc recvfrom
00008480  w    F .text	00000008 PMU_EVENT_IRQHandler
000061f4 g     F .text	00000024 LPUART5_DriverIRQHandler
00008d0c g     F .text	0000001a wizchip_bus_readdata
000085b8  w    F .text	00000008 GPT1_IRQHandler
aaaaaaaf g       *ABS*	00000000 _flexram_bank_config
00008340  w    F .text	00000008 LPUART2_IRQHandler
00008730  w    F .text	00000008 PWM4_1_IRQHandler
00004108 g     F .text	00000050 LPSPI_GetInstance
200008dc g     O .bss	00000004 ipaddr
0000a61c g     F .text	00000006 __sys_flen
00008618  w    F .text	00000008 USB_OTG2_IRQHandler
00008688  w    F .text	00000008 ACMP4_IRQHandler
00008600  w    F .text	00000008 SEMC_IRQHandler
0000037a  w    F .text	00000002 PWM3_3_DriverIRQHandler
00003944 g     F .text	00000048 DMA0_DMA16_DriverIRQHandler
00002f40 g     F .text	00000044 CLOCK_GetPerClkFreq
0000037a  w    F .text	00000002 IntDefaultHandler
00002ec0 g     F .text	0000005c CLOCK_GetSemcFreq
00001e58 g     F .text	0000020c socket
20080000 g       *ABS*	00000000 __top_RAM2
0000325c g     F .text	0000001c CLOCK_DeinitEnetPll
20001abc g       .heap	00000000 _pvHeapLimit
200000ac g     O .bss	00000004 DHCP_allocated_sn
000085d0  w    F .text	00000008 PWM1_1_IRQHandler
00008348  w    F .text	00000008 LPUART3_IRQHandler
000039d4 g     F .text	00000048 DMA2_DMA18_DriverIRQHandler
00007db8 g     F .text	00000044 fflush
00006644 g     F .text	00000100 HAL_UartInit
000035b4 g     F .text	00000064 CLOCK_InitSysPfd
0000037a  w    F .text	00000002 SRC_DriverIRQHandler
00008700  w    F .text	00000008 PWM3_0_IRQHandler
20000060 g     O .data	00000014 LPSPI4_InterruptDriverState
0000037a  w    F .text	00000002 GPIO1_INT4_DriverIRQHandler
20000010 g     O .data	00000004 dhcp_ip_assign
0000037a  w    F .text	00000002 Reserved144_DriverIRQHandler
0000d388 g       .text	00000000 __exidx_start
000079dc g     F .text	0000004c __assertion_failed
0000037a  w    F .text	00000002 USDHC1_DriverIRQHandler
00008718  w    F .text	00000008 PWM3_3_IRQHandler
000084d8  w    F .text	00000008 GPIO1_INT0_IRQHandler
0000037a  w    F .text	00000002 ENC3_DriverIRQHandler
00006188 g     F .text	00000024 LPUART2_DriverIRQHandler
000036c4 g     F .text	000000ac CLOCK_GetUsb1PfdFreq
0000c064 g     O .text	0000000c LPSPI4_Resource
00008358  w    F .text	00000008 LPUART5_IRQHandler
0000037a  w    F .text	00000002 PWM3_FAULT_DriverIRQHandler
00008420  w    F .text	00000008 CSU_IRQHandler
0000a35a g     F .text	00000068 _fdopen
0000a5e4 g     F .text	00000032 __aeabi_lowlevel_memset
00008460  w    F .text	00000008 SAI2_IRQHandler
000084b0  w    F .text	00000008 ADC1_IRQHandler
00007d7c g     F .text	0000003c _sbrk
00000790 g     F .text	00000028 default_ip_update
200000d0 g     O .bss	00000004 sock_pack_info
00080000 g       *ABS*	00000000 __top_SRAM_ITC
0000037a  w    F .text	00000002 EWM_DriverIRQHandler
000028c0 g     F .text	0000005c reg_wizchip_cs_cbfunc
00003108 g     F .text	00000068 CLOCK_InitArmPll
0000037a  w    F .text	00000002 TSC_DIG_DriverIRQHandler
0000037a  w    F .text	00000002 WDOG1_DriverIRQHandler
0000037a  w    F .text	00000002 FLEXIO1_DriverIRQHandler
000002b8 g       .text	00000000 __data_section_table
0000037a  w    F .text	00000002 ENET_DriverIRQHandler
0000037a  w    F .text	00000002 Reserved78_DriverIRQHandler
00008750  w    F .text	00000008 ENET2_IRQHandler
0000d350 g     O .text	00000004 __num_Ciob_streams
0000037a  w    F .text	00000002 TMR4_DriverIRQHandler
0000037a  w    F .text	00000002 ENC2_DriverIRQHandler
00008838 g     F .text	00000086 getSn_RX_RSR
20080000 g       *ABS*	00000000 __top_SRAM_DTC
0000037a  w    F .text	00000002 ADC_ETC_IRQ2_DriverIRQHandler
00005d38 g     F .text	0000004c LPUART_GetInstance
20000abc g       .bss	00000000 _ebss
00004b18 g     F .text	00000048 LPSPI_MasterTransferAbort
20000ab6 g     O .bss	00000001 dhcp_retry_count
00008520  w    F .text	00000008 GPIO1_Combined_16_31_IRQHandler
00008368  w    F .text	00000008 LPUART7_IRQHandler
00008580  w    F .text	00000008 RTWDOG_IRQHandler
0000037a  w    F .text	00000002 GPIO1_Combined_16_31_DriverIRQHandler
0000d404 g       *ABS*	00000000 _image_size
0000037a  w    F .text	00000002 GPIO1_INT7_DriverIRQHandler
00008488  w    F .text	00000008 Reserved78_IRQHandler
0000037a  w    F .text	00000002 SAI1_DriverIRQHandler
0000037a  w    F .text	00000002 DCDC_DriverIRQHandler
00003ca4 g     F .text	00000048 DMA12_DMA28_DriverIRQHandler
0000037a  w    F .text	00000002 PWM4_0_DriverIRQHandler
000086b0  w    F .text	00000008 ENC3_IRQHandler
20200000 g       *ABS*	00000000 __base_RAM3
0000037a  w    F .text	00000002 ADC_ETC_ERROR_IRQ_DriverIRQHandler
0000988e g     F .text	00000048 KSDK_LPSPI_SlaveInterruptCallback
0000037a  w    F .text	00000002 ACMP2_DriverIRQHandler
00008540  w    F .text	00000008 GPIO3_Combined_16_31_IRQHandler
00008588  w    F .text	00000008 EWM_IRQHandler
0000037a  w    F .text	00000002 GPIO5_Combined_0_15_DriverIRQHandler
00008490  w    F .text	00000008 TEMP_LOW_HIGH_IRQHandler
0000037a  w    F .text	00000002 GPIO1_INT0_DriverIRQHandler
0000037a  w    F .text	00000002 GPIO1_INT2_DriverIRQHandler
00002974 g     F .text	00000078 wizchip_setnetinfo
00000002 g       *ABS*	00000000 _itcm_block_count
000019e4 g     F .text	000000b4 check_DHCP_timeout
00008400  w    F .text	00000008 WDOG2_IRQHandler
0000037a  w    F .text	00000002 RTWDOG_DriverIRQHandler
00008500  w    F .text	00000008 GPIO1_INT5_IRQHandler
0000037a  w    F .text	00000002 FLEXSPI_DriverIRQHandler
00000340 g     F .text	0000001e data_init
00009d9e g     F .text	000000ac QTMR_ClearStatusFlags
00008398  w    F .text	00000008 LPSPI1_IRQHandler
0000037a  w    F .text	00000002 GPT2_DriverIRQHandler
00008708  w    F .text	00000008 PWM3_1_IRQHandler
200000b8 g     O .bss	00000004 DHCP_XID
000086f0  w    F .text	00000008 PWM2_3_IRQHandler
60002000 g     O .teensy_boot	00000008 vector_table
00003224 g     F .text	0000001c CLOCK_DeinitAudioPll
000082c0  w    F .text	00000008 DMA5_DMA21_IRQHandler
00008330  w    F .text	00000008 CORE_IRQHandler
000082f0  w    F .text	00000008 DMA11_DMA27_IRQHandler
200000b4 g     O .bss	00000004 dhcp_tick_1s
60002000 g       *ABS*	00000000 __teensy_vectors_start__
00007070 g     F .text	00000688 BOARD_BootClockRUN
00008380  w    F .text	00000008 LPI2C2_IRQHandler
0000037a  w    F .text	00000002 USB_PHY2_DriverIRQHandler
00003c14 g     F .text	00000048 DMA10_DMA26_DriverIRQHandler
0000037a  w    F .text	00000002 PWM2_1_DriverIRQHandler
00008498  w    F .text	00000008 TEMP_PANIC_IRQHandler
00008508  w    F .text	00000008 GPIO1_INT6_IRQHandler
000085d8  w    F .text	00000008 PWM1_2_IRQHandler
00007b7c g     F .text	00000100 fseek
20000048 g     O .data	00000017 net_info
00008698  w    F .text	00000008 Reserved144_IRQHandler
0000037a  w    F .text	00000002 PWM1_1_DriverIRQHandler
00002a84 g     F .text	00000014 LPSPI4_GetFreq
000083e0  w    F .text	00000008 GPR_IRQ_IRQHandler
20000000 g       *ABS*	00000000 __base_SRAM_DTC
0000037a  w    F .text	00000002 PXP_DriverIRQHandler
60000000 g       *ABS*	00000000 __base_Flash
0000775c g     F .text	00000114 BOARD_InitPins
000085a0  w    F .text	00000008 GPC_IRQHandler
00006164 g     F .text	00000024 LPUART1_DriverIRQHandler
0000a260 g     F .text	00000052 _fflush
000084c0  w    F .text	00000008 DCDC_IRQHandler
0000037a  w    F .text	00000002 ADC1_DriverIRQHandler
00008538  w    F .text	00000008 GPIO3_Combined_0_15_IRQHandler
00008740  w    F .text	00000008 PWM4_3_IRQHandler
0000037a  w    F .text	00000002 PWM1_0_DriverIRQHandler
00008610  w    F .text	00000008 USDHC2_IRQHandler
2000009c g     O .bss	00000004 DHCP_SIP
2000007c g       .bss	00000000 _bss
0000037a  w    F .text	00000002 SJC_DriverIRQHandler
00002840 g     F .text	00000018 wizchip_cs_deselect
000068e0 g     F .text	00000060 SerialManager_OpenReadHandle
0000398c g     F .text	00000048 DMA1_DMA17_DriverIRQHandler
00003f6c g     F .text	000000fc GPIO_PinSetInterruptConfig
0000037a  w    F .text	00000002 ENC1_DriverIRQHandler
200000a4 g     O .bss	00000004 DHCP_allocated_ip
2000001c g     O .data	0000002c WIZCHIP
60002060 g       *ABS*	00000000 _image_start
00008620  w    F .text	00000008 USB_OTG1_IRQHandler
601f0000 g       *ABS*	00000000 __top_Flash
0000037a  w    F .text	00000002 ENC4_DriverIRQHandler
000061d0 g     F .text	00000024 LPUART4_DriverIRQHandler
0000037a  w    F .text	00000002 CAN2_DriverIRQHandler
200000b0 g     O .bss	00000004 DHCP_allocated_dns
00002798 g     F .text	00000024 setintflags
0000037a  w    F .text	00000002 DCP_DriverIRQHandler
20000abc g       .noinit	00000000 _end_noinit
20002abc g       .stack	00000000 _vStackTop
000082f8  w    F .text	00000008 DMA12_DMA28_IRQHandler
00008560  w    F .text	00000008 GPIO5_Combined_16_31_IRQHandler
00002130 g     F .text	000002ac sendto
000086c8  w    F .text	00000008 TMR2_IRQHandler
0000037a  w    F .text	00000002 CTI0_ERROR_DriverIRQHandler
00008660  w    F .text	00000008 ADC_ETC_ERROR_IRQ_IRQHandler
00003b84 g     F .text	00000048 DMA8_DMA24_DriverIRQHandler
0000037a  w    F .text	00000002 GPT1_DriverIRQHandler
00008738  w    F .text	00000008 PWM4_2_IRQHandler
000002f4 g       .text	00000000 __bss_section_table_end
00006334 g     F .text	00000108 QTMR_Init
00001c28 g     F .text	00000040 getIPfromDHCP
00007dfc g     F .text	00000018 __check_heap_overflow
0000037a  w    F .text	00000002 ACMP3_DriverIRQHandler
00003af4 g     F .text	00000048 DMA6_DMA22_DriverIRQHandler
00003770 g     F .text	00000074 EDMA_GetChannelStatusFlags
0000037a  w    F .text	00000002 CSU_DriverIRQHandler
00008450  w    F .text	00000008 BEE_IRQHandler
00007948 g     F .text	00000094 LPSPI4_DeinitPins
000084e0  w    F .text	00000008 GPIO1_INT1_IRQHandler
00008478  w    F .text	00000008 SPDIF_IRQHandler
0000037a  w    F .text	00000002 GPIO1_INT5_DriverIRQHandler
000043f8 g     F .text	0000005c LPSPI_SlaveGetDefaultConfig
60000000 g       *ABS*	00000000 __base_Flash_00
00002f1c g     F .text	00000024 CLOCK_GetIpgFreq
00001234 g     F .text	000002a4 send_DHCP_DECLINE
0000037a  w    F .text	00000002 TMR3_DriverIRQHandler
0000de44 g       *ABS*	00000000 _itcm_end
0000037a  w    F .text	00000002 TMR2_DriverIRQHandler
00008658  w    F .text	00000008 ADC_ETC_IRQ2_IRQHandler
000007dc g     F .text	000001e8 makeDHCPMSG
000084f8  w    F .text	00000008 GPIO1_INT4_IRQHandler
00006218 g     F .text	00000024 LPUART6_DriverIRQHandler
0000037a  w    F .text	00000002 CTI1_ERROR_DriverIRQHandler
00008598  w    F .text	00000008 CCM_2_IRQHandler
0000d304 g     O .text	00000008 armPllConfig_BOARD_BootClockRUN
000083d0  w    F .text	00000008 KPP_IRQHandler
000085f8  w    F .text	00000008 FLEXSPI_IRQHandler
000029ec g     F .text	00000098 dhcp_timer_enable
000084b8  w    F .text	00000008 ADC2_IRQHandler
000045e4 g     F .text	00000060 LPSPI_MasterTransferCreateHandle
00009f34 g     F .text	00000020 SerialManager_WriteBlocking
0000037a  w    F .text	00000002 GPIO1_Combined_0_15_DriverIRQHandler
0000037a  w    F .text	00000002 USDHC2_DriverIRQHandler
00003240 g     F .text	0000001c CLOCK_DeinitVideoPll
0000a63a g     F .text	00000004 __sys_write
0000a0dc g     F .text	00000004 memset
0000037a  w    F .text	00000002 PWM4_2_DriverIRQHandler
0000037a  w    F .text	00000002 SAI2_DriverIRQHandler
00002ab4 g     F .text	00000214 main
0000037a  w    F .text	00000002 CORE_DriverIRQHandler
00008470  w    F .text	00000008 SAI3_TX_IRQHandler
00006744 g     F .text	00000064 HAL_UartSendBlocking
0000a42e g     F .text	00000040 _do_fflush
00009e4a g     F .text	00000070 QTMR_SetTimerPeriod
00007c7c g     F .text	00000048 ftell
00008668  w    F .text	00000008 PIT_IRQHandler
000085b0  w    F .text	00000008 Reserved115_IRQHandler
00008408  w    F .text	00000008 SNVS_HP_WRAPPER_IRQHandler
00000374  w    F .text	00000002 SVC_Handler
0000a3c2 g     F .text	00000058 fclose
00003c5c g     F .text	00000048 DMA11_DMA27_DriverIRQHandler
000069c0 g     F .text	00000058 Serial_UartWrite
0000037a  w    F .text	00000002 CSI_DriverIRQHandler
0000075c g     F .text	00000034 default_ip_assign
00008390  w    F .text	00000008 LPI2C4_IRQHandler
0000037a  w    F .text	00000002 PWM2_3_DriverIRQHandler
0000037a  w    F .text	00000002 XBAR1_IRQ_2_3_DriverIRQHandler
00008640  w    F .text	00000008 XBAR1_IRQ_2_3_IRQHandler
00008710  w    F .text	00000008 PWM3_2_IRQHandler
200000bc g     O .bss	00000004 pDHCPMSG
0000037a  w    F .text	00000002 SNVS_HP_WRAPPER_TZ_DriverIRQHandler
0000037a  w    F .text	00000002 GPIO3_Combined_16_31_DriverIRQHandler
0000a62e g     F .text	00000006 __sys_seek
20000000 g     O .data	00000004 dhcp_lease_time
00008758  w    F .text	00000008 ENET2_1588_Timer_IRQHandler
0000037a  w    F .text	00000002 PWM1_FAULT_DriverIRQHandler
0000037a  w    F .text	00000002 LPI2C1_DriverIRQHandler
0000a472 g     F .text	00000000 __bhs_ldivmod1
00008428  w    F .text	00000008 DCP_IRQHandler
0000037a  w    F .text	00000002 ENET2_1588_Timer_DriverIRQHandler
00002e9c g     F .text	00000024 CLOCK_GetAhbFreq
00008768  w    F .text	00000008 Reserved171_IRQHandler
00002e78 g     F .text	00000024 CLOCK_InitRcOsc24M
0000623c g     F .text	00000024 LPUART7_DriverIRQHandler
00008370  w    F .text	00000008 LPUART8_IRQHandler
0000037a  w    F .text	00000002 PWM2_2_DriverIRQHandler
00004644 g     F .text	00000098 LPSPI_CheckTransferArgument
00004184 g     F .text	0000011c LPSPI_MasterInit
00003a64 g     F .text	00000048 DMA4_DMA20_DriverIRQHandler
000084f0  w    F .text	00000008 GPIO1_INT3_IRQHandler
00001cc4 g     F .text	0000005c WIZCHIP_READ
00003bcc g     F .text	00000048 DMA9_DMA25_DriverIRQHandler
60002008 g     F .teensy_boot	00000034 ResetISR_pre
00006550 g     F .text	000000f4 SystemInit
00009844 g     F .text	0000004a KSDK_LPSPI_MasterInterruptCallback
0000037a  w    F .text	00000002 SNVS_HP_WRAPPER_DriverIRQHandler
00008518  w    F .text	00000008 GPIO1_Combined_0_15_IRQHandler
000002dc g       .text	00000000 __bss_section_table
00002f84 g     F .text	00000184 CLOCK_GetFreq
00004338 g     F .text	000000c0 LPSPI_SlaveInit
00004d00 g     F .text	00000060 LPSPI_SlaveTransferCreateHandle
60001020 g     O .boot_hdr	0000000c BootData
0000037a  w    F .text	00000002 XBAR1_IRQ_0_1_DriverIRQHandler
0000037a  w    F .text	00000002 ADC_ETC_IRQ1_DriverIRQHandler
0000576c g     F .text	00000030 LPSPI1_DriverIRQHandler
0000a616 g     F .text	00000006 __sys_close
00001a98 g     F .text	00000078 check_DHCP_leasedIP
00008300  w    F .text	00000008 DMA13_DMA29_IRQHandler
000087b2 g     F .text	00000086 getSn_TX_FSR
00003a1c g     F .text	00000048 DMA3_DMA19_DriverIRQHandler
000086d0  w    F .text	00000008 TMR4_IRQHandler
00008680  w    F .text	00000008 ACMP3_IRQHandler
00008318  w    F .text	00000008 DMA_ERROR_IRQHandler
00009bb6 g     F .text	000000b2 LPSPI_InterruptGetStatus
000086a0  w    F .text	00000008 ENC1_IRQHandler
000085e8  w    F .text	00000008 PWM1_FAULT_IRQHandler
00000000 g       .stack	00000000 _itcm_start
00008cfe g     F .text	0000000e wizchip_cris_exit
00008690  w    F .text	00000008 Reserved143_IRQHandler
20000000 g       .uninit_RESERVED	00000000 _end_uninit_RESERVED
00004d60 g     F .text	000002d0 LPSPI_SlaveTransferNonBlocking
00007a28 g     F .text	0000006c _Cwritebuf
0000037a  w    F .text	00000002 GPIO1_INT3_DriverIRQHandler
0000037a  w    F .text	00000002 DCP_VMI_DriverIRQHandler
00008778  w    F .text	00000008 GPIO6_7_8_9_IRQHandler
200000a8 g     O .bss	00000004 DHCP_allocated_gw
0000de44 g       *ABS*	00000000 _itcm_size
20000000 g       .data	00000000 _data
200008ec g     O .bss	00000004 g_rtcXtalFreq
00008770  w    F .text	00000008 FLEXIO3_IRQHandler
00008530  w    F .text	00000008 GPIO2_Combined_16_31_IRQHandler
0000037a  w    F .text	00000002 LPI2C4_DriverIRQHandler
20000abc g       .heap	00000000 _pvHeapStart
0000037a  w    F .text	00000002 GPC_DriverIRQHandler
00008338  w    F .text	00000008 LPUART1_IRQHandler
00002a98 g     F .text	0000001c TMR3_IRQHandler
200008e0 g     O .bss	00000007 qtmrConfig
00008378  w    F .text	00000008 LPI2C1_IRQHandler
000002f4 g       .text	00000000 __section_table_end
00007f8c g     F .text	0000030c StrFormatPrintf
200000dc g     O .bss	00000800 messagebuf
0000037a  w    F .text	00000002 GPIO2_Combined_0_15_DriverIRQHandler
0000058c g     F .text	00000058 DbgConsole_SendDataReliable
00006084 g     F .text	00000088 LPUART_GetDefaultConfig
00008638  w    F .text	00000008 XBAR1_IRQ_0_1_IRQHandler
00000000 g       *ABS*	00000000 __base_SRAM_ITC
000082d0  w    F .text	00000008 DMA7_DMA23_IRQHandler
00008388  w    F .text	00000008 LPI2C3_IRQHandler
00001dbc g     F .text	0000009c WIZCHIP_READ_BUF
000005e4 g     F .text	00000104 DbgConsole_Init
0000037a  w    F .text	00000002 PWM1_2_DriverIRQHandler
0000037a  w    F .text	00000002 USB_OTG1_DriverIRQHandler
0000a628 g     F .text	00000006 __sys_remove
20000014 g     O .data	00000004 dhcp_ip_update
0000037a  w    F .text	00000002 TEMP_LOW_HIGH_DriverIRQHandler
00008410  w    F .text	00000008 SNVS_HP_WRAPPER_TZ_IRQHandler
0000037a  w    F .text	00000002 SAI3_TX_DriverIRQHandler
0000037a  w    F .text	00000002 FLEXIO3_DriverIRQHandler
2000007c g       .data	00000000 _edata
0000037a  w    F .text	00000002 WDOG2_DriverIRQHandler
20000018 g     O .data	00000004 dhcp_ip_conflict
00003e74 g     F .text	000000a4 GPIO_PinInit
0000037a  w    F .text	00000002 Reserved68_DriverIRQHandler
00009eba  w    F .text	0000000e SystemInitHook
00003618 g     F .text	000000ac CLOCK_GetSysPfdFreq
20000ab8 g     O .bss	00000001 isMasterOnTransmit
0000037a  w    F .text	00000002 PWM3_0_DriverIRQHandler
20000aa8 g     O .bss	00000004 __heaps
0000037a  w    F .text	00000002 GPIO4_Combined_0_15_DriverIRQHandler
0000a0da g     F .text	00000002 __sys_appexit
000083a0  w    F .text	00000008 LPSPI2_IRQHandler
00008678  w    F .text	00000008 ACMP2_IRQHandler
0000037a  w    F .text	00000002 GPIO4_Combined_16_31_DriverIRQHandler
00000000 g       *ABS*	00000000 __base_RAM
00000000 g     O .text	000002b8 g_pfnVectors
000002f4 g     F .text	0000004c ResetISR
6000f464 g       *ABS*	00000000 _image_end
0000037a  w    F .text	00000002 GPIO6_7_8_9_DriverIRQHandler
20000aa4 g     O .bss	00000004 __end_of_heap
000085c0  w    F .text	00000008 GPT2_IRQHandler
00001be0 g     F .text	0000002c reset_DHCP_timeout
0000037a  w    F .text	00000002 GPIO5_Combined_16_31_DriverIRQHandler
00007b5c g     F .text	00000020 _Csys_alloc
000083c8  w    F .text	00000008 FLEXRAM_IRQHandler
000083c0  w    F .text	00000008 CAN2_IRQHandler
20280000 g       *ABS*	00000000 __top_SRAM_OC
00003aac g     F .text	00000048 DMA5_DMA21_DriverIRQHandler
0000a5e2 g     F .text	00000002 __aeabi_idiv0
0000291c g     F .text	00000058 reg_wizchip_spi_cbfunc
00008310  w    F .text	00000008 DMA15_DMA31_IRQHandler
0000037a  w    F .text	00000002 CCM_1_DriverIRQHandler
60001030 g       *ABS*	00000000 __boot_hdr_end__
0000037a  w    F .text	00000002 ADC2_DriverIRQHandler
00004b60 g     F .text	000001a0 LPSPI_MasterTransferHandleIRQ
20280000 g       *ABS*	00000000 __top_RAM3
00008670  w    F .text	00000008 ACMP1_IRQHandler
0000037a  w    F .text	00000002 Reserved115_DriverIRQHandler
000088be g     F .text	0000006c getSn_RxBASE
0000037a  w    F .text	00000002 TEMP_PANIC_DriverIRQHandler
000084d0  w    F .text	00000008 Reserved87_IRQHandler
00003d7c g     F .text	00000048 DMA15_DMA31_DriverIRQHandler
00008550  w    F .text	00000008 GPIO4_Combined_16_31_IRQHandler
0000a30e g     F .text	0000004c strlen
00006814 g     F .text	00000074 SerialManager_Init
000007b8 g     F .text	00000024 default_ip_conflict
000057cc g     F .text	00000030 LPSPI3_DriverIRQHandler
000086b8  w    F .text	00000008 ENC4_IRQHandler
0000037a  w    F .text	00000002 PWM1_3_DriverIRQHandler
000014d8 g     F .text	000002dc parseDHCPMSG
0000037a  w    F .text	00000002 ACMP1_DriverIRQHandler
0000037a  w    F .text	00000002 LPI2C2_DriverIRQHandler
000082e8  w    F .text	00000008 DMA10_DMA26_IRQHandler
0000a2e2 g     F .text	0000002c fputs
0000037a  w    F .text	00000002 Reserved86_DriverIRQHandler
00003f18 g     F .text	00000054 GPIO_PinWrite
00003278 g     F .text	0000033c CLOCK_GetPllFreq
0000037a  w    F .text	00000002 DMA_ERROR_DriverIRQHandler
20001abc g       .stack	00000000 _vStackBase
20000ab9 g     O .bss	00000001 isMasterOnReceive
0000037a  w    F .text	00000002 ADC_ETC_IRQ0_DriverIRQHandler
20000098 g     O .bss	00000004 g_serialHandle
00008c74 g     F .text	0000007c wiz_recv_ignore
20000008 g     O .data	00000008 HOST_NAME
00008728  w    F .text	00000008 PWM4_0_IRQHandler
0000037a  w    F .text	00000002 CAN1_DriverIRQHandler
00007cc4 g     F .text	00000078 _initio
000086c0  w    F .text	00000008 TMR1_IRQHandler
00008298  w    F .text	00000008 DMA0_DMA16_IRQHandler
0000037a  w    F .text	00000002 GPIO1_INT6_DriverIRQHandler
0000037a  w    F .text	00000002 GPIO1_INT1_DriverIRQHandler
00008440  w    F .text	00000008 TRNG_IRQHandler
000083e8  w    F .text	00000008 LCDIF_IRQHandler
00008d44 g     F .text	00000088 wizchip_sw_reset
200009f0 g     O .bss	000000b4 __Ciob
00004454 g     F .text	00000030 LPSPI_Deinit
00008720  w    F .text	00000008 PWM3_FAULT_IRQHandler
00008628  w    F .text	00000008 ENET_IRQHandler
0000a622 g     F .text	00000006 __sys_istty
00004574 g     F .text	00000070 LPSPI_MasterSetDelayScaler
00002064 g     F .text	000000cc close
00008328  w    F .text	00000008 CTI1_ERROR_IRQHandler
00006d08 g     F .text	00000100 BOARD_ConfigMPU
00001c0c g     F .text	0000001c DHCP_time_handler
000027e0 g     F .text	00000048 LPSPI_MasterSignalEvent_t
0000037a  w    F .text	00000002 PWM2_0_DriverIRQHandler
000085e0  w    F .text	00000008 PWM1_3_IRQHandler
000082a0  w    F .text	00000008 DMA1_DMA17_IRQHandler
00009386 g     F .text	00000032 LPSPI_Reset
20000ab4 g     O .bss	00000001 DHCP_SOCKET
00008458  w    F .text	00000008 SAI1_IRQHandler
20000ab7 g     O .bss	00000001 isTransferCompleted
000017b4 g     F .text	00000230 DHCP_run
000061ac g     F .text	00000024 LPUART3_DriverIRQHandler
000006e8 g     F .text	00000074 DbgConsole_Printf
0000a2b2 g     F .text	00000030 free
000046dc g     F .text	000002e0 LPSPI_MasterTransferNonBlocking
0000037a  w    F .text	00000002 SNVS_LP_WRAPPER_DriverIRQHandler
0000037a  w    F .text	00000002 USB_OTG2_DriverIRQHandler



Disassembly of section .teensy_boot:

60002000 <vector_table>:
60002000:	00 00 01 20 09 20 00 60                             ... . .`

60002008 <ResetISR_pre>:
60002008:	4b07      	ldr	r3, [pc, #28]	; (60002028 <ResetISR_pre+0x20>)
6000200a:	4a08      	ldr	r2, [pc, #32]	; (6000202c <ResetISR_pre+0x24>)
6000200c:	645a      	str	r2, [r3, #68]	; 0x44
6000200e:	2207      	movs	r2, #7
60002010:	641a      	str	r2, [r3, #64]	; 0x40
60002012:	f44f 022a 	mov.w	r2, #11141120	; 0xaa0000
60002016:	639a      	str	r2, [r3, #56]	; 0x38
60002018:	4a05      	ldr	r2, [pc, #20]	; (60002030 <ResetISR_pre+0x28>)
6000201a:	4906      	ldr	r1, [pc, #24]	; (60002034 <ResetISR_pre+0x2c>)
6000201c:	4806      	ldr	r0, [pc, #24]	; (60002038 <ResetISR_pre+0x30>)
6000201e:	f000 f80d 	bl	6000203c <memory_copy>
60002022:	f000 f819 	bl	60002058 <__ResetISR_veneer>
60002026:	bf00      	nop
60002028:	400ac000 	.word	0x400ac000
6000202c:	aaaaaaaf 	.word	0xaaaaaaaf
60002030:	0000de44 	.word	0x0000de44
60002034:	60002060 	.word	0x60002060
60002038:	00000000 	.word	0x00000000

6000203c <memory_copy>:
6000203c:	4288      	cmp	r0, r1
6000203e:	d006      	beq.n	6000204e <memory_copy+0x12>
60002040:	4290      	cmp	r0, r2
60002042:	d205      	bcs.n	60002050 <memory_copy+0x14>
60002044:	f851 3b04 	ldr.w	r3, [r1], #4
60002048:	f840 3b04 	str.w	r3, [r0], #4
6000204c:	e7f8      	b.n	60002040 <memory_copy+0x4>
6000204e:	4770      	bx	lr
60002050:	4770      	bx	lr
60002052:	ffff ffff 			; <UNDEFINED> instruction: 0xffffffff
60002056:	Address 0x60002056 is out of bounds.


60002058 <__ResetISR_veneer>:
60002058:	f85f f000 	ldr.w	pc, [pc]	; 6000205c <__ResetISR_veneer+0x4>
6000205c:	000002f5 	.word	0x000002f5

Disassembly of section .text:

00000000 <__Vectors>:
       0:	20002abc 000002f5 00000371 0000900f     .*. ....q.......
	...
      2c:	00000375 00000000 00000000 00000377     u...........w...
      3c:	00000379 00008299 000082a1 000082a9     y...............
      4c:	000082b1 000082b9 000082c1 000082c9     ................
      5c:	000082d1 000082d9 000082e1 000082e9     ................
      6c:	000082f1 000082f9 00008301 00008309     ................
      7c:	00008311 00008319 00008321 00008329     ........!...)...
      8c:	00008331 00008339 00008341 00008349     1...9...A...I...
      9c:	00008351 00008359 00008361 00008369     Q...Y...a...i...
      ac:	00008371 00008379 00008381 00008389     q...y...........
      bc:	00008391 00008399 000083a1 000083a9     ................
      cc:	000083b1 000083b9 000083c1 000083c9     ................
      dc:	000083d1 000083d9 000083e1 000083e9     ................
      ec:	000083f1 000083f9 00008401 00008409     ................
      fc:	00008411 00008419 00008421 00008429     ........!...)...
     10c:	00008431 00008439 00008441 00008449     1...9...A...I...
     11c:	00008451 00008459 00008461 00008469     Q...Y...a...i...
     12c:	00008471 00008479 00008481 00008489     q...y...........
     13c:	00008491 00008499 000084a1 000084a9     ................
     14c:	000084b1 000084b9 000084c1 000084c9     ................
     15c:	000084d1 000084d9 000084e1 000084e9     ................
     16c:	000084f1 000084f9 00008501 00008509     ................
     17c:	00008511 00008519 00008521 00008529     ........!...)...
     18c:	00008531 00008539 00008541 00008549     1...9...A...I...
     19c:	00008551 00008559 00008561 00008569     Q...Y...a...i...
     1ac:	00008571 00008579 00008581 00008589     q...y...........
     1bc:	00008591 00008599 000085a1 000085a9     ................
     1cc:	000085b1 000085b9 000085c1 000085c9     ................
     1dc:	000085d1 000085d9 000085e1 000085e9     ................
     1ec:	000085f1 000085f9 00008601 00008609     ................
     1fc:	00008611 00008619 00008621 00008629     ........!...)...
     20c:	00008631 00008639 00008641 00008649     1...9...A...I...
     21c:	00008651 00008659 00008661 00008669     Q...Y...a...i...
     22c:	00008671 00008679 00008681 00008689     q...y...........
     23c:	00008691 00008699 000086a1 000086a9     ................
     24c:	000086b1 000086b9 000086c1 000086c9     ................
     25c:	00002a99 000086d1 000086d9 000086e1     .*..............
     26c:	000086e9 000086f1 000086f9 00008701     ................
     27c:	00008709 00008711 00008719 00008721     ............!...
     28c:	00008729 00008731 00008739 00008741     )...1...9...A...
     29c:	00008749 00008751 00008759 00008761     I...Q...Y...a...
     2ac:	00008769 00008771 00008779              i...q...y...

000002b8 <__data_section_table>:
     2b8:	6000f3e8 	.word	0x6000f3e8
     2bc:	0000d388 	.word	0x0000d388
     2c0:	00000000 	.word	0x00000000
     2c4:	6000f3e8 	.word	0x6000f3e8
     2c8:	20000000 	.word	0x20000000
     2cc:	0000007c 	.word	0x0000007c
     2d0:	6000f3e8 	.word	0x6000f3e8
     2d4:	20200000 	.word	0x20200000
     2d8:	00000000 	.word	0x00000000

000002dc <__bss_section_table>:
     2dc:	0000d388 	.word	0x0000d388
     2e0:	00000000 	.word	0x00000000
     2e4:	2000007c 	.word	0x2000007c
     2e8:	00000a40 	.word	0x00000a40
     2ec:	20200000 	.word	0x20200000
     2f0:	00000000 	.word	0x00000000

000002f4 <ResetISR>:
     2f4:	b672b510 	.word	0xb672b510
     2f8:	f92af006 	.word	0xf92af006
     2fc:	e0074b0d 	.word	0xe0074b0d
     300:	040cf103 	.word	0x040cf103
     304:	6859689a 	.word	0x6859689a
     308:	f0006818 	.word	0xf0006818
     30c:	4623f819 	.word	0x4623f819
     310:	42934a09 	.word	0x42934a09
     314:	e006d3f4 	.word	0xe006d3f4
     318:	6859461c 	.word	0x6859461c
     31c:	0b08f854 	.word	0x0b08f854
     320:	f81df000 	.word	0xf81df000
     324:	4a054623 	.word	0x4a054623
     328:	d3f54293 	.word	0xd3f54293
     32c:	f009b662 	.word	0xf009b662
     330:	e7fefecd 	.word	0xe7fefecd
     334:	000002b8 	.word	0x000002b8
     338:	000002dc 	.word	0x000002dc
     33c:	000002f4 	.word	0x000002f4

00000340 <data_init>:
     340:	42932300 	.word	0x42932300
     344:	b410d20a 	.word	0xb410d20a
     348:	4b04f850 	.word	0x4b04f850
     34c:	f841 4b04 	str.w	r4, [r1], #4
     350:	3304      	adds	r3, #4
     352:	4293      	cmp	r3, r2
     354:	d3f8      	bcc.n	348 <data_init+0x8>
     356:	f85d 4b04 	ldr.w	r4, [sp], #4
     35a:	4770      	bx	lr
     35c:	4770      	bx	lr

0000035e <bss_init>:
     35e:	2300      	movs	r3, #0
     360:	428b      	cmp	r3, r1
     362:	d204      	bcs.n	36e <bss_init+0x10>
     364:	2200      	movs	r2, #0
     366:	f840 2b04 	str.w	r2, [r0], #4
     36a:	3304      	adds	r3, #4
     36c:	e7f8      	b.n	360 <bss_init+0x2>
     36e:	4770      	bx	lr

00000370 <NMI_Handler>:
     370:	e7fe      	b.n	370 <NMI_Handler>
     372:	e7fe      	b.n	372 <NMI_Handler+0x2>

00000374 <SVC_Handler>:
     374:	e7fe      	b.n	374 <SVC_Handler>

00000376 <PendSV_Handler>:
     376:	e7fe      	b.n	376 <PendSV_Handler>

00000378 <SysTick_Handler>:
     378:	e7fe      	b.n	378 <SysTick_Handler>

0000037a <ACMP1_DriverIRQHandler>:
     37a:	e7fe      	b.n	37a <ACMP1_DriverIRQHandler>
     37c:	ffff ffff 			; <UNDEFINED> instruction: 0xffffffff

00000380 <LPSPI_MasterSetDelayTimes>:
     380:	e92d 43f0 	stmdb	sp!, {r4, r5, r6, r7, r8, r9, lr}
     384:	b093      	sub	sp, #76	; 0x4c
     386:	af00      	add	r7, sp, #0
     388:	60f8      	str	r0, [r7, #12]
     38a:	60b9      	str	r1, [r7, #8]
     38c:	603b      	str	r3, [r7, #0]
     38e:	4613      	mov	r3, r2
     390:	71fb      	strb	r3, [r7, #7]
     392:	2300      	movs	r3, #0
     394:	627b      	str	r3, [r7, #36]	; 0x24
     396:	68fb      	ldr	r3, [r7, #12]
     398:	6e1b      	ldr	r3, [r3, #96]	; 0x60
     39a:	0edb      	lsrs	r3, r3, #27
     39c:	f003 0307 	and.w	r3, r3, #7
     3a0:	4a79      	ldr	r2, [pc, #484]	; (588 <LPSPI_MasterSetDelayTimes+0x208>)
     3a2:	5cd3      	ldrb	r3, [r2, r3]
     3a4:	461a      	mov	r2, r3
     3a6:	683b      	ldr	r3, [r7, #0]
     3a8:	fbb3 f3f2 	udiv	r3, r3, r2
     3ac:	623b      	str	r3, [r7, #32]
     3ae:	f04f 33ff 	mov.w	r3, #4294967295
     3b2:	637b      	str	r3, [r7, #52]	; 0x34
     3b4:	23ff      	movs	r3, #255	; 0xff
     3b6:	63bb      	str	r3, [r7, #56]	; 0x38
     3b8:	79fb      	ldrb	r3, [r7, #7]
     3ba:	2b03      	cmp	r3, #3
     3bc:	d141      	bne.n	442 <LPSPI_MasterSetDelayTimes+0xc2>
     3be:	a470      	add	r4, pc, #448	; (adr r4, 580 <LPSPI_MasterSetDelayTimes+0x200>)
     3c0:	e9d4 3400 	ldrd	r3, r4, [r4]
     3c4:	e9c7 340a 	strd	r3, r4, [r7, #40]	; 0x28
     3c8:	e9d7 340a 	ldrd	r3, r4, [r7, #40]	; 0x28
     3cc:	18dd      	adds	r5, r3, r3
     3ce:	eb44 0604 	adc.w	r6, r4, r4
     3d2:	e9c7 560a 	strd	r5, r6, [r7, #40]	; 0x28
     3d6:	6a3b      	ldr	r3, [r7, #32]
     3d8:	f04f 0400 	mov.w	r4, #0
     3dc:	461a      	mov	r2, r3
     3de:	4623      	mov	r3, r4
     3e0:	e9d7 010a 	ldrd	r0, r1, [r7, #40]	; 0x28
     3e4:	f00a f843 	bl	a46e <__aeabi_uldivmod>
     3e8:	4603      	mov	r3, r0
     3ea:	460c      	mov	r4, r1
     3ec:	e9c7 340a 	strd	r3, r4, [r7, #40]	; 0x28
     3f0:	a463      	add	r4, pc, #396	; (adr r4, 580 <LPSPI_MasterSetDelayTimes+0x200>)
     3f2:	e9d4 3400 	ldrd	r3, r4, [r4]
     3f6:	e9c7 3410 	strd	r3, r4, [r7, #64]	; 0x40
     3fa:	e9d7 5610 	ldrd	r5, r6, [r7, #64]	; 0x40
     3fe:	462b      	mov	r3, r5
     400:	4634      	mov	r4, r6
     402:	f04f 0100 	mov.w	r1, #0
     406:	f04f 0200 	mov.w	r2, #0
     40a:	0222      	lsls	r2, r4, #8
     40c:	ea42 6213 	orr.w	r2, r2, r3, lsr #24
     410:	0219      	lsls	r1, r3, #8
     412:	460b      	mov	r3, r1
     414:	4614      	mov	r4, r2
     416:	eb13 0805 	adds.w	r8, r3, r5
     41a:	eb44 0906 	adc.w	r9, r4, r6
     41e:	e9c7 8910 	strd	r8, r9, [r7, #64]	; 0x40
     422:	6a3b      	ldr	r3, [r7, #32]
     424:	f04f 0400 	mov.w	r4, #0
     428:	461a      	mov	r2, r3
     42a:	4623      	mov	r3, r4
     42c:	e9d7 0110 	ldrd	r0, r1, [r7, #64]	; 0x40
     430:	f00a f81d 	bl	a46e <__aeabi_uldivmod>
     434:	4603      	mov	r3, r0
     436:	460c      	mov	r4, r1
     438:	e9c7 3410 	strd	r3, r4, [r7, #64]	; 0x40
     43c:	2301      	movs	r3, #1
     43e:	627b      	str	r3, [r7, #36]	; 0x24
     440:	e031      	b.n	4a6 <LPSPI_MasterSetDelayTimes+0x126>
     442:	a44f      	add	r4, pc, #316	; (adr r4, 580 <LPSPI_MasterSetDelayTimes+0x200>)
     444:	e9d4 3400 	ldrd	r3, r4, [r4]
     448:	e9c7 340a 	strd	r3, r4, [r7, #40]	; 0x28
     44c:	6a3b      	ldr	r3, [r7, #32]
     44e:	f04f 0400 	mov.w	r4, #0
     452:	461a      	mov	r2, r3
     454:	4623      	mov	r3, r4
     456:	e9d7 010a 	ldrd	r0, r1, [r7, #40]	; 0x28
     45a:	f00a f808 	bl	a46e <__aeabi_uldivmod>
     45e:	4603      	mov	r3, r0
     460:	460c      	mov	r4, r1
     462:	e9c7 340a 	strd	r3, r4, [r7, #40]	; 0x28
     466:	a446      	add	r4, pc, #280	; (adr r4, 580 <LPSPI_MasterSetDelayTimes+0x200>)
     468:	e9d4 3400 	ldrd	r3, r4, [r4]
     46c:	e9c7 3410 	strd	r3, r4, [r7, #64]	; 0x40
     470:	e9d7 1210 	ldrd	r1, r2, [r7, #64]	; 0x40
     474:	f04f 0300 	mov.w	r3, #0
     478:	f04f 0400 	mov.w	r4, #0
     47c:	0214      	lsls	r4, r2, #8
     47e:	ea44 6411 	orr.w	r4, r4, r1, lsr #24
     482:	020b      	lsls	r3, r1, #8
     484:	e9c7 3410 	strd	r3, r4, [r7, #64]	; 0x40
     488:	6a3b      	ldr	r3, [r7, #32]
     48a:	f04f 0400 	mov.w	r4, #0
     48e:	461a      	mov	r2, r3
     490:	4623      	mov	r3, r4
     492:	e9d7 0110 	ldrd	r0, r1, [r7, #64]	; 0x40
     496:	f009 ffea 	bl	a46e <__aeabi_uldivmod>
     49a:	4603      	mov	r3, r0
     49c:	460c      	mov	r4, r1
     49e:	e9c7 3410 	strd	r3, r4, [r7, #64]	; 0x40
     4a2:	2300      	movs	r3, #0
     4a4:	627b      	str	r3, [r7, #36]	; 0x24
     4a6:	68bb      	ldr	r3, [r7, #8]
     4a8:	f04f 0400 	mov.w	r4, #0
     4ac:	e9d7 120a 	ldrd	r1, r2, [r7, #40]	; 0x28
     4b0:	42a2      	cmp	r2, r4
     4b2:	bf08      	it	eq
     4b4:	4299      	cmpeq	r1, r3
     4b6:	d307      	bcc.n	4c8 <LPSPI_MasterSetDelayTimes+0x148>
     4b8:	79fb      	ldrb	r3, [r7, #7]
     4ba:	461a      	mov	r2, r3
     4bc:	2100      	movs	r1, #0
     4be:	68f8      	ldr	r0, [r7, #12]
     4c0:	f004 f858 	bl	4574 <LPSPI_MasterSetDelayScaler>
     4c4:	6abb      	ldr	r3, [r7, #40]	; 0x28
     4c6:	e053      	b.n	570 <LPSPI_MasterSetDelayTimes+0x1f0>
     4c8:	2300      	movs	r3, #0
     4ca:	63fb      	str	r3, [r7, #60]	; 0x3c
     4cc:	e043      	b.n	556 <LPSPI_MasterSetDelayTimes+0x1d6>
     4ce:	a42c      	add	r4, pc, #176	; (adr r4, 580 <LPSPI_MasterSetDelayTimes+0x200>)
     4d0:	e9d4 3400 	ldrd	r3, r4, [r4]
     4d4:	e9c7 3406 	strd	r3, r4, [r7, #24]
     4d8:	6bfa      	ldr	r2, [r7, #60]	; 0x3c
     4da:	6a7b      	ldr	r3, [r7, #36]	; 0x24
     4dc:	4413      	add	r3, r2
     4de:	3301      	adds	r3, #1
     4e0:	f04f 0400 	mov.w	r4, #0
     4e4:	69fa      	ldr	r2, [r7, #28]
     4e6:	fb03 f102 	mul.w	r1, r3, r2
     4ea:	69ba      	ldr	r2, [r7, #24]
     4ec:	fb04 f202 	mul.w	r2, r4, r2
     4f0:	440a      	add	r2, r1
     4f2:	69b9      	ldr	r1, [r7, #24]
     4f4:	fba1 3403 	umull	r3, r4, r1, r3
     4f8:	4422      	add	r2, r4
     4fa:	4614      	mov	r4, r2
     4fc:	e9c7 3406 	strd	r3, r4, [r7, #24]
     500:	e9c7 3406 	strd	r3, r4, [r7, #24]
     504:	6a3b      	ldr	r3, [r7, #32]
     506:	f04f 0400 	mov.w	r4, #0
     50a:	461a      	mov	r2, r3
     50c:	4623      	mov	r3, r4
     50e:	e9d7 0106 	ldrd	r0, r1, [r7, #24]
     512:	f009 ffac 	bl	a46e <__aeabi_uldivmod>
     516:	4603      	mov	r3, r0
     518:	460c      	mov	r4, r1
     51a:	e9c7 3406 	strd	r3, r4, [r7, #24]
     51e:	68bb      	ldr	r3, [r7, #8]
     520:	f04f 0400 	mov.w	r4, #0
     524:	e9d7 1206 	ldrd	r1, r2, [r7, #24]
     528:	42a2      	cmp	r2, r4
     52a:	bf08      	it	eq
     52c:	4299      	cmpeq	r1, r3
     52e:	d30f      	bcc.n	550 <LPSPI_MasterSetDelayTimes+0x1d0>
     530:	69ba      	ldr	r2, [r7, #24]
     532:	68bb      	ldr	r3, [r7, #8]
     534:	1ad3      	subs	r3, r2, r3
     536:	617b      	str	r3, [r7, #20]
     538:	6b7a      	ldr	r2, [r7, #52]	; 0x34
     53a:	697b      	ldr	r3, [r7, #20]
     53c:	429a      	cmp	r2, r3
     53e:	d907      	bls.n	550 <LPSPI_MasterSetDelayTimes+0x1d0>
     540:	697b      	ldr	r3, [r7, #20]
     542:	637b      	str	r3, [r7, #52]	; 0x34
     544:	6bfb      	ldr	r3, [r7, #60]	; 0x3c
     546:	63bb      	str	r3, [r7, #56]	; 0x38
     548:	e9d7 3406 	ldrd	r3, r4, [r7, #24]
     54c:	e9c7 3410 	strd	r3, r4, [r7, #64]	; 0x40
     550:	6bfb      	ldr	r3, [r7, #60]	; 0x3c
     552:	3301      	adds	r3, #1
     554:	63fb      	str	r3, [r7, #60]	; 0x3c
     556:	6bfb      	ldr	r3, [r7, #60]	; 0x3c
     558:	2bff      	cmp	r3, #255	; 0xff
     55a:	d802      	bhi.n	562 <LPSPI_MasterSetDelayTimes+0x1e2>
     55c:	6b7b      	ldr	r3, [r7, #52]	; 0x34
     55e:	2b00      	cmp	r3, #0
     560:	d1b5      	bne.n	4ce <LPSPI_MasterSetDelayTimes+0x14e>
     562:	79fb      	ldrb	r3, [r7, #7]
     564:	461a      	mov	r2, r3
     566:	6bb9      	ldr	r1, [r7, #56]	; 0x38
     568:	68f8      	ldr	r0, [r7, #12]
     56a:	f004 f803 	bl	4574 <LPSPI_MasterSetDelayScaler>
     56e:	6c3b      	ldr	r3, [r7, #64]	; 0x40
     570:	4618      	mov	r0, r3
     572:	374c      	adds	r7, #76	; 0x4c
     574:	46bd      	mov	sp, r7
     576:	e8bd 83f0 	ldmia.w	sp!, {r4, r5, r6, r7, r8, r9, pc}
     57a:	bf00      	nop
     57c:	f3af 8000 	nop.w
     580:	ca00      	ldmia	r2!, {}
     582:	3b9a      	subs	r3, #154	; 0x9a
     584:	0000      	movs	r0, r0
     586:	0000      	movs	r0, r0
     588:	bff4      	ite	<und>
	...

0000058c <DbgConsole_SendDataReliable>:
     58c:	b580      	push	{r7, lr}
     58e:	b084      	sub<und>	sp, #16
     590:	af00      	addal	r7, sp, #0
     592:	6078      	str	r0, [r7, #4]
     594:	6039      	str	r1, [r7, #0]
     596:	f243 5321 	movw	r3, #13601	; 0x3521
     59a:	60fb      	str	r3, [r7, #12]
     59c:	687b      	ldr	r3, [r7, #4]
     59e:	2b00      	cmp	r3, #0
     5a0:	d102      	bne.n	5a8 <DbgConsole_SendDataReliable+0x1c>
     5a2:	480d      	ldr	r0, [pc, #52]	; (5d8 <DbgConsole_SendDataReliable+0x4c>)
     5a4:	f007 fa1a 	bl	79dc <__assertion_failed>
     5a8:	683b      	ldr	r3, [r7, #0]
     5aa:	2b00      	cmp	r3, #0
     5ac:	d102      	bne.n	5b4 <DbgConsole_SendDataReliable+0x28>
     5ae:	480b      	ldr	r0, [pc, #44]	; (5dc <DbgConsole_SendDataReliable+0x50>)
     5b0:	f007 fa14 	bl	79dc <__assertion_failed>
     5b4:	683a      	ldr	r2, [r7, #0]
     5b6:	6879      	ldr	r1, [r7, #4]
     5b8:	4809      	ldr	r0, [pc, #36]	; (5e0 <DbgConsole_SendDataReliable+0x54>)
     5ba:	f009 fcbb 	bl	9f34 <SerialManager_WriteBlocking>
     5be:	4603      	mov	r3, r0
     5c0:	60fb      	str	r3, [r7, #12]
     5c2:	68fb      	ldr	r3, [r7, #12]
     5c4:	2b00      	cmp	r3, #0
     5c6:	d101      	bne.n	5cc <DbgConsole_SendDataReliable+0x40>
     5c8:	683b      	ldr	r3, [r7, #0]
     5ca:	e001      	b.n	5d0 <DbgConsole_SendDataReliable+0x44>
     5cc:	f04f 33ff 	mov.w	r3, #4294967295
     5d0:	4618      	mov	r0, r3
     5d2:	3710      	adds	r7, #16
     5d4:	46bd      	mov	sp, r7
     5d6:	bd80      	pop	{r7, pc}
     5d8:	a6a8      	add	r6, pc, #672	; (adr r6, 87c <makeDHCPMSG+0xa0>)
     5da:	0000      	movs	r0, r0
     5dc:	a6dc      	add	r6, pc, #880	; (adr r6, 950 <makeDHCPMSG+0x174>)
     5de:	0000      	movs	r0, r0
     5e0:	0090      	lsls	r0, r2, #2
     5e2:	2000      	movs	r0, #0

000005e4 <DbgConsole_Init>:
     5e4:	b580      	push	{r7, lr}
     5e6:	b08e      	.short	0xb08e
     5e8:	af00      	add	r7, sp, #0
     5ea:	60b9      	.short	0x60b9
     5ec:	607b      	str	r3, [r7, #4]
     5ee:	4603      	.short	0x4603
     5f0:	73fb      	strb	r3, [r7, #15]
     5f2:	4613      	.short	0x4613
     5f4:	73bb      	strb	r3, [r7, #14]
     5f6:	f243      	.short	0xf243
     5f8:	5321      	strh	r1, [r4, r4]
     5fa:	637b      	.short	0x637b
     5fc:	687b      	ldr	r3, [r7, #4]
     5fe:	617b      	.short	0x617b
     600:	68bb      	ldr	r3, [r7, #8]
     602:	61bb      	.short	0x61bb
     604:	2300      	movs	r3, #0
     606:	773b      	.short	0x773b
     608:	2300      	movs	r3, #0
     60a:	777b      	.short	0x777b
     60c:	7bfb      	ldrb	r3, [r7, #15]
     60e:	77bb      	.short	0x77bb
     610:	2301      	movs	r3, #1
     612:	77fb      	.short	0x77fb
     614:	2301      	movs	r3, #1
     616:	f887      	.short	0xf887
     618:	3020      	adds	r0, #32
     61a:	7bbb      	.short	0x7bbb
     61c:	f887 302c 	strb.w	r3, [r7, #44]	; 0x2c
     620:	2b017bbb 	.word	0x2b017bbb
     624:	d118      	bne.n	658 <DbgConsole_Init+0x74>
     626:	f107      	.short	0xf107
     628:	0314      	lsls	r4, r2, #12
     62a:	633b      	.short	0x633b
     62c:	221c      	movs	r2, #28
     62e:	2100      	.short	0x2100
     630:	4826      	ldr	r0, [pc, #152]	; (6cc <DbgConsole_Init+0xe8>)
     632:	f009      	.short	0xf009
     634:	fd53 4b25 	ldc2l	11, cr4, [r3, #-148]	; 0xffffff6c	; <UNPREDICTABLE>
     638:	611a4a24 	.word	0x611a4a24
     63c:	4b23      	ldr	r3, [pc, #140]	; (6cc <DbgConsole_Init+0xe8>)
     63e:	691b      	.short	0x691b
     640:	f107 0224 	add.w	r2, r7, #36	; 0x24
     644:	46184611 	.word	0x46184611
     648:	f006 f8e4 	bl	6814 <SerialManager_Init>
     64c:	637b4603 	.word	0x637b4603
     650:	6b7b      	ldr	r3, [r7, #52]	; 0x34
     652:	2b00      	.short	0x2b00
     654:	d014      	beq.n	680 <DbgConsole_Init+0x9c>
     656:	e010      	.short	0xe010
     658:	7bbb      	ldrb	r3, [r7, #14]
     65a:	2b02      	.short	0x2b02
     65c:	d101      	bne.n	662 <DbgConsole_Init+0x7e>
     65e:	6b7b      	.short	0x6b7b
     660:	e02f      	b.n	6c2 <DbgConsole_Init+0xde>
     662:	7bbb      	.short	0x7bbb
     664:	2b03      	cmp	r3, #3
     666:	d101      	.short	0xd101
     668:	6b7b      	ldr	r3, [r7, #52]	; 0x34
     66a:	e02a      	.short	0xe02a
     66c:	7bbb      	ldrb	r3, [r7, #14]
     66e:	2b04      	.short	0x2b04
     670:	d101      	bne.n	676 <DbgConsole_Init+0x92>
     672:	6b7b      	.short	0x6b7b
     674:	e025      	b.n	6c2 <DbgConsole_Init+0xde>
     676:	6b7b      	.short	0x6b7b
     678:	e023      	b.n	6c2 <DbgConsole_Init+0xde>
     67a:	4815      	.short	0x4815
     67c:	f007 f9ae 	bl	79dc <__assertion_failed>
     680:	691b4b12 	.word	0x691b4b12
     684:	4913      	ldr	r1, [pc, #76]	; (6d4 <DbgConsole_Init+0xf0>)
     686:	4618      	.short	0x4618
     688:	f006 f8fe 	bl	6888 <SerialManager_OpenWriteHandle>
     68c:	637b4603 	.word	0x637b4603
     690:	6b7b      	ldr	r3, [r7, #52]	; 0x34
     692:	2b00      	.short	0x2b00
     694:	d002      	beq.n	69c <DbgConsole_Init+0xb8>
     696:	4810      	.short	0x4810
     698:	f007 f9a0 	bl	79dc <__assertion_failed>
     69c:	691b4b0b 	.word	0x691b4b0b
     6a0:	490e      	ldr	r1, [pc, #56]	; (6dc <DbgConsole_Init+0xf8>)
     6a2:	4618      	.short	0x4618
     6a4:	f006 f91c 	bl	68e0 <SerialManager_OpenReadHandle>
     6a8:	637b4603 	.word	0x637b4603
     6ac:	6b7b      	ldr	r3, [r7, #52]	; 0x34
     6ae:	2b00      	.short	0x2b00
     6b0:	d002      	beq.n	6b8 <DbgConsole_Init+0xd4>
     6b2:	480b      	.short	0x480b
     6b4:	f007 f992 	bl	79dc <__assertion_failed>
     6b8:	691b4b04 	.word	0x691b4b04
     6bc:	4a09      	ldr	r2, [pc, #36]	; (6e4 <DbgConsole_Init+0x100>)
     6be:	6013      	.short	0x6013
     6c0:	2300      	movs	r3, #0
     6c2:	4618      	.short	0x4618
     6c4:	3738      	adds	r7, #56	; 0x38
     6c6:	46bd      	.short	0x46bd
     6c8:	bd80      	pop	{r7, pc}
     6ca:	bf00      	.short	0xbf00
     6cc:	007c      	lsls	r4, r7, #1
     6ce:	2000      	.short	0x2000
     6d0:	a770      	add	r7, pc, #448	; (adr r7, 894 <makeDHCPMSG+0xb8>)
     6d2:	0000      	.short	0x0000
     6d4:	0090      	lsls	r0, r2, #2
     6d6:	2000      	.short	0x2000
     6d8:	a7c0      	add	r7, pc, #768	; (adr r7, 9dc <send_DHCP_DISCOVER+0x18>)
     6da:	0000      	.short	0x0000
     6dc:	0094      	lsls	r4, r2, #2
     6de:	2000      	.short	0x2000
     6e0:	a810      	add	r0, sp, #64	; 0x40
     6e2:	0000      	.short	0x0000
     6e4:	0098      	lsls	r0, r3, #2
     6e6:	2000      	.short	0x2000

000006e8 <DbgConsole_Printf>:
     6e8:	b40f      	push	{r0, r1, r2, r3}
     6ea:	b580      	.short	0xb580
     6ec:	b0a4      	sub	sp, #144	; 0x90
     6ee:	af00      	.short	0xaf00
     6f0:	2300      	movs	r3, #0
     6f2:	f8c7      	.short	0xf8c7
     6f4:	308c      	adds	r0, #140	; 0x8c
     6f6:	2300      	.short	0x2300
     6f8:	f8c7 3088 	str.w	r3, [r7, #136]	; 0x88
     6fc:	1d3b      	adds	r3, r7, #4
     6fe:	2280      	.short	0x2280
     700:	2100      	movs	r1, #0
     702:	4618      	.short	0x4618
     704:	f009 fcea 	bl	a0dc <memset>
     708:	681b4b12 	.word	0x681b4b12
     70c:	2b00      	cmp	r3, #0
     70e:	d101      	.short	0xd101
     710:	2300      	movs	r3, #0
     712:	e018      	.short	0xe018
     714:	f107 039c 	add.w	r3, r7, #156	; 0x9c
     718:	3084f8c7 	.word	0x3084f8c7
     71c:	1d3a      	adds	r2, r7, #4
     71e:	4b0e      	.short	0x4b0e
     720:	f8d7 1084 	ldr.w	r1, [r7, #132]	; 0x84
     724:	0098f8d7 	.word	0x0098f8d7
     728:	f007 fc30 	bl	7f8c <StrFormatPrintf>
     72c:	008cf8c7 	.word	0x008cf8c7
     730:	f8d7 208c 	ldr.w	r2, [r7, #140]	; 0x8c
     734:	46111d3b 	.word	0x46111d3b
     738:	4618      	mov	r0, r3
     73a:	f7ff      	.short	0xf7ff
     73c:	ff27 f8c7 	vsub.i32	<illegal reg q7.5>, <illegal reg q11.5>, <illegal reg q3.5>
     740:	f8d70088 	.word	0xf8d70088
     744:	3088      	adds	r0, #136	; 0x88
     746:	4618      	.short	0x4618
     748:	3790      	adds	r7, #144	; 0x90
     74a:	46bd      	.short	0x46bd
     74c:	e8bd 4080 	ldmia.w	sp!, {r7, lr}
     750:	4770b004 	.word	0x4770b004
     754:	0098      	lsls	r0, r3, #2
     756:	2000      	.short	0x2000
     758:	7e15      	ldrb	r5, [r2, #24]
	...

0000075c <default_ip_assign>:
     75c:	af00b580 	.word	0xaf00b580
     760:	2204      	movs	r2, #4
     762:	4908      	.short	0x4908
     764:	200f      	movs	r0, #15
     766:	f001      	.short	0xf001
     768:	fadb 2204 			; <UNDEFINED> instruction: 0xfadb2204
     76c:	20054906 	.word	0x20054906
     770:	f001 fad6 	bl	1d20 <WIZCHIP_WRITE_BUF>
     774:	49052204 	.word	0x49052204
     778:	2001      	movs	r0, #1
     77a:	f001      	.short	0xf001
     77c:	fad1 bf00 			; <UNDEFINED> instruction: 0xfad1bf00
     780:	bf00bd80 	.word	0xbf00bd80
     784:	00a4      	lsls	r4, r4, #2
     786:	2000      	.short	0x2000
     788:	00ac      	lsls	r4, r5, #2
     78a:	2000      	.short	0x2000
     78c:	00a8      	lsls	r0, r5, #2
     78e:	2000      	.short	0x2000

00000790 <default_ip_update>:
     790:	b580      	push	{r7, lr}
     792:	af00      	.short	0xaf00
     794:	2180      	movs	r1, #128	; 0x80
     796:	2000      	.short	0x2000
     798:	f001 fa66 	bl	1c68 <WIZCHIP_WRITE>
     79c:	f0012000 	.word	0xf0012000
     7a0:	fa91 f7ff 			; <UNDEFINED> instruction: 0xfa91f7ff
     7a4:	2206ffdb 	.word	0x2206ffdb
     7a8:	4902      	ldr	r1, [pc, #8]	; (7b4 <default_ip_update+0x24>)
     7aa:	2009      	.short	0x2009
     7ac:	f001 fab8 	bl	1d20 <WIZCHIP_WRITE_BUF>
     7b0:	bd80bf00 	.word	0xbd80bf00
     7b4:	00c0      	lsls	r0, r0, #3
     7b6:	2000      	.short	0x2000

000007b8 <default_ip_conflict>:
     7b8:	b580      	push	{r7, lr}
     7ba:	af00      	.short	0xaf00
     7bc:	2180      	movs	r1, #128	; 0x80
     7be:	2000      	.short	0x2000
     7c0:	f001 fa52 	bl	1c68 <WIZCHIP_WRITE>
     7c4:	f0012000 	.word	0xf0012000
     7c8:	fa7d 2206 			; <UNDEFINED> instruction: 0xfa7d2206
     7cc:	20094902 	.word	0x20094902
     7d0:	f001 faa6 	bl	1d20 <WIZCHIP_WRITE_BUF>
     7d4:	bd80bf00 	.word	0xbd80bf00
     7d8:	00c0      	lsls	r0, r0, #3
     7da:	2000      	.short	0x2000

000007dc <makeDHCPMSG>:
     7dc:	b580      	push	{r7, lr}
     7de:	b084      	.short	0xb084
     7e0:	af00      	add	r7, sp, #0
     7e2:	463b      	.short	0x463b
     7e4:	2206      	movs	r2, #6
     7e6:	4619      	.short	0x4619
     7e8:	2009      	movs	r0, #9
     7ea:	f001      	.short	0xf001
     7ec:	fae7 4b72 			; <UNDEFINED> instruction: 0xfae74b72
     7f0:	2201681b 	.word	0x2201681b
     7f4:	701a      	strb	r2, [r3, #0]
     7f6:	4b70      	.short	0x4b70
     7f8:	681b      	ldr	r3, [r3, #0]
     7fa:	2201      	.short	0x2201
     7fc:	705a      	strb	r2, [r3, #1]
     7fe:	4b6e      	.short	0x4b6e
     800:	681b      	ldr	r3, [r3, #0]
     802:	2206      	.short	0x2206
     804:	709a      	strb	r2, [r3, #2]
     806:	4b6c      	.short	0x4b6c
     808:	681b      	ldr	r3, [r3, #0]
     80a:	2200      	.short	0x2200
     80c:	70da      	strb	r2, [r3, #3]
     80e:	4b6a      	.short	0x4b6a
     810:	681b      	ldr	r3, [r3, #0]
     812:	3304      	adds	r3, #4
     814:	4b6960bb 	.word	0x4b6960bb
     818:	681b      	ldr	r3, [r3, #0]
     81a:	0e1b      	.short	0x0e1b
     81c:	b2da      	uxtb	r2, r3
     81e:	68bb      	.short	0x68bb
     820:	701a      	strb	r2, [r3, #0]
     822:	4b66      	.short	0x4b66
     824:	681b      	ldr	r3, [r3, #0]
     826:	0c1a      	.short	0x0c1a
     828:	68bb      	ldr	r3, [r7, #8]
     82a:	3301      	.short	0x3301
     82c:	b2d2      	uxtb	r2, r2
     82e:	701a      	.short	0x701a
     830:	4b62      	ldr	r3, [pc, #392]	; (9bc <makeDHCPMSG+0x1e0>)
     832:	681b      	.short	0x681b
     834:	0a1a      	lsrs	r2, r3, #8
     836:	68bb      	.short	0x68bb
     838:	3302      	adds	r3, #2
     83a:	b2d2      	.short	0xb2d2
     83c:	701a      	strb	r2, [r3, #0]
     83e:	4b5f      	.short	0x4b5f
     840:	681a      	ldr	r2, [r3, #0]
     842:	68bb      	.short	0x68bb
     844:	3303      	adds	r3, #3
     846:	b2d2      	.short	0xb2d2
     848:	701a      	strb	r2, [r3, #0]
     84a:	4b5b      	.short	0x4b5b
     84c:	681b      	ldr	r3, [r3, #0]
     84e:	2200      	.short	0x2200
     850:	811a      	strh	r2, [r3, #8]
     852:	4b59      	.short	0x4b59
     854:	681b      	ldr	r3, [r3, #0]
     856:	330a      	.short	0x330a
     858:	60bb      	str	r3, [r7, #8]
     85a:	68bb      	.short	0x68bb
     85c:	2280      	movs	r2, #128	; 0x80
     85e:	701a      	.short	0x701a
     860:	68bb      	ldr	r3, [r7, #8]
     862:	3301      	.short	0x3301
     864:	2200      	movs	r2, #0
     866:	701a      	.short	0x701a
     868:	4b53      	ldr	r3, [pc, #332]	; (9b8 <makeDHCPMSG+0x1dc>)
     86a:	681b      	.short	0x681b
     86c:	2200      	movs	r2, #0
     86e:	731a      	.short	0x731a
     870:	4b51      	ldr	r3, [pc, #324]	; (9b8 <makeDHCPMSG+0x1dc>)
     872:	681b      	.short	0x681b
     874:	2200      	movs	r2, #0
     876:	735a      	.short	0x735a
     878:	4b4f      	ldr	r3, [pc, #316]	; (9b8 <makeDHCPMSG+0x1dc>)
     87a:	681b      	.short	0x681b
     87c:	2200      	movs	r2, #0
     87e:	739a      	.short	0x739a
     880:	4b4d      	ldr	r3, [pc, #308]	; (9b8 <makeDHCPMSG+0x1dc>)
     882:	681b      	.short	0x681b
     884:	2200      	movs	r2, #0
     886:	73da      	.short	0x73da
     888:	4b4b      	ldr	r3, [pc, #300]	; (9b8 <makeDHCPMSG+0x1dc>)
     88a:	681b      	.short	0x681b
     88c:	2200      	movs	r2, #0
     88e:	741a      	.short	0x741a
     890:	4b49      	ldr	r3, [pc, #292]	; (9b8 <makeDHCPMSG+0x1dc>)
     892:	681b      	.short	0x681b
     894:	2200      	movs	r2, #0
     896:	745a      	.short	0x745a
     898:	4b47      	ldr	r3, [pc, #284]	; (9b8 <makeDHCPMSG+0x1dc>)
     89a:	681b      	.short	0x681b
     89c:	2200      	movs	r2, #0
     89e:	749a      	.short	0x749a
     8a0:	4b45      	ldr	r3, [pc, #276]	; (9b8 <makeDHCPMSG+0x1dc>)
     8a2:	681b      	.short	0x681b
     8a4:	2200      	movs	r2, #0
     8a6:	74da      	.short	0x74da
     8a8:	4b43      	ldr	r3, [pc, #268]	; (9b8 <makeDHCPMSG+0x1dc>)
     8aa:	681b      	.short	0x681b
     8ac:	2200      	movs	r2, #0
     8ae:	751a      	.short	0x751a
     8b0:	4b41      	ldr	r3, [pc, #260]	; (9b8 <makeDHCPMSG+0x1dc>)
     8b2:	681b      	.short	0x681b
     8b4:	2200      	movs	r2, #0
     8b6:	755a      	.short	0x755a
     8b8:	4b3f      	ldr	r3, [pc, #252]	; (9b8 <makeDHCPMSG+0x1dc>)
     8ba:	681b      	.short	0x681b
     8bc:	2200      	movs	r2, #0
     8be:	759a      	.short	0x759a
     8c0:	4b3d      	ldr	r3, [pc, #244]	; (9b8 <makeDHCPMSG+0x1dc>)
     8c2:	681b      	.short	0x681b
     8c4:	2200      	movs	r2, #0
     8c6:	75da      	.short	0x75da
     8c8:	4b3b      	ldr	r3, [pc, #236]	; (9b8 <makeDHCPMSG+0x1dc>)
     8ca:	681b      	.short	0x681b
     8cc:	2200      	movs	r2, #0
     8ce:	761a      	.short	0x761a
     8d0:	4b39      	ldr	r3, [pc, #228]	; (9b8 <makeDHCPMSG+0x1dc>)
     8d2:	681b      	.short	0x681b
     8d4:	2200      	movs	r2, #0
     8d6:	765a      	.short	0x765a
     8d8:	4b37      	ldr	r3, [pc, #220]	; (9b8 <makeDHCPMSG+0x1dc>)
     8da:	681b      	.short	0x681b
     8dc:	2200      	movs	r2, #0
     8de:	769a      	.short	0x769a
     8e0:	4b35      	ldr	r3, [pc, #212]	; (9b8 <makeDHCPMSG+0x1dc>)
     8e2:	681b      	.short	0x681b
     8e4:	2200      	movs	r2, #0
     8e6:	76da      	.short	0x76da
     8e8:	4b33      	ldr	r3, [pc, #204]	; (9b8 <makeDHCPMSG+0x1dc>)
     8ea:	681b      	.short	0x681b
     8ec:	4a34      	ldr	r2, [pc, #208]	; (9c0 <makeDHCPMSG+0x1e4>)
     8ee:	7812      	.short	0x7812
     8f0:	771a      	strb	r2, [r3, #28]
     8f2:	4b31      	.short	0x4b31
     8f4:	681b      	ldr	r3, [r3, #0]
     8f6:	4a32      	.short	0x4a32
     8f8:	7852      	ldrb	r2, [r2, #1]
     8fa:	775a      	.short	0x775a
     8fc:	4b2e      	ldr	r3, [pc, #184]	; (9b8 <makeDHCPMSG+0x1dc>)
     8fe:	681b      	.short	0x681b
     900:	4a2f      	ldr	r2, [pc, #188]	; (9c0 <makeDHCPMSG+0x1e4>)
     902:	7892      	.short	0x7892
     904:	779a      	strb	r2, [r3, #30]
     906:	4b2c      	.short	0x4b2c
     908:	681b      	ldr	r3, [r3, #0]
     90a:	4a2d      	.short	0x4a2d
     90c:	78d2      	ldrb	r2, [r2, #3]
     90e:	77da      	.short	0x77da
     910:	4b29      	ldr	r3, [pc, #164]	; (9b8 <makeDHCPMSG+0x1dc>)
     912:	681b      	.short	0x681b
     914:	4a2a      	ldr	r2, [pc, #168]	; (9c0 <makeDHCPMSG+0x1e4>)
     916:	7912      	.short	0x7912
     918:	f883 2020 	strb.w	r2, [r3, #32]
     91c:	681b4b26 	.word	0x681b4b26
     920:	4a27      	ldr	r2, [pc, #156]	; (9c0 <makeDHCPMSG+0x1e4>)
     922:	7952      	.short	0x7952
     924:	f883 2021 	strb.w	r2, [r3, #33]	; 0x21
     928:	73fb2306 	.word	0x73fb2306
     92c:	e008      	b.n	940 <makeDHCPMSG+0x164>
     92e:	4b22      	.short	0x4b22
     930:	681a      	ldr	r2, [r3, #0]
     932:	7bfb      	.short	0x7bfb
     934:	4413      	add	r3, r2
     936:	2200      	.short	0x2200
     938:	771a      	strb	r2, [r3, #28]
     93a:	7bfb      	.short	0x7bfb
     93c:	3301      	adds	r3, #1
     93e:	73fb      	.short	0x73fb
     940:	7bfb      	ldrb	r3, [r7, #15]
     942:	2b0f      	.short	0x2b0f
     944:	d9f3      	bls.n	92e <makeDHCPMSG+0x152>
     946:	2300      	.short	0x2300
     948:	73fb      	strb	r3, [r7, #15]
     94a:	e009      	.short	0xe009
     94c:	4b1a      	ldr	r3, [pc, #104]	; (9b8 <makeDHCPMSG+0x1dc>)
     94e:	681a      	.short	0x681a
     950:	7bfb      	ldrb	r3, [r7, #15]
     952:	4413      	.short	0x4413
     954:	2200      	movs	r2, #0
     956:	f883      	.short	0xf883
     958:	202c      	movs	r0, #44	; 0x2c
     95a:	7bfb      	.short	0x7bfb
     95c:	3301      	adds	r3, #1
     95e:	73fb      	.short	0x73fb
     960:	7bfb      	ldrb	r3, [r7, #15]
     962:	2b3f      	.short	0x2b3f
     964:	d9f2      	bls.n	94c <makeDHCPMSG+0x170>
     966:	2300      	.short	0x2300
     968:	73fb      	strb	r3, [r7, #15]
     96a:	e009      	.short	0xe009
     96c:	4b12      	ldr	r3, [pc, #72]	; (9b8 <makeDHCPMSG+0x1dc>)
     96e:	681a      	.short	0x681a
     970:	7bfb      	ldrb	r3, [r7, #15]
     972:	4413      	.short	0x4413
     974:	2200      	movs	r2, #0
     976:	f883      	.short	0xf883
     978:	206c      	movs	r0, #108	; 0x6c
     97a:	7bfb      	.short	0x7bfb
     97c:	3301      	adds	r3, #1
     97e:	73fb      	.short	0x73fb
     980:	f997 300f 	ldrsb.w	r3, [r7, #15]
     984:	2b00      	cmp	r3, #0
     986:	daf1      	bge.n	96c <makeDHCPMSG+0x190>
     988:	4b0b      	ldr	r3, [pc, #44]	; (9b8 <makeDHCPMSG+0x1dc>)
     98a:	681b      	ldr	r3, [r3, #0]
     98c:	2263      	movs	r2, #99	; 0x63
     98e:	f883 20ec 	strb.w	r2, [r3, #236]	; 0xec
     992:	4b09      	ldr	r3, [pc, #36]	; (9b8 <makeDHCPMSG+0x1dc>)
     994:	681b      	ldr	r3, [r3, #0]
     996:	2282      	movs	r2, #130	; 0x82
     998:	f883 20ed 	strb.w	r2, [r3, #237]	; 0xed
     99c:	4b06      	ldr	r3, [pc, #24]	; (9b8 <makeDHCPMSG+0x1dc>)
     99e:	681b      	ldr	r3, [r3, #0]
     9a0:	2253      	movs	r2, #83	; 0x53
     9a2:	f883 20ee 	strb.w	r2, [r3, #238]	; 0xee
     9a6:	4b04      	ldr	r3, [pc, #16]	; (9b8 <makeDHCPMSG+0x1dc>)
     9a8:	681b      	ldr	r3, [r3, #0]
     9aa:	2263      	movs	r2, #99	; 0x63
     9ac:	f883 20ef 	strb.w	r2, [r3, #239]	; 0xef
     9b0:	bf00      	nop
     9b2:	3710      	adds	r7, #16
     9b4:	46bd      	mov	sp, r7
     9b6:	bd80      	pop	{r7, pc}
     9b8:	200000bc 	.word	0x200000bc
     9bc:	200000b8 	.word	0x200000b8
     9c0:	200000c0 	.word	0x200000c0

000009c4 <send_DHCP_DISCOVER>:
     9c4:	b5b0      	push	{r4, r5, r7, lr}
     9c6:	b084      	sub	sp, #16
     9c8:	af02      	add	r7, sp, #8
     9ca:	2300      	movs	r3, #0
     9cc:	80bb      	strh	r3, [r7, #4]
     9ce:	f7ff ff05 	bl	7dc <makeDHCPMSG>
     9d2:	2304      	movs	r3, #4
     9d4:	80bb      	strh	r3, [r7, #4]
     9d6:	4b49      	ldr	r3, [pc, #292]	; (afc <send_DHCP_DISCOVER+0x138>)
     9d8:	681a      	ldr	r2, [r3, #0]
     9da:	88bb      	ldrh	r3, [r7, #4]
     9dc:	1c59      	adds	r1, r3, #1
     9de:	80b9      	strh	r1, [r7, #4]
     9e0:	4413      	add	r3, r2
     9e2:	2235      	movs	r2, #53	; 0x35
     9e4:	f883 20ec 	strb.w	r2, [r3, #236]	; 0xec
     9e8:	4b44      	ldr	r3, [pc, #272]	; (afc <send_DHCP_DISCOVER+0x138>)
     9ea:	681a      	ldr	r2, [r3, #0]
     9ec:	88bb      	ldrh	r3, [r7, #4]
     9ee:	1c59      	adds	r1, r3, #1
     9f0:	80b9      	strh	r1, [r7, #4]
     9f2:	4413      	add	r3, r2
     9f4:	2201      	movs	r2, #1
     9f6:	f883 20ec 	strb.w	r2, [r3, #236]	; 0xec
     9fa:	4b40      	ldr	r3, [pc, #256]	; (afc <send_DHCP_DISCOVER+0x138>)
     9fc:	681a      	ldr	r2, [r3, #0]
     9fe:	88bb      	ldrh	r3, [r7, #4]
     a00:	1c59      	adds	r1, r3, #1
     a02:	80b9      	strh	r1, [r7, #4]
     a04:	4413      	add	r3, r2
     a06:	2201      	movs	r2, #1
     a08:	f883 20ec 	strb.w	r2, [r3, #236]	; 0xec
     a0c:	4b3b      	ldr	r3, [pc, #236]	; (afc <send_DHCP_DISCOVER+0x138>)
     a0e:	681a      	ldr	r2, [r3, #0]
     a10:	88bb      	ldrh	r3, [r7, #4]
     a12:	1c59      	adds	r1, r3, #1
     a14:	80b9      	strh	r1, [r7, #4]
     a16:	4413      	add	r3, r2
     a18:	223d      	movs	r2, #61	; 0x3d
     a1a:	f883 20ec 	strb.w	r2, [r3, #236]	; 0xec
     a1e:	4b37      	ldr	r3, [pc, #220]	; (afc <send_DHCP_DISCOVER+0x138>)
     a20:	681a      	ldr	r2, [r3, #0]
     a22:	88bb      	ldrh	r3, [r7, #4]
     a24:	1c59      	adds	r1, r3, #1
     a26:	80b9      	strh	r1, [r7, #4]
     a28:	4413      	add	r3, r2
     a2a:	2207      	movs	r2, #7
     a2c:	f883 20ec 	strb.w	r2, [r3, #236]	; 0xec
     a30:	4b32      	ldr	r3, [pc, #200]	; (afc <send_DHCP_DISCOVER+0x138>)
     a32:	681a      	ldr	r2, [r3, #0]
     a34:	88bb      	ldrh	r3, [r7, #4]
     a36:	1c59      	adds	r1, r3, #1
     a38:	80b9      	strh	r1, [r7, #4]
     a3a:	4413      	add	r3, r2
     a3c:	2201      	movs	r2, #1
     a3e:	f883 20ec 	strb.w	r2, [r3, #236]	; 0xec
     a42:	4b2e      	ldr	r3, [pc, #184]	; (afc <send_DHCP_DISCOVER+0x138>)
     a44:	681a      	ldr	r2, [r3, #0]
     a46:	88bb      	ldrh	r3, [r7, #4]
     a48:	1c59      	adds	r1, r3, #1
     a4a:	80b9      	strh	r1, [r7, #4]
     a4c:	4618      	mov	r0, r3
     a4e:	4b2c      	ldr	r3, [pc, #176]	; (b00 <send_DHCP_DISCOVER+0x13c>)
     a50:	7819      	ldrb	r1, [r3, #0]
     a52:	1813      	adds	r3, r2, r0
     a54:	460a      	mov	r2, r1
     a56:	f883 20ec 	strb.w	r2, [r3, #236]	; 0xec
     a5a:	4b28      	ldr	r3, [pc, #160]	; (afc <send_DHCP_DISCOVER+0x138>)
     a5c:	681a      	ldr	r2, [r3, #0]
     a5e:	88bb      	ldrh	r3, [r7, #4]
     a60:	1c59      	adds	r1, r3, #1
     a62:	80b9      	strh	r1, [r7, #4]
     a64:	4618      	mov	r0, r3
     a66:	4b26      	ldr	r3, [pc, #152]	; (b00 <send_DHCP_DISCOVER+0x13c>)
     a68:	7859      	ldrb	r1, [r3, #1]
     a6a:	1813      	adds	r3, r2, r0
     a6c:	460a      	mov	r2, r1
     a6e:	f883 20ec 	strb.w	r2, [r3, #236]	; 0xec
     a72:	4b22      	ldr	r3, [pc, #136]	; (afc <send_DHCP_DISCOVER+0x138>)
     a74:	681a      	ldr	r2, [r3, #0]
     a76:	88bb      	ldrh	r3, [r7, #4]
     a78:	1c59      	adds	r1, r3, #1
     a7a:	80b9      	strh	r1, [r7, #4]
     a7c:	4618      	mov	r0, r3
     a7e:	4b20      	ldr	r3, [pc, #128]	; (b00 <send_DHCP_DISCOVER+0x13c>)
     a80:	7899      	ldrb	r1, [r3, #2]
     a82:	1813      	adds	r3, r2, r0
     a84:	460a      	mov	r2, r1
     a86:	f883 20ec 	strb.w	r2, [r3, #236]	; 0xec
     a8a:	4b1c      	ldr	r3, [pc, #112]	; (afc <send_DHCP_DISCOVER+0x138>)
     a8c:	681a      	ldr	r2, [r3, #0]
     a8e:	88bb      	ldrh	r3, [r7, #4]
     a90:	1c59      	adds	r1, r3, #1
     a92:	80b9      	strh	r1, [r7, #4]
     a94:	4618      	mov	r0, r3
     a96:	4b1a      	ldr	r3, [pc, #104]	; (b00 <send_DHCP_DISCOVER+0x13c>)
     a98:	78d9      	ldrb	r1, [r3, #3]
     a9a:	1813      	adds	r3, r2, r0
     a9c:	460a      	mov	r2, r1
     a9e:	f883 20ec 	strb.w	r2, [r3, #236]	; 0xec
     aa2:	4b16      	ldr	r3, [pc, #88]	; (afc <send_DHCP_DISCOVER+0x138>)
     aa4:	681a      	ldr	r2, [r3, #0]
     aa6:	88bb      	ldrh	r3, [r7, #4]
     aa8:	1c59      	adds	r1, r3, #1
     aaa:	80b9      	strh	r1, [r7, #4]
     aac:	4618      	mov	r0, r3
     aae:	4b14      	ldr	r3, [pc, #80]	; (b00 <send_DHCP_DISCOVER+0x13c>)
     ab0:	7919      	ldrb	r1, [r3, #4]
     ab2:	1813      	adds	r3, r2, r0
     ab4:	460a      	mov	r2, r1
     ab6:	f883 20ec 	strb.w	r2, [r3, #236]	; 0xec
     aba:	4b10      	ldr	r3, [pc, #64]	; (afc <send_DHCP_DISCOVER+0x138>)
     abc:	681a      	ldr	r2, [r3, #0]
     abe:	88bb      	ldrh	r3, [r7, #4]
     ac0:	1c59      	adds	r1, r3, #1
     ac2:	80b9      	strh	r1, [r7, #4]
     ac4:	4618      	mov	r0, r3
     ac6:	4b0e      	ldr	r3, [pc, #56]	; (b00 <send_DHCP_DISCOVER+0x13c>)
     ac8:	7959      	ldrb	r1, [r3, #5]
     aca:	1813      	adds	r3, r2, r0
     acc:	460a      	mov	r2, r1
     ace:	f883 20ec 	strb.w	r2, [r3, #236]	; 0xec
     ad2:	4b0a      	ldr	r3, [pc, #40]	; (afc <send_DHCP_DISCOVER+0x138>)
     ad4:	681a      	ldr	r2, [r3, #0]
     ad6:	88bb      	ldrh	r3, [r7, #4]
     ad8:	1c59      	adds	r1, r3, #1
     ada:	80b9      	strh	r1, [r7, #4]
     adc:	4413      	add	r3, r2
     ade:	220c      	movs	r2, #12
     ae0:	f883 20ec 	strb.w	r2, [r3, #236]	; 0xec
     ae4:	4b05      	ldr	r3, [pc, #20]	; (afc <send_DHCP_DISCOVER+0x138>)
     ae6:	681a      	ldr	r2, [r3, #0]
     ae8:	88bb      	ldrh	r3, [r7, #4]
     aea:	1c59      	adds	r1, r3, #1
     aec:	80b9      	strh	r1, [r7, #4]
     aee:	4413      	add	r3, r2
     af0:	2200      	movs	r2, #0
     af2:	f883 20ec 	strb.w	r2, [r3, #236]	; 0xec
     af6:	2300      	movs	r3, #0
     af8:	80fb      	strh	r3, [r7, #6]
     afa:	e013      	b.n	b24 <send_DHCP_DISCOVER+0x160>
     afc:	200000bc 	.word	0x200000bc
     b00:	200000c0 	.word	0x200000c0
     b04:	88f9      	ldrh	r1, [r7, #6]
     b06:	4b81      	ldr	r3, [pc, #516]	; (d0c <send_DHCP_DISCOVER+0x348>)
     b08:	681a      	ldr	r2, [r3, #0]
     b0a:	88bb      	ldrh	r3, [r7, #4]
     b0c:	1c58      	adds	r0, r3, #1
     b0e:	80b8      	strh	r0, [r7, #4]
     b10:	4618      	mov	r0, r3
     b12:	4b7f      	ldr	r3, [pc, #508]	; (d10 <send_DHCP_DISCOVER+0x34c>)
     b14:	5c59      	ldrb	r1, [r3, r1]
     b16:	1813      	adds	r3, r2, r0
     b18:	460a      	mov	r2, r1
     b1a:	f883 20ec 	strb.w	r2, [r3, #236]	; 0xec
     b1e:	88fb      	ldrh	r3, [r7, #6]
     b20:	3301      	adds	r3, #1
     b22:	80fb      	strh	r3, [r7, #6]
     b24:	88fb      	ldrh	r3, [r7, #6]
     b26:	4a7a      	ldr	r2, [pc, #488]	; (d10 <send_DHCP_DISCOVER+0x34c>)
     b28:	5cd3      	ldrb	r3, [r2, r3]
     b2a:	2b00      	cmp	r3, #0
     b2c:	d1ea      	bne.n	b04 <send_DHCP_DISCOVER+0x140>
     b2e:	4b79      	ldr	r3, [pc, #484]	; (d14 <send_DHCP_DISCOVER+0x350>)
     b30:	78db      	ldrb	r3, [r3, #3]
     b32:	091b      	lsrs	r3, r3, #4
     b34:	b2da      	uxtb	r2, r3
     b36:	4b75      	ldr	r3, [pc, #468]	; (d0c <send_DHCP_DISCOVER+0x348>)
     b38:	681c      	ldr	r4, [r3, #0]
     b3a:	88bb      	ldrh	r3, [r7, #4]
     b3c:	1c59      	adds	r1, r3, #1
     b3e:	80b9      	strh	r1, [r7, #4]
     b40:	461d      	mov	r5, r3
     b42:	4610      	mov	r0, r2
     b44:	f007 fe1c 	bl	8780 <NibbleToHex>
     b48:	4603      	mov	r3, r0
     b4a:	461a      	mov	r2, r3
     b4c:	1963      	adds	r3, r4, r5
     b4e:	f883 20ec 	strb.w	r2, [r3, #236]	; 0xec
     b52:	4b70      	ldr	r3, [pc, #448]	; (d14 <send_DHCP_DISCOVER+0x350>)
     b54:	78da      	ldrb	r2, [r3, #3]
     b56:	4b6d      	ldr	r3, [pc, #436]	; (d0c <send_DHCP_DISCOVER+0x348>)
     b58:	681c      	ldr	r4, [r3, #0]
     b5a:	88bb      	ldrh	r3, [r7, #4]
     b5c:	1c59      	adds	r1, r3, #1
     b5e:	80b9      	strh	r1, [r7, #4]
     b60:	461d      	mov	r5, r3
     b62:	4610      	mov	r0, r2
     b64:	f007 fe0c 	bl	8780 <NibbleToHex>
     b68:	4603      	mov	r3, r0
     b6a:	461a      	mov	r2, r3
     b6c:	1963      	adds	r3, r4, r5
     b6e:	f883 20ec 	strb.w	r2, [r3, #236]	; 0xec
     b72:	4b68      	ldr	r3, [pc, #416]	; (d14 <send_DHCP_DISCOVER+0x350>)
     b74:	791b      	ldrb	r3, [r3, #4]
     b76:	091b      	lsrs	r3, r3, #4
     b78:	b2da      	uxtb	r2, r3
     b7a:	4b64      	ldr	r3, [pc, #400]	; (d0c <send_DHCP_DISCOVER+0x348>)
     b7c:	681c      	ldr	r4, [r3, #0]
     b7e:	88bb      	ldrh	r3, [r7, #4]
     b80:	1c59      	adds	r1, r3, #1
     b82:	80b9      	strh	r1, [r7, #4]
     b84:	461d      	mov	r5, r3
     b86:	4610      	mov	r0, r2
     b88:	f007 fdfa 	bl	8780 <NibbleToHex>
     b8c:	4603      	mov	r3, r0
     b8e:	461a      	mov	r2, r3
     b90:	1963      	adds	r3, r4, r5
     b92:	f883 20ec 	strb.w	r2, [r3, #236]	; 0xec
     b96:	4b5f      	ldr	r3, [pc, #380]	; (d14 <send_DHCP_DISCOVER+0x350>)
     b98:	791a      	ldrb	r2, [r3, #4]
     b9a:	4b5c      	ldr	r3, [pc, #368]	; (d0c <send_DHCP_DISCOVER+0x348>)
     b9c:	681c      	ldr	r4, [r3, #0]
     b9e:	88bb      	ldrh	r3, [r7, #4]
     ba0:	1c59      	adds	r1, r3, #1
     ba2:	80b9      	strh	r1, [r7, #4]
     ba4:	461d      	mov	r5, r3
     ba6:	4610      	mov	r0, r2
     ba8:	f007 fdea 	bl	8780 <NibbleToHex>
     bac:	4603      	mov	r3, r0
     bae:	461a      	mov	r2, r3
     bb0:	1963      	adds	r3, r4, r5
     bb2:	f883 20ec 	strb.w	r2, [r3, #236]	; 0xec
     bb6:	4b57      	ldr	r3, [pc, #348]	; (d14 <send_DHCP_DISCOVER+0x350>)
     bb8:	795b      	ldrb	r3, [r3, #5]
     bba:	091b      	lsrs	r3, r3, #4
     bbc:	b2da      	uxtb	r2, r3
     bbe:	4b53      	ldr	r3, [pc, #332]	; (d0c <send_DHCP_DISCOVER+0x348>)
     bc0:	681c      	ldr	r4, [r3, #0]
     bc2:	88bb      	ldrh	r3, [r7, #4]
     bc4:	1c59      	adds	r1, r3, #1
     bc6:	80b9      	strh	r1, [r7, #4]
     bc8:	461d      	mov	r5, r3
     bca:	4610      	mov	r0, r2
     bcc:	f007 fdd8 	bl	8780 <NibbleToHex>
     bd0:	4603      	mov	r3, r0
     bd2:	461a      	mov	r2, r3
     bd4:	1963      	adds	r3, r4, r5
     bd6:	f883 20ec 	strb.w	r2, [r3, #236]	; 0xec
     bda:	4b4e      	ldr	r3, [pc, #312]	; (d14 <send_DHCP_DISCOVER+0x350>)
     bdc:	795a      	ldrb	r2, [r3, #5]
     bde:	4b4b      	ldr	r3, [pc, #300]	; (d0c <send_DHCP_DISCOVER+0x348>)
     be0:	681c      	ldr	r4, [r3, #0]
     be2:	88bb      	ldrh	r3, [r7, #4]
     be4:	1c59      	adds	r1, r3, #1
     be6:	80b9      	strh	r1, [r7, #4]
     be8:	461d      	mov	r5, r3
     bea:	4610      	mov	r0, r2
     bec:	f007 fdc8 	bl	8780 <NibbleToHex>
     bf0:	4603      	mov	r3, r0
     bf2:	461a      	mov	r2, r3
     bf4:	1963      	adds	r3, r4, r5
     bf6:	f883 20ec 	strb.w	r2, [r3, #236]	; 0xec
     bfa:	88fb      	ldrh	r3, [r7, #6]
     bfc:	b2d9      	uxtb	r1, r3
     bfe:	4b43      	ldr	r3, [pc, #268]	; (d0c <send_DHCP_DISCOVER+0x348>)
     c00:	681a      	ldr	r2, [r3, #0]
     c02:	88b8      	ldrh	r0, [r7, #4]
     c04:	88fb      	ldrh	r3, [r7, #6]
     c06:	3307      	adds	r3, #7
     c08:	1ac3      	subs	r3, r0, r3
     c0a:	3106      	adds	r1, #6
     c0c:	b2c9      	uxtb	r1, r1
     c0e:	4413      	add	r3, r2
     c10:	460a      	mov	r2, r1
     c12:	f883 20ec 	strb.w	r2, [r3, #236]	; 0xec
     c16:	4b3d      	ldr	r3, [pc, #244]	; (d0c <send_DHCP_DISCOVER+0x348>)
     c18:	681a      	ldr	r2, [r3, #0]
     c1a:	88bb      	ldrh	r3, [r7, #4]
     c1c:	1c59      	adds	r1, r3, #1
     c1e:	80b9      	strh	r1, [r7, #4]
     c20:	4413      	add	r3, r2
     c22:	2237      	movs	r2, #55	; 0x37
     c24:	f883 20ec 	strb.w	r2, [r3, #236]	; 0xec
     c28:	4b38      	ldr	r3, [pc, #224]	; (d0c <send_DHCP_DISCOVER+0x348>)
     c2a:	681a      	ldr	r2, [r3, #0]
     c2c:	88bb      	ldrh	r3, [r7, #4]
     c2e:	1c59      	adds	r1, r3, #1
     c30:	80b9      	strh	r1, [r7, #4]
     c32:	4413      	add	r3, r2
     c34:	2206      	movs	r2, #6
     c36:	f883 20ec 	strb.w	r2, [r3, #236]	; 0xec
     c3a:	4b34      	ldr	r3, [pc, #208]	; (d0c <send_DHCP_DISCOVER+0x348>)
     c3c:	681a      	ldr	r2, [r3, #0]
     c3e:	88bb      	ldrh	r3, [r7, #4]
     c40:	1c59      	adds	r1, r3, #1
     c42:	80b9      	strh	r1, [r7, #4]
     c44:	4413      	add	r3, r2
     c46:	2201      	movs	r2, #1
     c48:	f883 20ec 	strb.w	r2, [r3, #236]	; 0xec
     c4c:	4b2f      	ldr	r3, [pc, #188]	; (d0c <send_DHCP_DISCOVER+0x348>)
     c4e:	681a      	ldr	r2, [r3, #0]
     c50:	88bb      	ldrh	r3, [r7, #4]
     c52:	1c59      	adds	r1, r3, #1
     c54:	80b9      	strh	r1, [r7, #4]
     c56:	4413      	add	r3, r2
     c58:	2203      	movs	r2, #3
     c5a:	f883 20ec 	strb.w	r2, [r3, #236]	; 0xec
     c5e:	4b2b      	ldr	r3, [pc, #172]	; (d0c <send_DHCP_DISCOVER+0x348>)
     c60:	681a      	ldr	r2, [r3, #0]
     c62:	88bb      	ldrh	r3, [r7, #4]
     c64:	1c59      	adds	r1, r3, #1
     c66:	80b9      	strh	r1, [r7, #4]
     c68:	4413      	add	r3, r2
     c6a:	2206      	movs	r2, #6
     c6c:	f883 20ec 	strb.w	r2, [r3, #236]	; 0xec
     c70:	4b26      	ldr	r3, [pc, #152]	; (d0c <send_DHCP_DISCOVER+0x348>)
     c72:	681a      	ldr	r2, [r3, #0]
     c74:	88bb      	ldrh	r3, [r7, #4]
     c76:	1c59      	adds	r1, r3, #1
     c78:	80b9      	strh	r1, [r7, #4]
     c7a:	4413      	add	r3, r2
     c7c:	220f      	movs	r2, #15
     c7e:	f883 20ec 	strb.w	r2, [r3, #236]	; 0xec
     c82:	4b22      	ldr	r3, [pc, #136]	; (d0c <send_DHCP_DISCOVER+0x348>)
     c84:	681a      	ldr	r2, [r3, #0]
     c86:	88bb      	ldrh	r3, [r7, #4]
     c88:	1c59      	adds	r1, r3, #1
     c8a:	80b9      	strh	r1, [r7, #4]
     c8c:	4413      	add	r3, r2
     c8e:	223a      	movs	r2, #58	; 0x3a
     c90:	f883 20ec 	strb.w	r2, [r3, #236]	; 0xec
     c94:	4b1d      	ldr	r3, [pc, #116]	; (d0c <send_DHCP_DISCOVER+0x348>)
     c96:	681a      	ldr	r2, [r3, #0]
     c98:	88bb      	ldrh	r3, [r7, #4]
     c9a:	1c59      	adds	r1, r3, #1
     c9c:	80b9      	strh	r1, [r7, #4]
     c9e:	4413      	add	r3, r2
     ca0:	223b      	movs	r2, #59	; 0x3b
     ca2:	f883 20ec 	strb.w	r2, [r3, #236]	; 0xec
     ca6:	4b19      	ldr	r3, [pc, #100]	; (d0c <send_DHCP_DISCOVER+0x348>)
     ca8:	681a      	ldr	r2, [r3, #0]
     caa:	88bb      	ldrh	r3, [r7, #4]
     cac:	1c59      	adds	r1, r3, #1
     cae:	80b9      	strh	r1, [r7, #4]
     cb0:	4413      	add	r3, r2
     cb2:	22ff      	movs	r2, #255	; 0xff
     cb4:	f883 20ec 	strb.w	r2, [r3, #236]	; 0xec
     cb8:	88bb      	ldrh	r3, [r7, #4]
     cba:	80fb      	strh	r3, [r7, #6]
     cbc:	e009      	b.n	cd2 <send_DHCP_DISCOVER+0x30e>
     cbe:	4b13      	ldr	r3, [pc, #76]	; (d0c <send_DHCP_DISCOVER+0x348>)
     cc0:	681a      	ldr	r2, [r3, #0]
     cc2:	88fb      	ldrh	r3, [r7, #6]
     cc4:	4413      	add	r3, r2
     cc6:	2200      	movs	r2, #0
     cc8:	f883 20ec 	strb.w	r2, [r3, #236]	; 0xec
     ccc:	88fb      	ldrh	r3, [r7, #6]
     cce:	3301      	adds	r3, #1
     cd0:	80fb      	strh	r3, [r7, #6]
     cd2:	88fb      	ldrh	r3, [r7, #6]
     cd4:	f5b3 7f9c 	cmp.w	r3, #312	; 0x138
     cd8:	d3f1      	bcc.n	cbe <send_DHCP_DISCOVER+0x2fa>
     cda:	23ff      	movs	r3, #255	; 0xff
     cdc:	703b      	strb	r3, [r7, #0]
     cde:	23ff      	movs	r3, #255	; 0xff
     ce0:	707b      	strb	r3, [r7, #1]
     ce2:	23ff      	movs	r3, #255	; 0xff
     ce4:	70bb      	strb	r3, [r7, #2]
     ce6:	23ff      	movs	r3, #255	; 0xff
     ce8:	70fb      	strb	r3, [r7, #3]
     cea:	4b0b      	ldr	r3, [pc, #44]	; (d18 <send_DHCP_DISCOVER+0x354>)
     cec:	7818      	ldrb	r0, [r3, #0]
     cee:	4b07      	ldr	r3, [pc, #28]	; (d0c <send_DHCP_DISCOVER+0x348>)
     cf0:	6819      	ldr	r1, [r3, #0]
     cf2:	463a      	mov	r2, r7
     cf4:	2343      	movs	r3, #67	; 0x43
     cf6:	9300      	str	r3, [sp, #0]
     cf8:	4613      	mov	r3, r2
     cfa:	f44f 7209 	mov.w	r2, #548	; 0x224
     cfe:	f001 fa17 	bl	2130 <sendto>
     d02:	bf00      	nop
     d04:	3708      	adds	r7, #8
     d06:	46bd      	mov	sp, r7
     d08:	bdb0      	pop	{r4, r5, r7, pc}
     d0a:	bf00      	nop
     d0c:	200000bc 	.word	0x200000bc
     d10:	20000008 	.word	0x20000008
     d14:	200000c0 	.word	0x200000c0
     d18:	20000ab4 	.word	0x20000ab4

00000d1c <send_DHCP_REQUEST>:
     d1c:	b5b0      	push	{r4, r5, r7, lr}
     d1e:	b086      	sub	sp, #24
     d20:	af02      	add	r7, sp, #8
     d22:	2300      	movs	r3, #0
     d24:	817b      	strh	r3, [r7, #10]
     d26:	f7ff fd59 	bl	7dc <makeDHCPMSG>
     d2a:	4b1b      	ldr	r3, [pc, #108]	; (d98 <send_DHCP_REQUEST+0x7c>)
     d2c:	f993 3000 	ldrsb.w	r3, [r3]
     d30:	2b03      	cmp	r3, #3
     d32:	d004      	beq.n	d3e <send_DHCP_REQUEST+0x22>
     d34:	4b18      	ldr	r3, [pc, #96]	; (d98 <send_DHCP_REQUEST+0x7c>)
     d36:	f993 3000 	ldrsb.w	r3, [r3]
     d3a:	2b04      	cmp	r3, #4
     d3c:	d134      	bne.n	da8 <send_DHCP_REQUEST+0x8c>
     d3e:	4b17      	ldr	r3, [pc, #92]	; (d9c <send_DHCP_REQUEST+0x80>)
     d40:	681b      	ldr	r3, [r3, #0]
     d42:	330a      	adds	r3, #10
     d44:	2200      	movs	r2, #0
     d46:	701a      	strb	r2, [r3, #0]
     d48:	4b14      	ldr	r3, [pc, #80]	; (d9c <send_DHCP_REQUEST+0x80>)
     d4a:	681b      	ldr	r3, [r3, #0]
     d4c:	330a      	adds	r3, #10
     d4e:	3301      	adds	r3, #1
     d50:	2200      	movs	r2, #0
     d52:	701a      	strb	r2, [r3, #0]
     d54:	4b11      	ldr	r3, [pc, #68]	; (d9c <send_DHCP_REQUEST+0x80>)
     d56:	681b      	ldr	r3, [r3, #0]
     d58:	4a11      	ldr	r2, [pc, #68]	; (da0 <send_DHCP_REQUEST+0x84>)
     d5a:	7812      	ldrb	r2, [r2, #0]
     d5c:	731a      	strb	r2, [r3, #12]
     d5e:	4b0f      	ldr	r3, [pc, #60]	; (d9c <send_DHCP_REQUEST+0x80>)
     d60:	681b      	ldr	r3, [r3, #0]
     d62:	4a0f      	ldr	r2, [pc, #60]	; (da0 <send_DHCP_REQUEST+0x84>)
     d64:	7852      	ldrb	r2, [r2, #1]
     d66:	735a      	strb	r2, [r3, #13]
     d68:	4b0c      	ldr	r3, [pc, #48]	; (d9c <send_DHCP_REQUEST+0x80>)
     d6a:	681b      	ldr	r3, [r3, #0]
     d6c:	4a0c      	ldr	r2, [pc, #48]	; (da0 <send_DHCP_REQUEST+0x84>)
     d6e:	7892      	ldrb	r2, [r2, #2]
     d70:	739a      	strb	r2, [r3, #14]
     d72:	4b0a      	ldr	r3, [pc, #40]	; (d9c <send_DHCP_REQUEST+0x80>)
     d74:	681b      	ldr	r3, [r3, #0]
     d76:	4a0a      	ldr	r2, [pc, #40]	; (da0 <send_DHCP_REQUEST+0x84>)
     d78:	78d2      	ldrb	r2, [r2, #3]
     d7a:	73da      	strb	r2, [r3, #15]
     d7c:	4b09      	ldr	r3, [pc, #36]	; (da4 <send_DHCP_REQUEST+0x88>)
     d7e:	781b      	ldrb	r3, [r3, #0]
     d80:	713b      	strb	r3, [r7, #4]
     d82:	4b08      	ldr	r3, [pc, #32]	; (da4 <send_DHCP_REQUEST+0x88>)
     d84:	785b      	ldrb	r3, [r3, #1]
     d86:	717b      	strb	r3, [r7, #5]
     d88:	4b06      	ldr	r3, [pc, #24]	; (da4 <send_DHCP_REQUEST+0x88>)
     d8a:	789b      	ldrb	r3, [r3, #2]
     d8c:	71bb      	strb	r3, [r7, #6]
     d8e:	4b05      	ldr	r3, [pc, #20]	; (da4 <send_DHCP_REQUEST+0x88>)
     d90:	78db      	ldrb	r3, [r3, #3]
     d92:	71fb      	strb	r3, [r7, #7]
     d94:	e010      	b.n	db8 <send_DHCP_REQUEST+0x9c>
     d96:	bf00      	nop
     d98:	20000ab5 	.word	0x20000ab5
     d9c:	200000bc 	.word	0x200000bc
     da0:	200000a4 	.word	0x200000a4
     da4:	2000009c 	.word	0x2000009c
     da8:	23ff      	movs	r3, #255	; 0xff
     daa:	713b      	strb	r3, [r7, #4]
     dac:	23ff      	movs	r3, #255	; 0xff
     dae:	717b      	strb	r3, [r7, #5]
     db0:	23ff      	movs	r3, #255	; 0xff
     db2:	71bb      	strb	r3, [r7, #6]
     db4:	23ff      	movs	r3, #255	; 0xff
     db6:	71fb      	strb	r3, [r7, #7]
     db8:	2304      	movs	r3, #4
     dba:	817b      	strh	r3, [r7, #10]
     dbc:	4b8d      	ldr	r3, [pc, #564]	; (ff4 <send_DHCP_REQUEST+0x2d8>)
     dbe:	681a      	ldr	r2, [r3, #0]
     dc0:	897b      	ldrh	r3, [r7, #10]
     dc2:	1c59      	adds	r1, r3, #1
     dc4:	8179      	strh	r1, [r7, #10]
     dc6:	4413      	add	r3, r2
     dc8:	2235      	movs	r2, #53	; 0x35
     dca:	f883 20ec 	strb.w	r2, [r3, #236]	; 0xec
     dce:	4b89      	ldr	r3, [pc, #548]	; (ff4 <send_DHCP_REQUEST+0x2d8>)
     dd0:	681a      	ldr	r2, [r3, #0]
     dd2:	897b      	ldrh	r3, [r7, #10]
     dd4:	1c59      	adds	r1, r3, #1
     dd6:	8179      	strh	r1, [r7, #10]
     dd8:	4413      	add	r3, r2
     dda:	2201      	movs	r2, #1
     ddc:	f883 20ec 	strb.w	r2, [r3, #236]	; 0xec
     de0:	4b84      	ldr	r3, [pc, #528]	; (ff4 <send_DHCP_REQUEST+0x2d8>)
     de2:	681a      	ldr	r2, [r3, #0]
     de4:	897b      	ldrh	r3, [r7, #10]
     de6:	1c59      	adds	r1, r3, #1
     de8:	8179      	strh	r1, [r7, #10]
     dea:	4413      	add	r3, r2
     dec:	2203      	movs	r2, #3
     dee:	f883 20ec 	strb.w	r2, [r3, #236]	; 0xec
     df2:	4b80      	ldr	r3, [pc, #512]	; (ff4 <send_DHCP_REQUEST+0x2d8>)
     df4:	681a      	ldr	r2, [r3, #0]
     df6:	897b      	ldrh	r3, [r7, #10]
     df8:	1c59      	adds	r1, r3, #1
     dfa:	8179      	strh	r1, [r7, #10]
     dfc:	4413      	add	r3, r2
     dfe:	223d      	movs	r2, #61	; 0x3d
     e00:	f883 20ec 	strb.w	r2, [r3, #236]	; 0xec
     e04:	4b7b      	ldr	r3, [pc, #492]	; (ff4 <send_DHCP_REQUEST+0x2d8>)
     e06:	681a      	ldr	r2, [r3, #0]
     e08:	897b      	ldrh	r3, [r7, #10]
     e0a:	1c59      	adds	r1, r3, #1
     e0c:	8179      	strh	r1, [r7, #10]
     e0e:	4413      	add	r3, r2
     e10:	2207      	movs	r2, #7
     e12:	f883 20ec 	strb.w	r2, [r3, #236]	; 0xec
     e16:	4b77      	ldr	r3, [pc, #476]	; (ff4 <send_DHCP_REQUEST+0x2d8>)
     e18:	681a      	ldr	r2, [r3, #0]
     e1a:	897b      	ldrh	r3, [r7, #10]
     e1c:	1c59      	adds	r1, r3, #1
     e1e:	8179      	strh	r1, [r7, #10]
     e20:	4413      	add	r3, r2
     e22:	2201      	movs	r2, #1
     e24:	f883 20ec 	strb.w	r2, [r3, #236]	; 0xec
     e28:	4b72      	ldr	r3, [pc, #456]	; (ff4 <send_DHCP_REQUEST+0x2d8>)
     e2a:	681a      	ldr	r2, [r3, #0]
     e2c:	897b      	ldrh	r3, [r7, #10]
     e2e:	1c59      	adds	r1, r3, #1
     e30:	8179      	strh	r1, [r7, #10]
     e32:	4618      	mov	r0, r3
     e34:	4b70      	ldr	r3, [pc, #448]	; (ff8 <send_DHCP_REQUEST+0x2dc>)
     e36:	7819      	ldrb	r1, [r3, #0]
     e38:	1813      	adds	r3, r2, r0
     e3a:	460a      	mov	r2, r1
     e3c:	f883 20ec 	strb.w	r2, [r3, #236]	; 0xec
     e40:	4b6c      	ldr	r3, [pc, #432]	; (ff4 <send_DHCP_REQUEST+0x2d8>)
     e42:	681a      	ldr	r2, [r3, #0]
     e44:	897b      	ldrh	r3, [r7, #10]
     e46:	1c59      	adds	r1, r3, #1
     e48:	8179      	strh	r1, [r7, #10]
     e4a:	4618      	mov	r0, r3
     e4c:	4b6a      	ldr	r3, [pc, #424]	; (ff8 <send_DHCP_REQUEST+0x2dc>)
     e4e:	7859      	ldrb	r1, [r3, #1]
     e50:	1813      	adds	r3, r2, r0
     e52:	460a      	mov	r2, r1
     e54:	f883 20ec 	strb.w	r2, [r3, #236]	; 0xec
     e58:	4b66      	ldr	r3, [pc, #408]	; (ff4 <send_DHCP_REQUEST+0x2d8>)
     e5a:	681a      	ldr	r2, [r3, #0]
     e5c:	897b      	ldrh	r3, [r7, #10]
     e5e:	1c59      	adds	r1, r3, #1
     e60:	8179      	strh	r1, [r7, #10]
     e62:	4618      	mov	r0, r3
     e64:	4b64      	ldr	r3, [pc, #400]	; (ff8 <send_DHCP_REQUEST+0x2dc>)
     e66:	7899      	ldrb	r1, [r3, #2]
     e68:	1813      	adds	r3, r2, r0
     e6a:	460a      	mov	r2, r1
     e6c:	f883 20ec 	strb.w	r2, [r3, #236]	; 0xec
     e70:	4b60      	ldr	r3, [pc, #384]	; (ff4 <send_DHCP_REQUEST+0x2d8>)
     e72:	681a      	ldr	r2, [r3, #0]
     e74:	897b      	ldrh	r3, [r7, #10]
     e76:	1c59      	adds	r1, r3, #1
     e78:	8179      	strh	r1, [r7, #10]
     e7a:	4618      	mov	r0, r3
     e7c:	4b5e      	ldr	r3, [pc, #376]	; (ff8 <send_DHCP_REQUEST+0x2dc>)
     e7e:	78d9      	ldrb	r1, [r3, #3]
     e80:	1813      	adds	r3, r2, r0
     e82:	460a      	mov	r2, r1
     e84:	f883 20ec 	strb.w	r2, [r3, #236]	; 0xec
     e88:	4b5a      	ldr	r3, [pc, #360]	; (ff4 <send_DHCP_REQUEST+0x2d8>)
     e8a:	681a      	ldr	r2, [r3, #0]
     e8c:	897b      	ldrh	r3, [r7, #10]
     e8e:	1c59      	adds	r1, r3, #1
     e90:	8179      	strh	r1, [r7, #10]
     e92:	4618      	mov	r0, r3
     e94:	4b58      	ldr	r3, [pc, #352]	; (ff8 <send_DHCP_REQUEST+0x2dc>)
     e96:	7919      	ldrb	r1, [r3, #4]
     e98:	1813      	adds	r3, r2, r0
     e9a:	460a      	mov	r2, r1
     e9c:	f883 20ec 	strb.w	r2, [r3, #236]	; 0xec
     ea0:	4b54      	ldr	r3, [pc, #336]	; (ff4 <send_DHCP_REQUEST+0x2d8>)
     ea2:	681a      	ldr	r2, [r3, #0]
     ea4:	897b      	ldrh	r3, [r7, #10]
     ea6:	1c59      	adds	r1, r3, #1
     ea8:	8179      	strh	r1, [r7, #10]
     eaa:	4618      	mov	r0, r3
     eac:	4b52      	ldr	r3, [pc, #328]	; (ff8 <send_DHCP_REQUEST+0x2dc>)
     eae:	7959      	ldrb	r1, [r3, #5]
     eb0:	1813      	adds	r3, r2, r0
     eb2:	460a      	mov	r2, r1
     eb4:	f883 20ec 	strb.w	r2, [r3, #236]	; 0xec
     eb8:	79fb      	ldrb	r3, [r7, #7]
     eba:	2bff      	cmp	r3, #255	; 0xff
     ebc:	f040 8084 	bne.w	fc8 <send_DHCP_REQUEST+0x2ac>
     ec0:	4b4c      	ldr	r3, [pc, #304]	; (ff4 <send_DHCP_REQUEST+0x2d8>)
     ec2:	681a      	ldr	r2, [r3, #0]
     ec4:	897b      	ldrh	r3, [r7, #10]
     ec6:	1c59      	adds	r1, r3, #1
     ec8:	8179      	strh	r1, [r7, #10]
     eca:	4413      	add	r3, r2
     ecc:	2232      	movs	r2, #50	; 0x32
     ece:	f883 20ec 	strb.w	r2, [r3, #236]	; 0xec
     ed2:	4b48      	ldr	r3, [pc, #288]	; (ff4 <send_DHCP_REQUEST+0x2d8>)
     ed4:	681a      	ldr	r2, [r3, #0]
     ed6:	897b      	ldrh	r3, [r7, #10]
     ed8:	1c59      	adds	r1, r3, #1
     eda:	8179      	strh	r1, [r7, #10]
     edc:	4413      	add	r3, r2
     ede:	2204      	movs	r2, #4
     ee0:	f883 20ec 	strb.w	r2, [r3, #236]	; 0xec
     ee4:	4b43      	ldr	r3, [pc, #268]	; (ff4 <send_DHCP_REQUEST+0x2d8>)
     ee6:	681a      	ldr	r2, [r3, #0]
     ee8:	897b      	ldrh	r3, [r7, #10]
     eea:	1c59      	adds	r1, r3, #1
     eec:	8179      	strh	r1, [r7, #10]
     eee:	4618      	mov	r0, r3
     ef0:	4b42      	ldr	r3, [pc, #264]	; (ffc <send_DHCP_REQUEST+0x2e0>)
     ef2:	7819      	ldrb	r1, [r3, #0]
     ef4:	1813      	adds	r3, r2, r0
     ef6:	460a      	mov	r2, r1
     ef8:	f883 20ec 	strb.w	r2, [r3, #236]	; 0xec
     efc:	4b3d      	ldr	r3, [pc, #244]	; (ff4 <send_DHCP_REQUEST+0x2d8>)
     efe:	681a      	ldr	r2, [r3, #0]
     f00:	897b      	ldrh	r3, [r7, #10]
     f02:	1c59      	adds	r1, r3, #1
     f04:	8179      	strh	r1, [r7, #10]
     f06:	4618      	mov	r0, r3
     f08:	4b3c      	ldr	r3, [pc, #240]	; (ffc <send_DHCP_REQUEST+0x2e0>)
     f0a:	7859      	ldrb	r1, [r3, #1]
     f0c:	1813      	adds	r3, r2, r0
     f0e:	460a      	mov	r2, r1
     f10:	f883 20ec 	strb.w	r2, [r3, #236]	; 0xec
     f14:	4b37      	ldr	r3, [pc, #220]	; (ff4 <send_DHCP_REQUEST+0x2d8>)
     f16:	681a      	ldr	r2, [r3, #0]
     f18:	897b      	ldrh	r3, [r7, #10]
     f1a:	1c59      	adds	r1, r3, #1
     f1c:	8179      	strh	r1, [r7, #10]
     f1e:	4618      	mov	r0, r3
     f20:	4b36      	ldr	r3, [pc, #216]	; (ffc <send_DHCP_REQUEST+0x2e0>)
     f22:	7899      	ldrb	r1, [r3, #2]
     f24:	1813      	adds	r3, r2, r0
     f26:	460a      	mov	r2, r1
     f28:	f883 20ec 	strb.w	r2, [r3, #236]	; 0xec
     f2c:	4b31      	ldr	r3, [pc, #196]	; (ff4 <send_DHCP_REQUEST+0x2d8>)
     f2e:	681a      	ldr	r2, [r3, #0]
     f30:	897b      	ldrh	r3, [r7, #10]
     f32:	1c59      	adds	r1, r3, #1
     f34:	8179      	strh	r1, [r7, #10]
     f36:	4618      	mov	r0, r3
     f38:	4b30      	ldr	r3, [pc, #192]	; (ffc <send_DHCP_REQUEST+0x2e0>)
     f3a:	78d9      	ldrb	r1, [r3, #3]
     f3c:	1813      	adds	r3, r2, r0
     f3e:	460a      	mov	r2, r1
     f40:	f883 20ec 	strb.w	r2, [r3, #236]	; 0xec
     f44:	4b2b      	ldr	r3, [pc, #172]	; (ff4 <send_DHCP_REQUEST+0x2d8>)
     f46:	681a      	ldr	r2, [r3, #0]
     f48:	897b      	ldrh	r3, [r7, #10]
     f4a:	1c59      	adds	r1, r3, #1
     f4c:	8179      	strh	r1, [r7, #10]
     f4e:	4413      	add	r3, r2
     f50:	2236      	movs	r2, #54	; 0x36
     f52:	f883 20ec 	strb.w	r2, [r3, #236]	; 0xec
     f56:	4b27      	ldr	r3, [pc, #156]	; (ff4 <send_DHCP_REQUEST+0x2d8>)
     f58:	681a      	ldr	r2, [r3, #0]
     f5a:	897b      	ldrh	r3, [r7, #10]
     f5c:	1c59      	adds	r1, r3, #1
     f5e:	8179      	strh	r1, [r7, #10]
     f60:	4413      	add	r3, r2
     f62:	2204      	movs	r2, #4
     f64:	f883 20ec 	strb.w	r2, [r3, #236]	; 0xec
     f68:	4b22      	ldr	r3, [pc, #136]	; (ff4 <send_DHCP_REQUEST+0x2d8>)
     f6a:	681a      	ldr	r2, [r3, #0]
     f6c:	897b      	ldrh	r3, [r7, #10]
     f6e:	1c59      	adds	r1, r3, #1
     f70:	8179      	strh	r1, [r7, #10]
     f72:	4618      	mov	r0, r3
     f74:	4b22      	ldr	r3, [pc, #136]	; (1000 <_HeapSize>)
     f76:	7819      	ldrb	r1, [r3, #0]
     f78:	1813      	adds	r3, r2, r0
     f7a:	460a      	mov	r2, r1
     f7c:	f883 20ec 	strb.w	r2, [r3, #236]	; 0xec
     f80:	4b1c      	ldr	r3, [pc, #112]	; (ff4 <send_DHCP_REQUEST+0x2d8>)
     f82:	681a      	ldr	r2, [r3, #0]
     f84:	897b      	ldrh	r3, [r7, #10]
     f86:	1c59      	adds	r1, r3, #1
     f88:	8179      	strh	r1, [r7, #10]
     f8a:	4618      	mov	r0, r3
     f8c:	4b1c      	ldr	r3, [pc, #112]	; (1000 <_HeapSize>)
     f8e:	7859      	ldrb	r1, [r3, #1]
     f90:	1813      	adds	r3, r2, r0
     f92:	460a      	mov	r2, r1
     f94:	f883 20ec 	strb.w	r2, [r3, #236]	; 0xec
     f98:	4b16      	ldr	r3, [pc, #88]	; (ff4 <send_DHCP_REQUEST+0x2d8>)
     f9a:	681a      	ldr	r2, [r3, #0]
     f9c:	897b      	ldrh	r3, [r7, #10]
     f9e:	1c59      	adds	r1, r3, #1
     fa0:	8179      	strh	r1, [r7, #10]
     fa2:	4618      	mov	r0, r3
     fa4:	4b16      	ldr	r3, [pc, #88]	; (1000 <_HeapSize>)
     fa6:	7899      	ldrb	r1, [r3, #2]
     fa8:	1813      	adds	r3, r2, r0
     faa:	460a      	mov	r2, r1
     fac:	f883 20ec 	strb.w	r2, [r3, #236]	; 0xec
     fb0:	4b10      	ldr	r3, [pc, #64]	; (ff4 <send_DHCP_REQUEST+0x2d8>)
     fb2:	681a      	ldr	r2, [r3, #0]
     fb4:	897b      	ldrh	r3, [r7, #10]
     fb6:	1c59      	adds	r1, r3, #1
     fb8:	8179      	strh	r1, [r7, #10]
     fba:	4618      	mov	r0, r3
     fbc:	4b10      	ldr	r3, [pc, #64]	; (1000 <_HeapSize>)
     fbe:	78d9      	ldrb	r1, [r3, #3]
     fc0:	1813      	adds	r3, r2, r0
     fc2:	460a      	mov	r2, r1
     fc4:	f883 20ec 	strb.w	r2, [r3, #236]	; 0xec
     fc8:	4b0a      	ldr	r3, [pc, #40]	; (ff4 <send_DHCP_REQUEST+0x2d8>)
     fca:	681a      	ldr	r2, [r3, #0]
     fcc:	897b      	ldrh	r3, [r7, #10]
     fce:	1c59      	adds	r1, r3, #1
     fd0:	8179      	strh	r1, [r7, #10]
     fd2:	4413      	add	r3, r2
     fd4:	220c      	movs	r2, #12
     fd6:	f883 20ec 	strb.w	r2, [r3, #236]	; 0xec
     fda:	4b06      	ldr	r3, [pc, #24]	; (ff4 <send_DHCP_REQUEST+0x2d8>)
     fdc:	681a      	ldr	r2, [r3, #0]
     fde:	897b      	ldrh	r3, [r7, #10]
     fe0:	1c59      	adds	r1, r3, #1
     fe2:	8179      	strh	r1, [r7, #10]
     fe4:	4413      	add	r3, r2
     fe6:	2200      	movs	r2, #0
     fe8:	f883 20ec 	strb.w	r2, [r3, #236]	; 0xec
     fec:	2300      	movs	r3, #0
     fee:	60fb      	str	r3, [r7, #12]
     ff0:	e019      	b.n	1026 <_HeapSize+0x26>
     ff2:	bf00      	nop
     ff4:	200000bc 	.word	0x200000bc
     ff8:	200000c0 	.word	0x200000c0
     ffc:	200000a4 	.word	0x200000a4
    1000:	2000009c 	.word	0x2000009c
    1004:	4b87      	ldr	r3, [pc, #540]	; (1224 <_HeapSize+0x224>)
    1006:	681a      	ldr	r2, [r3, #0]
    1008:	897b      	ldrh	r3, [r7, #10]
    100a:	1c59      	adds	r1, r3, #1
    100c:	8179      	strh	r1, [r7, #10]
    100e:	4618      	mov	r0, r3
    1010:	4985      	ldr	r1, [pc, #532]	; (1228 <_HeapSize+0x228>)
    1012:	68fb      	ldr	r3, [r7, #12]
    1014:	440b      	add	r3, r1
    1016:	7819      	ldrb	r1, [r3, #0]
    1018:	1813      	adds	r3, r2, r0
    101a:	460a      	mov	r2, r1
    101c:	f883 20ec 	strb.w	r2, [r3, #236]	; 0xec
    1020:	68fb      	ldr	r3, [r7, #12]
    1022:	3301      	adds	r3, #1
    1024:	60fb      	str	r3, [r7, #12]
    1026:	4a80      	ldr	r2, [pc, #512]	; (1228 <_HeapSize+0x228>)
    1028:	68fb      	ldr	r3, [r7, #12]
    102a:	4413      	add	r3, r2
    102c:	781b      	ldrb	r3, [r3, #0]
    102e:	2b00      	cmp	r3, #0
    1030:	d1e8      	bne.n	1004 <_HeapSize+0x4>
    1032:	4b7e      	ldr	r3, [pc, #504]	; (122c <_HeapSize+0x22c>)
    1034:	78db      	ldrb	r3, [r3, #3]
    1036:	091b      	lsrs	r3, r3, #4
    1038:	b2da      	uxtb	r2, r3
    103a:	4b7a      	ldr	r3, [pc, #488]	; (1224 <_HeapSize+0x224>)
    103c:	681c      	ldr	r4, [r3, #0]
    103e:	897b      	ldrh	r3, [r7, #10]
    1040:	1c59      	adds	r1, r3, #1
    1042:	8179      	strh	r1, [r7, #10]
    1044:	461d      	mov	r5, r3
    1046:	4610      	mov	r0, r2
    1048:	f007 fb9a 	bl	8780 <NibbleToHex>
    104c:	4603      	mov	r3, r0
    104e:	461a      	mov	r2, r3
    1050:	1963      	adds	r3, r4, r5
    1052:	f883 20ec 	strb.w	r2, [r3, #236]	; 0xec
    1056:	4b75      	ldr	r3, [pc, #468]	; (122c <_HeapSize+0x22c>)
    1058:	78da      	ldrb	r2, [r3, #3]
    105a:	4b72      	ldr	r3, [pc, #456]	; (1224 <_HeapSize+0x224>)
    105c:	681c      	ldr	r4, [r3, #0]
    105e:	897b      	ldrh	r3, [r7, #10]
    1060:	1c59      	adds	r1, r3, #1
    1062:	8179      	strh	r1, [r7, #10]
    1064:	461d      	mov	r5, r3
    1066:	4610      	mov	r0, r2
    1068:	f007 fb8a 	bl	8780 <NibbleToHex>
    106c:	4603      	mov	r3, r0
    106e:	461a      	mov	r2, r3
    1070:	1963      	adds	r3, r4, r5
    1072:	f883 20ec 	strb.w	r2, [r3, #236]	; 0xec
    1076:	4b6d      	ldr	r3, [pc, #436]	; (122c <_HeapSize+0x22c>)
    1078:	791b      	ldrb	r3, [r3, #4]
    107a:	091b      	lsrs	r3, r3, #4
    107c:	b2da      	uxtb	r2, r3
    107e:	4b69      	ldr	r3, [pc, #420]	; (1224 <_HeapSize+0x224>)
    1080:	681c      	ldr	r4, [r3, #0]
    1082:	897b      	ldrh	r3, [r7, #10]
    1084:	1c59      	adds	r1, r3, #1
    1086:	8179      	strh	r1, [r7, #10]
    1088:	461d      	mov	r5, r3
    108a:	4610      	mov	r0, r2
    108c:	f007 fb78 	bl	8780 <NibbleToHex>
    1090:	4603      	mov	r3, r0
    1092:	461a      	mov	r2, r3
    1094:	1963      	adds	r3, r4, r5
    1096:	f883 20ec 	strb.w	r2, [r3, #236]	; 0xec
    109a:	4b64      	ldr	r3, [pc, #400]	; (122c <_HeapSize+0x22c>)
    109c:	791a      	ldrb	r2, [r3, #4]
    109e:	4b61      	ldr	r3, [pc, #388]	; (1224 <_HeapSize+0x224>)
    10a0:	681c      	ldr	r4, [r3, #0]
    10a2:	897b      	ldrh	r3, [r7, #10]
    10a4:	1c59      	adds	r1, r3, #1
    10a6:	8179      	strh	r1, [r7, #10]
    10a8:	461d      	mov	r5, r3
    10aa:	4610      	mov	r0, r2
    10ac:	f007 fb68 	bl	8780 <NibbleToHex>
    10b0:	4603      	mov	r3, r0
    10b2:	461a      	mov	r2, r3
    10b4:	1963      	adds	r3, r4, r5
    10b6:	f883 20ec 	strb.w	r2, [r3, #236]	; 0xec
    10ba:	4b5c      	ldr	r3, [pc, #368]	; (122c <_HeapSize+0x22c>)
    10bc:	795b      	ldrb	r3, [r3, #5]
    10be:	091b      	lsrs	r3, r3, #4
    10c0:	b2da      	uxtb	r2, r3
    10c2:	4b58      	ldr	r3, [pc, #352]	; (1224 <_HeapSize+0x224>)
    10c4:	681c      	ldr	r4, [r3, #0]
    10c6:	897b      	ldrh	r3, [r7, #10]
    10c8:	1c59      	adds	r1, r3, #1
    10ca:	8179      	strh	r1, [r7, #10]
    10cc:	461d      	mov	r5, r3
    10ce:	4610      	mov	r0, r2
    10d0:	f007 fb56 	bl	8780 <NibbleToHex>
    10d4:	4603      	mov	r3, r0
    10d6:	461a      	mov	r2, r3
    10d8:	1963      	adds	r3, r4, r5
    10da:	f883 20ec 	strb.w	r2, [r3, #236]	; 0xec
    10de:	4b53      	ldr	r3, [pc, #332]	; (122c <_HeapSize+0x22c>)
    10e0:	795a      	ldrb	r2, [r3, #5]
    10e2:	4b50      	ldr	r3, [pc, #320]	; (1224 <_HeapSize+0x224>)
    10e4:	681c      	ldr	r4, [r3, #0]
    10e6:	897b      	ldrh	r3, [r7, #10]
    10e8:	1c59      	adds	r1, r3, #1
    10ea:	8179      	strh	r1, [r7, #10]
    10ec:	461d      	mov	r5, r3
    10ee:	4610      	mov	r0, r2
    10f0:	f007 fb46 	bl	8780 <NibbleToHex>
    10f4:	4603      	mov	r3, r0
    10f6:	461a      	mov	r2, r3
    10f8:	1963      	adds	r3, r4, r5
    10fa:	f883 20ec 	strb.w	r2, [r3, #236]	; 0xec
    10fe:	68fb      	ldr	r3, [r7, #12]
    1100:	b2d9      	uxtb	r1, r3
    1102:	4b48      	ldr	r3, [pc, #288]	; (1224 <_HeapSize+0x224>)
    1104:	681a      	ldr	r2, [r3, #0]
    1106:	8978      	ldrh	r0, [r7, #10]
    1108:	68fb      	ldr	r3, [r7, #12]
    110a:	3307      	adds	r3, #7
    110c:	1ac3      	subs	r3, r0, r3
    110e:	3106      	adds	r1, #6
    1110:	b2c9      	uxtb	r1, r1
    1112:	4413      	add	r3, r2
    1114:	460a      	mov	r2, r1
    1116:	f883 20ec 	strb.w	r2, [r3, #236]	; 0xec
    111a:	4b42      	ldr	r3, [pc, #264]	; (1224 <_HeapSize+0x224>)
    111c:	681a      	ldr	r2, [r3, #0]
    111e:	897b      	ldrh	r3, [r7, #10]
    1120:	1c59      	adds	r1, r3, #1
    1122:	8179      	strh	r1, [r7, #10]
    1124:	4413      	add	r3, r2
    1126:	2237      	movs	r2, #55	; 0x37
    1128:	f883 20ec 	strb.w	r2, [r3, #236]	; 0xec
    112c:	4b3d      	ldr	r3, [pc, #244]	; (1224 <_HeapSize+0x224>)
    112e:	681a      	ldr	r2, [r3, #0]
    1130:	897b      	ldrh	r3, [r7, #10]
    1132:	1c59      	adds	r1, r3, #1
    1134:	8179      	strh	r1, [r7, #10]
    1136:	4413      	add	r3, r2
    1138:	2208      	movs	r2, #8
    113a:	f883 20ec 	strb.w	r2, [r3, #236]	; 0xec
    113e:	4b39      	ldr	r3, [pc, #228]	; (1224 <_HeapSize+0x224>)
    1140:	681a      	ldr	r2, [r3, #0]
    1142:	897b      	ldrh	r3, [r7, #10]
    1144:	1c59      	adds	r1, r3, #1
    1146:	8179      	strh	r1, [r7, #10]
    1148:	4413      	add	r3, r2
    114a:	2201      	movs	r2, #1
    114c:	f883 20ec 	strb.w	r2, [r3, #236]	; 0xec
    1150:	4b34      	ldr	r3, [pc, #208]	; (1224 <_HeapSize+0x224>)
    1152:	681a      	ldr	r2, [r3, #0]
    1154:	897b      	ldrh	r3, [r7, #10]
    1156:	1c59      	adds	r1, r3, #1
    1158:	8179      	strh	r1, [r7, #10]
    115a:	4413      	add	r3, r2
    115c:	2203      	movs	r2, #3
    115e:	f883 20ec 	strb.w	r2, [r3, #236]	; 0xec
    1162:	4b30      	ldr	r3, [pc, #192]	; (1224 <_HeapSize+0x224>)
    1164:	681a      	ldr	r2, [r3, #0]
    1166:	897b      	ldrh	r3, [r7, #10]
    1168:	1c59      	adds	r1, r3, #1
    116a:	8179      	strh	r1, [r7, #10]
    116c:	4413      	add	r3, r2
    116e:	2206      	movs	r2, #6
    1170:	f883 20ec 	strb.w	r2, [r3, #236]	; 0xec
    1174:	4b2b      	ldr	r3, [pc, #172]	; (1224 <_HeapSize+0x224>)
    1176:	681a      	ldr	r2, [r3, #0]
    1178:	897b      	ldrh	r3, [r7, #10]
    117a:	1c59      	adds	r1, r3, #1
    117c:	8179      	strh	r1, [r7, #10]
    117e:	4413      	add	r3, r2
    1180:	220f      	movs	r2, #15
    1182:	f883 20ec 	strb.w	r2, [r3, #236]	; 0xec
    1186:	4b27      	ldr	r3, [pc, #156]	; (1224 <_HeapSize+0x224>)
    1188:	681a      	ldr	r2, [r3, #0]
    118a:	897b      	ldrh	r3, [r7, #10]
    118c:	1c59      	adds	r1, r3, #1
    118e:	8179      	strh	r1, [r7, #10]
    1190:	4413      	add	r3, r2
    1192:	223a      	movs	r2, #58	; 0x3a
    1194:	f883 20ec 	strb.w	r2, [r3, #236]	; 0xec
    1198:	4b22      	ldr	r3, [pc, #136]	; (1224 <_HeapSize+0x224>)
    119a:	681a      	ldr	r2, [r3, #0]
    119c:	897b      	ldrh	r3, [r7, #10]
    119e:	1c59      	adds	r1, r3, #1
    11a0:	8179      	strh	r1, [r7, #10]
    11a2:	4413      	add	r3, r2
    11a4:	223b      	movs	r2, #59	; 0x3b
    11a6:	f883 20ec 	strb.w	r2, [r3, #236]	; 0xec
    11aa:	4b1e      	ldr	r3, [pc, #120]	; (1224 <_HeapSize+0x224>)
    11ac:	681a      	ldr	r2, [r3, #0]
    11ae:	897b      	ldrh	r3, [r7, #10]
    11b0:	1c59      	adds	r1, r3, #1
    11b2:	8179      	strh	r1, [r7, #10]
    11b4:	4413      	add	r3, r2
    11b6:	221f      	movs	r2, #31
    11b8:	f883 20ec 	strb.w	r2, [r3, #236]	; 0xec
    11bc:	4b19      	ldr	r3, [pc, #100]	; (1224 <_HeapSize+0x224>)
    11be:	681a      	ldr	r2, [r3, #0]
    11c0:	897b      	ldrh	r3, [r7, #10]
    11c2:	1c59      	adds	r1, r3, #1
    11c4:	8179      	strh	r1, [r7, #10]
    11c6:	4413      	add	r3, r2
    11c8:	2221      	movs	r2, #33	; 0x21
    11ca:	f883 20ec 	strb.w	r2, [r3, #236]	; 0xec
    11ce:	4b15      	ldr	r3, [pc, #84]	; (1224 <_HeapSize+0x224>)
    11d0:	681a      	ldr	r2, [r3, #0]
    11d2:	897b      	ldrh	r3, [r7, #10]
    11d4:	1c59      	adds	r1, r3, #1
    11d6:	8179      	strh	r1, [r7, #10]
    11d8:	4413      	add	r3, r2
    11da:	22ff      	movs	r2, #255	; 0xff
    11dc:	f883 20ec 	strb.w	r2, [r3, #236]	; 0xec
    11e0:	897b      	ldrh	r3, [r7, #10]
    11e2:	60fb      	str	r3, [r7, #12]
    11e4:	e009      	b.n	11fa <_HeapSize+0x1fa>
    11e6:	4b0f      	ldr	r3, [pc, #60]	; (1224 <_HeapSize+0x224>)
    11e8:	681a      	ldr	r2, [r3, #0]
    11ea:	68fb      	ldr	r3, [r7, #12]
    11ec:	4413      	add	r3, r2
    11ee:	33ec      	adds	r3, #236	; 0xec
    11f0:	2200      	movs	r2, #0
    11f2:	701a      	strb	r2, [r3, #0]
    11f4:	68fb      	ldr	r3, [r7, #12]
    11f6:	3301      	adds	r3, #1
    11f8:	60fb      	str	r3, [r7, #12]
    11fa:	68fb      	ldr	r3, [r7, #12]
    11fc:	f5b3 7f9c 	cmp.w	r3, #312	; 0x138
    1200:	dbf1      	blt.n	11e6 <_HeapSize+0x1e6>
    1202:	4b0b      	ldr	r3, [pc, #44]	; (1230 <_HeapSize+0x230>)
    1204:	7818      	ldrb	r0, [r3, #0]
    1206:	4b07      	ldr	r3, [pc, #28]	; (1224 <_HeapSize+0x224>)
    1208:	6819      	ldr	r1, [r3, #0]
    120a:	1d3a      	adds	r2, r7, #4
    120c:	2343      	movs	r3, #67	; 0x43
    120e:	9300      	str	r3, [sp, #0]
    1210:	4613      	mov	r3, r2
    1212:	f44f 7209 	mov.w	r2, #548	; 0x224
    1216:	f000 ff8b 	bl	2130 <sendto>
    121a:	bf00      	nop
    121c:	3710      	adds	r7, #16
    121e:	46bd      	mov	sp, r7
    1220:	bdb0      	pop	{r4, r5, r7, pc}
    1222:	bf00      	nop
    1224:	200000bc 	.word	0x200000bc
    1228:	20000008 	.word	0x20000008
    122c:	200000c0 	.word	0x200000c0
    1230:	20000ab4 	.word	0x20000ab4

00001234 <send_DHCP_DECLINE>:
    1234:	b580      	push	{r7, lr}
    1236:	b086      	sub	sp, #24
    1238:	af02      	add	r7, sp, #8
    123a:	2300      	movs	r3, #0
    123c:	817b      	strh	r3, [r7, #10]
    123e:	f7ff facd 	bl	7dc <makeDHCPMSG>
    1242:	2304      	movs	r3, #4
    1244:	817b      	strh	r3, [r7, #10]
    1246:	4b9f      	ldr	r3, [pc, #636]	; (14c4 <send_DHCP_DECLINE+0x290>)
    1248:	681b      	ldr	r3, [r3, #0]
    124a:	330a      	adds	r3, #10
    124c:	2200      	movs	r2, #0
    124e:	701a      	strb	r2, [r3, #0]
    1250:	4b9c      	ldr	r3, [pc, #624]	; (14c4 <send_DHCP_DECLINE+0x290>)
    1252:	681b      	ldr	r3, [r3, #0]
    1254:	330a      	adds	r3, #10
    1256:	3301      	adds	r3, #1
    1258:	2200      	movs	r2, #0
    125a:	701a      	strb	r2, [r3, #0]
    125c:	4b99      	ldr	r3, [pc, #612]	; (14c4 <send_DHCP_DECLINE+0x290>)
    125e:	681a      	ldr	r2, [r3, #0]
    1260:	897b      	ldrh	r3, [r7, #10]
    1262:	1c59      	adds	r1, r3, #1
    1264:	8179      	strh	r1, [r7, #10]
    1266:	4413      	add	r3, r2
    1268:	2235      	movs	r2, #53	; 0x35
    126a:	f883 20ec 	strb.w	r2, [r3, #236]	; 0xec
    126e:	4b95      	ldr	r3, [pc, #596]	; (14c4 <send_DHCP_DECLINE+0x290>)
    1270:	681a      	ldr	r2, [r3, #0]
    1272:	897b      	ldrh	r3, [r7, #10]
    1274:	1c59      	adds	r1, r3, #1
    1276:	8179      	strh	r1, [r7, #10]
    1278:	4413      	add	r3, r2
    127a:	2201      	movs	r2, #1
    127c:	f883 20ec 	strb.w	r2, [r3, #236]	; 0xec
    1280:	4b90      	ldr	r3, [pc, #576]	; (14c4 <send_DHCP_DECLINE+0x290>)
    1282:	681a      	ldr	r2, [r3, #0]
    1284:	897b      	ldrh	r3, [r7, #10]
    1286:	1c59      	adds	r1, r3, #1
    1288:	8179      	strh	r1, [r7, #10]
    128a:	4413      	add	r3, r2
    128c:	2204      	movs	r2, #4
    128e:	f883 20ec 	strb.w	r2, [r3, #236]	; 0xec
    1292:	4b8c      	ldr	r3, [pc, #560]	; (14c4 <send_DHCP_DECLINE+0x290>)
    1294:	681a      	ldr	r2, [r3, #0]
    1296:	897b      	ldrh	r3, [r7, #10]
    1298:	1c59      	adds	r1, r3, #1
    129a:	8179      	strh	r1, [r7, #10]
    129c:	4413      	add	r3, r2
    129e:	223d      	movs	r2, #61	; 0x3d
    12a0:	f883 20ec 	strb.w	r2, [r3, #236]	; 0xec
    12a4:	4b87      	ldr	r3, [pc, #540]	; (14c4 <send_DHCP_DECLINE+0x290>)
    12a6:	681a      	ldr	r2, [r3, #0]
    12a8:	897b      	ldrh	r3, [r7, #10]
    12aa:	1c59      	adds	r1, r3, #1
    12ac:	8179      	strh	r1, [r7, #10]
    12ae:	4413      	add	r3, r2
    12b0:	2207      	movs	r2, #7
    12b2:	f883 20ec 	strb.w	r2, [r3, #236]	; 0xec
    12b6:	4b83      	ldr	r3, [pc, #524]	; (14c4 <send_DHCP_DECLINE+0x290>)
    12b8:	681a      	ldr	r2, [r3, #0]
    12ba:	897b      	ldrh	r3, [r7, #10]
    12bc:	1c59      	adds	r1, r3, #1
    12be:	8179      	strh	r1, [r7, #10]
    12c0:	4413      	add	r3, r2
    12c2:	2201      	movs	r2, #1
    12c4:	f883 20ec 	strb.w	r2, [r3, #236]	; 0xec
    12c8:	4b7e      	ldr	r3, [pc, #504]	; (14c4 <send_DHCP_DECLINE+0x290>)
    12ca:	681a      	ldr	r2, [r3, #0]
    12cc:	897b      	ldrh	r3, [r7, #10]
    12ce:	1c59      	adds	r1, r3, #1
    12d0:	8179      	strh	r1, [r7, #10]
    12d2:	4618      	mov	r0, r3
    12d4:	4b7c      	ldr	r3, [pc, #496]	; (14c8 <send_DHCP_DECLINE+0x294>)
    12d6:	7819      	ldrb	r1, [r3, #0]
    12d8:	1813      	adds	r3, r2, r0
    12da:	460a      	mov	r2, r1
    12dc:	f883 20ec 	strb.w	r2, [r3, #236]	; 0xec
    12e0:	4b78      	ldr	r3, [pc, #480]	; (14c4 <send_DHCP_DECLINE+0x290>)
    12e2:	681a      	ldr	r2, [r3, #0]
    12e4:	897b      	ldrh	r3, [r7, #10]
    12e6:	1c59      	adds	r1, r3, #1
    12e8:	8179      	strh	r1, [r7, #10]
    12ea:	4618      	mov	r0, r3
    12ec:	4b76      	ldr	r3, [pc, #472]	; (14c8 <send_DHCP_DECLINE+0x294>)
    12ee:	7859      	ldrb	r1, [r3, #1]
    12f0:	1813      	adds	r3, r2, r0
    12f2:	460a      	mov	r2, r1
    12f4:	f883 20ec 	strb.w	r2, [r3, #236]	; 0xec
    12f8:	4b72      	ldr	r3, [pc, #456]	; (14c4 <send_DHCP_DECLINE+0x290>)
    12fa:	681a      	ldr	r2, [r3, #0]
    12fc:	897b      	ldrh	r3, [r7, #10]
    12fe:	1c59      	adds	r1, r3, #1
    1300:	8179      	strh	r1, [r7, #10]
    1302:	4618      	mov	r0, r3
    1304:	4b70      	ldr	r3, [pc, #448]	; (14c8 <send_DHCP_DECLINE+0x294>)
    1306:	7899      	ldrb	r1, [r3, #2]
    1308:	1813      	adds	r3, r2, r0
    130a:	460a      	mov	r2, r1
    130c:	f883 20ec 	strb.w	r2, [r3, #236]	; 0xec
    1310:	4b6c      	ldr	r3, [pc, #432]	; (14c4 <send_DHCP_DECLINE+0x290>)
    1312:	681a      	ldr	r2, [r3, #0]
    1314:	897b      	ldrh	r3, [r7, #10]
    1316:	1c59      	adds	r1, r3, #1
    1318:	8179      	strh	r1, [r7, #10]
    131a:	4618      	mov	r0, r3
    131c:	4b6a      	ldr	r3, [pc, #424]	; (14c8 <send_DHCP_DECLINE+0x294>)
    131e:	78d9      	ldrb	r1, [r3, #3]
    1320:	1813      	adds	r3, r2, r0
    1322:	460a      	mov	r2, r1
    1324:	f883 20ec 	strb.w	r2, [r3, #236]	; 0xec
    1328:	4b66      	ldr	r3, [pc, #408]	; (14c4 <send_DHCP_DECLINE+0x290>)
    132a:	681a      	ldr	r2, [r3, #0]
    132c:	897b      	ldrh	r3, [r7, #10]
    132e:	1c59      	adds	r1, r3, #1
    1330:	8179      	strh	r1, [r7, #10]
    1332:	4618      	mov	r0, r3
    1334:	4b64      	ldr	r3, [pc, #400]	; (14c8 <send_DHCP_DECLINE+0x294>)
    1336:	7919      	ldrb	r1, [r3, #4]
    1338:	1813      	adds	r3, r2, r0
    133a:	460a      	mov	r2, r1
    133c:	f883 20ec 	strb.w	r2, [r3, #236]	; 0xec
    1340:	4b60      	ldr	r3, [pc, #384]	; (14c4 <send_DHCP_DECLINE+0x290>)
    1342:	681a      	ldr	r2, [r3, #0]
    1344:	897b      	ldrh	r3, [r7, #10]
    1346:	1c59      	adds	r1, r3, #1
    1348:	8179      	strh	r1, [r7, #10]
    134a:	4618      	mov	r0, r3
    134c:	4b5e      	ldr	r3, [pc, #376]	; (14c8 <send_DHCP_DECLINE+0x294>)
    134e:	7959      	ldrb	r1, [r3, #5]
    1350:	1813      	adds	r3, r2, r0
    1352:	460a      	mov	r2, r1
    1354:	f883 20ec 	strb.w	r2, [r3, #236]	; 0xec
    1358:	4b5a      	ldr	r3, [pc, #360]	; (14c4 <send_DHCP_DECLINE+0x290>)
    135a:	681a      	ldr	r2, [r3, #0]
    135c:	897b      	ldrh	r3, [r7, #10]
    135e:	1c59      	adds	r1, r3, #1
    1360:	8179      	strh	r1, [r7, #10]
    1362:	4413      	add	r3, r2
    1364:	2232      	movs	r2, #50	; 0x32
    1366:	f883 20ec 	strb.w	r2, [r3, #236]	; 0xec
    136a:	4b56      	ldr	r3, [pc, #344]	; (14c4 <send_DHCP_DECLINE+0x290>)
    136c:	681a      	ldr	r2, [r3, #0]
    136e:	897b      	ldrh	r3, [r7, #10]
    1370:	1c59      	adds	r1, r3, #1
    1372:	8179      	strh	r1, [r7, #10]
    1374:	4413      	add	r3, r2
    1376:	2204      	movs	r2, #4
    1378:	f883 20ec 	strb.w	r2, [r3, #236]	; 0xec
    137c:	4b51      	ldr	r3, [pc, #324]	; (14c4 <send_DHCP_DECLINE+0x290>)
    137e:	681a      	ldr	r2, [r3, #0]
    1380:	897b      	ldrh	r3, [r7, #10]
    1382:	1c59      	adds	r1, r3, #1
    1384:	8179      	strh	r1, [r7, #10]
    1386:	4618      	mov	r0, r3
    1388:	4b50      	ldr	r3, [pc, #320]	; (14cc <send_DHCP_DECLINE+0x298>)
    138a:	7819      	ldrb	r1, [r3, #0]
    138c:	1813      	adds	r3, r2, r0
    138e:	460a      	mov	r2, r1
    1390:	f883 20ec 	strb.w	r2, [r3, #236]	; 0xec
    1394:	4b4b      	ldr	r3, [pc, #300]	; (14c4 <send_DHCP_DECLINE+0x290>)
    1396:	681a      	ldr	r2, [r3, #0]
    1398:	897b      	ldrh	r3, [r7, #10]
    139a:	1c59      	adds	r1, r3, #1
    139c:	8179      	strh	r1, [r7, #10]
    139e:	4618      	mov	r0, r3
    13a0:	4b4a      	ldr	r3, [pc, #296]	; (14cc <send_DHCP_DECLINE+0x298>)
    13a2:	7859      	ldrb	r1, [r3, #1]
    13a4:	1813      	adds	r3, r2, r0
    13a6:	460a      	mov	r2, r1
    13a8:	f883 20ec 	strb.w	r2, [r3, #236]	; 0xec
    13ac:	4b45      	ldr	r3, [pc, #276]	; (14c4 <send_DHCP_DECLINE+0x290>)
    13ae:	681a      	ldr	r2, [r3, #0]
    13b0:	897b      	ldrh	r3, [r7, #10]
    13b2:	1c59      	adds	r1, r3, #1
    13b4:	8179      	strh	r1, [r7, #10]
    13b6:	4618      	mov	r0, r3
    13b8:	4b44      	ldr	r3, [pc, #272]	; (14cc <send_DHCP_DECLINE+0x298>)
    13ba:	7899      	ldrb	r1, [r3, #2]
    13bc:	1813      	adds	r3, r2, r0
    13be:	460a      	mov	r2, r1
    13c0:	f883 20ec 	strb.w	r2, [r3, #236]	; 0xec
    13c4:	4b3f      	ldr	r3, [pc, #252]	; (14c4 <send_DHCP_DECLINE+0x290>)
    13c6:	681a      	ldr	r2, [r3, #0]
    13c8:	897b      	ldrh	r3, [r7, #10]
    13ca:	1c59      	adds	r1, r3, #1
    13cc:	8179      	strh	r1, [r7, #10]
    13ce:	4618      	mov	r0, r3
    13d0:	4b3e      	ldr	r3, [pc, #248]	; (14cc <send_DHCP_DECLINE+0x298>)
    13d2:	78d9      	ldrb	r1, [r3, #3]
    13d4:	1813      	adds	r3, r2, r0
    13d6:	460a      	mov	r2, r1
    13d8:	f883 20ec 	strb.w	r2, [r3, #236]	; 0xec
    13dc:	4b39      	ldr	r3, [pc, #228]	; (14c4 <send_DHCP_DECLINE+0x290>)
    13de:	681a      	ldr	r2, [r3, #0]
    13e0:	897b      	ldrh	r3, [r7, #10]
    13e2:	1c59      	adds	r1, r3, #1
    13e4:	8179      	strh	r1, [r7, #10]
    13e6:	4413      	add	r3, r2
    13e8:	2236      	movs	r2, #54	; 0x36
    13ea:	f883 20ec 	strb.w	r2, [r3, #236]	; 0xec
    13ee:	4b35      	ldr	r3, [pc, #212]	; (14c4 <send_DHCP_DECLINE+0x290>)
    13f0:	681a      	ldr	r2, [r3, #0]
    13f2:	897b      	ldrh	r3, [r7, #10]
    13f4:	1c59      	adds	r1, r3, #1
    13f6:	8179      	strh	r1, [r7, #10]
    13f8:	4413      	add	r3, r2
    13fa:	2204      	movs	r2, #4
    13fc:	f883 20ec 	strb.w	r2, [r3, #236]	; 0xec
    1400:	4b30      	ldr	r3, [pc, #192]	; (14c4 <send_DHCP_DECLINE+0x290>)
    1402:	681a      	ldr	r2, [r3, #0]
    1404:	897b      	ldrh	r3, [r7, #10]
    1406:	1c59      	adds	r1, r3, #1
    1408:	8179      	strh	r1, [r7, #10]
    140a:	4618      	mov	r0, r3
    140c:	4b30      	ldr	r3, [pc, #192]	; (14d0 <send_DHCP_DECLINE+0x29c>)
    140e:	7819      	ldrb	r1, [r3, #0]
    1410:	1813      	adds	r3, r2, r0
    1412:	460a      	mov	r2, r1
    1414:	f883 20ec 	strb.w	r2, [r3, #236]	; 0xec
    1418:	4b2a      	ldr	r3, [pc, #168]	; (14c4 <send_DHCP_DECLINE+0x290>)
    141a:	681a      	ldr	r2, [r3, #0]
    141c:	897b      	ldrh	r3, [r7, #10]
    141e:	1c59      	adds	r1, r3, #1
    1420:	8179      	strh	r1, [r7, #10]
    1422:	4618      	mov	r0, r3
    1424:	4b2a      	ldr	r3, [pc, #168]	; (14d0 <send_DHCP_DECLINE+0x29c>)
    1426:	7859      	ldrb	r1, [r3, #1]
    1428:	1813      	adds	r3, r2, r0
    142a:	460a      	mov	r2, r1
    142c:	f883 20ec 	strb.w	r2, [r3, #236]	; 0xec
    1430:	4b24      	ldr	r3, [pc, #144]	; (14c4 <send_DHCP_DECLINE+0x290>)
    1432:	681a      	ldr	r2, [r3, #0]
    1434:	897b      	ldrh	r3, [r7, #10]
    1436:	1c59      	adds	r1, r3, #1
    1438:	8179      	strh	r1, [r7, #10]
    143a:	4618      	mov	r0, r3
    143c:	4b24      	ldr	r3, [pc, #144]	; (14d0 <send_DHCP_DECLINE+0x29c>)
    143e:	7899      	ldrb	r1, [r3, #2]
    1440:	1813      	adds	r3, r2, r0
    1442:	460a      	mov	r2, r1
    1444:	f883 20ec 	strb.w	r2, [r3, #236]	; 0xec
    1448:	4b1e      	ldr	r3, [pc, #120]	; (14c4 <send_DHCP_DECLINE+0x290>)
    144a:	681a      	ldr	r2, [r3, #0]
    144c:	897b      	ldrh	r3, [r7, #10]
    144e:	1c59      	adds	r1, r3, #1
    1450:	8179      	strh	r1, [r7, #10]
    1452:	4618      	mov	r0, r3
    1454:	4b1e      	ldr	r3, [pc, #120]	; (14d0 <send_DHCP_DECLINE+0x29c>)
    1456:	78d9      	ldrb	r1, [r3, #3]
    1458:	1813      	adds	r3, r2, r0
    145a:	460a      	mov	r2, r1
    145c:	f883 20ec 	strb.w	r2, [r3, #236]	; 0xec
    1460:	4b18      	ldr	r3, [pc, #96]	; (14c4 <send_DHCP_DECLINE+0x290>)
    1462:	681a      	ldr	r2, [r3, #0]
    1464:	897b      	ldrh	r3, [r7, #10]
    1466:	1c59      	adds	r1, r3, #1
    1468:	8179      	strh	r1, [r7, #10]
    146a:	4413      	add	r3, r2
    146c:	22ff      	movs	r2, #255	; 0xff
    146e:	f883 20ec 	strb.w	r2, [r3, #236]	; 0xec
    1472:	897b      	ldrh	r3, [r7, #10]
    1474:	60fb      	str	r3, [r7, #12]
    1476:	e009      	b.n	148c <send_DHCP_DECLINE+0x258>
    1478:	4b12      	ldr	r3, [pc, #72]	; (14c4 <send_DHCP_DECLINE+0x290>)
    147a:	681a      	ldr	r2, [r3, #0]
    147c:	68fb      	ldr	r3, [r7, #12]
    147e:	4413      	add	r3, r2
    1480:	33ec      	adds	r3, #236	; 0xec
    1482:	2200      	movs	r2, #0
    1484:	701a      	strb	r2, [r3, #0]
    1486:	68fb      	ldr	r3, [r7, #12]
    1488:	3301      	adds	r3, #1
    148a:	60fb      	str	r3, [r7, #12]
    148c:	68fb      	ldr	r3, [r7, #12]
    148e:	f5b3 7f9c 	cmp.w	r3, #312	; 0x138
    1492:	dbf1      	blt.n	1478 <send_DHCP_DECLINE+0x244>
    1494:	23ff      	movs	r3, #255	; 0xff
    1496:	713b      	strb	r3, [r7, #4]
    1498:	23ff      	movs	r3, #255	; 0xff
    149a:	717b      	strb	r3, [r7, #5]
    149c:	23ff      	movs	r3, #255	; 0xff
    149e:	71bb      	strb	r3, [r7, #6]
    14a0:	23ff      	movs	r3, #255	; 0xff
    14a2:	71fb      	strb	r3, [r7, #7]
    14a4:	4b0b      	ldr	r3, [pc, #44]	; (14d4 <send_DHCP_DECLINE+0x2a0>)
    14a6:	7818      	ldrb	r0, [r3, #0]
    14a8:	4b06      	ldr	r3, [pc, #24]	; (14c4 <send_DHCP_DECLINE+0x290>)
    14aa:	6819      	ldr	r1, [r3, #0]
    14ac:	1d3a      	adds	r2, r7, #4
    14ae:	2343      	movs	r3, #67	; 0x43
    14b0:	9300      	str	r3, [sp, #0]
    14b2:	4613      	mov	r3, r2
    14b4:	f44f 7209 	mov.w	r2, #548	; 0x224
    14b8:	f000 fe3a 	bl	2130 <sendto>
    14bc:	bf00      	nop
    14be:	3710      	adds	r7, #16
    14c0:	46bd      	mov	sp, r7
    14c2:	bd80      	pop	{r7, pc}
    14c4:	200000bc 	.word	0x200000bc
    14c8:	200000c0 	.word	0x200000c0
    14cc:	200000a4 	.word	0x200000a4
    14d0:	2000009c 	.word	0x2000009c
    14d4:	20000ab4 	.word	0x20000ab4

000014d8 <parseDHCPMSG>:
    14d8:	b590      	push	{r4, r7, lr}
    14da:	b089      	sub	sp, #36	; 0x24
    14dc:	af02      	add	r7, sp, #8
    14de:	2300      	movs	r3, #0
    14e0:	74fb      	strb	r3, [r7, #19]
    14e2:	4b8f      	ldr	r3, [pc, #572]	; (1720 <parseDHCPMSG+0x248>)
    14e4:	781b      	ldrb	r3, [r3, #0]
    14e6:	4618      	mov	r0, r3
    14e8:	f007 f9a6 	bl	8838 <getSn_RX_RSR>
    14ec:	4603      	mov	r3, r0
    14ee:	823b      	strh	r3, [r7, #16]
    14f0:	8a3b      	ldrh	r3, [r7, #16]
    14f2:	2b00      	cmp	r3, #0
    14f4:	d011      	beq.n	151a <parseDHCPMSG+0x42>
    14f6:	4b8a      	ldr	r3, [pc, #552]	; (1720 <parseDHCPMSG+0x248>)
    14f8:	7818      	ldrb	r0, [r3, #0]
    14fa:	4b8a      	ldr	r3, [pc, #552]	; (1724 <parseDHCPMSG+0x24c>)
    14fc:	6819      	ldr	r1, [r3, #0]
    14fe:	1d3c      	adds	r4, r7, #4
    1500:	8a3a      	ldrh	r2, [r7, #16]
    1502:	1cbb      	adds	r3, r7, #2
    1504:	9300      	str	r3, [sp, #0]
    1506:	4623      	mov	r3, r4
    1508:	f000 ff68 	bl	23dc <recvfrom>
    150c:	4603      	mov	r3, r0
    150e:	823b      	strh	r3, [r7, #16]
    1510:	887b      	ldrh	r3, [r7, #2]
    1512:	2b43      	cmp	r3, #67	; 0x43
    1514:	f040 8145 	bne.w	17a2 <parseDHCPMSG+0x2ca>
    1518:	e001      	b.n	151e <parseDHCPMSG+0x46>
    151a:	2300      	movs	r3, #0
    151c:	e143      	b.n	17a6 <parseDHCPMSG+0x2ce>
    151e:	4b81      	ldr	r3, [pc, #516]	; (1724 <parseDHCPMSG+0x24c>)
    1520:	681b      	ldr	r3, [r3, #0]
    1522:	7f1a      	ldrb	r2, [r3, #28]
    1524:	4b80      	ldr	r3, [pc, #512]	; (1728 <parseDHCPMSG+0x250>)
    1526:	781b      	ldrb	r3, [r3, #0]
    1528:	429a      	cmp	r2, r3
    152a:	d124      	bne.n	1576 <parseDHCPMSG+0x9e>
    152c:	4b7d      	ldr	r3, [pc, #500]	; (1724 <parseDHCPMSG+0x24c>)
    152e:	681b      	ldr	r3, [r3, #0]
    1530:	7f5a      	ldrb	r2, [r3, #29]
    1532:	4b7d      	ldr	r3, [pc, #500]	; (1728 <parseDHCPMSG+0x250>)
    1534:	785b      	ldrb	r3, [r3, #1]
    1536:	429a      	cmp	r2, r3
    1538:	d11d      	bne.n	1576 <parseDHCPMSG+0x9e>
    153a:	4b7a      	ldr	r3, [pc, #488]	; (1724 <parseDHCPMSG+0x24c>)
    153c:	681b      	ldr	r3, [r3, #0]
    153e:	7f9a      	ldrb	r2, [r3, #30]
    1540:	4b79      	ldr	r3, [pc, #484]	; (1728 <parseDHCPMSG+0x250>)
    1542:	789b      	ldrb	r3, [r3, #2]
    1544:	429a      	cmp	r2, r3
    1546:	d116      	bne.n	1576 <parseDHCPMSG+0x9e>
    1548:	4b76      	ldr	r3, [pc, #472]	; (1724 <parseDHCPMSG+0x24c>)
    154a:	681b      	ldr	r3, [r3, #0]
    154c:	7fda      	ldrb	r2, [r3, #31]
    154e:	4b76      	ldr	r3, [pc, #472]	; (1728 <parseDHCPMSG+0x250>)
    1550:	78db      	ldrb	r3, [r3, #3]
    1552:	429a      	cmp	r2, r3
    1554:	d10f      	bne.n	1576 <parseDHCPMSG+0x9e>
    1556:	4b73      	ldr	r3, [pc, #460]	; (1724 <parseDHCPMSG+0x24c>)
    1558:	681b      	ldr	r3, [r3, #0]
    155a:	f893 2020 	ldrb.w	r2, [r3, #32]
    155e:	4b72      	ldr	r3, [pc, #456]	; (1728 <parseDHCPMSG+0x250>)
    1560:	791b      	ldrb	r3, [r3, #4]
    1562:	429a      	cmp	r2, r3
    1564:	d107      	bne.n	1576 <parseDHCPMSG+0x9e>
    1566:	4b6f      	ldr	r3, [pc, #444]	; (1724 <parseDHCPMSG+0x24c>)
    1568:	681b      	ldr	r3, [r3, #0]
    156a:	f893 2021 	ldrb.w	r2, [r3, #33]	; 0x21
    156e:	4b6e      	ldr	r3, [pc, #440]	; (1728 <parseDHCPMSG+0x250>)
    1570:	795b      	ldrb	r3, [r3, #5]
    1572:	429a      	cmp	r2, r3
    1574:	d001      	beq.n	157a <parseDHCPMSG+0xa2>
    1576:	2300      	movs	r3, #0
    1578:	e115      	b.n	17a6 <parseDHCPMSG+0x2ce>
    157a:	4b6a      	ldr	r3, [pc, #424]	; (1724 <parseDHCPMSG+0x24c>)
    157c:	681b      	ldr	r3, [r3, #0]
    157e:	617b      	str	r3, [r7, #20]
    1580:	697b      	ldr	r3, [r7, #20]
    1582:	33f0      	adds	r3, #240	; 0xf0
    1584:	617b      	str	r3, [r7, #20]
    1586:	8a3b      	ldrh	r3, [r7, #16]
    1588:	3bf0      	subs	r3, #240	; 0xf0
    158a:	697a      	ldr	r2, [r7, #20]
    158c:	4413      	add	r3, r2
    158e:	60fb      	str	r3, [r7, #12]
    1590:	e102      	b.n	1798 <parseDHCPMSG+0x2c0>
    1592:	697b      	ldr	r3, [r7, #20]
    1594:	781b      	ldrb	r3, [r3, #0]
    1596:	2b06      	cmp	r3, #6
    1598:	d06e      	beq.n	1678 <parseDHCPMSG+0x1a0>
    159a:	2b06      	cmp	r3, #6
    159c:	dc06      	bgt.n	15ac <parseDHCPMSG+0xd4>
    159e:	2b01      	cmp	r3, #1
    15a0:	d025      	beq.n	15ee <parseDHCPMSG+0x116>
    15a2:	2b03      	cmp	r3, #3
    15a4:	d042      	beq.n	162c <parseDHCPMSG+0x154>
    15a6:	2b00      	cmp	r3, #0
    15a8:	d011      	beq.n	15ce <parseDHCPMSG+0xf6>
    15aa:	e0e8      	b.n	177e <parseDHCPMSG+0x2a6>
    15ac:	2b35      	cmp	r3, #53	; 0x35
    15ae:	d012      	beq.n	15d6 <parseDHCPMSG+0xfe>
    15b0:	2b35      	cmp	r3, #53	; 0x35
    15b2:	dc03      	bgt.n	15bc <parseDHCPMSG+0xe4>
    15b4:	2b33      	cmp	r3, #51	; 0x33
    15b6:	f000 8085 	beq.w	16c4 <parseDHCPMSG+0x1ec>
    15ba:	e0e0      	b.n	177e <parseDHCPMSG+0x2a6>
    15bc:	2b36      	cmp	r3, #54	; 0x36
    15be:	f000 80bd 	beq.w	173c <parseDHCPMSG+0x264>
    15c2:	2bff      	cmp	r3, #255	; 0xff
    15c4:	f040 80db 	bne.w	177e <parseDHCPMSG+0x2a6>
    15c8:	68fb      	ldr	r3, [r7, #12]
    15ca:	617b      	str	r3, [r7, #20]
    15cc:	e0e4      	b.n	1798 <parseDHCPMSG+0x2c0>
    15ce:	697b      	ldr	r3, [r7, #20]
    15d0:	3301      	adds	r3, #1
    15d2:	617b      	str	r3, [r7, #20]
    15d4:	e0e0      	b.n	1798 <parseDHCPMSG+0x2c0>
    15d6:	697b      	ldr	r3, [r7, #20]
    15d8:	3301      	adds	r3, #1
    15da:	617b      	str	r3, [r7, #20]
    15dc:	697b      	ldr	r3, [r7, #20]
    15de:	3301      	adds	r3, #1
    15e0:	617b      	str	r3, [r7, #20]
    15e2:	697b      	ldr	r3, [r7, #20]
    15e4:	1c5a      	adds	r2, r3, #1
    15e6:	617a      	str	r2, [r7, #20]
    15e8:	781b      	ldrb	r3, [r3, #0]
    15ea:	74fb      	strb	r3, [r7, #19]
    15ec:	e0d4      	b.n	1798 <parseDHCPMSG+0x2c0>
    15ee:	697b      	ldr	r3, [r7, #20]
    15f0:	3301      	adds	r3, #1
    15f2:	617b      	str	r3, [r7, #20]
    15f4:	697b      	ldr	r3, [r7, #20]
    15f6:	3301      	adds	r3, #1
    15f8:	617b      	str	r3, [r7, #20]
    15fa:	697b      	ldr	r3, [r7, #20]
    15fc:	1c5a      	adds	r2, r3, #1
    15fe:	617a      	str	r2, [r7, #20]
    1600:	781a      	ldrb	r2, [r3, #0]
    1602:	4b4a      	ldr	r3, [pc, #296]	; (172c <parseDHCPMSG+0x254>)
    1604:	701a      	strb	r2, [r3, #0]
    1606:	697b      	ldr	r3, [r7, #20]
    1608:	1c5a      	adds	r2, r3, #1
    160a:	617a      	str	r2, [r7, #20]
    160c:	781a      	ldrb	r2, [r3, #0]
    160e:	4b47      	ldr	r3, [pc, #284]	; (172c <parseDHCPMSG+0x254>)
    1610:	705a      	strb	r2, [r3, #1]
    1612:	697b      	ldr	r3, [r7, #20]
    1614:	1c5a      	adds	r2, r3, #1
    1616:	617a      	str	r2, [r7, #20]
    1618:	781a      	ldrb	r2, [r3, #0]
    161a:	4b44      	ldr	r3, [pc, #272]	; (172c <parseDHCPMSG+0x254>)
    161c:	709a      	strb	r2, [r3, #2]
    161e:	697b      	ldr	r3, [r7, #20]
    1620:	1c5a      	adds	r2, r3, #1
    1622:	617a      	str	r2, [r7, #20]
    1624:	781a      	ldrb	r2, [r3, #0]
    1626:	4b41      	ldr	r3, [pc, #260]	; (172c <parseDHCPMSG+0x254>)
    1628:	70da      	strb	r2, [r3, #3]
    162a:	e0b5      	b.n	1798 <parseDHCPMSG+0x2c0>
    162c:	697b      	ldr	r3, [r7, #20]
    162e:	3301      	adds	r3, #1
    1630:	617b      	str	r3, [r7, #20]
    1632:	697b      	ldr	r3, [r7, #20]
    1634:	1c5a      	adds	r2, r3, #1
    1636:	617a      	str	r2, [r7, #20]
    1638:	781b      	ldrb	r3, [r3, #0]
    163a:	72fb      	strb	r3, [r7, #11]
    163c:	697b      	ldr	r3, [r7, #20]
    163e:	1c5a      	adds	r2, r3, #1
    1640:	617a      	str	r2, [r7, #20]
    1642:	781a      	ldrb	r2, [r3, #0]
    1644:	4b3a      	ldr	r3, [pc, #232]	; (1730 <parseDHCPMSG+0x258>)
    1646:	701a      	strb	r2, [r3, #0]
    1648:	697b      	ldr	r3, [r7, #20]
    164a:	1c5a      	adds	r2, r3, #1
    164c:	617a      	str	r2, [r7, #20]
    164e:	781a      	ldrb	r2, [r3, #0]
    1650:	4b37      	ldr	r3, [pc, #220]	; (1730 <parseDHCPMSG+0x258>)
    1652:	705a      	strb	r2, [r3, #1]
    1654:	697b      	ldr	r3, [r7, #20]
    1656:	1c5a      	adds	r2, r3, #1
    1658:	617a      	str	r2, [r7, #20]
    165a:	781a      	ldrb	r2, [r3, #0]
    165c:	4b34      	ldr	r3, [pc, #208]	; (1730 <parseDHCPMSG+0x258>)
    165e:	709a      	strb	r2, [r3, #2]
    1660:	697b      	ldr	r3, [r7, #20]
    1662:	1c5a      	adds	r2, r3, #1
    1664:	617a      	str	r2, [r7, #20]
    1666:	781a      	ldrb	r2, [r3, #0]
    1668:	4b31      	ldr	r3, [pc, #196]	; (1730 <parseDHCPMSG+0x258>)
    166a:	70da      	strb	r2, [r3, #3]
    166c:	7afb      	ldrb	r3, [r7, #11]
    166e:	3b04      	subs	r3, #4
    1670:	697a      	ldr	r2, [r7, #20]
    1672:	4413      	add	r3, r2
    1674:	617b      	str	r3, [r7, #20]
    1676:	e08f      	b.n	1798 <parseDHCPMSG+0x2c0>
    1678:	697b      	ldr	r3, [r7, #20]
    167a:	3301      	adds	r3, #1
    167c:	617b      	str	r3, [r7, #20]
    167e:	697b      	ldr	r3, [r7, #20]
    1680:	1c5a      	adds	r2, r3, #1
    1682:	617a      	str	r2, [r7, #20]
    1684:	781b      	ldrb	r3, [r3, #0]
    1686:	72fb      	strb	r3, [r7, #11]
    1688:	697b      	ldr	r3, [r7, #20]
    168a:	1c5a      	adds	r2, r3, #1
    168c:	617a      	str	r2, [r7, #20]
    168e:	781a      	ldrb	r2, [r3, #0]
    1690:	4b28      	ldr	r3, [pc, #160]	; (1734 <parseDHCPMSG+0x25c>)
    1692:	701a      	strb	r2, [r3, #0]
    1694:	697b      	ldr	r3, [r7, #20]
    1696:	1c5a      	adds	r2, r3, #1
    1698:	617a      	str	r2, [r7, #20]
    169a:	781a      	ldrb	r2, [r3, #0]
    169c:	4b25      	ldr	r3, [pc, #148]	; (1734 <parseDHCPMSG+0x25c>)
    169e:	705a      	strb	r2, [r3, #1]
    16a0:	697b      	ldr	r3, [r7, #20]
    16a2:	1c5a      	adds	r2, r3, #1
    16a4:	617a      	str	r2, [r7, #20]
    16a6:	781a      	ldrb	r2, [r3, #0]
    16a8:	4b22      	ldr	r3, [pc, #136]	; (1734 <parseDHCPMSG+0x25c>)
    16aa:	709a      	strb	r2, [r3, #2]
    16ac:	697b      	ldr	r3, [r7, #20]
    16ae:	1c5a      	adds	r2, r3, #1
    16b0:	617a      	str	r2, [r7, #20]
    16b2:	781a      	ldrb	r2, [r3, #0]
    16b4:	4b1f      	ldr	r3, [pc, #124]	; (1734 <parseDHCPMSG+0x25c>)
    16b6:	70da      	strb	r2, [r3, #3]
    16b8:	7afb      	ldrb	r3, [r7, #11]
    16ba:	3b04      	subs	r3, #4
    16bc:	697a      	ldr	r2, [r7, #20]
    16be:	4413      	add	r3, r2
    16c0:	617b      	str	r3, [r7, #20]
    16c2:	e069      	b.n	1798 <parseDHCPMSG+0x2c0>
    16c4:	697b      	ldr	r3, [r7, #20]
    16c6:	3301      	adds	r3, #1
    16c8:	617b      	str	r3, [r7, #20]
    16ca:	697b      	ldr	r3, [r7, #20]
    16cc:	1c5a      	adds	r2, r3, #1
    16ce:	617a      	str	r2, [r7, #20]
    16d0:	781b      	ldrb	r3, [r3, #0]
    16d2:	72fb      	strb	r3, [r7, #11]
    16d4:	697b      	ldr	r3, [r7, #20]
    16d6:	1c5a      	adds	r2, r3, #1
    16d8:	617a      	str	r2, [r7, #20]
    16da:	781b      	ldrb	r3, [r3, #0]
    16dc:	461a      	mov	r2, r3
    16de:	4b16      	ldr	r3, [pc, #88]	; (1738 <parseDHCPMSG+0x260>)
    16e0:	601a      	str	r2, [r3, #0]
    16e2:	4b15      	ldr	r3, [pc, #84]	; (1738 <parseDHCPMSG+0x260>)
    16e4:	681b      	ldr	r3, [r3, #0]
    16e6:	021a      	lsls	r2, r3, #8
    16e8:	697b      	ldr	r3, [r7, #20]
    16ea:	1c59      	adds	r1, r3, #1
    16ec:	6179      	str	r1, [r7, #20]
    16ee:	781b      	ldrb	r3, [r3, #0]
    16f0:	4413      	add	r3, r2
    16f2:	4a11      	ldr	r2, [pc, #68]	; (1738 <parseDHCPMSG+0x260>)
    16f4:	6013      	str	r3, [r2, #0]
    16f6:	4b10      	ldr	r3, [pc, #64]	; (1738 <parseDHCPMSG+0x260>)
    16f8:	681b      	ldr	r3, [r3, #0]
    16fa:	021a      	lsls	r2, r3, #8
    16fc:	697b      	ldr	r3, [r7, #20]
    16fe:	1c59      	adds	r1, r3, #1
    1700:	6179      	str	r1, [r7, #20]
    1702:	781b      	ldrb	r3, [r3, #0]
    1704:	4413      	add	r3, r2
    1706:	4a0c      	ldr	r2, [pc, #48]	; (1738 <parseDHCPMSG+0x260>)
    1708:	6013      	str	r3, [r2, #0]
    170a:	4b0b      	ldr	r3, [pc, #44]	; (1738 <parseDHCPMSG+0x260>)
    170c:	681b      	ldr	r3, [r3, #0]
    170e:	021a      	lsls	r2, r3, #8
    1710:	697b      	ldr	r3, [r7, #20]
    1712:	1c59      	adds	r1, r3, #1
    1714:	6179      	str	r1, [r7, #20]
    1716:	781b      	ldrb	r3, [r3, #0]
    1718:	4413      	add	r3, r2
    171a:	4a07      	ldr	r2, [pc, #28]	; (1738 <parseDHCPMSG+0x260>)
    171c:	6013      	str	r3, [r2, #0]
    171e:	e03b      	b.n	1798 <parseDHCPMSG+0x2c0>
    1720:	20000ab4 	.word	0x20000ab4
    1724:	200000bc 	.word	0x200000bc
    1728:	200000c0 	.word	0x200000c0
    172c:	200000ac 	.word	0x200000ac
    1730:	200000a8 	.word	0x200000a8
    1734:	200000b0 	.word	0x200000b0
    1738:	20000000 	.word	0x20000000
    173c:	697b      	ldr	r3, [r7, #20]
    173e:	3301      	adds	r3, #1
    1740:	617b      	str	r3, [r7, #20]
    1742:	697b      	ldr	r3, [r7, #20]
    1744:	1c5a      	adds	r2, r3, #1
    1746:	617a      	str	r2, [r7, #20]
    1748:	781b      	ldrb	r3, [r3, #0]
    174a:	72fb      	strb	r3, [r7, #11]
    174c:	697b      	ldr	r3, [r7, #20]
    174e:	1c5a      	adds	r2, r3, #1
    1750:	617a      	str	r2, [r7, #20]
    1752:	781a      	ldrb	r2, [r3, #0]
    1754:	4b16      	ldr	r3, [pc, #88]	; (17b0 <parseDHCPMSG+0x2d8>)
    1756:	701a      	strb	r2, [r3, #0]
    1758:	697b      	ldr	r3, [r7, #20]
    175a:	1c5a      	adds	r2, r3, #1
    175c:	617a      	str	r2, [r7, #20]
    175e:	781a      	ldrb	r2, [r3, #0]
    1760:	4b13      	ldr	r3, [pc, #76]	; (17b0 <parseDHCPMSG+0x2d8>)
    1762:	705a      	strb	r2, [r3, #1]
    1764:	697b      	ldr	r3, [r7, #20]
    1766:	1c5a      	adds	r2, r3, #1
    1768:	617a      	str	r2, [r7, #20]
    176a:	781a      	ldrb	r2, [r3, #0]
    176c:	4b10      	ldr	r3, [pc, #64]	; (17b0 <parseDHCPMSG+0x2d8>)
    176e:	709a      	strb	r2, [r3, #2]
    1770:	697b      	ldr	r3, [r7, #20]
    1772:	1c5a      	adds	r2, r3, #1
    1774:	617a      	str	r2, [r7, #20]
    1776:	781a      	ldrb	r2, [r3, #0]
    1778:	4b0d      	ldr	r3, [pc, #52]	; (17b0 <parseDHCPMSG+0x2d8>)
    177a:	70da      	strb	r2, [r3, #3]
    177c:	e00c      	b.n	1798 <parseDHCPMSG+0x2c0>
    177e:	697b      	ldr	r3, [r7, #20]
    1780:	3301      	adds	r3, #1
    1782:	617b      	str	r3, [r7, #20]
    1784:	697b      	ldr	r3, [r7, #20]
    1786:	1c5a      	adds	r2, r3, #1
    1788:	617a      	str	r2, [r7, #20]
    178a:	781b      	ldrb	r3, [r3, #0]
    178c:	72fb      	strb	r3, [r7, #11]
    178e:	7afb      	ldrb	r3, [r7, #11]
    1790:	697a      	ldr	r2, [r7, #20]
    1792:	4413      	add	r3, r2
    1794:	617b      	str	r3, [r7, #20]
    1796:	bf00      	nop
    1798:	697a      	ldr	r2, [r7, #20]
    179a:	68fb      	ldr	r3, [r7, #12]
    179c:	429a      	cmp	r2, r3
    179e:	f4ff aef8 	bcc.w	1592 <parseDHCPMSG+0xba>
    17a2:	f997 3013 	ldrsb.w	r3, [r7, #19]
    17a6:	4618      	mov	r0, r3
    17a8:	371c      	adds	r7, #28
    17aa:	46bd      	mov	sp, r7
    17ac:	bd90      	pop	{r4, r7, pc}
    17ae:	bf00      	nop
    17b0:	2000009c 	.word	0x2000009c

000017b4 <DHCP_run>:
    17b4:	b580      	push	{r7, lr}
    17b6:	b082      	sub	sp, #8
    17b8:	af00      	add	r7, sp, #0
    17ba:	4b7e      	ldr	r3, [pc, #504]	; (19b4 <DHCP_run+0x200>)
    17bc:	f993 3000 	ldrsb.w	r3, [r3]
    17c0:	2b06      	cmp	r3, #6
    17c2:	d101      	bne.n	17c8 <DHCP_run+0x14>
    17c4:	2305      	movs	r3, #5
    17c6:	e0f1      	b.n	19ac <DHCP_run+0x1f8>
    17c8:	4b7b      	ldr	r3, [pc, #492]	; (19b8 <DHCP_run+0x204>)
    17ca:	781b      	ldrb	r3, [r3, #0]
    17cc:	3304      	adds	r3, #4
    17ce:	021b      	lsls	r3, r3, #8
    17d0:	3303      	adds	r3, #3
    17d2:	4618      	mov	r0, r3
    17d4:	f000 fa76 	bl	1cc4 <WIZCHIP_READ>
    17d8:	4603      	mov	r3, r0
    17da:	2b22      	cmp	r3, #34	; 0x22
    17dc:	d006      	beq.n	17ec <DHCP_run+0x38>
    17de:	4b76      	ldr	r3, [pc, #472]	; (19b8 <DHCP_run+0x204>)
    17e0:	7818      	ldrb	r0, [r3, #0]
    17e2:	2300      	movs	r3, #0
    17e4:	2244      	movs	r2, #68	; 0x44
    17e6:	2102      	movs	r1, #2
    17e8:	f000 fb36 	bl	1e58 <socket>
    17ec:	2301      	movs	r3, #1
    17ee:	71fb      	strb	r3, [r7, #7]
    17f0:	f7ff fe72 	bl	14d8 <parseDHCPMSG>
    17f4:	4603      	mov	r3, r0
    17f6:	71bb      	strb	r3, [r7, #6]
    17f8:	4b6e      	ldr	r3, [pc, #440]	; (19b4 <DHCP_run+0x200>)
    17fa:	f993 3000 	ldrsb.w	r3, [r3]
    17fe:	2b04      	cmp	r3, #4
    1800:	f200 80d0 	bhi.w	19a4 <DHCP_run+0x1f0>
    1804:	a201      	add	r2, pc, #4	; (adr r2, 180c <DHCP_run+0x58>)
    1806:	f852 f023 	ldr.w	pc, [r2, r3, lsl #2]
    180a:	bf00      	nop
    180c:	00001821 	.word	0x00001821
    1810:	00001845 	.word	0x00001845
    1814:	00001889 	.word	0x00001889
    1818:	000018d9 	.word	0x000018d9
    181c:	00001933 	.word	0x00001933
    1820:	4b66      	ldr	r3, [pc, #408]	; (19bc <DHCP_run+0x208>)
    1822:	2200      	movs	r2, #0
    1824:	701a      	strb	r2, [r3, #0]
    1826:	4b65      	ldr	r3, [pc, #404]	; (19bc <DHCP_run+0x208>)
    1828:	2200      	movs	r2, #0
    182a:	705a      	strb	r2, [r3, #1]
    182c:	4b63      	ldr	r3, [pc, #396]	; (19bc <DHCP_run+0x208>)
    182e:	2200      	movs	r2, #0
    1830:	709a      	strb	r2, [r3, #2]
    1832:	4b62      	ldr	r3, [pc, #392]	; (19bc <DHCP_run+0x208>)
    1834:	2200      	movs	r2, #0
    1836:	70da      	strb	r2, [r3, #3]
    1838:	f7ff f8c4 	bl	9c4 <send_DHCP_DISCOVER>
    183c:	4b5d      	ldr	r3, [pc, #372]	; (19b4 <DHCP_run+0x200>)
    183e:	2201      	movs	r2, #1
    1840:	701a      	strb	r2, [r3, #0]
    1842:	e0b2      	b.n	19aa <DHCP_run+0x1f6>
    1844:	79bb      	ldrb	r3, [r7, #6]
    1846:	2b02      	cmp	r3, #2
    1848:	d119      	bne.n	187e <DHCP_run+0xca>
    184a:	4b5d      	ldr	r3, [pc, #372]	; (19c0 <DHCP_run+0x20c>)
    184c:	681b      	ldr	r3, [r3, #0]
    184e:	7c1a      	ldrb	r2, [r3, #16]
    1850:	4b5a      	ldr	r3, [pc, #360]	; (19bc <DHCP_run+0x208>)
    1852:	701a      	strb	r2, [r3, #0]
    1854:	4b5a      	ldr	r3, [pc, #360]	; (19c0 <DHCP_run+0x20c>)
    1856:	681b      	ldr	r3, [r3, #0]
    1858:	7c5a      	ldrb	r2, [r3, #17]
    185a:	4b58      	ldr	r3, [pc, #352]	; (19bc <DHCP_run+0x208>)
    185c:	705a      	strb	r2, [r3, #1]
    185e:	4b58      	ldr	r3, [pc, #352]	; (19c0 <DHCP_run+0x20c>)
    1860:	681b      	ldr	r3, [r3, #0]
    1862:	7c9a      	ldrb	r2, [r3, #18]
    1864:	4b55      	ldr	r3, [pc, #340]	; (19bc <DHCP_run+0x208>)
    1866:	709a      	strb	r2, [r3, #2]
    1868:	4b55      	ldr	r3, [pc, #340]	; (19c0 <DHCP_run+0x20c>)
    186a:	681b      	ldr	r3, [r3, #0]
    186c:	7cda      	ldrb	r2, [r3, #19]
    186e:	4b53      	ldr	r3, [pc, #332]	; (19bc <DHCP_run+0x208>)
    1870:	70da      	strb	r2, [r3, #3]
    1872:	f7ff fa53 	bl	d1c <send_DHCP_REQUEST>
    1876:	4b4f      	ldr	r3, [pc, #316]	; (19b4 <DHCP_run+0x200>)
    1878:	2202      	movs	r2, #2
    187a:	701a      	strb	r2, [r3, #0]
    187c:	e095      	b.n	19aa <DHCP_run+0x1f6>
    187e:	f000 f8b1 	bl	19e4 <check_DHCP_timeout>
    1882:	4603      	mov	r3, r0
    1884:	71fb      	strb	r3, [r7, #7]
    1886:	e090      	b.n	19aa <DHCP_run+0x1f6>
    1888:	79bb      	ldrb	r3, [r7, #6]
    188a:	2b05      	cmp	r3, #5
    188c:	d116      	bne.n	18bc <DHCP_run+0x108>
    188e:	f000 f903 	bl	1a98 <check_DHCP_leasedIP>
    1892:	4603      	mov	r3, r0
    1894:	2b00      	cmp	r3, #0
    1896:	d008      	beq.n	18aa <DHCP_run+0xf6>
    1898:	4b4a      	ldr	r3, [pc, #296]	; (19c4 <DHCP_run+0x210>)
    189a:	681b      	ldr	r3, [r3, #0]
    189c:	4798      	blx	r3
    189e:	f000 f99f 	bl	1be0 <reset_DHCP_timeout>
    18a2:	4b44      	ldr	r3, [pc, #272]	; (19b4 <DHCP_run+0x200>)
    18a4:	2203      	movs	r2, #3
    18a6:	701a      	strb	r2, [r3, #0]
    18a8:	e07f      	b.n	19aa <DHCP_run+0x1f6>
    18aa:	f000 f999 	bl	1be0 <reset_DHCP_timeout>
    18ae:	4b46      	ldr	r3, [pc, #280]	; (19c8 <DHCP_run+0x214>)
    18b0:	681b      	ldr	r3, [r3, #0]
    18b2:	4798      	blx	r3
    18b4:	4b3f      	ldr	r3, [pc, #252]	; (19b4 <DHCP_run+0x200>)
    18b6:	2200      	movs	r2, #0
    18b8:	701a      	strb	r2, [r3, #0]
    18ba:	e076      	b.n	19aa <DHCP_run+0x1f6>
    18bc:	79bb      	ldrb	r3, [r7, #6]
    18be:	2b06      	cmp	r3, #6
    18c0:	d105      	bne.n	18ce <DHCP_run+0x11a>
    18c2:	f000 f98d 	bl	1be0 <reset_DHCP_timeout>
    18c6:	4b3b      	ldr	r3, [pc, #236]	; (19b4 <DHCP_run+0x200>)
    18c8:	2201      	movs	r2, #1
    18ca:	701a      	strb	r2, [r3, #0]
    18cc:	e06d      	b.n	19aa <DHCP_run+0x1f6>
    18ce:	f000 f889 	bl	19e4 <check_DHCP_timeout>
    18d2:	4603      	mov	r3, r0
    18d4:	71fb      	strb	r3, [r7, #7]
    18d6:	e068      	b.n	19aa <DHCP_run+0x1f6>
    18d8:	2304      	movs	r3, #4
    18da:	71fb      	strb	r3, [r7, #7]
    18dc:	4b3b      	ldr	r3, [pc, #236]	; (19cc <DHCP_run+0x218>)
    18de:	681b      	ldr	r3, [r3, #0]
    18e0:	f1b3 3fff 	cmp.w	r3, #4294967295
    18e4:	d060      	beq.n	19a8 <DHCP_run+0x1f4>
    18e6:	4b39      	ldr	r3, [pc, #228]	; (19cc <DHCP_run+0x218>)
    18e8:	681b      	ldr	r3, [r3, #0]
    18ea:	085a      	lsrs	r2, r3, #1
    18ec:	4b38      	ldr	r3, [pc, #224]	; (19d0 <DHCP_run+0x21c>)
    18ee:	681b      	ldr	r3, [r3, #0]
    18f0:	429a      	cmp	r2, r3
    18f2:	d259      	bcs.n	19a8 <DHCP_run+0x1f4>
    18f4:	2300      	movs	r3, #0
    18f6:	71bb      	strb	r3, [r7, #6]
    18f8:	4b30      	ldr	r3, [pc, #192]	; (19bc <DHCP_run+0x208>)
    18fa:	781a      	ldrb	r2, [r3, #0]
    18fc:	4b35      	ldr	r3, [pc, #212]	; (19d4 <DHCP_run+0x220>)
    18fe:	701a      	strb	r2, [r3, #0]
    1900:	4b2e      	ldr	r3, [pc, #184]	; (19bc <DHCP_run+0x208>)
    1902:	785a      	ldrb	r2, [r3, #1]
    1904:	4b33      	ldr	r3, [pc, #204]	; (19d4 <DHCP_run+0x220>)
    1906:	705a      	strb	r2, [r3, #1]
    1908:	4b2c      	ldr	r3, [pc, #176]	; (19bc <DHCP_run+0x208>)
    190a:	789a      	ldrb	r2, [r3, #2]
    190c:	4b31      	ldr	r3, [pc, #196]	; (19d4 <DHCP_run+0x220>)
    190e:	709a      	strb	r2, [r3, #2]
    1910:	4b2a      	ldr	r3, [pc, #168]	; (19bc <DHCP_run+0x208>)
    1912:	78da      	ldrb	r2, [r3, #3]
    1914:	4b2f      	ldr	r3, [pc, #188]	; (19d4 <DHCP_run+0x220>)
    1916:	70da      	strb	r2, [r3, #3]
    1918:	4b2f      	ldr	r3, [pc, #188]	; (19d8 <DHCP_run+0x224>)
    191a:	681b      	ldr	r3, [r3, #0]
    191c:	3301      	adds	r3, #1
    191e:	4a2e      	ldr	r2, [pc, #184]	; (19d8 <DHCP_run+0x224>)
    1920:	6013      	str	r3, [r2, #0]
    1922:	f7ff f9fb 	bl	d1c <send_DHCP_REQUEST>
    1926:	f000 f95b 	bl	1be0 <reset_DHCP_timeout>
    192a:	4b22      	ldr	r3, [pc, #136]	; (19b4 <DHCP_run+0x200>)
    192c:	2204      	movs	r2, #4
    192e:	701a      	strb	r2, [r3, #0]
    1930:	e03a      	b.n	19a8 <DHCP_run+0x1f4>
    1932:	2304      	movs	r3, #4
    1934:	71fb      	strb	r3, [r7, #7]
    1936:	79bb      	ldrb	r3, [r7, #6]
    1938:	2b05      	cmp	r3, #5
    193a:	d125      	bne.n	1988 <DHCP_run+0x1d4>
    193c:	4b27      	ldr	r3, [pc, #156]	; (19dc <DHCP_run+0x228>)
    193e:	2200      	movs	r2, #0
    1940:	701a      	strb	r2, [r3, #0]
    1942:	4b24      	ldr	r3, [pc, #144]	; (19d4 <DHCP_run+0x220>)
    1944:	781a      	ldrb	r2, [r3, #0]
    1946:	4b1d      	ldr	r3, [pc, #116]	; (19bc <DHCP_run+0x208>)
    1948:	781b      	ldrb	r3, [r3, #0]
    194a:	429a      	cmp	r2, r3
    194c:	d111      	bne.n	1972 <DHCP_run+0x1be>
    194e:	4b21      	ldr	r3, [pc, #132]	; (19d4 <DHCP_run+0x220>)
    1950:	785a      	ldrb	r2, [r3, #1]
    1952:	4b1a      	ldr	r3, [pc, #104]	; (19bc <DHCP_run+0x208>)
    1954:	785b      	ldrb	r3, [r3, #1]
    1956:	429a      	cmp	r2, r3
    1958:	d10b      	bne.n	1972 <DHCP_run+0x1be>
    195a:	4b1e      	ldr	r3, [pc, #120]	; (19d4 <DHCP_run+0x220>)
    195c:	789a      	ldrb	r2, [r3, #2]
    195e:	4b17      	ldr	r3, [pc, #92]	; (19bc <DHCP_run+0x208>)
    1960:	789b      	ldrb	r3, [r3, #2]
    1962:	429a      	cmp	r2, r3
    1964:	d105      	bne.n	1972 <DHCP_run+0x1be>
    1966:	4b1b      	ldr	r3, [pc, #108]	; (19d4 <DHCP_run+0x220>)
    1968:	78da      	ldrb	r2, [r3, #3]
    196a:	4b14      	ldr	r3, [pc, #80]	; (19bc <DHCP_run+0x208>)
    196c:	78db      	ldrb	r3, [r3, #3]
    196e:	429a      	cmp	r2, r3
    1970:	d004      	beq.n	197c <DHCP_run+0x1c8>
    1972:	2303      	movs	r3, #3
    1974:	71fb      	strb	r3, [r7, #7]
    1976:	4b1a      	ldr	r3, [pc, #104]	; (19e0 <DHCP_run+0x22c>)
    1978:	681b      	ldr	r3, [r3, #0]
    197a:	4798      	blx	r3
    197c:	f000 f930 	bl	1be0 <reset_DHCP_timeout>
    1980:	4b0c      	ldr	r3, [pc, #48]	; (19b4 <DHCP_run+0x200>)
    1982:	2203      	movs	r2, #3
    1984:	701a      	strb	r2, [r3, #0]
    1986:	e010      	b.n	19aa <DHCP_run+0x1f6>
    1988:	79bb      	ldrb	r3, [r7, #6]
    198a:	2b06      	cmp	r3, #6
    198c:	d105      	bne.n	199a <DHCP_run+0x1e6>
    198e:	f000 f927 	bl	1be0 <reset_DHCP_timeout>
    1992:	4b08      	ldr	r3, [pc, #32]	; (19b4 <DHCP_run+0x200>)
    1994:	2201      	movs	r2, #1
    1996:	701a      	strb	r2, [r3, #0]
    1998:	e007      	b.n	19aa <DHCP_run+0x1f6>
    199a:	f000 f823 	bl	19e4 <check_DHCP_timeout>
    199e:	4603      	mov	r3, r0
    19a0:	71fb      	strb	r3, [r7, #7]
    19a2:	e002      	b.n	19aa <DHCP_run+0x1f6>
    19a4:	bf00      	nop
    19a6:	e000      	b.n	19aa <DHCP_run+0x1f6>
    19a8:	bf00      	nop
    19aa:	79fb      	ldrb	r3, [r7, #7]
    19ac:	4618      	mov	r0, r3
    19ae:	3708      	adds	r7, #8
    19b0:	46bd      	mov	sp, r7
    19b2:	bd80      	pop	{r7, pc}
    19b4:	20000ab5 	.word	0x20000ab5
    19b8:	20000ab4 	.word	0x20000ab4
    19bc:	200000a4 	.word	0x200000a4
    19c0:	200000bc 	.word	0x200000bc
    19c4:	20000010 	.word	0x20000010
    19c8:	20000018 	.word	0x20000018
    19cc:	20000000 	.word	0x20000000
    19d0:	200000b4 	.word	0x200000b4
    19d4:	200000a0 	.word	0x200000a0
    19d8:	200000b8 	.word	0x200000b8
    19dc:	20000ab6 	.word	0x20000ab6
    19e0:	20000014 	.word	0x20000014

000019e4 <check_DHCP_timeout>:
    19e4:	b580      	push	{r7, lr}
    19e6:	b082      	sub	sp, #8
    19e8:	af00      	add	r7, sp, #0
    19ea:	2301      	movs	r3, #1
    19ec:	71fb      	strb	r3, [r7, #7]
    19ee:	4b26      	ldr	r3, [pc, #152]	; (1a88 <check_DHCP_timeout+0xa4>)
    19f0:	f993 3000 	ldrsb.w	r3, [r3]
    19f4:	2b01      	cmp	r3, #1
    19f6:	dc2a      	bgt.n	1a4e <check_DHCP_timeout+0x6a>
    19f8:	4b24      	ldr	r3, [pc, #144]	; (1a8c <check_DHCP_timeout+0xa8>)
    19fa:	681a      	ldr	r2, [r3, #0]
    19fc:	4b24      	ldr	r3, [pc, #144]	; (1a90 <check_DHCP_timeout+0xac>)
    19fe:	681b      	ldr	r3, [r3, #0]
    1a00:	429a      	cmp	r2, r3
    1a02:	d23c      	bcs.n	1a7e <check_DHCP_timeout+0x9a>
    1a04:	4b23      	ldr	r3, [pc, #140]	; (1a94 <check_DHCP_timeout+0xb0>)
    1a06:	f993 3000 	ldrsb.w	r3, [r3]
    1a0a:	2b02      	cmp	r3, #2
    1a0c:	d006      	beq.n	1a1c <check_DHCP_timeout+0x38>
    1a0e:	2b04      	cmp	r3, #4
    1a10:	d007      	beq.n	1a22 <check_DHCP_timeout+0x3e>
    1a12:	2b01      	cmp	r3, #1
    1a14:	d108      	bne.n	1a28 <check_DHCP_timeout+0x44>
    1a16:	f7fe ffd5 	bl	9c4 <send_DHCP_DISCOVER>
    1a1a:	e006      	b.n	1a2a <check_DHCP_timeout+0x46>
    1a1c:	f7ff f97e 	bl	d1c <send_DHCP_REQUEST>
    1a20:	e003      	b.n	1a2a <check_DHCP_timeout+0x46>
    1a22:	f7ff f97b 	bl	d1c <send_DHCP_REQUEST>
    1a26:	e000      	b.n	1a2a <check_DHCP_timeout+0x46>
    1a28:	bf00      	nop
    1a2a:	4b19      	ldr	r3, [pc, #100]	; (1a90 <check_DHCP_timeout+0xac>)
    1a2c:	2200      	movs	r2, #0
    1a2e:	601a      	str	r2, [r3, #0]
    1a30:	4b17      	ldr	r3, [pc, #92]	; (1a90 <check_DHCP_timeout+0xac>)
    1a32:	681b      	ldr	r3, [r3, #0]
    1a34:	330a      	adds	r3, #10
    1a36:	4a15      	ldr	r2, [pc, #84]	; (1a8c <check_DHCP_timeout+0xa8>)
    1a38:	6013      	str	r3, [r2, #0]
    1a3a:	4b13      	ldr	r3, [pc, #76]	; (1a88 <check_DHCP_timeout+0xa4>)
    1a3c:	f993 3000 	ldrsb.w	r3, [r3]
    1a40:	b2db      	uxtb	r3, r3
    1a42:	3301      	adds	r3, #1
    1a44:	b2db      	uxtb	r3, r3
    1a46:	b25a      	sxtb	r2, r3
    1a48:	4b0f      	ldr	r3, [pc, #60]	; (1a88 <check_DHCP_timeout+0xa4>)
    1a4a:	701a      	strb	r2, [r3, #0]
    1a4c:	e017      	b.n	1a7e <check_DHCP_timeout+0x9a>
    1a4e:	4b11      	ldr	r3, [pc, #68]	; (1a94 <check_DHCP_timeout+0xb0>)
    1a50:	f993 3000 	ldrsb.w	r3, [r3]
    1a54:	2b02      	cmp	r3, #2
    1a56:	d009      	beq.n	1a6c <check_DHCP_timeout+0x88>
    1a58:	2b04      	cmp	r3, #4
    1a5a:	d007      	beq.n	1a6c <check_DHCP_timeout+0x88>
    1a5c:	2b01      	cmp	r3, #1
    1a5e:	d10b      	bne.n	1a78 <check_DHCP_timeout+0x94>
    1a60:	4b0c      	ldr	r3, [pc, #48]	; (1a94 <check_DHCP_timeout+0xb0>)
    1a62:	2200      	movs	r2, #0
    1a64:	701a      	strb	r2, [r3, #0]
    1a66:	2300      	movs	r3, #0
    1a68:	71fb      	strb	r3, [r7, #7]
    1a6a:	e006      	b.n	1a7a <check_DHCP_timeout+0x96>
    1a6c:	f7fe ffaa 	bl	9c4 <send_DHCP_DISCOVER>
    1a70:	4b08      	ldr	r3, [pc, #32]	; (1a94 <check_DHCP_timeout+0xb0>)
    1a72:	2201      	movs	r2, #1
    1a74:	701a      	strb	r2, [r3, #0]
    1a76:	e000      	b.n	1a7a <check_DHCP_timeout+0x96>
    1a78:	bf00      	nop
    1a7a:	f000 f8b1 	bl	1be0 <reset_DHCP_timeout>
    1a7e:	79fb      	ldrb	r3, [r7, #7]
    1a80:	4618      	mov	r0, r3
    1a82:	3708      	adds	r7, #8
    1a84:	46bd      	mov	sp, r7
    1a86:	bd80      	pop	{r7, pc}
    1a88:	20000ab6 	.word	0x20000ab6
    1a8c:	20000004 	.word	0x20000004
    1a90:	200000b4 	.word	0x200000b4
    1a94:	20000ab5 	.word	0x20000ab5

00001a98 <check_DHCP_leasedIP>:
    1a98:	b580      	push	{r7, lr}
    1a9a:	b084      	sub	sp, #16
    1a9c:	af02      	add	r7, sp, #8
    1a9e:	2019      	movs	r0, #25
    1aa0:	f000 f910 	bl	1cc4 <WIZCHIP_READ>
    1aa4:	4603      	mov	r3, r0
    1aa6:	71fb      	strb	r3, [r7, #7]
    1aa8:	2103      	movs	r1, #3
    1aaa:	2019      	movs	r0, #25
    1aac:	f000 f8dc 	bl	1c68 <WIZCHIP_WRITE>
    1ab0:	4b13      	ldr	r3, [pc, #76]	; (1b00 <check_DHCP_leasedIP+0x68>)
    1ab2:	7818      	ldrb	r0, [r3, #0]
    1ab4:	f241 3388 	movw	r3, #5000	; 0x1388
    1ab8:	9300      	str	r3, [sp, #0]
    1aba:	4b12      	ldr	r3, [pc, #72]	; (1b04 <check_DHCP_leasedIP+0x6c>)
    1abc:	2211      	movs	r2, #17
    1abe:	4912      	ldr	r1, [pc, #72]	; (1b08 <check_DHCP_leasedIP+0x70>)
    1ac0:	f000 fb36 	bl	2130 <sendto>
    1ac4:	6038      	str	r0, [r7, #0]
    1ac6:	79fb      	ldrb	r3, [r7, #7]
    1ac8:	4619      	mov	r1, r3
    1aca:	2019      	movs	r0, #25
    1acc:	f000 f8cc 	bl	1c68 <WIZCHIP_WRITE>
    1ad0:	683b      	ldr	r3, [r7, #0]
    1ad2:	f113 0f0d 	cmn.w	r3, #13
    1ad6:	d101      	bne.n	1adc <check_DHCP_leasedIP+0x44>
    1ad8:	2301      	movs	r3, #1
    1ada:	e00c      	b.n	1af6 <check_DHCP_leasedIP+0x5e>
    1adc:	f7ff fbaa 	bl	1234 <send_DHCP_DECLINE>
    1ae0:	4b0a      	ldr	r3, [pc, #40]	; (1b0c <check_DHCP_leasedIP+0x74>)
    1ae2:	681b      	ldr	r3, [r3, #0]
    1ae4:	603b      	str	r3, [r7, #0]
    1ae6:	bf00      	nop
    1ae8:	4b08      	ldr	r3, [pc, #32]	; (1b0c <check_DHCP_leasedIP+0x74>)
    1aea:	681a      	ldr	r2, [r3, #0]
    1aec:	683b      	ldr	r3, [r7, #0]
    1aee:	1ad3      	subs	r3, r2, r3
    1af0:	2b01      	cmp	r3, #1
    1af2:	d9f9      	bls.n	1ae8 <check_DHCP_leasedIP+0x50>
    1af4:	2300      	movs	r3, #0
    1af6:	4618      	mov	r0, r3
    1af8:	3708      	adds	r7, #8
    1afa:	46bd      	mov	sp, r7
    1afc:	bd80      	pop	{r7, pc}
    1afe:	bf00      	nop
    1b00:	20000ab4 	.word	0x20000ab4
    1b04:	200000a4 	.word	0x200000a4
    1b08:	0000a860 	.word	0x0000a860
    1b0c:	200000b4 	.word	0x200000b4

00001b10 <DHCP_init>:
    1b10:	b580      	push	{r7, lr}
    1b12:	b084      	sub	sp, #16
    1b14:	af00      	add	r7, sp, #0
    1b16:	4603      	mov	r3, r0
    1b18:	6039      	str	r1, [r7, #0]
    1b1a:	71fb      	strb	r3, [r7, #7]
    1b1c:	2300      	movs	r3, #0
    1b1e:	60fb      	str	r3, [r7, #12]
    1b20:	2206      	movs	r2, #6
    1b22:	4929      	ldr	r1, [pc, #164]	; (1bc8 <DHCP_init+0xb8>)
    1b24:	2009      	movs	r0, #9
    1b26:	f000 f949 	bl	1dbc <WIZCHIP_READ_BUF>
    1b2a:	4b27      	ldr	r3, [pc, #156]	; (1bc8 <DHCP_init+0xb8>)
    1b2c:	781a      	ldrb	r2, [r3, #0]
    1b2e:	4b26      	ldr	r3, [pc, #152]	; (1bc8 <DHCP_init+0xb8>)
    1b30:	785b      	ldrb	r3, [r3, #1]
    1b32:	4313      	orrs	r3, r2
    1b34:	b2da      	uxtb	r2, r3
    1b36:	4b24      	ldr	r3, [pc, #144]	; (1bc8 <DHCP_init+0xb8>)
    1b38:	789b      	ldrb	r3, [r3, #2]
    1b3a:	4313      	orrs	r3, r2
    1b3c:	b2da      	uxtb	r2, r3
    1b3e:	4b22      	ldr	r3, [pc, #136]	; (1bc8 <DHCP_init+0xb8>)
    1b40:	78db      	ldrb	r3, [r3, #3]
    1b42:	4313      	orrs	r3, r2
    1b44:	b2da      	uxtb	r2, r3
    1b46:	4b20      	ldr	r3, [pc, #128]	; (1bc8 <DHCP_init+0xb8>)
    1b48:	791b      	ldrb	r3, [r3, #4]
    1b4a:	4313      	orrs	r3, r2
    1b4c:	b2da      	uxtb	r2, r3
    1b4e:	4b1e      	ldr	r3, [pc, #120]	; (1bc8 <DHCP_init+0xb8>)
    1b50:	795b      	ldrb	r3, [r3, #5]
    1b52:	4313      	orrs	r3, r2
    1b54:	b2db      	uxtb	r3, r3
    1b56:	2b00      	cmp	r3, #0
    1b58:	d116      	bne.n	1b88 <DHCP_init+0x78>
    1b5a:	4b1b      	ldr	r3, [pc, #108]	; (1bc8 <DHCP_init+0xb8>)
    1b5c:	2200      	movs	r2, #0
    1b5e:	701a      	strb	r2, [r3, #0]
    1b60:	4b19      	ldr	r3, [pc, #100]	; (1bc8 <DHCP_init+0xb8>)
    1b62:	2208      	movs	r2, #8
    1b64:	705a      	strb	r2, [r3, #1]
    1b66:	4b18      	ldr	r3, [pc, #96]	; (1bc8 <DHCP_init+0xb8>)
    1b68:	22dc      	movs	r2, #220	; 0xdc
    1b6a:	709a      	strb	r2, [r3, #2]
    1b6c:	4b16      	ldr	r3, [pc, #88]	; (1bc8 <DHCP_init+0xb8>)
    1b6e:	2200      	movs	r2, #0
    1b70:	70da      	strb	r2, [r3, #3]
    1b72:	4b15      	ldr	r3, [pc, #84]	; (1bc8 <DHCP_init+0xb8>)
    1b74:	2200      	movs	r2, #0
    1b76:	711a      	strb	r2, [r3, #4]
    1b78:	4b13      	ldr	r3, [pc, #76]	; (1bc8 <DHCP_init+0xb8>)
    1b7a:	2200      	movs	r2, #0
    1b7c:	715a      	strb	r2, [r3, #5]
    1b7e:	2206      	movs	r2, #6
    1b80:	4911      	ldr	r1, [pc, #68]	; (1bc8 <DHCP_init+0xb8>)
    1b82:	2009      	movs	r0, #9
    1b84:	f000 f8cc 	bl	1d20 <WIZCHIP_WRITE_BUF>
    1b88:	4a10      	ldr	r2, [pc, #64]	; (1bcc <DHCP_init+0xbc>)
    1b8a:	79fb      	ldrb	r3, [r7, #7]
    1b8c:	7013      	strb	r3, [r2, #0]
    1b8e:	4a10      	ldr	r2, [pc, #64]	; (1bd0 <DHCP_init+0xc0>)
    1b90:	683b      	ldr	r3, [r7, #0]
    1b92:	6013      	str	r3, [r2, #0]
    1b94:	4b0f      	ldr	r3, [pc, #60]	; (1bd4 <DHCP_init+0xc4>)
    1b96:	4a10      	ldr	r2, [pc, #64]	; (1bd8 <DHCP_init+0xc8>)
    1b98:	601a      	str	r2, [r3, #0]
    1b9a:	f107 030c 	add.w	r3, r7, #12
    1b9e:	2204      	movs	r2, #4
    1ba0:	4619      	mov	r1, r3
    1ba2:	200f      	movs	r0, #15
    1ba4:	f000 f8bc 	bl	1d20 <WIZCHIP_WRITE_BUF>
    1ba8:	f107 030c 	add.w	r3, r7, #12
    1bac:	2204      	movs	r2, #4
    1bae:	4619      	mov	r1, r3
    1bb0:	2001      	movs	r0, #1
    1bb2:	f000 f8b5 	bl	1d20 <WIZCHIP_WRITE_BUF>
    1bb6:	f000 f813 	bl	1be0 <reset_DHCP_timeout>
    1bba:	4b08      	ldr	r3, [pc, #32]	; (1bdc <DHCP_init+0xcc>)
    1bbc:	2200      	movs	r2, #0
    1bbe:	701a      	strb	r2, [r3, #0]
    1bc0:	bf00      	nop
    1bc2:	3710      	adds	r7, #16
    1bc4:	46bd      	mov	sp, r7
    1bc6:	bd80      	pop	{r7, pc}
    1bc8:	200000c0 	.word	0x200000c0
    1bcc:	20000ab4 	.word	0x20000ab4
    1bd0:	200000bc 	.word	0x200000bc
    1bd4:	200000b8 	.word	0x200000b8
    1bd8:	12345678 	.word	0x12345678
    1bdc:	20000ab5 	.word	0x20000ab5

00001be0 <reset_DHCP_timeout>:
    1be0:	b480      	push	{r7}
    1be2:	af00      	add	r7, sp, #0
    1be4:	4b06      	ldr	r3, [pc, #24]	; (1c00 <reset_DHCP_timeout+0x20>)
    1be6:	2200      	movs	r2, #0
    1be8:	601a      	str	r2, [r3, #0]
    1bea:	4b06      	ldr	r3, [pc, #24]	; (1c04 <reset_DHCP_timeout+0x24>)
    1bec:	220a      	movs	r2, #10
    1bee:	601a      	str	r2, [r3, #0]
    1bf0:	4b05      	ldr	r3, [pc, #20]	; (1c08 <reset_DHCP_timeout+0x28>)
    1bf2:	2200      	movs	r2, #0
    1bf4:	701a      	strb	r2, [r3, #0]
    1bf6:	bf00      	nop
    1bf8:	46bd      	mov	sp, r7
    1bfa:	f85d 7b04 	ldr.w	r7, [sp], #4
    1bfe:	4770      	bx	lr
    1c00:	200000b4 	.word	0x200000b4
    1c04:	20000004 	.word	0x20000004
    1c08:	20000ab6 	.word	0x20000ab6

00001c0c <DHCP_time_handler>:
    1c0c:	b480      	push	{r7}
    1c0e:	af00      	add	r7, sp, #0
    1c10:	4b04      	ldr	r3, [pc, #16]	; (1c24 <DHCP_time_handler+0x18>)
    1c12:	681b      	ldr	r3, [r3, #0]
    1c14:	3301      	adds	r3, #1
    1c16:	4a03      	ldr	r2, [pc, #12]	; (1c24 <DHCP_time_handler+0x18>)
    1c18:	6013      	str	r3, [r2, #0]
    1c1a:	bf00      	nop
    1c1c:	46bd      	mov	sp, r7
    1c1e:	f85d 7b04 	ldr.w	r7, [sp], #4
    1c22:	4770      	bx	lr
    1c24:	200000b4 	.word	0x200000b4

00001c28 <getIPfromDHCP>:
    1c28:	b480      	push	{r7}
    1c2a:	b083      	sub	sp, #12
    1c2c:	af00      	add	r7, sp, #0
    1c2e:	6078      	str	r0, [r7, #4]
    1c30:	4b0c      	ldr	r3, [pc, #48]	; (1c64 <getIPfromDHCP+0x3c>)
    1c32:	781a      	ldrb	r2, [r3, #0]
    1c34:	687b      	ldr	r3, [r7, #4]
    1c36:	701a      	strb	r2, [r3, #0]
    1c38:	687b      	ldr	r3, [r7, #4]
    1c3a:	3301      	adds	r3, #1
    1c3c:	4a09      	ldr	r2, [pc, #36]	; (1c64 <getIPfromDHCP+0x3c>)
    1c3e:	7852      	ldrb	r2, [r2, #1]
    1c40:	701a      	strb	r2, [r3, #0]
    1c42:	687b      	ldr	r3, [r7, #4]
    1c44:	3302      	adds	r3, #2
    1c46:	4a07      	ldr	r2, [pc, #28]	; (1c64 <getIPfromDHCP+0x3c>)
    1c48:	7892      	ldrb	r2, [r2, #2]
    1c4a:	701a      	strb	r2, [r3, #0]
    1c4c:	687b      	ldr	r3, [r7, #4]
    1c4e:	3303      	adds	r3, #3
    1c50:	4a04      	ldr	r2, [pc, #16]	; (1c64 <getIPfromDHCP+0x3c>)
    1c52:	78d2      	ldrb	r2, [r2, #3]
    1c54:	701a      	strb	r2, [r3, #0]
    1c56:	bf00      	nop
    1c58:	370c      	adds	r7, #12
    1c5a:	46bd      	mov	sp, r7
    1c5c:	f85d 7b04 	ldr.w	r7, [sp], #4
    1c60:	4770      	bx	lr
    1c62:	bf00      	nop
    1c64:	200000a4 	.word	0x200000a4

00001c68 <WIZCHIP_WRITE>:
    1c68:	b580      	push	{r7, lr}
    1c6a:	b082      	sub	sp, #8
    1c6c:	af00      	add	r7, sp, #0
    1c6e:	6078      	str	r0, [r7, #4]
    1c70:	460b      	mov	r3, r1
    1c72:	70fb      	strb	r3, [r7, #3]
    1c74:	4b12      	ldr	r3, [pc, #72]	; (1cc0 <WIZCHIP_WRITE+0x58>)
    1c76:	68db      	ldr	r3, [r3, #12]
    1c78:	4798      	blx	r3
    1c7a:	4b11      	ldr	r3, [pc, #68]	; (1cc0 <WIZCHIP_WRITE+0x58>)
    1c7c:	695b      	ldr	r3, [r3, #20]
    1c7e:	4798      	blx	r3
    1c80:	4b0f      	ldr	r3, [pc, #60]	; (1cc0 <WIZCHIP_WRITE+0x58>)
    1c82:	6a1b      	ldr	r3, [r3, #32]
    1c84:	20f0      	movs	r0, #240	; 0xf0
    1c86:	4798      	blx	r3
    1c88:	4b0d      	ldr	r3, [pc, #52]	; (1cc0 <WIZCHIP_WRITE+0x58>)
    1c8a:	6a1b      	ldr	r3, [r3, #32]
    1c8c:	687a      	ldr	r2, [r7, #4]
    1c8e:	0a12      	lsrs	r2, r2, #8
    1c90:	b2d2      	uxtb	r2, r2
    1c92:	4610      	mov	r0, r2
    1c94:	4798      	blx	r3
    1c96:	4b0a      	ldr	r3, [pc, #40]	; (1cc0 <WIZCHIP_WRITE+0x58>)
    1c98:	6a1b      	ldr	r3, [r3, #32]
    1c9a:	687a      	ldr	r2, [r7, #4]
    1c9c:	b2d2      	uxtb	r2, r2
    1c9e:	4610      	mov	r0, r2
    1ca0:	4798      	blx	r3
    1ca2:	4b07      	ldr	r3, [pc, #28]	; (1cc0 <WIZCHIP_WRITE+0x58>)
    1ca4:	6a1b      	ldr	r3, [r3, #32]
    1ca6:	78fa      	ldrb	r2, [r7, #3]
    1ca8:	4610      	mov	r0, r2
    1caa:	4798      	blx	r3
    1cac:	4b04      	ldr	r3, [pc, #16]	; (1cc0 <WIZCHIP_WRITE+0x58>)
    1cae:	699b      	ldr	r3, [r3, #24]
    1cb0:	4798      	blx	r3
    1cb2:	4b03      	ldr	r3, [pc, #12]	; (1cc0 <WIZCHIP_WRITE+0x58>)
    1cb4:	691b      	ldr	r3, [r3, #16]
    1cb6:	4798      	blx	r3
    1cb8:	bf00      	nop
    1cba:	3708      	adds	r7, #8
    1cbc:	46bd      	mov	sp, r7
    1cbe:	bd80      	pop	{r7, pc}
    1cc0:	2000001c 	.word	0x2000001c

00001cc4 <WIZCHIP_READ>:
    1cc4:	b580      	push	{r7, lr}
    1cc6:	b084      	sub	sp, #16
    1cc8:	af00      	add	r7, sp, #0
    1cca:	6078      	str	r0, [r7, #4]
    1ccc:	4b13      	ldr	r3, [pc, #76]	; (1d1c <WIZCHIP_READ+0x58>)
    1cce:	68db      	ldr	r3, [r3, #12]
    1cd0:	4798      	blx	r3
    1cd2:	4b12      	ldr	r3, [pc, #72]	; (1d1c <WIZCHIP_READ+0x58>)
    1cd4:	695b      	ldr	r3, [r3, #20]
    1cd6:	4798      	blx	r3
    1cd8:	4b10      	ldr	r3, [pc, #64]	; (1d1c <WIZCHIP_READ+0x58>)
    1cda:	6a1b      	ldr	r3, [r3, #32]
    1cdc:	200f      	movs	r0, #15
    1cde:	4798      	blx	r3
    1ce0:	4b0e      	ldr	r3, [pc, #56]	; (1d1c <WIZCHIP_READ+0x58>)
    1ce2:	6a1b      	ldr	r3, [r3, #32]
    1ce4:	687a      	ldr	r2, [r7, #4]
    1ce6:	0a12      	lsrs	r2, r2, #8
    1ce8:	b2d2      	uxtb	r2, r2
    1cea:	4610      	mov	r0, r2
    1cec:	4798      	blx	r3
    1cee:	4b0b      	ldr	r3, [pc, #44]	; (1d1c <WIZCHIP_READ+0x58>)
    1cf0:	6a1b      	ldr	r3, [r3, #32]
    1cf2:	687a      	ldr	r2, [r7, #4]
    1cf4:	b2d2      	uxtb	r2, r2
    1cf6:	4610      	mov	r0, r2
    1cf8:	4798      	blx	r3
    1cfa:	4b08      	ldr	r3, [pc, #32]	; (1d1c <WIZCHIP_READ+0x58>)
    1cfc:	69db      	ldr	r3, [r3, #28]
    1cfe:	4798      	blx	r3
    1d00:	4603      	mov	r3, r0
    1d02:	73fb      	strb	r3, [r7, #15]
    1d04:	4b05      	ldr	r3, [pc, #20]	; (1d1c <WIZCHIP_READ+0x58>)
    1d06:	699b      	ldr	r3, [r3, #24]
    1d08:	4798      	blx	r3
    1d0a:	4b04      	ldr	r3, [pc, #16]	; (1d1c <WIZCHIP_READ+0x58>)
    1d0c:	691b      	ldr	r3, [r3, #16]
    1d0e:	4798      	blx	r3
    1d10:	7bfb      	ldrb	r3, [r7, #15]
    1d12:	4618      	mov	r0, r3
    1d14:	3710      	adds	r7, #16
    1d16:	46bd      	mov	sp, r7
    1d18:	bd80      	pop	{r7, pc}
    1d1a:	bf00      	nop
    1d1c:	2000001c 	.word	0x2000001c

00001d20 <WIZCHIP_WRITE_BUF>:
    1d20:	b580      	push	{r7, lr}
    1d22:	b086      	sub	sp, #24
    1d24:	af00      	add	r7, sp, #0
    1d26:	60f8      	str	r0, [r7, #12]
    1d28:	60b9      	str	r1, [r7, #8]
    1d2a:	4613      	mov	r3, r2
    1d2c:	80fb      	strh	r3, [r7, #6]
    1d2e:	2300      	movs	r3, #0
    1d30:	82fb      	strh	r3, [r7, #22]
    1d32:	4b21      	ldr	r3, [pc, #132]	; (1db8 <WIZCHIP_WRITE_BUF+0x98>)
    1d34:	68db      	ldr	r3, [r3, #12]
    1d36:	4798      	blx	r3
    1d38:	4b1f      	ldr	r3, [pc, #124]	; (1db8 <WIZCHIP_WRITE_BUF+0x98>)
    1d3a:	695b      	ldr	r3, [r3, #20]
    1d3c:	4798      	blx	r3
    1d3e:	2300      	movs	r3, #0
    1d40:	82fb      	strh	r3, [r7, #22]
    1d42:	e02a      	b.n	1d9a <WIZCHIP_WRITE_BUF+0x7a>
    1d44:	4b1c      	ldr	r3, [pc, #112]	; (1db8 <WIZCHIP_WRITE_BUF+0x98>)
    1d46:	695b      	ldr	r3, [r3, #20]
    1d48:	4798      	blx	r3
    1d4a:	4b1b      	ldr	r3, [pc, #108]	; (1db8 <WIZCHIP_WRITE_BUF+0x98>)
    1d4c:	6a1b      	ldr	r3, [r3, #32]
    1d4e:	20f0      	movs	r0, #240	; 0xf0
    1d50:	4798      	blx	r3
    1d52:	4b19      	ldr	r3, [pc, #100]	; (1db8 <WIZCHIP_WRITE_BUF+0x98>)
    1d54:	6a1b      	ldr	r3, [r3, #32]
    1d56:	68fa      	ldr	r2, [r7, #12]
    1d58:	b291      	uxth	r1, r2
    1d5a:	8afa      	ldrh	r2, [r7, #22]
    1d5c:	440a      	add	r2, r1
    1d5e:	b292      	uxth	r2, r2
    1d60:	0a12      	lsrs	r2, r2, #8
    1d62:	b292      	uxth	r2, r2
    1d64:	b2d2      	uxtb	r2, r2
    1d66:	4610      	mov	r0, r2
    1d68:	4798      	blx	r3
    1d6a:	4b13      	ldr	r3, [pc, #76]	; (1db8 <WIZCHIP_WRITE_BUF+0x98>)
    1d6c:	6a1b      	ldr	r3, [r3, #32]
    1d6e:	68fa      	ldr	r2, [r7, #12]
    1d70:	b2d1      	uxtb	r1, r2
    1d72:	8afa      	ldrh	r2, [r7, #22]
    1d74:	b2d2      	uxtb	r2, r2
    1d76:	440a      	add	r2, r1
    1d78:	b2d2      	uxtb	r2, r2
    1d7a:	4610      	mov	r0, r2
    1d7c:	4798      	blx	r3
    1d7e:	4b0e      	ldr	r3, [pc, #56]	; (1db8 <WIZCHIP_WRITE_BUF+0x98>)
    1d80:	6a1b      	ldr	r3, [r3, #32]
    1d82:	8afa      	ldrh	r2, [r7, #22]
    1d84:	68b9      	ldr	r1, [r7, #8]
    1d86:	440a      	add	r2, r1
    1d88:	7812      	ldrb	r2, [r2, #0]
    1d8a:	4610      	mov	r0, r2
    1d8c:	4798      	blx	r3
    1d8e:	4b0a      	ldr	r3, [pc, #40]	; (1db8 <WIZCHIP_WRITE_BUF+0x98>)
    1d90:	699b      	ldr	r3, [r3, #24]
    1d92:	4798      	blx	r3
    1d94:	8afb      	ldrh	r3, [r7, #22]
    1d96:	3301      	adds	r3, #1
    1d98:	82fb      	strh	r3, [r7, #22]
    1d9a:	8afa      	ldrh	r2, [r7, #22]
    1d9c:	88fb      	ldrh	r3, [r7, #6]
    1d9e:	429a      	cmp	r2, r3
    1da0:	d3d0      	bcc.n	1d44 <WIZCHIP_WRITE_BUF+0x24>
    1da2:	4b05      	ldr	r3, [pc, #20]	; (1db8 <WIZCHIP_WRITE_BUF+0x98>)
    1da4:	699b      	ldr	r3, [r3, #24]
    1da6:	4798      	blx	r3
    1da8:	4b03      	ldr	r3, [pc, #12]	; (1db8 <WIZCHIP_WRITE_BUF+0x98>)
    1daa:	691b      	ldr	r3, [r3, #16]
    1dac:	4798      	blx	r3
    1dae:	bf00      	nop
    1db0:	3718      	adds	r7, #24
    1db2:	46bd      	mov	sp, r7
    1db4:	bd80      	pop	{r7, pc}
    1db6:	bf00      	nop
    1db8:	2000001c 	.word	0x2000001c

00001dbc <WIZCHIP_READ_BUF>:
    1dbc:	b590      	push	{r4, r7, lr}
    1dbe:	b087      	sub	sp, #28
    1dc0:	af00      	add	r7, sp, #0
    1dc2:	60f8      	str	r0, [r7, #12]
    1dc4:	60b9      	str	r1, [r7, #8]
    1dc6:	4613      	mov	r3, r2
    1dc8:	80fb      	strh	r3, [r7, #6]
    1dca:	2300      	movs	r3, #0
    1dcc:	82fb      	strh	r3, [r7, #22]
    1dce:	4b21      	ldr	r3, [pc, #132]	; (1e54 <WIZCHIP_READ_BUF+0x98>)
    1dd0:	68db      	ldr	r3, [r3, #12]
    1dd2:	4798      	blx	r3
    1dd4:	4b1f      	ldr	r3, [pc, #124]	; (1e54 <WIZCHIP_READ_BUF+0x98>)
    1dd6:	695b      	ldr	r3, [r3, #20]
    1dd8:	4798      	blx	r3
    1dda:	2300      	movs	r3, #0
    1ddc:	82fb      	strh	r3, [r7, #22]
    1dde:	e02a      	b.n	1e36 <WIZCHIP_READ_BUF+0x7a>
    1de0:	4b1c      	ldr	r3, [pc, #112]	; (1e54 <WIZCHIP_READ_BUF+0x98>)
    1de2:	695b      	ldr	r3, [r3, #20]
    1de4:	4798      	blx	r3
    1de6:	4b1b      	ldr	r3, [pc, #108]	; (1e54 <WIZCHIP_READ_BUF+0x98>)
    1de8:	6a1b      	ldr	r3, [r3, #32]
    1dea:	200f      	movs	r0, #15
    1dec:	4798      	blx	r3
    1dee:	4b19      	ldr	r3, [pc, #100]	; (1e54 <WIZCHIP_READ_BUF+0x98>)
    1df0:	6a1b      	ldr	r3, [r3, #32]
    1df2:	68fa      	ldr	r2, [r7, #12]
    1df4:	b291      	uxth	r1, r2
    1df6:	8afa      	ldrh	r2, [r7, #22]
    1df8:	440a      	add	r2, r1
    1dfa:	b292      	uxth	r2, r2
    1dfc:	0a12      	lsrs	r2, r2, #8
    1dfe:	b292      	uxth	r2, r2
    1e00:	b2d2      	uxtb	r2, r2
    1e02:	4610      	mov	r0, r2
    1e04:	4798      	blx	r3
    1e06:	4b13      	ldr	r3, [pc, #76]	; (1e54 <WIZCHIP_READ_BUF+0x98>)
    1e08:	6a1b      	ldr	r3, [r3, #32]
    1e0a:	68fa      	ldr	r2, [r7, #12]
    1e0c:	b2d1      	uxtb	r1, r2
    1e0e:	8afa      	ldrh	r2, [r7, #22]
    1e10:	b2d2      	uxtb	r2, r2
    1e12:	440a      	add	r2, r1
    1e14:	b2d2      	uxtb	r2, r2
    1e16:	4610      	mov	r0, r2
    1e18:	4798      	blx	r3
    1e1a:	4b0e      	ldr	r3, [pc, #56]	; (1e54 <WIZCHIP_READ_BUF+0x98>)
    1e1c:	69db      	ldr	r3, [r3, #28]
    1e1e:	8afa      	ldrh	r2, [r7, #22]
    1e20:	68b9      	ldr	r1, [r7, #8]
    1e22:	188c      	adds	r4, r1, r2
    1e24:	4798      	blx	r3
    1e26:	4603      	mov	r3, r0
    1e28:	7023      	strb	r3, [r4, #0]
    1e2a:	4b0a      	ldr	r3, [pc, #40]	; (1e54 <WIZCHIP_READ_BUF+0x98>)
    1e2c:	699b      	ldr	r3, [r3, #24]
    1e2e:	4798      	blx	r3
    1e30:	8afb      	ldrh	r3, [r7, #22]
    1e32:	3301      	adds	r3, #1
    1e34:	82fb      	strh	r3, [r7, #22]
    1e36:	8afa      	ldrh	r2, [r7, #22]
    1e38:	88fb      	ldrh	r3, [r7, #6]
    1e3a:	429a      	cmp	r2, r3
    1e3c:	d3d0      	bcc.n	1de0 <WIZCHIP_READ_BUF+0x24>
    1e3e:	4b05      	ldr	r3, [pc, #20]	; (1e54 <WIZCHIP_READ_BUF+0x98>)
    1e40:	699b      	ldr	r3, [r3, #24]
    1e42:	4798      	blx	r3
    1e44:	4b03      	ldr	r3, [pc, #12]	; (1e54 <WIZCHIP_READ_BUF+0x98>)
    1e46:	691b      	ldr	r3, [r3, #16]
    1e48:	4798      	blx	r3
    1e4a:	bf00      	nop
    1e4c:	371c      	adds	r7, #28
    1e4e:	46bd      	mov	sp, r7
    1e50:	bd90      	pop	{r4, r7, pc}
    1e52:	bf00      	nop
    1e54:	2000001c 	.word	0x2000001c

00001e58 <socket>:
    1e58:	b590      	push	{r4, r7, lr}
    1e5a:	b085      	sub	sp, #20
    1e5c:	af00      	add	r7, sp, #0
    1e5e:	4604      	mov	r4, r0
    1e60:	4608      	mov	r0, r1
    1e62:	4611      	mov	r1, r2
    1e64:	461a      	mov	r2, r3
    1e66:	4623      	mov	r3, r4
    1e68:	71fb      	strb	r3, [r7, #7]
    1e6a:	4603      	mov	r3, r0
    1e6c:	71bb      	strb	r3, [r7, #6]
    1e6e:	460b      	mov	r3, r1
    1e70:	80bb      	strh	r3, [r7, #4]
    1e72:	4613      	mov	r3, r2
    1e74:	70fb      	strb	r3, [r7, #3]
    1e76:	79fb      	ldrb	r3, [r7, #7]
    1e78:	2b04      	cmp	r3, #4
    1e7a:	d902      	bls.n	1e82 <socket+0x2a>
    1e7c:	f04f 33ff 	mov.w	r3, #4294967295
    1e80:	e0e2      	b.n	2048 <socket+0x1f0>
    1e82:	79bb      	ldrb	r3, [r7, #6]
    1e84:	3b01      	subs	r3, #1
    1e86:	2b04      	cmp	r3, #4
    1e88:	d819      	bhi.n	1ebe <socket+0x66>
    1e8a:	a201      	add	r2, pc, #4	; (adr r2, 1e90 <socket+0x38>)
    1e8c:	f852 f023 	ldr.w	pc, [r2, r3, lsl #2]
    1e90:	00001ea5 	.word	0x00001ea5
    1e94:	00001ec5 	.word	0x00001ec5
    1e98:	00001ec5 	.word	0x00001ec5
    1e9c:	00001ec5 	.word	0x00001ec5
    1ea0:	00001ec5 	.word	0x00001ec5
    1ea4:	f107 030c 	add.w	r3, r7, #12
    1ea8:	2204      	movs	r2, #4
    1eaa:	4619      	mov	r1, r3
    1eac:	200f      	movs	r0, #15
    1eae:	f7ff ff85 	bl	1dbc <WIZCHIP_READ_BUF>
    1eb2:	68fb      	ldr	r3, [r7, #12]
    1eb4:	2b00      	cmp	r3, #0
    1eb6:	d105      	bne.n	1ec4 <socket+0x6c>
    1eb8:	f06f 0302 	mvn.w	r3, #2
    1ebc:	e0c4      	b.n	2048 <socket+0x1f0>
    1ebe:	f06f 0304 	mvn.w	r3, #4
    1ec2:	e0c1      	b.n	2048 <socket+0x1f0>
    1ec4:	bf00      	nop
    1ec6:	78fb      	ldrb	r3, [r7, #3]
    1ec8:	f003 0304 	and.w	r3, r3, #4
    1ecc:	2b00      	cmp	r3, #0
    1ece:	d002      	beq.n	1ed6 <socket+0x7e>
    1ed0:	f06f 0305 	mvn.w	r3, #5
    1ed4:	e0b8      	b.n	2048 <socket+0x1f0>
    1ed6:	78fb      	ldrb	r3, [r7, #3]
    1ed8:	2b00      	cmp	r3, #0
    1eda:	d019      	beq.n	1f10 <socket+0xb8>
    1edc:	79bb      	ldrb	r3, [r7, #6]
    1ede:	2b01      	cmp	r3, #1
    1ee0:	d002      	beq.n	1ee8 <socket+0x90>
    1ee2:	2b02      	cmp	r3, #2
    1ee4:	d008      	beq.n	1ef8 <socket+0xa0>
    1ee6:	e018      	b.n	1f1a <socket+0xc2>
    1ee8:	78fb      	ldrb	r3, [r7, #3]
    1eea:	f003 0321 	and.w	r3, r3, #33	; 0x21
    1eee:	2b00      	cmp	r3, #0
    1ef0:	d110      	bne.n	1f14 <socket+0xbc>
    1ef2:	f06f 0305 	mvn.w	r3, #5
    1ef6:	e0a7      	b.n	2048 <socket+0x1f0>
    1ef8:	78fb      	ldrb	r3, [r7, #3]
    1efa:	f003 0320 	and.w	r3, r3, #32
    1efe:	2b00      	cmp	r3, #0
    1f00:	d00a      	beq.n	1f18 <socket+0xc0>
    1f02:	f997 3003 	ldrsb.w	r3, [r7, #3]
    1f06:	2b00      	cmp	r3, #0
    1f08:	db06      	blt.n	1f18 <socket+0xc0>
    1f0a:	f06f 0305 	mvn.w	r3, #5
    1f0e:	e09b      	b.n	2048 <socket+0x1f0>
    1f10:	bf00      	nop
    1f12:	e002      	b.n	1f1a <socket+0xc2>
    1f14:	bf00      	nop
    1f16:	e000      	b.n	1f1a <socket+0xc2>
    1f18:	bf00      	nop
    1f1a:	79fb      	ldrb	r3, [r7, #7]
    1f1c:	4618      	mov	r0, r3
    1f1e:	f000 f8a1 	bl	2064 <close>
    1f22:	79fb      	ldrb	r3, [r7, #7]
    1f24:	3304      	adds	r3, #4
    1f26:	021b      	lsls	r3, r3, #8
    1f28:	4618      	mov	r0, r3
    1f2a:	f997 3003 	ldrsb.w	r3, [r7, #3]
    1f2e:	f023 030f 	bic.w	r3, r3, #15
    1f32:	b25a      	sxtb	r2, r3
    1f34:	f997 3006 	ldrsb.w	r3, [r7, #6]
    1f38:	4313      	orrs	r3, r2
    1f3a:	b25b      	sxtb	r3, r3
    1f3c:	b2db      	uxtb	r3, r3
    1f3e:	4619      	mov	r1, r3
    1f40:	f7ff fe92 	bl	1c68 <WIZCHIP_WRITE>
    1f44:	88bb      	ldrh	r3, [r7, #4]
    1f46:	2b00      	cmp	r3, #0
    1f48:	d110      	bne.n	1f6c <socket+0x114>
    1f4a:	4b41      	ldr	r3, [pc, #260]	; (2050 <socket+0x1f8>)
    1f4c:	881b      	ldrh	r3, [r3, #0]
    1f4e:	1c5a      	adds	r2, r3, #1
    1f50:	b291      	uxth	r1, r2
    1f52:	4a3f      	ldr	r2, [pc, #252]	; (2050 <socket+0x1f8>)
    1f54:	8011      	strh	r1, [r2, #0]
    1f56:	80bb      	strh	r3, [r7, #4]
    1f58:	4b3d      	ldr	r3, [pc, #244]	; (2050 <socket+0x1f8>)
    1f5a:	881b      	ldrh	r3, [r3, #0]
    1f5c:	f64f 72f0 	movw	r2, #65520	; 0xfff0
    1f60:	4293      	cmp	r3, r2
    1f62:	d103      	bne.n	1f6c <socket+0x114>
    1f64:	4b3a      	ldr	r3, [pc, #232]	; (2050 <socket+0x1f8>)
    1f66:	f44f 4240 	mov.w	r2, #49152	; 0xc000
    1f6a:	801a      	strh	r2, [r3, #0]
    1f6c:	79fb      	ldrb	r3, [r7, #7]
    1f6e:	3304      	adds	r3, #4
    1f70:	021b      	lsls	r3, r3, #8
    1f72:	3304      	adds	r3, #4
    1f74:	461a      	mov	r2, r3
    1f76:	88bb      	ldrh	r3, [r7, #4]
    1f78:	0a1b      	lsrs	r3, r3, #8
    1f7a:	b29b      	uxth	r3, r3
    1f7c:	b2db      	uxtb	r3, r3
    1f7e:	4619      	mov	r1, r3
    1f80:	4610      	mov	r0, r2
    1f82:	f7ff fe71 	bl	1c68 <WIZCHIP_WRITE>
    1f86:	79fb      	ldrb	r3, [r7, #7]
    1f88:	3304      	adds	r3, #4
    1f8a:	021b      	lsls	r3, r3, #8
    1f8c:	3305      	adds	r3, #5
    1f8e:	461a      	mov	r2, r3
    1f90:	88bb      	ldrh	r3, [r7, #4]
    1f92:	b2db      	uxtb	r3, r3
    1f94:	4619      	mov	r1, r3
    1f96:	4610      	mov	r0, r2
    1f98:	f7ff fe66 	bl	1c68 <WIZCHIP_WRITE>
    1f9c:	79fb      	ldrb	r3, [r7, #7]
    1f9e:	3304      	adds	r3, #4
    1fa0:	021b      	lsls	r3, r3, #8
    1fa2:	3301      	adds	r3, #1
    1fa4:	2101      	movs	r1, #1
    1fa6:	4618      	mov	r0, r3
    1fa8:	f7ff fe5e 	bl	1c68 <WIZCHIP_WRITE>
    1fac:	bf00      	nop
    1fae:	79fb      	ldrb	r3, [r7, #7]
    1fb0:	3304      	adds	r3, #4
    1fb2:	021b      	lsls	r3, r3, #8
    1fb4:	3301      	adds	r3, #1
    1fb6:	4618      	mov	r0, r3
    1fb8:	f7ff fe84 	bl	1cc4 <WIZCHIP_READ>
    1fbc:	4603      	mov	r3, r0
    1fbe:	2b00      	cmp	r3, #0
    1fc0:	d1f5      	bne.n	1fae <socket+0x156>
    1fc2:	79fb      	ldrb	r3, [r7, #7]
    1fc4:	2201      	movs	r2, #1
    1fc6:	fa02 f303 	lsl.w	r3, r2, r3
    1fca:	b21b      	sxth	r3, r3
    1fcc:	43db      	mvns	r3, r3
    1fce:	b21a      	sxth	r2, r3
    1fd0:	4b20      	ldr	r3, [pc, #128]	; (2054 <socket+0x1fc>)
    1fd2:	881b      	ldrh	r3, [r3, #0]
    1fd4:	b21b      	sxth	r3, r3
    1fd6:	4013      	ands	r3, r2
    1fd8:	b21b      	sxth	r3, r3
    1fda:	b29a      	uxth	r2, r3
    1fdc:	4b1d      	ldr	r3, [pc, #116]	; (2054 <socket+0x1fc>)
    1fde:	801a      	strh	r2, [r3, #0]
    1fe0:	78fb      	ldrb	r3, [r7, #3]
    1fe2:	f003 0201 	and.w	r2, r3, #1
    1fe6:	79fb      	ldrb	r3, [r7, #7]
    1fe8:	fa02 f303 	lsl.w	r3, r2, r3
    1fec:	b21a      	sxth	r2, r3
    1fee:	4b19      	ldr	r3, [pc, #100]	; (2054 <socket+0x1fc>)
    1ff0:	881b      	ldrh	r3, [r3, #0]
    1ff2:	b21b      	sxth	r3, r3
    1ff4:	4313      	orrs	r3, r2
    1ff6:	b21b      	sxth	r3, r3
    1ff8:	b29a      	uxth	r2, r3
    1ffa:	4b16      	ldr	r3, [pc, #88]	; (2054 <socket+0x1fc>)
    1ffc:	801a      	strh	r2, [r3, #0]
    1ffe:	79fb      	ldrb	r3, [r7, #7]
    2000:	2201      	movs	r2, #1
    2002:	fa02 f303 	lsl.w	r3, r2, r3
    2006:	b21b      	sxth	r3, r3
    2008:	43db      	mvns	r3, r3
    200a:	b21a      	sxth	r2, r3
    200c:	4b12      	ldr	r3, [pc, #72]	; (2058 <socket+0x200>)
    200e:	881b      	ldrh	r3, [r3, #0]
    2010:	b21b      	sxth	r3, r3
    2012:	4013      	ands	r3, r2
    2014:	b21b      	sxth	r3, r3
    2016:	b29a      	uxth	r2, r3
    2018:	4b0f      	ldr	r3, [pc, #60]	; (2058 <socket+0x200>)
    201a:	801a      	strh	r2, [r3, #0]
    201c:	79fb      	ldrb	r3, [r7, #7]
    201e:	4a0f      	ldr	r2, [pc, #60]	; (205c <socket+0x204>)
    2020:	2100      	movs	r1, #0
    2022:	f822 1013 	strh.w	r1, [r2, r3, lsl #1]
    2026:	79fb      	ldrb	r3, [r7, #7]
    2028:	4a0d      	ldr	r2, [pc, #52]	; (2060 <socket+0x208>)
    202a:	2100      	movs	r1, #0
    202c:	54d1      	strb	r1, [r2, r3]
    202e:	bf00      	nop
    2030:	79fb      	ldrb	r3, [r7, #7]
    2032:	3304      	adds	r3, #4
    2034:	021b      	lsls	r3, r3, #8
    2036:	3303      	adds	r3, #3
    2038:	4618      	mov	r0, r3
    203a:	f7ff fe43 	bl	1cc4 <WIZCHIP_READ>
    203e:	4603      	mov	r3, r0
    2040:	2b00      	cmp	r3, #0
    2042:	d0f5      	beq.n	2030 <socket+0x1d8>
    2044:	f997 3007 	ldrsb.w	r3, [r7, #7]
    2048:	4618      	mov	r0, r3
    204a:	3714      	adds	r7, #20
    204c:	46bd      	mov	sp, r7
    204e:	bd90      	pop	{r4, r7, pc}
    2050:	20000078 	.word	0x20000078
    2054:	20000ab0 	.word	0x20000ab0
    2058:	20000ab2 	.word	0x20000ab2
    205c:	200000c8 	.word	0x200000c8
    2060:	200000d0 	.word	0x200000d0

00002064 <close>:
    2064:	b580      	push	{r7, lr}
    2066:	b082      	sub	sp, #8
    2068:	af00      	add	r7, sp, #0
    206a:	4603      	mov	r3, r0
    206c:	71fb      	strb	r3, [r7, #7]
    206e:	79fb      	ldrb	r3, [r7, #7]
    2070:	2b04      	cmp	r3, #4
    2072:	d902      	bls.n	207a <close+0x16>
    2074:	f04f 33ff 	mov.w	r3, #4294967295
    2078:	e04d      	b.n	2116 <close+0xb2>
    207a:	79fb      	ldrb	r3, [r7, #7]
    207c:	3304      	adds	r3, #4
    207e:	021b      	lsls	r3, r3, #8
    2080:	3301      	adds	r3, #1
    2082:	2110      	movs	r1, #16
    2084:	4618      	mov	r0, r3
    2086:	f7ff fdef 	bl	1c68 <WIZCHIP_WRITE>
    208a:	bf00      	nop
    208c:	79fb      	ldrb	r3, [r7, #7]
    208e:	3304      	adds	r3, #4
    2090:	021b      	lsls	r3, r3, #8
    2092:	3301      	adds	r3, #1
    2094:	4618      	mov	r0, r3
    2096:	f7ff fe15 	bl	1cc4 <WIZCHIP_READ>
    209a:	4603      	mov	r3, r0
    209c:	2b00      	cmp	r3, #0
    209e:	d1f5      	bne.n	208c <close+0x28>
    20a0:	79fb      	ldrb	r3, [r7, #7]
    20a2:	3304      	adds	r3, #4
    20a4:	021b      	lsls	r3, r3, #8
    20a6:	3302      	adds	r3, #2
    20a8:	21ff      	movs	r1, #255	; 0xff
    20aa:	4618      	mov	r0, r3
    20ac:	f7ff fddc 	bl	1c68 <WIZCHIP_WRITE>
    20b0:	79fb      	ldrb	r3, [r7, #7]
    20b2:	2201      	movs	r2, #1
    20b4:	fa02 f303 	lsl.w	r3, r2, r3
    20b8:	b21b      	sxth	r3, r3
    20ba:	43db      	mvns	r3, r3
    20bc:	b21a      	sxth	r2, r3
    20be:	4b18      	ldr	r3, [pc, #96]	; (2120 <close+0xbc>)
    20c0:	881b      	ldrh	r3, [r3, #0]
    20c2:	b21b      	sxth	r3, r3
    20c4:	4013      	ands	r3, r2
    20c6:	b21b      	sxth	r3, r3
    20c8:	b29a      	uxth	r2, r3
    20ca:	4b15      	ldr	r3, [pc, #84]	; (2120 <close+0xbc>)
    20cc:	801a      	strh	r2, [r3, #0]
    20ce:	79fb      	ldrb	r3, [r7, #7]
    20d0:	2201      	movs	r2, #1
    20d2:	fa02 f303 	lsl.w	r3, r2, r3
    20d6:	b21b      	sxth	r3, r3
    20d8:	43db      	mvns	r3, r3
    20da:	b21a      	sxth	r2, r3
    20dc:	4b11      	ldr	r3, [pc, #68]	; (2124 <close+0xc0>)
    20de:	881b      	ldrh	r3, [r3, #0]
    20e0:	b21b      	sxth	r3, r3
    20e2:	4013      	ands	r3, r2
    20e4:	b21b      	sxth	r3, r3
    20e6:	b29a      	uxth	r2, r3
    20e8:	4b0e      	ldr	r3, [pc, #56]	; (2124 <close+0xc0>)
    20ea:	801a      	strh	r2, [r3, #0]
    20ec:	79fb      	ldrb	r3, [r7, #7]
    20ee:	4a0e      	ldr	r2, [pc, #56]	; (2128 <close+0xc4>)
    20f0:	2100      	movs	r1, #0
    20f2:	f822 1013 	strh.w	r1, [r2, r3, lsl #1]
    20f6:	79fb      	ldrb	r3, [r7, #7]
    20f8:	4a0c      	ldr	r2, [pc, #48]	; (212c <close+0xc8>)
    20fa:	2100      	movs	r1, #0
    20fc:	54d1      	strb	r1, [r2, r3]
    20fe:	bf00      	nop
    2100:	79fb      	ldrb	r3, [r7, #7]
    2102:	3304      	adds	r3, #4
    2104:	021b      	lsls	r3, r3, #8
    2106:	3303      	adds	r3, #3
    2108:	4618      	mov	r0, r3
    210a:	f7ff fddb 	bl	1cc4 <WIZCHIP_READ>
    210e:	4603      	mov	r3, r0
    2110:	2b00      	cmp	r3, #0
    2112:	d1f5      	bne.n	2100 <close+0x9c>
    2114:	2301      	movs	r3, #1
    2116:	4618      	mov	r0, r3
    2118:	3708      	adds	r7, #8
    211a:	46bd      	mov	sp, r7
    211c:	bd80      	pop	{r7, pc}
    211e:	bf00      	nop
    2120:	20000ab0 	.word	0x20000ab0
    2124:	20000ab2 	.word	0x20000ab2
    2128:	200000c8 	.word	0x200000c8
    212c:	200000d0 	.word	0x200000d0

00002130 <sendto>:
    2130:	b580      	push	{r7, lr}
    2132:	b086      	sub	sp, #24
    2134:	af00      	add	r7, sp, #0
    2136:	60b9      	str	r1, [r7, #8]
    2138:	607b      	str	r3, [r7, #4]
    213a:	4603      	mov	r3, r0
    213c:	73fb      	strb	r3, [r7, #15]
    213e:	4613      	mov	r3, r2
    2140:	81bb      	strh	r3, [r7, #12]
    2142:	2300      	movs	r3, #0
    2144:	75fb      	strb	r3, [r7, #23]
    2146:	2300      	movs	r3, #0
    2148:	82bb      	strh	r3, [r7, #20]
    214a:	7bfb      	ldrb	r3, [r7, #15]
    214c:	2b04      	cmp	r3, #4
    214e:	d902      	bls.n	2156 <sendto+0x26>
    2150:	f04f 33ff 	mov.w	r3, #4294967295
    2154:	e139      	b.n	23ca <sendto+0x29a>
    2156:	7bfb      	ldrb	r3, [r7, #15]
    2158:	3304      	adds	r3, #4
    215a:	021b      	lsls	r3, r3, #8
    215c:	4618      	mov	r0, r3
    215e:	f7ff fdb1 	bl	1cc4 <WIZCHIP_READ>
    2162:	4603      	mov	r3, r0
    2164:	f003 030f 	and.w	r3, r3, #15
    2168:	3b02      	subs	r3, #2
    216a:	2b02      	cmp	r3, #2
    216c:	d902      	bls.n	2174 <sendto+0x44>
    216e:	f06f 0304 	mvn.w	r3, #4
    2172:	e12a      	b.n	23ca <sendto+0x29a>
    2174:	bf00      	nop
    2176:	89bb      	ldrh	r3, [r7, #12]
    2178:	2b00      	cmp	r3, #0
    217a:	d102      	bne.n	2182 <sendto+0x52>
    217c:	f06f 030d 	mvn.w	r3, #13
    2180:	e123      	b.n	23ca <sendto+0x29a>
    2182:	687b      	ldr	r3, [r7, #4]
    2184:	781b      	ldrb	r3, [r3, #0]
    2186:	613b      	str	r3, [r7, #16]
    2188:	693b      	ldr	r3, [r7, #16]
    218a:	021b      	lsls	r3, r3, #8
    218c:	687a      	ldr	r2, [r7, #4]
    218e:	3201      	adds	r2, #1
    2190:	7812      	ldrb	r2, [r2, #0]
    2192:	4413      	add	r3, r2
    2194:	613b      	str	r3, [r7, #16]
    2196:	693b      	ldr	r3, [r7, #16]
    2198:	021b      	lsls	r3, r3, #8
    219a:	687a      	ldr	r2, [r7, #4]
    219c:	3202      	adds	r2, #2
    219e:	7812      	ldrb	r2, [r2, #0]
    21a0:	4413      	add	r3, r2
    21a2:	613b      	str	r3, [r7, #16]
    21a4:	693b      	ldr	r3, [r7, #16]
    21a6:	021b      	lsls	r3, r3, #8
    21a8:	687a      	ldr	r2, [r7, #4]
    21aa:	3203      	adds	r2, #3
    21ac:	7812      	ldrb	r2, [r2, #0]
    21ae:	4413      	add	r3, r2
    21b0:	613b      	str	r3, [r7, #16]
    21b2:	693b      	ldr	r3, [r7, #16]
    21b4:	2b00      	cmp	r3, #0
    21b6:	d10d      	bne.n	21d4 <sendto+0xa4>
    21b8:	7bfb      	ldrb	r3, [r7, #15]
    21ba:	3304      	adds	r3, #4
    21bc:	021b      	lsls	r3, r3, #8
    21be:	4618      	mov	r0, r3
    21c0:	f7ff fd80 	bl	1cc4 <WIZCHIP_READ>
    21c4:	4603      	mov	r3, r0
    21c6:	f003 0304 	and.w	r3, r3, #4
    21ca:	2b04      	cmp	r3, #4
    21cc:	d002      	beq.n	21d4 <sendto+0xa4>
    21ce:	f06f 030b 	mvn.w	r3, #11
    21d2:	e0fa      	b.n	23ca <sendto+0x29a>
    21d4:	8c3b      	ldrh	r3, [r7, #32]
    21d6:	2b00      	cmp	r3, #0
    21d8:	d10d      	bne.n	21f6 <sendto+0xc6>
    21da:	7bfb      	ldrb	r3, [r7, #15]
    21dc:	3304      	adds	r3, #4
    21de:	021b      	lsls	r3, r3, #8
    21e0:	4618      	mov	r0, r3
    21e2:	f7ff fd6f 	bl	1cc4 <WIZCHIP_READ>
    21e6:	4603      	mov	r3, r0
    21e8:	f003 0304 	and.w	r3, r3, #4
    21ec:	2b04      	cmp	r3, #4
    21ee:	d002      	beq.n	21f6 <sendto+0xc6>
    21f0:	f06f 030a 	mvn.w	r3, #10
    21f4:	e0e9      	b.n	23ca <sendto+0x29a>
    21f6:	7bfb      	ldrb	r3, [r7, #15]
    21f8:	3304      	adds	r3, #4
    21fa:	021b      	lsls	r3, r3, #8
    21fc:	3303      	adds	r3, #3
    21fe:	4618      	mov	r0, r3
    2200:	f7ff fd60 	bl	1cc4 <WIZCHIP_READ>
    2204:	4603      	mov	r3, r0
    2206:	75fb      	strb	r3, [r7, #23]
    2208:	7dfb      	ldrb	r3, [r7, #23]
    220a:	2b42      	cmp	r3, #66	; 0x42
    220c:	d008      	beq.n	2220 <sendto+0xf0>
    220e:	7dfb      	ldrb	r3, [r7, #23]
    2210:	2b22      	cmp	r3, #34	; 0x22
    2212:	d005      	beq.n	2220 <sendto+0xf0>
    2214:	7dfb      	ldrb	r3, [r7, #23]
    2216:	2b32      	cmp	r3, #50	; 0x32
    2218:	d002      	beq.n	2220 <sendto+0xf0>
    221a:	f06f 0306 	mvn.w	r3, #6
    221e:	e0d4      	b.n	23ca <sendto+0x29a>
    2220:	7bfb      	ldrb	r3, [r7, #15]
    2222:	3304      	adds	r3, #4
    2224:	021b      	lsls	r3, r3, #8
    2226:	330c      	adds	r3, #12
    2228:	2204      	movs	r2, #4
    222a:	6879      	ldr	r1, [r7, #4]
    222c:	4618      	mov	r0, r3
    222e:	f7ff fd77 	bl	1d20 <WIZCHIP_WRITE_BUF>
    2232:	7bfb      	ldrb	r3, [r7, #15]
    2234:	3304      	adds	r3, #4
    2236:	021b      	lsls	r3, r3, #8
    2238:	3310      	adds	r3, #16
    223a:	461a      	mov	r2, r3
    223c:	8c3b      	ldrh	r3, [r7, #32]
    223e:	0a1b      	lsrs	r3, r3, #8
    2240:	b29b      	uxth	r3, r3
    2242:	b2db      	uxtb	r3, r3
    2244:	4619      	mov	r1, r3
    2246:	4610      	mov	r0, r2
    2248:	f7ff fd0e 	bl	1c68 <WIZCHIP_WRITE>
    224c:	7bfb      	ldrb	r3, [r7, #15]
    224e:	3304      	adds	r3, #4
    2250:	021b      	lsls	r3, r3, #8
    2252:	3311      	adds	r3, #17
    2254:	461a      	mov	r2, r3
    2256:	8c3b      	ldrh	r3, [r7, #32]
    2258:	b2db      	uxtb	r3, r3
    225a:	4619      	mov	r1, r3
    225c:	4610      	mov	r0, r2
    225e:	f7ff fd03 	bl	1c68 <WIZCHIP_WRITE>
    2262:	201b      	movs	r0, #27
    2264:	f7ff fd2e 	bl	1cc4 <WIZCHIP_READ>
    2268:	4603      	mov	r3, r0
    226a:	4619      	mov	r1, r3
    226c:	7bfb      	ldrb	r3, [r7, #15]
    226e:	005b      	lsls	r3, r3, #1
    2270:	2203      	movs	r2, #3
    2272:	fa02 f303 	lsl.w	r3, r2, r3
    2276:	ea01 0203 	and.w	r2, r1, r3
    227a:	7bfb      	ldrb	r3, [r7, #15]
    227c:	005b      	lsls	r3, r3, #1
    227e:	fa42 f303 	asr.w	r3, r2, r3
    2282:	2201      	movs	r2, #1
    2284:	fa02 f303 	lsl.w	r3, r2, r3
    2288:	b29b      	uxth	r3, r3
    228a:	029b      	lsls	r3, r3, #10
    228c:	82bb      	strh	r3, [r7, #20]
    228e:	89ba      	ldrh	r2, [r7, #12]
    2290:	8abb      	ldrh	r3, [r7, #20]
    2292:	429a      	cmp	r2, r3
    2294:	d901      	bls.n	229a <sendto+0x16a>
    2296:	8abb      	ldrh	r3, [r7, #20]
    2298:	81bb      	strh	r3, [r7, #12]
    229a:	7bfb      	ldrb	r3, [r7, #15]
    229c:	4618      	mov	r0, r3
    229e:	f006 fa88 	bl	87b2 <getSn_TX_FSR>
    22a2:	4603      	mov	r3, r0
    22a4:	82bb      	strh	r3, [r7, #20]
    22a6:	7bfb      	ldrb	r3, [r7, #15]
    22a8:	3304      	adds	r3, #4
    22aa:	021b      	lsls	r3, r3, #8
    22ac:	3303      	adds	r3, #3
    22ae:	4618      	mov	r0, r3
    22b0:	f7ff fd08 	bl	1cc4 <WIZCHIP_READ>
    22b4:	4603      	mov	r3, r0
    22b6:	2b00      	cmp	r3, #0
    22b8:	d102      	bne.n	22c0 <sendto+0x190>
    22ba:	f06f 0303 	mvn.w	r3, #3
    22be:	e084      	b.n	23ca <sendto+0x29a>
    22c0:	4b44      	ldr	r3, [pc, #272]	; (23d4 <sendto+0x2a4>)
    22c2:	881b      	ldrh	r3, [r3, #0]
    22c4:	461a      	mov	r2, r3
    22c6:	7bfb      	ldrb	r3, [r7, #15]
    22c8:	fa42 f303 	asr.w	r3, r2, r3
    22cc:	f003 0301 	and.w	r3, r3, #1
    22d0:	2b00      	cmp	r3, #0
    22d2:	d005      	beq.n	22e0 <sendto+0x1b0>
    22d4:	89ba      	ldrh	r2, [r7, #12]
    22d6:	8abb      	ldrh	r3, [r7, #20]
    22d8:	429a      	cmp	r2, r3
    22da:	d901      	bls.n	22e0 <sendto+0x1b0>
    22dc:	2300      	movs	r3, #0
    22de:	e074      	b.n	23ca <sendto+0x29a>
    22e0:	89ba      	ldrh	r2, [r7, #12]
    22e2:	8abb      	ldrh	r3, [r7, #20]
    22e4:	429a      	cmp	r2, r3
    22e6:	d900      	bls.n	22ea <sendto+0x1ba>
    22e8:	e7d7      	b.n	229a <sendto+0x16a>
    22ea:	bf00      	nop
    22ec:	89ba      	ldrh	r2, [r7, #12]
    22ee:	7bfb      	ldrb	r3, [r7, #15]
    22f0:	68b9      	ldr	r1, [r7, #8]
    22f2:	4618      	mov	r0, r3
    22f4:	f006 fb4f 	bl	8996 <wiz_send_data>
    22f8:	f107 0310 	add.w	r3, r7, #16
    22fc:	2204      	movs	r2, #4
    22fe:	4619      	mov	r1, r3
    2300:	200f      	movs	r0, #15
    2302:	f7ff fd5b 	bl	1dbc <WIZCHIP_READ_BUF>
    2306:	693b      	ldr	r3, [r7, #16]
    2308:	2b00      	cmp	r3, #0
    230a:	d10c      	bne.n	2326 <sendto+0x1f6>
    230c:	f107 0310 	add.w	r3, r7, #16
    2310:	2204      	movs	r2, #4
    2312:	4619      	mov	r1, r3
    2314:	2005      	movs	r0, #5
    2316:	f7ff fd51 	bl	1dbc <WIZCHIP_READ_BUF>
    231a:	2204      	movs	r2, #4
    231c:	492e      	ldr	r1, [pc, #184]	; (23d8 <sendto+0x2a8>)
    231e:	2005      	movs	r0, #5
    2320:	f7ff fcfe 	bl	1d20 <WIZCHIP_WRITE_BUF>
    2324:	e001      	b.n	232a <sendto+0x1fa>
    2326:	2300      	movs	r3, #0
    2328:	613b      	str	r3, [r7, #16]
    232a:	7bfb      	ldrb	r3, [r7, #15]
    232c:	3304      	adds	r3, #4
    232e:	021b      	lsls	r3, r3, #8
    2330:	3301      	adds	r3, #1
    2332:	2120      	movs	r1, #32
    2334:	4618      	mov	r0, r3
    2336:	f7ff fc97 	bl	1c68 <WIZCHIP_WRITE>
    233a:	bf00      	nop
    233c:	7bfb      	ldrb	r3, [r7, #15]
    233e:	3304      	adds	r3, #4
    2340:	021b      	lsls	r3, r3, #8
    2342:	3301      	adds	r3, #1
    2344:	4618      	mov	r0, r3
    2346:	f7ff fcbd 	bl	1cc4 <WIZCHIP_READ>
    234a:	4603      	mov	r3, r0
    234c:	2b00      	cmp	r3, #0
    234e:	d1f5      	bne.n	233c <sendto+0x20c>
    2350:	7bfb      	ldrb	r3, [r7, #15]
    2352:	3304      	adds	r3, #4
    2354:	021b      	lsls	r3, r3, #8
    2356:	3302      	adds	r3, #2
    2358:	4618      	mov	r0, r3
    235a:	f7ff fcb3 	bl	1cc4 <WIZCHIP_READ>
    235e:	4603      	mov	r3, r0
    2360:	75fb      	strb	r3, [r7, #23]
    2362:	7dfb      	ldrb	r3, [r7, #23]
    2364:	f003 0310 	and.w	r3, r3, #16
    2368:	2b00      	cmp	r3, #0
    236a:	d00c      	beq.n	2386 <sendto+0x256>
    236c:	7bfb      	ldrb	r3, [r7, #15]
    236e:	3304      	adds	r3, #4
    2370:	021b      	lsls	r3, r3, #8
    2372:	3302      	adds	r3, #2
    2374:	2110      	movs	r1, #16
    2376:	4618      	mov	r0, r3
    2378:	f7ff fc76 	bl	1c68 <WIZCHIP_WRITE>
    237c:	bf00      	nop
    237e:	693b      	ldr	r3, [r7, #16]
    2380:	2b00      	cmp	r3, #0
    2382:	d021      	beq.n	23c8 <sendto+0x298>
    2384:	e019      	b.n	23ba <sendto+0x28a>
    2386:	7dfb      	ldrb	r3, [r7, #23]
    2388:	f003 0308 	and.w	r3, r3, #8
    238c:	2b00      	cmp	r3, #0
    238e:	d0df      	beq.n	2350 <sendto+0x220>
    2390:	7bfb      	ldrb	r3, [r7, #15]
    2392:	3304      	adds	r3, #4
    2394:	021b      	lsls	r3, r3, #8
    2396:	3302      	adds	r3, #2
    2398:	2108      	movs	r1, #8
    239a:	4618      	mov	r0, r3
    239c:	f7ff fc64 	bl	1c68 <WIZCHIP_WRITE>
    23a0:	693b      	ldr	r3, [r7, #16]
    23a2:	2b00      	cmp	r3, #0
    23a4:	d006      	beq.n	23b4 <sendto+0x284>
    23a6:	f107 0310 	add.w	r3, r7, #16
    23aa:	2204      	movs	r2, #4
    23ac:	4619      	mov	r1, r3
    23ae:	2005      	movs	r0, #5
    23b0:	f7ff fcb6 	bl	1d20 <WIZCHIP_WRITE_BUF>
    23b4:	f06f 030c 	mvn.w	r3, #12
    23b8:	e007      	b.n	23ca <sendto+0x29a>
    23ba:	f107 0310 	add.w	r3, r7, #16
    23be:	2204      	movs	r2, #4
    23c0:	4619      	mov	r1, r3
    23c2:	2005      	movs	r0, #5
    23c4:	f7ff fcac 	bl	1d20 <WIZCHIP_WRITE_BUF>
    23c8:	89bb      	ldrh	r3, [r7, #12]
    23ca:	4618      	mov	r0, r3
    23cc:	3718      	adds	r7, #24
    23ce:	46bd      	mov	sp, r7
    23d0:	bd80      	pop	{r7, pc}
    23d2:	bf00      	nop
    23d4:	20000ab0 	.word	0x20000ab0
    23d8:	0000a874 	.word	0x0000a874

000023dc <recvfrom>:
    23dc:	b580      	push	{r7, lr}
    23de:	b088      	sub	sp, #32
    23e0:	af00      	add	r7, sp, #0
    23e2:	60b9      	str	r1, [r7, #8]
    23e4:	607b      	str	r3, [r7, #4]
    23e6:	4603      	mov	r3, r0
    23e8:	73fb      	strb	r3, [r7, #15]
    23ea:	4613      	mov	r3, r2
    23ec:	81bb      	strh	r3, [r7, #12]
    23ee:	2300      	movs	r3, #0
    23f0:	83fb      	strh	r3, [r7, #30]
    23f2:	7bfb      	ldrb	r3, [r7, #15]
    23f4:	2b04      	cmp	r3, #4
    23f6:	d902      	bls.n	23fe <recvfrom+0x22>
    23f8:	f04f 33ff 	mov.w	r3, #4294967295
    23fc:	e1c3      	b.n	2786 <recvfrom+0x3aa>
    23fe:	7bfb      	ldrb	r3, [r7, #15]
    2400:	3304      	adds	r3, #4
    2402:	021b      	lsls	r3, r3, #8
    2404:	4618      	mov	r0, r3
    2406:	f7ff fc5d 	bl	1cc4 <WIZCHIP_READ>
    240a:	4603      	mov	r3, r0
    240c:	777b      	strb	r3, [r7, #29]
    240e:	7f7b      	ldrb	r3, [r7, #29]
    2410:	f003 030f 	and.w	r3, r3, #15
    2414:	2b02      	cmp	r3, #2
    2416:	db03      	blt.n	2420 <recvfrom+0x44>
    2418:	2b04      	cmp	r3, #4
    241a:	dd04      	ble.n	2426 <recvfrom+0x4a>
    241c:	2b05      	cmp	r3, #5
    241e:	d004      	beq.n	242a <recvfrom+0x4e>
    2420:	f06f 0304 	mvn.w	r3, #4
    2424:	e1af      	b.n	2786 <recvfrom+0x3aa>
    2426:	bf00      	nop
    2428:	e000      	b.n	242c <recvfrom+0x50>
    242a:	bf00      	nop
    242c:	89bb      	ldrh	r3, [r7, #12]
    242e:	2b00      	cmp	r3, #0
    2430:	d102      	bne.n	2438 <recvfrom+0x5c>
    2432:	f06f 030d 	mvn.w	r3, #13
    2436:	e1a6      	b.n	2786 <recvfrom+0x3aa>
    2438:	7bfb      	ldrb	r3, [r7, #15]
    243a:	4aaa      	ldr	r2, [pc, #680]	; (26e4 <recvfrom+0x308>)
    243c:	f832 3013 	ldrh.w	r3, [r2, r3, lsl #1]
    2440:	2b00      	cmp	r3, #0
    2442:	d126      	bne.n	2492 <recvfrom+0xb6>
    2444:	7bfb      	ldrb	r3, [r7, #15]
    2446:	4618      	mov	r0, r3
    2448:	f006 f9f6 	bl	8838 <getSn_RX_RSR>
    244c:	4603      	mov	r3, r0
    244e:	83fb      	strh	r3, [r7, #30]
    2450:	7bfb      	ldrb	r3, [r7, #15]
    2452:	3304      	adds	r3, #4
    2454:	021b      	lsls	r3, r3, #8
    2456:	3303      	adds	r3, #3
    2458:	4618      	mov	r0, r3
    245a:	f7ff fc33 	bl	1cc4 <WIZCHIP_READ>
    245e:	4603      	mov	r3, r0
    2460:	2b00      	cmp	r3, #0
    2462:	d102      	bne.n	246a <recvfrom+0x8e>
    2464:	f06f 0303 	mvn.w	r3, #3
    2468:	e18d      	b.n	2786 <recvfrom+0x3aa>
    246a:	4b9f      	ldr	r3, [pc, #636]	; (26e8 <recvfrom+0x30c>)
    246c:	881b      	ldrh	r3, [r3, #0]
    246e:	461a      	mov	r2, r3
    2470:	7bfb      	ldrb	r3, [r7, #15]
    2472:	fa42 f303 	asr.w	r3, r2, r3
    2476:	f003 0301 	and.w	r3, r3, #1
    247a:	2b00      	cmp	r3, #0
    247c:	d004      	beq.n	2488 <recvfrom+0xac>
    247e:	8bfb      	ldrh	r3, [r7, #30]
    2480:	2b00      	cmp	r3, #0
    2482:	d101      	bne.n	2488 <recvfrom+0xac>
    2484:	2300      	movs	r3, #0
    2486:	e17e      	b.n	2786 <recvfrom+0x3aa>
    2488:	8bfb      	ldrh	r3, [r7, #30]
    248a:	2b00      	cmp	r3, #0
    248c:	d100      	bne.n	2490 <recvfrom+0xb4>
    248e:	e7d9      	b.n	2444 <recvfrom+0x68>
    2490:	bf00      	nop
    2492:	7f7b      	ldrb	r3, [r7, #29]
    2494:	f003 0307 	and.w	r3, r3, #7
    2498:	2b03      	cmp	r3, #3
    249a:	f000 80d1 	beq.w	2640 <recvfrom+0x264>
    249e:	2b04      	cmp	r3, #4
    24a0:	d06f      	beq.n	2582 <recvfrom+0x1a6>
    24a2:	2b02      	cmp	r3, #2
    24a4:	f040 8130 	bne.w	2708 <recvfrom+0x32c>
    24a8:	7bfb      	ldrb	r3, [r7, #15]
    24aa:	4a8e      	ldr	r2, [pc, #568]	; (26e4 <recvfrom+0x308>)
    24ac:	f832 3013 	ldrh.w	r3, [r2, r3, lsl #1]
    24b0:	2b00      	cmp	r3, #0
    24b2:	d14e      	bne.n	2552 <recvfrom+0x176>
    24b4:	f107 0114 	add.w	r1, r7, #20
    24b8:	7bfb      	ldrb	r3, [r7, #15]
    24ba:	2208      	movs	r2, #8
    24bc:	4618      	mov	r0, r3
    24be:	f006 fb23 	bl	8b08 <wiz_recv_data>
    24c2:	7bfb      	ldrb	r3, [r7, #15]
    24c4:	3304      	adds	r3, #4
    24c6:	021b      	lsls	r3, r3, #8
    24c8:	3301      	adds	r3, #1
    24ca:	2140      	movs	r1, #64	; 0x40
    24cc:	4618      	mov	r0, r3
    24ce:	f7ff fbcb 	bl	1c68 <WIZCHIP_WRITE>
    24d2:	bf00      	nop
    24d4:	7bfb      	ldrb	r3, [r7, #15]
    24d6:	3304      	adds	r3, #4
    24d8:	021b      	lsls	r3, r3, #8
    24da:	3301      	adds	r3, #1
    24dc:	4618      	mov	r0, r3
    24de:	f7ff fbf1 	bl	1cc4 <WIZCHIP_READ>
    24e2:	4603      	mov	r3, r0
    24e4:	2b00      	cmp	r3, #0
    24e6:	d1f5      	bne.n	24d4 <recvfrom+0xf8>
    24e8:	7d3a      	ldrb	r2, [r7, #20]
    24ea:	687b      	ldr	r3, [r7, #4]
    24ec:	701a      	strb	r2, [r3, #0]
    24ee:	687b      	ldr	r3, [r7, #4]
    24f0:	3301      	adds	r3, #1
    24f2:	7d7a      	ldrb	r2, [r7, #21]
    24f4:	701a      	strb	r2, [r3, #0]
    24f6:	687b      	ldr	r3, [r7, #4]
    24f8:	3302      	adds	r3, #2
    24fa:	7dba      	ldrb	r2, [r7, #22]
    24fc:	701a      	strb	r2, [r3, #0]
    24fe:	687b      	ldr	r3, [r7, #4]
    2500:	3303      	adds	r3, #3
    2502:	7dfa      	ldrb	r2, [r7, #23]
    2504:	701a      	strb	r2, [r3, #0]
    2506:	7e3b      	ldrb	r3, [r7, #24]
    2508:	b29a      	uxth	r2, r3
    250a:	6abb      	ldr	r3, [r7, #40]	; 0x28
    250c:	801a      	strh	r2, [r3, #0]
    250e:	6abb      	ldr	r3, [r7, #40]	; 0x28
    2510:	881b      	ldrh	r3, [r3, #0]
    2512:	021b      	lsls	r3, r3, #8
    2514:	b29a      	uxth	r2, r3
    2516:	7e7b      	ldrb	r3, [r7, #25]
    2518:	b29b      	uxth	r3, r3
    251a:	4413      	add	r3, r2
    251c:	b29a      	uxth	r2, r3
    251e:	6abb      	ldr	r3, [r7, #40]	; 0x28
    2520:	801a      	strh	r2, [r3, #0]
    2522:	7eba      	ldrb	r2, [r7, #26]
    2524:	7bfb      	ldrb	r3, [r7, #15]
    2526:	b291      	uxth	r1, r2
    2528:	4a6e      	ldr	r2, [pc, #440]	; (26e4 <recvfrom+0x308>)
    252a:	f822 1013 	strh.w	r1, [r2, r3, lsl #1]
    252e:	7bfb      	ldrb	r3, [r7, #15]
    2530:	4a6c      	ldr	r2, [pc, #432]	; (26e4 <recvfrom+0x308>)
    2532:	f832 3013 	ldrh.w	r3, [r2, r3, lsl #1]
    2536:	021b      	lsls	r3, r3, #8
    2538:	b299      	uxth	r1, r3
    253a:	7efb      	ldrb	r3, [r7, #27]
    253c:	b29a      	uxth	r2, r3
    253e:	7bfb      	ldrb	r3, [r7, #15]
    2540:	440a      	add	r2, r1
    2542:	b291      	uxth	r1, r2
    2544:	4a67      	ldr	r2, [pc, #412]	; (26e4 <recvfrom+0x308>)
    2546:	f822 1013 	strh.w	r1, [r2, r3, lsl #1]
    254a:	7bfb      	ldrb	r3, [r7, #15]
    254c:	4a67      	ldr	r2, [pc, #412]	; (26ec <recvfrom+0x310>)
    254e:	2180      	movs	r1, #128	; 0x80
    2550:	54d1      	strb	r1, [r2, r3]
    2552:	7bfb      	ldrb	r3, [r7, #15]
    2554:	4a63      	ldr	r2, [pc, #396]	; (26e4 <recvfrom+0x308>)
    2556:	f832 3013 	ldrh.w	r3, [r2, r3, lsl #1]
    255a:	89ba      	ldrh	r2, [r7, #12]
    255c:	429a      	cmp	r2, r3
    255e:	d202      	bcs.n	2566 <recvfrom+0x18a>
    2560:	89bb      	ldrh	r3, [r7, #12]
    2562:	83fb      	strh	r3, [r7, #30]
    2564:	e004      	b.n	2570 <recvfrom+0x194>
    2566:	7bfb      	ldrb	r3, [r7, #15]
    2568:	4a5e      	ldr	r2, [pc, #376]	; (26e4 <recvfrom+0x308>)
    256a:	f832 3013 	ldrh.w	r3, [r2, r3, lsl #1]
    256e:	83fb      	strh	r3, [r7, #30]
    2570:	8bfb      	ldrh	r3, [r7, #30]
    2572:	81bb      	strh	r3, [r7, #12]
    2574:	8bfa      	ldrh	r2, [r7, #30]
    2576:	7bfb      	ldrb	r3, [r7, #15]
    2578:	68b9      	ldr	r1, [r7, #8]
    257a:	4618      	mov	r0, r3
    257c:	f006 fac4 	bl	8b08 <wiz_recv_data>
    2580:	e0ce      	b.n	2720 <recvfrom+0x344>
    2582:	7bfb      	ldrb	r3, [r7, #15]
    2584:	4a57      	ldr	r2, [pc, #348]	; (26e4 <recvfrom+0x308>)
    2586:	f832 3013 	ldrh.w	r3, [r2, r3, lsl #1]
    258a:	2b00      	cmp	r3, #0
    258c:	d142      	bne.n	2614 <recvfrom+0x238>
    258e:	f107 0114 	add.w	r1, r7, #20
    2592:	7bfb      	ldrb	r3, [r7, #15]
    2594:	2202      	movs	r2, #2
    2596:	4618      	mov	r0, r3
    2598:	f006 fab6 	bl	8b08 <wiz_recv_data>
    259c:	7bfb      	ldrb	r3, [r7, #15]
    259e:	3304      	adds	r3, #4
    25a0:	021b      	lsls	r3, r3, #8
    25a2:	3301      	adds	r3, #1
    25a4:	2140      	movs	r1, #64	; 0x40
    25a6:	4618      	mov	r0, r3
    25a8:	f7ff fb5e 	bl	1c68 <WIZCHIP_WRITE>
    25ac:	bf00      	nop
    25ae:	7bfb      	ldrb	r3, [r7, #15]
    25b0:	3304      	adds	r3, #4
    25b2:	021b      	lsls	r3, r3, #8
    25b4:	3301      	adds	r3, #1
    25b6:	4618      	mov	r0, r3
    25b8:	f7ff fb84 	bl	1cc4 <WIZCHIP_READ>
    25bc:	4603      	mov	r3, r0
    25be:	2b00      	cmp	r3, #0
    25c0:	d1f5      	bne.n	25ae <recvfrom+0x1d2>
    25c2:	7d3a      	ldrb	r2, [r7, #20]
    25c4:	7bfb      	ldrb	r3, [r7, #15]
    25c6:	b291      	uxth	r1, r2
    25c8:	4a46      	ldr	r2, [pc, #280]	; (26e4 <recvfrom+0x308>)
    25ca:	f822 1013 	strh.w	r1, [r2, r3, lsl #1]
    25ce:	7bfb      	ldrb	r3, [r7, #15]
    25d0:	4a44      	ldr	r2, [pc, #272]	; (26e4 <recvfrom+0x308>)
    25d2:	f832 3013 	ldrh.w	r3, [r2, r3, lsl #1]
    25d6:	021b      	lsls	r3, r3, #8
    25d8:	b29a      	uxth	r2, r3
    25da:	7d7b      	ldrb	r3, [r7, #21]
    25dc:	b29b      	uxth	r3, r3
    25de:	4413      	add	r3, r2
    25e0:	b29a      	uxth	r2, r3
    25e2:	7bfb      	ldrb	r3, [r7, #15]
    25e4:	3a02      	subs	r2, #2
    25e6:	b291      	uxth	r1, r2
    25e8:	4a3e      	ldr	r2, [pc, #248]	; (26e4 <recvfrom+0x308>)
    25ea:	f822 1013 	strh.w	r1, [r2, r3, lsl #1]
    25ee:	7bfb      	ldrb	r3, [r7, #15]
    25f0:	4a3c      	ldr	r2, [pc, #240]	; (26e4 <recvfrom+0x308>)
    25f2:	f832 3013 	ldrh.w	r3, [r2, r3, lsl #1]
    25f6:	f240 52ea 	movw	r2, #1514	; 0x5ea
    25fa:	4293      	cmp	r3, r2
    25fc:	d906      	bls.n	260c <recvfrom+0x230>
    25fe:	7bfb      	ldrb	r3, [r7, #15]
    2600:	4618      	mov	r0, r3
    2602:	f7ff fd2f 	bl	2064 <close>
    2606:	f46f 737a 	mvn.w	r3, #1000	; 0x3e8
    260a:	e0bc      	b.n	2786 <recvfrom+0x3aa>
    260c:	7bfb      	ldrb	r3, [r7, #15]
    260e:	4a37      	ldr	r2, [pc, #220]	; (26ec <recvfrom+0x310>)
    2610:	2180      	movs	r1, #128	; 0x80
    2612:	54d1      	strb	r1, [r2, r3]
    2614:	7bfb      	ldrb	r3, [r7, #15]
    2616:	4a33      	ldr	r2, [pc, #204]	; (26e4 <recvfrom+0x308>)
    2618:	f832 3013 	ldrh.w	r3, [r2, r3, lsl #1]
    261c:	89ba      	ldrh	r2, [r7, #12]
    261e:	429a      	cmp	r2, r3
    2620:	d202      	bcs.n	2628 <recvfrom+0x24c>
    2622:	89bb      	ldrh	r3, [r7, #12]
    2624:	83fb      	strh	r3, [r7, #30]
    2626:	e004      	b.n	2632 <recvfrom+0x256>
    2628:	7bfb      	ldrb	r3, [r7, #15]
    262a:	4a2e      	ldr	r2, [pc, #184]	; (26e4 <recvfrom+0x308>)
    262c:	f832 3013 	ldrh.w	r3, [r2, r3, lsl #1]
    2630:	83fb      	strh	r3, [r7, #30]
    2632:	8bfa      	ldrh	r2, [r7, #30]
    2634:	7bfb      	ldrb	r3, [r7, #15]
    2636:	68b9      	ldr	r1, [r7, #8]
    2638:	4618      	mov	r0, r3
    263a:	f006 fa65 	bl	8b08 <wiz_recv_data>
    263e:	e06f      	b.n	2720 <recvfrom+0x344>
    2640:	7bfb      	ldrb	r3, [r7, #15]
    2642:	4a28      	ldr	r2, [pc, #160]	; (26e4 <recvfrom+0x308>)
    2644:	f832 3013 	ldrh.w	r3, [r2, r3, lsl #1]
    2648:	2b00      	cmp	r3, #0
    264a:	d140      	bne.n	26ce <recvfrom+0x2f2>
    264c:	f107 0114 	add.w	r1, r7, #20
    2650:	7bfb      	ldrb	r3, [r7, #15]
    2652:	2206      	movs	r2, #6
    2654:	4618      	mov	r0, r3
    2656:	f006 fa57 	bl	8b08 <wiz_recv_data>
    265a:	7bfb      	ldrb	r3, [r7, #15]
    265c:	3304      	adds	r3, #4
    265e:	021b      	lsls	r3, r3, #8
    2660:	3301      	adds	r3, #1
    2662:	2140      	movs	r1, #64	; 0x40
    2664:	4618      	mov	r0, r3
    2666:	f7ff faff 	bl	1c68 <WIZCHIP_WRITE>
    266a:	bf00      	nop
    266c:	7bfb      	ldrb	r3, [r7, #15]
    266e:	3304      	adds	r3, #4
    2670:	021b      	lsls	r3, r3, #8
    2672:	3301      	adds	r3, #1
    2674:	4618      	mov	r0, r3
    2676:	f7ff fb25 	bl	1cc4 <WIZCHIP_READ>
    267a:	4603      	mov	r3, r0
    267c:	2b00      	cmp	r3, #0
    267e:	d1f5      	bne.n	266c <recvfrom+0x290>
    2680:	7d3a      	ldrb	r2, [r7, #20]
    2682:	687b      	ldr	r3, [r7, #4]
    2684:	701a      	strb	r2, [r3, #0]
    2686:	687b      	ldr	r3, [r7, #4]
    2688:	3301      	adds	r3, #1
    268a:	7d7a      	ldrb	r2, [r7, #21]
    268c:	701a      	strb	r2, [r3, #0]
    268e:	687b      	ldr	r3, [r7, #4]
    2690:	3302      	adds	r3, #2
    2692:	7dba      	ldrb	r2, [r7, #22]
    2694:	701a      	strb	r2, [r3, #0]
    2696:	687b      	ldr	r3, [r7, #4]
    2698:	3303      	adds	r3, #3
    269a:	7dfa      	ldrb	r2, [r7, #23]
    269c:	701a      	strb	r2, [r3, #0]
    269e:	7e3a      	ldrb	r2, [r7, #24]
    26a0:	7bfb      	ldrb	r3, [r7, #15]
    26a2:	b291      	uxth	r1, r2
    26a4:	4a0f      	ldr	r2, [pc, #60]	; (26e4 <recvfrom+0x308>)
    26a6:	f822 1013 	strh.w	r1, [r2, r3, lsl #1]
    26aa:	7bfb      	ldrb	r3, [r7, #15]
    26ac:	4a0d      	ldr	r2, [pc, #52]	; (26e4 <recvfrom+0x308>)
    26ae:	f832 3013 	ldrh.w	r3, [r2, r3, lsl #1]
    26b2:	021b      	lsls	r3, r3, #8
    26b4:	b299      	uxth	r1, r3
    26b6:	7e7b      	ldrb	r3, [r7, #25]
    26b8:	b29a      	uxth	r2, r3
    26ba:	7bfb      	ldrb	r3, [r7, #15]
    26bc:	440a      	add	r2, r1
    26be:	b291      	uxth	r1, r2
    26c0:	4a08      	ldr	r2, [pc, #32]	; (26e4 <recvfrom+0x308>)
    26c2:	f822 1013 	strh.w	r1, [r2, r3, lsl #1]
    26c6:	7bfb      	ldrb	r3, [r7, #15]
    26c8:	4a08      	ldr	r2, [pc, #32]	; (26ec <recvfrom+0x310>)
    26ca:	2180      	movs	r1, #128	; 0x80
    26cc:	54d1      	strb	r1, [r2, r3]
    26ce:	7bfb      	ldrb	r3, [r7, #15]
    26d0:	4a04      	ldr	r2, [pc, #16]	; (26e4 <recvfrom+0x308>)
    26d2:	f832 3013 	ldrh.w	r3, [r2, r3, lsl #1]
    26d6:	89ba      	ldrh	r2, [r7, #12]
    26d8:	429a      	cmp	r2, r3
    26da:	d209      	bcs.n	26f0 <recvfrom+0x314>
    26dc:	89bb      	ldrh	r3, [r7, #12]
    26de:	83fb      	strh	r3, [r7, #30]
    26e0:	e00b      	b.n	26fa <recvfrom+0x31e>
    26e2:	bf00      	nop
    26e4:	200000c8 	.word	0x200000c8
    26e8:	20000ab0 	.word	0x20000ab0
    26ec:	200000d0 	.word	0x200000d0
    26f0:	7bfb      	ldrb	r3, [r7, #15]
    26f2:	4a27      	ldr	r2, [pc, #156]	; (2790 <recvfrom+0x3b4>)
    26f4:	f832 3013 	ldrh.w	r3, [r2, r3, lsl #1]
    26f8:	83fb      	strh	r3, [r7, #30]
    26fa:	8bfa      	ldrh	r2, [r7, #30]
    26fc:	7bfb      	ldrb	r3, [r7, #15]
    26fe:	68b9      	ldr	r1, [r7, #8]
    2700:	4618      	mov	r0, r3
    2702:	f006 fa01 	bl	8b08 <wiz_recv_data>
    2706:	e00b      	b.n	2720 <recvfrom+0x344>
    2708:	8bfa      	ldrh	r2, [r7, #30]
    270a:	7bfb      	ldrb	r3, [r7, #15]
    270c:	4611      	mov	r1, r2
    270e:	4618      	mov	r0, r3
    2710:	f006 fab0 	bl	8c74 <wiz_recv_ignore>
    2714:	7bfb      	ldrb	r3, [r7, #15]
    2716:	491e      	ldr	r1, [pc, #120]	; (2790 <recvfrom+0x3b4>)
    2718:	8bfa      	ldrh	r2, [r7, #30]
    271a:	f821 2013 	strh.w	r2, [r1, r3, lsl #1]
    271e:	bf00      	nop
    2720:	7bfb      	ldrb	r3, [r7, #15]
    2722:	3304      	adds	r3, #4
    2724:	021b      	lsls	r3, r3, #8
    2726:	3301      	adds	r3, #1
    2728:	2140      	movs	r1, #64	; 0x40
    272a:	4618      	mov	r0, r3
    272c:	f7ff fa9c 	bl	1c68 <WIZCHIP_WRITE>
    2730:	bf00      	nop
    2732:	7bfb      	ldrb	r3, [r7, #15]
    2734:	3304      	adds	r3, #4
    2736:	021b      	lsls	r3, r3, #8
    2738:	3301      	adds	r3, #1
    273a:	4618      	mov	r0, r3
    273c:	f7ff fac2 	bl	1cc4 <WIZCHIP_READ>
    2740:	4603      	mov	r3, r0
    2742:	2b00      	cmp	r3, #0
    2744:	d1f5      	bne.n	2732 <recvfrom+0x356>
    2746:	7bfb      	ldrb	r3, [r7, #15]
    2748:	4a11      	ldr	r2, [pc, #68]	; (2790 <recvfrom+0x3b4>)
    274a:	f832 1013 	ldrh.w	r1, [r2, r3, lsl #1]
    274e:	7bfb      	ldrb	r3, [r7, #15]
    2750:	8bfa      	ldrh	r2, [r7, #30]
    2752:	1a8a      	subs	r2, r1, r2
    2754:	b291      	uxth	r1, r2
    2756:	4a0e      	ldr	r2, [pc, #56]	; (2790 <recvfrom+0x3b4>)
    2758:	f822 1013 	strh.w	r1, [r2, r3, lsl #1]
    275c:	7bfb      	ldrb	r3, [r7, #15]
    275e:	4a0c      	ldr	r2, [pc, #48]	; (2790 <recvfrom+0x3b4>)
    2760:	f832 3013 	ldrh.w	r3, [r2, r3, lsl #1]
    2764:	2b00      	cmp	r3, #0
    2766:	d009      	beq.n	277c <recvfrom+0x3a0>
    2768:	7bfb      	ldrb	r3, [r7, #15]
    276a:	4a0a      	ldr	r2, [pc, #40]	; (2794 <recvfrom+0x3b8>)
    276c:	5cd2      	ldrb	r2, [r2, r3]
    276e:	7bfb      	ldrb	r3, [r7, #15]
    2770:	f042 0201 	orr.w	r2, r2, #1
    2774:	b2d1      	uxtb	r1, r2
    2776:	4a07      	ldr	r2, [pc, #28]	; (2794 <recvfrom+0x3b8>)
    2778:	54d1      	strb	r1, [r2, r3]
    277a:	e003      	b.n	2784 <recvfrom+0x3a8>
    277c:	7bfb      	ldrb	r3, [r7, #15]
    277e:	4a05      	ldr	r2, [pc, #20]	; (2794 <recvfrom+0x3b8>)
    2780:	2100      	movs	r1, #0
    2782:	54d1      	strb	r1, [r2, r3]
    2784:	8bfb      	ldrh	r3, [r7, #30]
    2786:	4618      	mov	r0, r3
    2788:	3720      	adds	r7, #32
    278a:	46bd      	mov	sp, r7
    278c:	bd80      	pop	{r7, pc}
    278e:	bf00      	nop
    2790:	200000c8 	.word	0x200000c8
    2794:	200000d0 	.word	0x200000d0

00002798 <setintflags>:
    2798:	b480      	push	{r7}
    279a:	af00      	add	r7, sp, #0
    279c:	4b05      	ldr	r3, [pc, #20]	; (27b4 <setintflags+0x1c>)
    279e:	2200      	movs	r2, #0
    27a0:	701a      	strb	r2, [r3, #0]
    27a2:	4b05      	ldr	r3, [pc, #20]	; (27b8 <setintflags+0x20>)
    27a4:	2201      	movs	r2, #1
    27a6:	701a      	strb	r2, [r3, #0]
    27a8:	bf00      	nop
    27aa:	46bd      	mov	sp, r7
    27ac:	f85d 7b04 	ldr.w	r7, [sp], #4
    27b0:	4770      	bx	lr
    27b2:	bf00      	nop
    27b4:	20000ab7 	.word	0x20000ab7
    27b8:	20000ab8 	.word	0x20000ab8

000027bc <waitfortransfer>:
    27bc:	b480      	push	{r7}
    27be:	af00      	add	r7, sp, #0
    27c0:	bf00      	nop
    27c2:	4b06      	ldr	r3, [pc, #24]	; (27dc <waitfortransfer+0x20>)
    27c4:	781b      	ldrb	r3, [r3, #0]
    27c6:	b2db      	uxtb	r3, r3
    27c8:	f083 0301 	eor.w	r3, r3, #1
    27cc:	b2db      	uxtb	r3, r3
    27ce:	2b00      	cmp	r3, #0
    27d0:	d1f7      	bne.n	27c2 <waitfortransfer+0x6>
    27d2:	bf00      	nop
    27d4:	46bd      	mov	sp, r7
    27d6:	f85d 7b04 	ldr.w	r7, [sp], #4
    27da:	4770      	bx	lr
    27dc:	20000ab7 	.word	0x20000ab7

000027e0 <LPSPI_MasterSignalEvent_t>:
    27e0:	b480      	push	{r7}
    27e2:	b083      	sub	sp, #12
    27e4:	af00      	add	r7, sp, #0
    27e6:	6078      	str	r0, [r7, #4]
    27e8:	4b0c      	ldr	r3, [pc, #48]	; (281c <LPSPI_MasterSignalEvent_t+0x3c>)
    27ea:	781b      	ldrb	r3, [r3, #0]
    27ec:	b2db      	uxtb	r3, r3
    27ee:	2b00      	cmp	r3, #0
    27f0:	d002      	beq.n	27f8 <LPSPI_MasterSignalEvent_t+0x18>
    27f2:	4b0a      	ldr	r3, [pc, #40]	; (281c <LPSPI_MasterSignalEvent_t+0x3c>)
    27f4:	2200      	movs	r2, #0
    27f6:	701a      	strb	r2, [r3, #0]
    27f8:	4b09      	ldr	r3, [pc, #36]	; (2820 <LPSPI_MasterSignalEvent_t+0x40>)
    27fa:	781b      	ldrb	r3, [r3, #0]
    27fc:	b2db      	uxtb	r3, r3
    27fe:	2b00      	cmp	r3, #0
    2800:	d002      	beq.n	2808 <LPSPI_MasterSignalEvent_t+0x28>
    2802:	4b07      	ldr	r3, [pc, #28]	; (2820 <LPSPI_MasterSignalEvent_t+0x40>)
    2804:	2200      	movs	r2, #0
    2806:	701a      	strb	r2, [r3, #0]
    2808:	4b06      	ldr	r3, [pc, #24]	; (2824 <LPSPI_MasterSignalEvent_t+0x44>)
    280a:	2201      	movs	r2, #1
    280c:	701a      	strb	r2, [r3, #0]
    280e:	bf00      	nop
    2810:	370c      	adds	r7, #12
    2812:	46bd      	mov	sp, r7
    2814:	f85d 7b04 	ldr.w	r7, [sp], #4
    2818:	4770      	bx	lr
    281a:	bf00      	nop
    281c:	20000ab9 	.word	0x20000ab9
    2820:	20000ab8 	.word	0x20000ab8
    2824:	20000ab7 	.word	0x20000ab7

00002828 <wizchip_cs_select>:
    2828:	b580      	push	{r7, lr}
    282a:	af00      	add	r7, sp, #0
    282c:	2200      	movs	r2, #0
    282e:	2100      	movs	r1, #0
    2830:	4802      	ldr	r0, [pc, #8]	; (283c <wizchip_cs_select+0x14>)
    2832:	f001 fb71 	bl	3f18 <GPIO_PinWrite>
    2836:	bf00      	nop
    2838:	bd80      	pop	{r7, pc}
    283a:	bf00      	nop
    283c:	401bc000 	.word	0x401bc000

00002840 <wizchip_cs_deselect>:
    2840:	b580      	push	{r7, lr}
    2842:	af00      	add	r7, sp, #0
    2844:	2201      	movs	r2, #1
    2846:	2100      	movs	r1, #0
    2848:	4802      	ldr	r0, [pc, #8]	; (2854 <wizchip_cs_deselect+0x14>)
    284a:	f001 fb65 	bl	3f18 <GPIO_PinWrite>
    284e:	bf00      	nop
    2850:	bd80      	pop	{r7, pc}
    2852:	bf00      	nop
    2854:	401bc000 	.word	0x401bc000

00002858 <wizchip_spi_readbyte>:
    2858:	b580      	push	{r7, lr}
    285a:	b082      	sub	sp, #8
    285c:	af00      	add	r7, sp, #0
    285e:	2300      	movs	r3, #0
    2860:	71fb      	strb	r3, [r7, #7]
    2862:	2300      	movs	r3, #0
    2864:	71bb      	strb	r3, [r7, #6]
    2866:	f7ff ff97 	bl	2798 <setintflags>
    286a:	4b06      	ldr	r3, [pc, #24]	; (2884 <wizchip_spi_readbyte+0x2c>)
    286c:	69db      	ldr	r3, [r3, #28]
    286e:	1df9      	adds	r1, r7, #7
    2870:	1db8      	adds	r0, r7, #6
    2872:	2201      	movs	r2, #1
    2874:	4798      	blx	r3
    2876:	f7ff ffa1 	bl	27bc <waitfortransfer>
    287a:	79fb      	ldrb	r3, [r7, #7]
    287c:	4618      	mov	r0, r3
    287e:	3708      	adds	r7, #8
    2880:	46bd      	mov	sp, r7
    2882:	bd80      	pop	{r7, pc}
    2884:	0000c070 	.word	0x0000c070

00002888 <wizchip_spi_writebyte>:
    2888:	b580      	push	{r7, lr}
    288a:	b084      	sub	sp, #16
    288c:	af00      	add	r7, sp, #0
    288e:	4603      	mov	r3, r0
    2890:	71fb      	strb	r3, [r7, #7]
    2892:	79fb      	ldrb	r3, [r7, #7]
    2894:	73fb      	strb	r3, [r7, #15]
    2896:	2300      	movs	r3, #0
    2898:	73bb      	strb	r3, [r7, #14]
    289a:	f7ff ff7d 	bl	2798 <setintflags>
    289e:	4b07      	ldr	r3, [pc, #28]	; (28bc <wizchip_spi_writebyte+0x34>)
    28a0:	69db      	ldr	r3, [r3, #28]
    28a2:	f107 010e 	add.w	r1, r7, #14
    28a6:	f107 000f 	add.w	r0, r7, #15
    28aa:	2201      	movs	r2, #1
    28ac:	4798      	blx	r3
    28ae:	f7ff ff85 	bl	27bc <waitfortransfer>
    28b2:	bf00      	nop
    28b4:	3710      	adds	r7, #16
    28b6:	46bd      	mov	sp, r7
    28b8:	bd80      	pop	{r7, pc}
    28ba:	bf00      	nop
    28bc:	0000c070 	.word	0x0000c070

000028c0 <reg_wizchip_cs_cbfunc>:
    28c0:	b480      	push	{r7}
    28c2:	b083      	sub	sp, #12
    28c4:	af00      	add	r7, sp, #0
    28c6:	6078      	str	r0, [r7, #4]
    28c8:	6039      	str	r1, [r7, #0]
    28ca:	687b      	ldr	r3, [r7, #4]
    28cc:	2b00      	cmp	r3, #0
    28ce:	d002      	beq.n	28d6 <reg_wizchip_cs_cbfunc+0x16>
    28d0:	683b      	ldr	r3, [r7, #0]
    28d2:	2b00      	cmp	r3, #0
    28d4:	d106      	bne.n	28e4 <reg_wizchip_cs_cbfunc+0x24>
    28d6:	4b0c      	ldr	r3, [pc, #48]	; (2908 <reg_wizchip_cs_cbfunc+0x48>)
    28d8:	4a0c      	ldr	r2, [pc, #48]	; (290c <reg_wizchip_cs_cbfunc+0x4c>)
    28da:	615a      	str	r2, [r3, #20]
    28dc:	4b0a      	ldr	r3, [pc, #40]	; (2908 <reg_wizchip_cs_cbfunc+0x48>)
    28de:	4a0c      	ldr	r2, [pc, #48]	; (2910 <reg_wizchip_cs_cbfunc+0x50>)
    28e0:	619a      	str	r2, [r3, #24]
    28e2:	e005      	b.n	28f0 <reg_wizchip_cs_cbfunc+0x30>
    28e4:	4a08      	ldr	r2, [pc, #32]	; (2908 <reg_wizchip_cs_cbfunc+0x48>)
    28e6:	687b      	ldr	r3, [r7, #4]
    28e8:	6153      	str	r3, [r2, #20]
    28ea:	4a07      	ldr	r2, [pc, #28]	; (2908 <reg_wizchip_cs_cbfunc+0x48>)
    28ec:	683b      	ldr	r3, [r7, #0]
    28ee:	6193      	str	r3, [r2, #24]
    28f0:	4b05      	ldr	r3, [pc, #20]	; (2908 <reg_wizchip_cs_cbfunc+0x48>)
    28f2:	4a08      	ldr	r2, [pc, #32]	; (2914 <reg_wizchip_cs_cbfunc+0x54>)
    28f4:	61da      	str	r2, [r3, #28]
    28f6:	4b04      	ldr	r3, [pc, #16]	; (2908 <reg_wizchip_cs_cbfunc+0x48>)
    28f8:	4a07      	ldr	r2, [pc, #28]	; (2918 <reg_wizchip_cs_cbfunc+0x58>)
    28fa:	621a      	str	r2, [r3, #32]
    28fc:	bf00      	nop
    28fe:	370c      	adds	r7, #12
    2900:	46bd      	mov	sp, r7
    2902:	f85d 7b04 	ldr.w	r7, [sp], #4
    2906:	4770      	bx	lr
    2908:	2000001c 	.word	0x2000001c
    290c:	00002829 	.word	0x00002829
    2910:	00002841 	.word	0x00002841
    2914:	00002859 	.word	0x00002859
    2918:	00002889 	.word	0x00002889

0000291c <reg_wizchip_spi_cbfunc>:
    291c:	b480      	push	{r7}
    291e:	b083      	sub	sp, #12
    2920:	af00      	add	r7, sp, #0
    2922:	6078      	str	r0, [r7, #4]
    2924:	6039      	str	r1, [r7, #0]
    2926:	bf00      	nop
    2928:	4b0f      	ldr	r3, [pc, #60]	; (2968 <reg_wizchip_spi_cbfunc+0x4c>)
    292a:	881b      	ldrh	r3, [r3, #0]
    292c:	f403 7300 	and.w	r3, r3, #512	; 0x200
    2930:	2b00      	cmp	r3, #0
    2932:	d0f9      	beq.n	2928 <reg_wizchip_spi_cbfunc+0xc>
    2934:	687b      	ldr	r3, [r7, #4]
    2936:	2b00      	cmp	r3, #0
    2938:	d002      	beq.n	2940 <reg_wizchip_spi_cbfunc+0x24>
    293a:	683b      	ldr	r3, [r7, #0]
    293c:	2b00      	cmp	r3, #0
    293e:	d106      	bne.n	294e <reg_wizchip_spi_cbfunc+0x32>
    2940:	4b09      	ldr	r3, [pc, #36]	; (2968 <reg_wizchip_spi_cbfunc+0x4c>)
    2942:	4a0a      	ldr	r2, [pc, #40]	; (296c <reg_wizchip_spi_cbfunc+0x50>)
    2944:	61da      	str	r2, [r3, #28]
    2946:	4b08      	ldr	r3, [pc, #32]	; (2968 <reg_wizchip_spi_cbfunc+0x4c>)
    2948:	4a09      	ldr	r2, [pc, #36]	; (2970 <reg_wizchip_spi_cbfunc+0x54>)
    294a:	621a      	str	r2, [r3, #32]
    294c:	e005      	b.n	295a <reg_wizchip_spi_cbfunc+0x3e>
    294e:	4a06      	ldr	r2, [pc, #24]	; (2968 <reg_wizchip_spi_cbfunc+0x4c>)
    2950:	687b      	ldr	r3, [r7, #4]
    2952:	61d3      	str	r3, [r2, #28]
    2954:	4a04      	ldr	r2, [pc, #16]	; (2968 <reg_wizchip_spi_cbfunc+0x4c>)
    2956:	683b      	ldr	r3, [r7, #0]
    2958:	6213      	str	r3, [r2, #32]
    295a:	bf00      	nop
    295c:	370c      	adds	r7, #12
    295e:	46bd      	mov	sp, r7
    2960:	f85d 7b04 	ldr.w	r7, [sp], #4
    2964:	4770      	bx	lr
    2966:	bf00      	nop
    2968:	2000001c 	.word	0x2000001c
    296c:	00002859 	.word	0x00002859
    2970:	00002889 	.word	0x00002889

00002974 <wizchip_setnetinfo>:
    2974:	b580      	push	{r7, lr}
    2976:	b082      	sub	sp, #8
    2978:	af00      	add	r7, sp, #0
    297a:	6078      	str	r0, [r7, #4]
    297c:	687b      	ldr	r3, [r7, #4]
    297e:	2206      	movs	r2, #6
    2980:	4619      	mov	r1, r3
    2982:	2009      	movs	r0, #9
    2984:	f7ff f9cc 	bl	1d20 <WIZCHIP_WRITE_BUF>
    2988:	687b      	ldr	r3, [r7, #4]
    298a:	330e      	adds	r3, #14
    298c:	2204      	movs	r2, #4
    298e:	4619      	mov	r1, r3
    2990:	2001      	movs	r0, #1
    2992:	f7ff f9c5 	bl	1d20 <WIZCHIP_WRITE_BUF>
    2996:	687b      	ldr	r3, [r7, #4]
    2998:	330a      	adds	r3, #10
    299a:	2204      	movs	r2, #4
    299c:	4619      	mov	r1, r3
    299e:	2005      	movs	r0, #5
    29a0:	f7ff f9be 	bl	1d20 <WIZCHIP_WRITE_BUF>
    29a4:	687b      	ldr	r3, [r7, #4]
    29a6:	3306      	adds	r3, #6
    29a8:	2204      	movs	r2, #4
    29aa:	4619      	mov	r1, r3
    29ac:	200f      	movs	r0, #15
    29ae:	f7ff f9b7 	bl	1d20 <WIZCHIP_WRITE_BUF>
    29b2:	687b      	ldr	r3, [r7, #4]
    29b4:	7c9a      	ldrb	r2, [r3, #18]
    29b6:	4b0b      	ldr	r3, [pc, #44]	; (29e4 <wizchip_setnetinfo+0x70>)
    29b8:	701a      	strb	r2, [r3, #0]
    29ba:	687b      	ldr	r3, [r7, #4]
    29bc:	7cda      	ldrb	r2, [r3, #19]
    29be:	4b09      	ldr	r3, [pc, #36]	; (29e4 <wizchip_setnetinfo+0x70>)
    29c0:	705a      	strb	r2, [r3, #1]
    29c2:	687b      	ldr	r3, [r7, #4]
    29c4:	7d1a      	ldrb	r2, [r3, #20]
    29c6:	4b07      	ldr	r3, [pc, #28]	; (29e4 <wizchip_setnetinfo+0x70>)
    29c8:	709a      	strb	r2, [r3, #2]
    29ca:	687b      	ldr	r3, [r7, #4]
    29cc:	7d5a      	ldrb	r2, [r3, #21]
    29ce:	4b05      	ldr	r3, [pc, #20]	; (29e4 <wizchip_setnetinfo+0x70>)
    29d0:	70da      	strb	r2, [r3, #3]
    29d2:	687b      	ldr	r3, [r7, #4]
    29d4:	7d9a      	ldrb	r2, [r3, #22]
    29d6:	4b04      	ldr	r3, [pc, #16]	; (29e8 <wizchip_setnetinfo+0x74>)
    29d8:	701a      	strb	r2, [r3, #0]
    29da:	bf00      	nop
    29dc:	3708      	adds	r7, #8
    29de:	46bd      	mov	sp, r7
    29e0:	bd80      	pop	{r7, pc}
    29e2:	bf00      	nop
    29e4:	200000d4 	.word	0x200000d4
    29e8:	20000aba 	.word	0x20000aba

000029ec <dhcp_timer_enable>:
    29ec:	b598      	push	{r3, r4, r7, lr}
    29ee:	af00      	add	r7, sp, #0
    29f0:	4821      	ldr	r0, [pc, #132]	; (2a78 <dhcp_timer_enable+0x8c>)
    29f2:	f7fd fe79 	bl	6e8 <DbgConsole_Printf>
    29f6:	4821      	ldr	r0, [pc, #132]	; (2a7c <dhcp_timer_enable+0x90>)
    29f8:	f003 fd20 	bl	643c <QTMR_GetDefaultConfig>
    29fc:	4b1f      	ldr	r3, [pc, #124]	; (2a7c <dhcp_timer_enable+0x90>)
    29fe:	220f      	movs	r2, #15
    2a00:	701a      	strb	r2, [r3, #0]
    2a02:	4a1e      	ldr	r2, [pc, #120]	; (2a7c <dhcp_timer_enable+0x90>)
    2a04:	2100      	movs	r1, #0
    2a06:	481e      	ldr	r0, [pc, #120]	; (2a80 <dhcp_timer_enable+0x94>)
    2a08:	f003 fc94 	bl	6334 <QTMR_Init>
    2a0c:	4b1b      	ldr	r3, [pc, #108]	; (2a7c <dhcp_timer_enable+0x90>)
    2a0e:	2204      	movs	r2, #4
    2a10:	701a      	strb	r2, [r3, #0]
    2a12:	4a1a      	ldr	r2, [pc, #104]	; (2a7c <dhcp_timer_enable+0x90>)
    2a14:	2101      	movs	r1, #1
    2a16:	481a      	ldr	r0, [pc, #104]	; (2a80 <dhcp_timer_enable+0x94>)
    2a18:	f003 fc8c 	bl	6334 <QTMR_Init>
    2a1c:	2003      	movs	r0, #3
    2a1e:	f000 fab1 	bl	2f84 <CLOCK_GetFreq>
    2a22:	4603      	mov	r3, r0
    2a24:	09db      	lsrs	r3, r3, #7
    2a26:	4618      	mov	r0, r3
    2a28:	f04f 0100 	mov.w	r1, #0
    2a2c:	f44f 727a 	mov.w	r2, #1000	; 0x3e8
    2a30:	f04f 0300 	mov.w	r3, #0
    2a34:	f007 fd1b 	bl	a46e <__aeabi_uldivmod>
    2a38:	4603      	mov	r3, r0
    2a3a:	460c      	mov	r4, r1
    2a3c:	b29b      	uxth	r3, r3
    2a3e:	461a      	mov	r2, r3
    2a40:	2100      	movs	r1, #0
    2a42:	480f      	ldr	r0, [pc, #60]	; (2a80 <dhcp_timer_enable+0x94>)
    2a44:	f007 fa01 	bl	9e4a <QTMR_SetTimerPeriod>
    2a48:	f44f 727a 	mov.w	r2, #1000	; 0x3e8
    2a4c:	2101      	movs	r1, #1
    2a4e:	480c      	ldr	r0, [pc, #48]	; (2a80 <dhcp_timer_enable+0x94>)
    2a50:	f007 f9fb 	bl	9e4a <QTMR_SetTimerPeriod>
    2a54:	2201      	movs	r2, #1
    2a56:	2101      	movs	r1, #1
    2a58:	4809      	ldr	r0, [pc, #36]	; (2a80 <dhcp_timer_enable+0x94>)
    2a5a:	f007 f939 	bl	9cd0 <QTMR_EnableInterrupts>
    2a5e:	2207      	movs	r2, #7
    2a60:	2101      	movs	r1, #1
    2a62:	4807      	ldr	r0, [pc, #28]	; (2a80 <dhcp_timer_enable+0x94>)
    2a64:	f006 fa94 	bl	8f90 <QTMR_StartTimer>
    2a68:	2201      	movs	r2, #1
    2a6a:	2100      	movs	r1, #0
    2a6c:	4804      	ldr	r0, [pc, #16]	; (2a80 <dhcp_timer_enable+0x94>)
    2a6e:	f006 fa8f 	bl	8f90 <QTMR_StartTimer>
    2a72:	bf00      	nop
    2a74:	bd98      	pop	{r3, r4, r7, pc}
    2a76:	bf00      	nop
    2a78:	0000a87c 	.word	0x0000a87c
    2a7c:	200008e0 	.word	0x200008e0
    2a80:	401e4000 	.word	0x401e4000

00002a84 <LPSPI4_GetFreq>:
    2a84:	b480      	push	{r7}
    2a86:	af00      	add	r7, sp, #0
    2a88:	4b02      	ldr	r3, [pc, #8]	; (2a94 <LPSPI4_GetFreq+0x10>)
    2a8a:	4618      	mov	r0, r3
    2a8c:	46bd      	mov	sp, r7
    2a8e:	f85d 7b04 	ldr.w	r7, [sp], #4
    2a92:	4770      	bx	lr
    2a94:	03ef1480 	.word	0x03ef1480

00002a98 <TMR3_IRQHandler>:
    2a98:	b580      	push	{r7, lr}
    2a9a:	af00      	add	r7, sp, #0
    2a9c:	2201      	movs	r2, #1
    2a9e:	2101      	movs	r1, #1
    2aa0:	4803      	ldr	r0, [pc, #12]	; (2ab0 <TMR3_IRQHandler+0x18>)
    2aa2:	f007 f97c 	bl	9d9e <QTMR_ClearStatusFlags>
    2aa6:	f7ff f8b1 	bl	1c0c <DHCP_time_handler>
    2aaa:	bf00      	nop
    2aac:	bd80      	pop	{r7, pc}
    2aae:	bf00      	nop
    2ab0:	401e4000 	.word	0x401e4000

00002ab4 <main>:
    2ab4:	b580      	push	{r7, lr}
    2ab6:	b082      	sub	sp, #8
    2ab8:	af02      	add	r7, sp, #8
    2aba:	f004 f925 	bl	6d08 <BOARD_ConfigMPU>
    2abe:	f004 fe4d 	bl	775c <BOARD_InitPins>
    2ac2:	f004 fad5 	bl	7070 <BOARD_BootClockRUN>
    2ac6:	f007 fa45 	bl	9f54 <BOARD_InitDebugConsole>
    2aca:	4860      	ldr	r0, [pc, #384]	; (2c4c <main+0x198>)
    2acc:	f7fd fe0c 	bl	6e8 <DbgConsole_Printf>
    2ad0:	485f      	ldr	r0, [pc, #380]	; (2c50 <main+0x19c>)
    2ad2:	f7fd fe09 	bl	6e8 <DbgConsole_Printf>
    2ad6:	485f      	ldr	r0, [pc, #380]	; (2c54 <main+0x1a0>)
    2ad8:	f7fd fe06 	bl	6e8 <DbgConsole_Printf>
    2adc:	485e      	ldr	r0, [pc, #376]	; (2c58 <main+0x1a4>)
    2ade:	f7fd fe03 	bl	6e8 <DbgConsole_Printf>
    2ae2:	485e      	ldr	r0, [pc, #376]	; (2c5c <main+0x1a8>)
    2ae4:	f7fd fe00 	bl	6e8 <DbgConsole_Printf>
    2ae8:	485d      	ldr	r0, [pc, #372]	; (2c60 <main+0x1ac>)
    2aea:	f7fd fdfd 	bl	6e8 <DbgConsole_Printf>
    2aee:	485d      	ldr	r0, [pc, #372]	; (2c64 <main+0x1b0>)
    2af0:	f7fd fdfa 	bl	6e8 <DbgConsole_Printf>
    2af4:	485c      	ldr	r0, [pc, #368]	; (2c68 <main+0x1b4>)
    2af6:	f7fd fdf7 	bl	6e8 <DbgConsole_Printf>
    2afa:	485c      	ldr	r0, [pc, #368]	; (2c6c <main+0x1b8>)
    2afc:	f7fd fdf4 	bl	6e8 <DbgConsole_Printf>
    2b00:	485b      	ldr	r0, [pc, #364]	; (2c70 <main+0x1bc>)
    2b02:	f7fd fdf1 	bl	6e8 <DbgConsole_Printf>
    2b06:	2201      	movs	r2, #1
    2b08:	2100      	movs	r1, #0
    2b0a:	485a      	ldr	r0, [pc, #360]	; (2c74 <main+0x1c0>)
    2b0c:	f001 fa04 	bl	3f18 <GPIO_PinWrite>
    2b10:	4b59      	ldr	r3, [pc, #356]	; (2c78 <main+0x1c4>)
    2b12:	689b      	ldr	r3, [r3, #8]
    2b14:	4859      	ldr	r0, [pc, #356]	; (2c7c <main+0x1c8>)
    2b16:	4798      	blx	r3
    2b18:	4b57      	ldr	r3, [pc, #348]	; (2c78 <main+0x1c4>)
    2b1a:	691b      	ldr	r3, [r3, #16]
    2b1c:	2002      	movs	r0, #2
    2b1e:	4798      	blx	r3
    2b20:	4b55      	ldr	r3, [pc, #340]	; (2c78 <main+0x1c4>)
    2b22:	6a5b      	ldr	r3, [r3, #36]	; 0x24
    2b24:	4956      	ldr	r1, [pc, #344]	; (2c80 <main+0x1cc>)
    2b26:	2001      	movs	r0, #1
    2b28:	4798      	blx	r3
    2b2a:	2100      	movs	r1, #0
    2b2c:	2000      	movs	r0, #0
    2b2e:	f006 f94d 	bl	8dcc <wizchip_init>
    2b32:	4603      	mov	r3, r0
    2b34:	4619      	mov	r1, r3
    2b36:	4853      	ldr	r0, [pc, #332]	; (2c84 <main+0x1d0>)
    2b38:	f7fd fdd6 	bl	6e8 <DbgConsole_Printf>
    2b3c:	2100      	movs	r1, #0
    2b3e:	2000      	movs	r0, #0
    2b40:	f7ff febe 	bl	28c0 <reg_wizchip_cs_cbfunc>
    2b44:	2100      	movs	r1, #0
    2b46:	2000      	movs	r0, #0
    2b48:	f7ff fee8 	bl	291c <reg_wizchip_spi_cbfunc>
    2b4c:	2064      	movs	r0, #100	; 0x64
    2b4e:	f006 fa46 	bl	8fde <_delay_ms>
    2b52:	484d      	ldr	r0, [pc, #308]	; (2c88 <main+0x1d4>)
    2b54:	f7fd fdc8 	bl	6e8 <DbgConsole_Printf>
    2b58:	2100      	movs	r1, #0
    2b5a:	2000      	movs	r0, #0
    2b5c:	f006 f936 	bl	8dcc <wizchip_init>
    2b60:	4603      	mov	r3, r0
    2b62:	4619      	mov	r1, r3
    2b64:	4849      	ldr	r0, [pc, #292]	; (2c8c <main+0x1d8>)
    2b66:	f7fd fdbf 	bl	6e8 <DbgConsole_Printf>
    2b6a:	4849      	ldr	r0, [pc, #292]	; (2c90 <main+0x1dc>)
    2b6c:	f7fd fdbc 	bl	6e8 <DbgConsole_Printf>
    2b70:	4848      	ldr	r0, [pc, #288]	; (2c94 <main+0x1e0>)
    2b72:	f7ff feff 	bl	2974 <wizchip_setnetinfo>
    2b76:	f7ff ff39 	bl	29ec <dhcp_timer_enable>
    2b7a:	4847      	ldr	r0, [pc, #284]	; (2c98 <main+0x1e4>)
    2b7c:	f7fd fdb4 	bl	6e8 <DbgConsole_Printf>
    2b80:	4946      	ldr	r1, [pc, #280]	; (2c9c <main+0x1e8>)
    2b82:	2000      	movs	r0, #0
    2b84:	f7fe ffc4 	bl	1b10 <DHCP_init>
    2b88:	4845      	ldr	r0, [pc, #276]	; (2ca0 <main+0x1ec>)
    2b8a:	f7fd fdad 	bl	6e8 <DbgConsole_Printf>
    2b8e:	20fa      	movs	r0, #250	; 0xfa
    2b90:	f006 fa25 	bl	8fde <_delay_ms>
    2b94:	4b43      	ldr	r3, [pc, #268]	; (2ca4 <main+0x1f0>)
    2b96:	681b      	ldr	r3, [r3, #0]
    2b98:	3301      	adds	r3, #1
    2b9a:	4a42      	ldr	r2, [pc, #264]	; (2ca4 <main+0x1f0>)
    2b9c:	6013      	str	r3, [r2, #0]
    2b9e:	4b41      	ldr	r3, [pc, #260]	; (2ca4 <main+0x1f0>)
    2ba0:	681b      	ldr	r3, [r3, #0]
    2ba2:	4619      	mov	r1, r3
    2ba4:	4840      	ldr	r0, [pc, #256]	; (2ca8 <main+0x1f4>)
    2ba6:	f7fd fd9f 	bl	6e8 <DbgConsole_Printf>
    2baa:	f7fe fe03 	bl	17b4 <DHCP_run>
    2bae:	4603      	mov	r3, r0
    2bb0:	2b04      	cmp	r3, #4
    2bb2:	d843      	bhi.n	2c3c <main+0x188>
    2bb4:	a201      	add	r2, pc, #4	; (adr r2, 2bbc <main+0x108>)
    2bb6:	f852 f023 	ldr.w	pc, [r2, r3, lsl #2]
    2bba:	bf00      	nop
    2bbc:	00002c35 	.word	0x00002c35
    2bc0:	00002c3d 	.word	0x00002c3d
    2bc4:	00002bd1 	.word	0x00002bd1
    2bc8:	00002bff 	.word	0x00002bff
    2bcc:	00002c07 	.word	0x00002c07
    2bd0:	4836      	ldr	r0, [pc, #216]	; (2cac <main+0x1f8>)
    2bd2:	f7fd fd89 	bl	6e8 <DbgConsole_Printf>
    2bd6:	4836      	ldr	r0, [pc, #216]	; (2cb0 <main+0x1fc>)
    2bd8:	f7ff f826 	bl	1c28 <getIPfromDHCP>
    2bdc:	4b34      	ldr	r3, [pc, #208]	; (2cb0 <main+0x1fc>)
    2bde:	781b      	ldrb	r3, [r3, #0]
    2be0:	4619      	mov	r1, r3
    2be2:	4b33      	ldr	r3, [pc, #204]	; (2cb0 <main+0x1fc>)
    2be4:	785b      	ldrb	r3, [r3, #1]
    2be6:	461a      	mov	r2, r3
    2be8:	4b31      	ldr	r3, [pc, #196]	; (2cb0 <main+0x1fc>)
    2bea:	789b      	ldrb	r3, [r3, #2]
    2bec:	4618      	mov	r0, r3
    2bee:	4b30      	ldr	r3, [pc, #192]	; (2cb0 <main+0x1fc>)
    2bf0:	78db      	ldrb	r3, [r3, #3]
    2bf2:	9300      	str	r3, [sp, #0]
    2bf4:	4603      	mov	r3, r0
    2bf6:	482f      	ldr	r0, [pc, #188]	; (2cb4 <main+0x200>)
    2bf8:	f7fd fd76 	bl	6e8 <DbgConsole_Printf>
    2bfc:	e022      	b.n	2c44 <main+0x190>
    2bfe:	482e      	ldr	r0, [pc, #184]	; (2cb8 <main+0x204>)
    2c00:	f7fd fd72 	bl	6e8 <DbgConsole_Printf>
    2c04:	e01e      	b.n	2c44 <main+0x190>
    2c06:	482d      	ldr	r0, [pc, #180]	; (2cbc <main+0x208>)
    2c08:	f7fd fd6e 	bl	6e8 <DbgConsole_Printf>
    2c0c:	4828      	ldr	r0, [pc, #160]	; (2cb0 <main+0x1fc>)
    2c0e:	f7ff f80b 	bl	1c28 <getIPfromDHCP>
    2c12:	4b27      	ldr	r3, [pc, #156]	; (2cb0 <main+0x1fc>)
    2c14:	781b      	ldrb	r3, [r3, #0]
    2c16:	4619      	mov	r1, r3
    2c18:	4b25      	ldr	r3, [pc, #148]	; (2cb0 <main+0x1fc>)
    2c1a:	785b      	ldrb	r3, [r3, #1]
    2c1c:	461a      	mov	r2, r3
    2c1e:	4b24      	ldr	r3, [pc, #144]	; (2cb0 <main+0x1fc>)
    2c20:	789b      	ldrb	r3, [r3, #2]
    2c22:	4618      	mov	r0, r3
    2c24:	4b22      	ldr	r3, [pc, #136]	; (2cb0 <main+0x1fc>)
    2c26:	78db      	ldrb	r3, [r3, #3]
    2c28:	9300      	str	r3, [sp, #0]
    2c2a:	4603      	mov	r3, r0
    2c2c:	4821      	ldr	r0, [pc, #132]	; (2cb4 <main+0x200>)
    2c2e:	f7fd fd5b 	bl	6e8 <DbgConsole_Printf>
    2c32:	e007      	b.n	2c44 <main+0x190>
    2c34:	4822      	ldr	r0, [pc, #136]	; (2cc0 <main+0x20c>)
    2c36:	f7fd fd57 	bl	6e8 <DbgConsole_Printf>
    2c3a:	e003      	b.n	2c44 <main+0x190>
    2c3c:	4821      	ldr	r0, [pc, #132]	; (2cc4 <main+0x210>)
    2c3e:	f7fd fd53 	bl	6e8 <DbgConsole_Printf>
    2c42:	bf00      	nop
    2c44:	2064      	movs	r0, #100	; 0x64
    2c46:	f006 f9ca 	bl	8fde <_delay_ms>
    2c4a:	e7a3      	b.n	2b94 <main+0xe0>
    2c4c:	0000a8b0 	.word	0x0000a8b0
    2c50:	0000a8e8 	.word	0x0000a8e8
    2c54:	0000a928 	.word	0x0000a928
    2c58:	0000a96c 	.word	0x0000a96c
    2c5c:	0000a9c4 	.word	0x0000a9c4
    2c60:	0000a9e8 	.word	0x0000a9e8
    2c64:	0000aa04 	.word	0x0000aa04
    2c68:	0000aa20 	.word	0x0000aa20
    2c6c:	0000aa3c 	.word	0x0000aa3c
    2c70:	0000aa58 	.word	0x0000aa58
    2c74:	401bc000 	.word	0x401bc000
    2c78:	0000c070 	.word	0x0000c070
    2c7c:	000027e1 	.word	0x000027e1
    2c80:	000186a0 	.word	0x000186a0
    2c84:	0000aa74 	.word	0x0000aa74
    2c88:	0000aa78 	.word	0x0000aa78
    2c8c:	0000aa88 	.word	0x0000aa88
    2c90:	0000aa8c 	.word	0x0000aa8c
    2c94:	20000048 	.word	0x20000048
    2c98:	0000aaa0 	.word	0x0000aaa0
    2c9c:	200000dc 	.word	0x200000dc
    2ca0:	0000aaac 	.word	0x0000aaac
    2ca4:	200000d8 	.word	0x200000d8
    2ca8:	0000aab8 	.word	0x0000aab8
    2cac:	0000aac0 	.word	0x0000aac0
    2cb0:	200008dc 	.word	0x200008dc
    2cb4:	0000aad0 	.word	0x0000aad0
    2cb8:	0000aae0 	.word	0x0000aae0
    2cbc:	0000aaec 	.word	0x0000aaec
    2cc0:	0000aaf8 	.word	0x0000aaf8
    2cc4:	0000ab08 	.word	0x0000ab08

00002cc8 <CLOCK_GetOscFreq>:
    2cc8:	b480      	push	{r7}
    2cca:	af00      	add	r7, sp, #0
    2ccc:	4b07      	ldr	r3, [pc, #28]	; (2cec <CLOCK_GetOscFreq+0x24>)
    2cce:	f8d3 3270 	ldr.w	r3, [r3, #624]	; 0x270
    2cd2:	f003 0310 	and.w	r3, r3, #16
    2cd6:	2b00      	cmp	r3, #0
    2cd8:	d102      	bne.n	2ce0 <CLOCK_GetOscFreq+0x18>
    2cda:	4b05      	ldr	r3, [pc, #20]	; (2cf0 <CLOCK_GetOscFreq+0x28>)
    2cdc:	681b      	ldr	r3, [r3, #0]
    2cde:	e000      	b.n	2ce2 <CLOCK_GetOscFreq+0x1a>
    2ce0:	4b04      	ldr	r3, [pc, #16]	; (2cf4 <CLOCK_GetOscFreq+0x2c>)
    2ce2:	4618      	mov	r0, r3
    2ce4:	46bd      	mov	sp, r7
    2ce6:	f85d 7b04 	ldr.w	r7, [sp], #4
    2cea:	4770      	bx	lr
    2cec:	400d8000 	.word	0x400d8000
    2cf0:	200008e8 	.word	0x200008e8
    2cf4:	016e3600 	.word	0x016e3600

00002cf8 <CLOCK_GetPeriphClkFreq>:
    2cf8:	b580      	push	{r7, lr}
    2cfa:	b082      	sub	sp, #8
    2cfc:	af00      	add	r7, sp, #0
    2cfe:	4b33      	ldr	r3, [pc, #204]	; (2dcc <CLOCK_GetPeriphClkFreq+0xd4>)
    2d00:	695b      	ldr	r3, [r3, #20]
    2d02:	f003 7300 	and.w	r3, r3, #33554432	; 0x2000000
    2d06:	2b00      	cmp	r3, #0
    2d08:	d027      	beq.n	2d5a <CLOCK_GetPeriphClkFreq+0x62>
    2d0a:	4b30      	ldr	r3, [pc, #192]	; (2dcc <CLOCK_GetPeriphClkFreq+0xd4>)
    2d0c:	699b      	ldr	r3, [r3, #24]
    2d0e:	f403 5340 	and.w	r3, r3, #12288	; 0x3000
    2d12:	f5b3 5f80 	cmp.w	r3, #4096	; 0x1000
    2d16:	d009      	beq.n	2d2c <CLOCK_GetPeriphClkFreq+0x34>
    2d18:	f5b3 5f00 	cmp.w	r3, #8192	; 0x2000
    2d1c:	d00a      	beq.n	2d34 <CLOCK_GetPeriphClkFreq+0x3c>
    2d1e:	2b00      	cmp	r3, #0
    2d20:	d10d      	bne.n	2d3e <CLOCK_GetPeriphClkFreq+0x46>
    2d22:	482b      	ldr	r0, [pc, #172]	; (2dd0 <CLOCK_GetPeriphClkFreq+0xd8>)
    2d24:	f000 faa8 	bl	3278 <CLOCK_GetPllFreq>
    2d28:	6078      	str	r0, [r7, #4]
    2d2a:	e00b      	b.n	2d44 <CLOCK_GetPeriphClkFreq+0x4c>
    2d2c:	f7ff ffcc 	bl	2cc8 <CLOCK_GetOscFreq>
    2d30:	6078      	str	r0, [r7, #4]
    2d32:	e007      	b.n	2d44 <CLOCK_GetPeriphClkFreq+0x4c>
    2d34:	4827      	ldr	r0, [pc, #156]	; (2dd4 <CLOCK_GetPeriphClkFreq+0xdc>)
    2d36:	f000 fa9f 	bl	3278 <CLOCK_GetPllFreq>
    2d3a:	6078      	str	r0, [r7, #4]
    2d3c:	e002      	b.n	2d44 <CLOCK_GetPeriphClkFreq+0x4c>
    2d3e:	2300      	movs	r3, #0
    2d40:	607b      	str	r3, [r7, #4]
    2d42:	bf00      	nop
    2d44:	4b21      	ldr	r3, [pc, #132]	; (2dcc <CLOCK_GetPeriphClkFreq+0xd4>)
    2d46:	695b      	ldr	r3, [r3, #20]
    2d48:	0edb      	lsrs	r3, r3, #27
    2d4a:	f003 0307 	and.w	r3, r3, #7
    2d4e:	3301      	adds	r3, #1
    2d50:	687a      	ldr	r2, [r7, #4]
    2d52:	fbb2 f3f3 	udiv	r3, r2, r3
    2d56:	607b      	str	r3, [r7, #4]
    2d58:	e032      	b.n	2dc0 <CLOCK_GetPeriphClkFreq+0xc8>
    2d5a:	4b1c      	ldr	r3, [pc, #112]	; (2dcc <CLOCK_GetPeriphClkFreq+0xd4>)
    2d5c:	699b      	ldr	r3, [r3, #24]
    2d5e:	f403 2340 	and.w	r3, r3, #786432	; 0xc0000
    2d62:	f5b3 2f80 	cmp.w	r3, #262144	; 0x40000
    2d66:	d011      	beq.n	2d8c <CLOCK_GetPeriphClkFreq+0x94>
    2d68:	f5b3 2f80 	cmp.w	r3, #262144	; 0x40000
    2d6c:	d802      	bhi.n	2d74 <CLOCK_GetPeriphClkFreq+0x7c>
    2d6e:	2b00      	cmp	r3, #0
    2d70:	d007      	beq.n	2d82 <CLOCK_GetPeriphClkFreq+0x8a>
    2d72:	e022      	b.n	2dba <CLOCK_GetPeriphClkFreq+0xc2>
    2d74:	f5b3 2f00 	cmp.w	r3, #524288	; 0x80000
    2d78:	d00d      	beq.n	2d96 <CLOCK_GetPeriphClkFreq+0x9e>
    2d7a:	f5b3 2f40 	cmp.w	r3, #786432	; 0xc0000
    2d7e:	d00f      	beq.n	2da0 <CLOCK_GetPeriphClkFreq+0xa8>
    2d80:	e01b      	b.n	2dba <CLOCK_GetPeriphClkFreq+0xc2>
    2d82:	4814      	ldr	r0, [pc, #80]	; (2dd4 <CLOCK_GetPeriphClkFreq+0xdc>)
    2d84:	f000 fa78 	bl	3278 <CLOCK_GetPllFreq>
    2d88:	6078      	str	r0, [r7, #4]
    2d8a:	e019      	b.n	2dc0 <CLOCK_GetPeriphClkFreq+0xc8>
    2d8c:	2002      	movs	r0, #2
    2d8e:	f000 fc43 	bl	3618 <CLOCK_GetSysPfdFreq>
    2d92:	6078      	str	r0, [r7, #4]
    2d94:	e014      	b.n	2dc0 <CLOCK_GetPeriphClkFreq+0xc8>
    2d96:	2000      	movs	r0, #0
    2d98:	f000 fc3e 	bl	3618 <CLOCK_GetSysPfdFreq>
    2d9c:	6078      	str	r0, [r7, #4]
    2d9e:	e00f      	b.n	2dc0 <CLOCK_GetPeriphClkFreq+0xc8>
    2da0:	200d      	movs	r0, #13
    2da2:	f000 fa69 	bl	3278 <CLOCK_GetPllFreq>
    2da6:	4602      	mov	r2, r0
    2da8:	4b08      	ldr	r3, [pc, #32]	; (2dcc <CLOCK_GetPeriphClkFreq+0xd4>)
    2daa:	691b      	ldr	r3, [r3, #16]
    2dac:	f003 0307 	and.w	r3, r3, #7
    2db0:	3301      	adds	r3, #1
    2db2:	fbb2 f3f3 	udiv	r3, r2, r3
    2db6:	607b      	str	r3, [r7, #4]
    2db8:	e002      	b.n	2dc0 <CLOCK_GetPeriphClkFreq+0xc8>
    2dba:	2300      	movs	r3, #0
    2dbc:	607b      	str	r3, [r7, #4]
    2dbe:	bf00      	nop
    2dc0:	687b      	ldr	r3, [r7, #4]
    2dc2:	4618      	mov	r0, r3
    2dc4:	3708      	adds	r7, #8
    2dc6:	46bd      	mov	sp, r7
    2dc8:	bd80      	pop	{r7, pc}
    2dca:	bf00      	nop
    2dcc:	400fc000 	.word	0x400fc000
    2dd0:	0010000d 	.word	0x0010000d
    2dd4:	0030000d 	.word	0x0030000d

00002dd8 <CLOCK_InitExternalClk>:
    2dd8:	b580      	push	{r7, lr}
    2dda:	b082      	sub	sp, #8
    2ddc:	af00      	add	r7, sp, #0
    2dde:	4603      	mov	r3, r0
    2de0:	71fb      	strb	r3, [r7, #7]
    2de2:	79fb      	ldrb	r3, [r7, #7]
    2de4:	f083 0301 	eor.w	r3, r3, #1
    2de8:	b2db      	uxtb	r3, r3
    2dea:	2b00      	cmp	r3, #0
    2dec:	d102      	bne.n	2df4 <CLOCK_InitExternalClk+0x1c>
    2dee:	4813      	ldr	r0, [pc, #76]	; (2e3c <CLOCK_InitExternalClk+0x64>)
    2df0:	f004 fdf4 	bl	79dc <__assertion_failed>
    2df4:	4b12      	ldr	r3, [pc, #72]	; (2e40 <CLOCK_InitExternalClk+0x68>)
    2df6:	f04f 4280 	mov.w	r2, #1073741824	; 0x40000000
    2dfa:	f8c3 2158 	str.w	r2, [r3, #344]	; 0x158
    2dfe:	bf00      	nop
    2e00:	4b0f      	ldr	r3, [pc, #60]	; (2e40 <CLOCK_InitExternalClk+0x68>)
    2e02:	f8d3 3270 	ldr.w	r3, [r3, #624]	; 0x270
    2e06:	f403 3380 	and.w	r3, r3, #65536	; 0x10000
    2e0a:	2b00      	cmp	r3, #0
    2e0c:	d0f8      	beq.n	2e00 <CLOCK_InitExternalClk+0x28>
    2e0e:	4b0c      	ldr	r3, [pc, #48]	; (2e40 <CLOCK_InitExternalClk+0x68>)
    2e10:	f44f 3280 	mov.w	r2, #65536	; 0x10000
    2e14:	f8c3 2154 	str.w	r2, [r3, #340]	; 0x154
    2e18:	bf00      	nop
    2e1a:	4b09      	ldr	r3, [pc, #36]	; (2e40 <CLOCK_InitExternalClk+0x68>)
    2e1c:	f8d3 3150 	ldr.w	r3, [r3, #336]	; 0x150
    2e20:	f403 4300 	and.w	r3, r3, #32768	; 0x8000
    2e24:	2b00      	cmp	r3, #0
    2e26:	d0f8      	beq.n	2e1a <CLOCK_InitExternalClk+0x42>
    2e28:	4b05      	ldr	r3, [pc, #20]	; (2e40 <CLOCK_InitExternalClk+0x68>)
    2e2a:	f44f 3280 	mov.w	r2, #65536	; 0x10000
    2e2e:	f8c3 2158 	str.w	r2, [r3, #344]	; 0x158
    2e32:	bf00      	nop
    2e34:	3708      	adds	r7, #8
    2e36:	46bd      	mov	sp, r7
    2e38:	bd80      	pop	{r7, pc}
    2e3a:	bf00      	nop
    2e3c:	0000ab18 	.word	0x0000ab18
    2e40:	400d8000 	.word	0x400d8000

00002e44 <CLOCK_SwitchOsc>:
    2e44:	b480      	push	{r7}
    2e46:	b083      	sub	sp, #12
    2e48:	af00      	add	r7, sp, #0
    2e4a:	4603      	mov	r3, r0
    2e4c:	71fb      	strb	r3, [r7, #7]
    2e4e:	79fb      	ldrb	r3, [r7, #7]
    2e50:	2b00      	cmp	r3, #0
    2e52:	d104      	bne.n	2e5e <CLOCK_SwitchOsc+0x1a>
    2e54:	4b07      	ldr	r3, [pc, #28]	; (2e74 <CLOCK_SwitchOsc+0x30>)
    2e56:	2210      	movs	r2, #16
    2e58:	f8c3 2274 	str.w	r2, [r3, #628]	; 0x274
    2e5c:	e003      	b.n	2e66 <CLOCK_SwitchOsc+0x22>
    2e5e:	4b05      	ldr	r3, [pc, #20]	; (2e74 <CLOCK_SwitchOsc+0x30>)
    2e60:	2210      	movs	r2, #16
    2e62:	f8c3 2278 	str.w	r2, [r3, #632]	; 0x278
    2e66:	bf00      	nop
    2e68:	370c      	adds	r7, #12
    2e6a:	46bd      	mov	sp, r7
    2e6c:	f85d 7b04 	ldr.w	r7, [sp], #4
    2e70:	4770      	bx	lr
    2e72:	bf00      	nop
    2e74:	400d8000 	.word	0x400d8000

00002e78 <CLOCK_InitRcOsc24M>:
    2e78:	b480      	push	{r7}
    2e7a:	af00      	add	r7, sp, #0
    2e7c:	4b06      	ldr	r3, [pc, #24]	; (2e98 <CLOCK_InitRcOsc24M+0x20>)
    2e7e:	f8d3 3270 	ldr.w	r3, [r3, #624]	; 0x270
    2e82:	4a05      	ldr	r2, [pc, #20]	; (2e98 <CLOCK_InitRcOsc24M+0x20>)
    2e84:	f043 0301 	orr.w	r3, r3, #1
    2e88:	f8c2 3270 	str.w	r3, [r2, #624]	; 0x270
    2e8c:	bf00      	nop
    2e8e:	46bd      	mov	sp, r7
    2e90:	f85d 7b04 	ldr.w	r7, [sp], #4
    2e94:	4770      	bx	lr
    2e96:	bf00      	nop
    2e98:	400d8000 	.word	0x400d8000

00002e9c <CLOCK_GetAhbFreq>:
    2e9c:	b580      	push	{r7, lr}
    2e9e:	af00      	add	r7, sp, #0
    2ea0:	f7ff ff2a 	bl	2cf8 <CLOCK_GetPeriphClkFreq>
    2ea4:	4602      	mov	r2, r0
    2ea6:	4b05      	ldr	r3, [pc, #20]	; (2ebc <CLOCK_GetAhbFreq+0x20>)
    2ea8:	695b      	ldr	r3, [r3, #20]
    2eaa:	0a9b      	lsrs	r3, r3, #10
    2eac:	f003 0307 	and.w	r3, r3, #7
    2eb0:	3301      	adds	r3, #1
    2eb2:	fbb2 f3f3 	udiv	r3, r2, r3
    2eb6:	4618      	mov	r0, r3
    2eb8:	bd80      	pop	{r7, pc}
    2eba:	bf00      	nop
    2ebc:	400fc000 	.word	0x400fc000

00002ec0 <CLOCK_GetSemcFreq>:
    2ec0:	b580      	push	{r7, lr}
    2ec2:	b082      	sub	sp, #8
    2ec4:	af00      	add	r7, sp, #0
    2ec6:	4b14      	ldr	r3, [pc, #80]	; (2f18 <CLOCK_GetSemcFreq+0x58>)
    2ec8:	695b      	ldr	r3, [r3, #20]
    2eca:	f003 0340 	and.w	r3, r3, #64	; 0x40
    2ece:	2b00      	cmp	r3, #0
    2ed0:	d00f      	beq.n	2ef2 <CLOCK_GetSemcFreq+0x32>
    2ed2:	4b11      	ldr	r3, [pc, #68]	; (2f18 <CLOCK_GetSemcFreq+0x58>)
    2ed4:	695b      	ldr	r3, [r3, #20]
    2ed6:	f003 0380 	and.w	r3, r3, #128	; 0x80
    2eda:	2b00      	cmp	r3, #0
    2edc:	d004      	beq.n	2ee8 <CLOCK_GetSemcFreq+0x28>
    2ede:	2001      	movs	r0, #1
    2ee0:	f000 fbf0 	bl	36c4 <CLOCK_GetUsb1PfdFreq>
    2ee4:	6078      	str	r0, [r7, #4]
    2ee6:	e007      	b.n	2ef8 <CLOCK_GetSemcFreq+0x38>
    2ee8:	2002      	movs	r0, #2
    2eea:	f000 fb95 	bl	3618 <CLOCK_GetSysPfdFreq>
    2eee:	6078      	str	r0, [r7, #4]
    2ef0:	e002      	b.n	2ef8 <CLOCK_GetSemcFreq+0x38>
    2ef2:	f7ff ff01 	bl	2cf8 <CLOCK_GetPeriphClkFreq>
    2ef6:	6078      	str	r0, [r7, #4]
    2ef8:	4b07      	ldr	r3, [pc, #28]	; (2f18 <CLOCK_GetSemcFreq+0x58>)
    2efa:	695b      	ldr	r3, [r3, #20]
    2efc:	0c1b      	lsrs	r3, r3, #16
    2efe:	f003 0307 	and.w	r3, r3, #7
    2f02:	3301      	adds	r3, #1
    2f04:	687a      	ldr	r2, [r7, #4]
    2f06:	fbb2 f3f3 	udiv	r3, r2, r3
    2f0a:	607b      	str	r3, [r7, #4]
    2f0c:	687b      	ldr	r3, [r7, #4]
    2f0e:	4618      	mov	r0, r3
    2f10:	3708      	adds	r7, #8
    2f12:	46bd      	mov	sp, r7
    2f14:	bd80      	pop	{r7, pc}
    2f16:	bf00      	nop
    2f18:	400fc000 	.word	0x400fc000

00002f1c <CLOCK_GetIpgFreq>:
    2f1c:	b580      	push	{r7, lr}
    2f1e:	af00      	add	r7, sp, #0
    2f20:	f7ff ffbc 	bl	2e9c <CLOCK_GetAhbFreq>
    2f24:	4602      	mov	r2, r0
    2f26:	4b05      	ldr	r3, [pc, #20]	; (2f3c <CLOCK_GetIpgFreq+0x20>)
    2f28:	695b      	ldr	r3, [r3, #20]
    2f2a:	0a1b      	lsrs	r3, r3, #8
    2f2c:	f003 0303 	and.w	r3, r3, #3
    2f30:	3301      	adds	r3, #1
    2f32:	fbb2 f3f3 	udiv	r3, r2, r3
    2f36:	4618      	mov	r0, r3
    2f38:	bd80      	pop	{r7, pc}
    2f3a:	bf00      	nop
    2f3c:	400fc000 	.word	0x400fc000

00002f40 <CLOCK_GetPerClkFreq>:
    2f40:	b580      	push	{r7, lr}
    2f42:	b082      	sub	sp, #8
    2f44:	af00      	add	r7, sp, #0
    2f46:	4b0e      	ldr	r3, [pc, #56]	; (2f80 <CLOCK_GetPerClkFreq+0x40>)
    2f48:	69db      	ldr	r3, [r3, #28]
    2f4a:	f003 0340 	and.w	r3, r3, #64	; 0x40
    2f4e:	2b00      	cmp	r3, #0
    2f50:	d003      	beq.n	2f5a <CLOCK_GetPerClkFreq+0x1a>
    2f52:	f7ff feb9 	bl	2cc8 <CLOCK_GetOscFreq>
    2f56:	6078      	str	r0, [r7, #4]
    2f58:	e003      	b.n	2f62 <CLOCK_GetPerClkFreq+0x22>
    2f5a:	2003      	movs	r0, #3
    2f5c:	f000 f812 	bl	2f84 <CLOCK_GetFreq>
    2f60:	6078      	str	r0, [r7, #4]
    2f62:	4b07      	ldr	r3, [pc, #28]	; (2f80 <CLOCK_GetPerClkFreq+0x40>)
    2f64:	69db      	ldr	r3, [r3, #28]
    2f66:	f003 033f 	and.w	r3, r3, #63	; 0x3f
    2f6a:	3301      	adds	r3, #1
    2f6c:	687a      	ldr	r2, [r7, #4]
    2f6e:	fbb2 f3f3 	udiv	r3, r2, r3
    2f72:	607b      	str	r3, [r7, #4]
    2f74:	687b      	ldr	r3, [r7, #4]
    2f76:	4618      	mov	r0, r3
    2f78:	3708      	adds	r7, #8
    2f7a:	46bd      	mov	sp, r7
    2f7c:	bd80      	pop	{r7, pc}
    2f7e:	bf00      	nop
    2f80:	400fc000 	.word	0x400fc000

00002f84 <CLOCK_GetFreq>:
    2f84:	b580      	push	{r7, lr}
    2f86:	b084      	sub	sp, #16
    2f88:	af00      	add	r7, sp, #0
    2f8a:	4603      	mov	r3, r0
    2f8c:	71fb      	strb	r3, [r7, #7]
    2f8e:	79fb      	ldrb	r3, [r7, #7]
    2f90:	2b17      	cmp	r3, #23
    2f92:	f200 80a0 	bhi.w	30d6 <CLOCK_GetFreq+0x152>
    2f96:	a201      	add	r2, pc, #4	; (adr r2, 2f9c <CLOCK_GetFreq+0x18>)
    2f98:	f852 f023 	ldr.w	pc, [r2, r3, lsl #2]
    2f9c:	00002ffd 	.word	0x00002ffd
    2fa0:	00002ffd 	.word	0x00002ffd
    2fa4:	00003005 	.word	0x00003005
    2fa8:	0000300d 	.word	0x0000300d
    2fac:	00003015 	.word	0x00003015
    2fb0:	0000301d 	.word	0x0000301d
    2fb4:	00003025 	.word	0x00003025
    2fb8:	0000302d 	.word	0x0000302d
    2fbc:	00003037 	.word	0x00003037
    2fc0:	00003041 	.word	0x00003041
    2fc4:	0000304b 	.word	0x0000304b
    2fc8:	00003055 	.word	0x00003055
    2fcc:	0000305f 	.word	0x0000305f
    2fd0:	00003069 	.word	0x00003069
    2fd4:	00003073 	.word	0x00003073
    2fd8:	0000307d 	.word	0x0000307d
    2fdc:	00003087 	.word	0x00003087
    2fe0:	00003091 	.word	0x00003091
    2fe4:	0000309b 	.word	0x0000309b
    2fe8:	000030a5 	.word	0x000030a5
    2fec:	000030af 	.word	0x000030af
    2ff0:	000030b9 	.word	0x000030b9
    2ff4:	000030c3 	.word	0x000030c3
    2ff8:	000030cd 	.word	0x000030cd
    2ffc:	f7ff ff4e 	bl	2e9c <CLOCK_GetAhbFreq>
    3000:	60f8      	str	r0, [r7, #12]
    3002:	e06b      	b.n	30dc <CLOCK_GetFreq+0x158>
    3004:	f7ff ff5c 	bl	2ec0 <CLOCK_GetSemcFreq>
    3008:	60f8      	str	r0, [r7, #12]
    300a:	e067      	b.n	30dc <CLOCK_GetFreq+0x158>
    300c:	f7ff ff86 	bl	2f1c <CLOCK_GetIpgFreq>
    3010:	60f8      	str	r0, [r7, #12]
    3012:	e063      	b.n	30dc <CLOCK_GetFreq+0x158>
    3014:	f7ff ff94 	bl	2f40 <CLOCK_GetPerClkFreq>
    3018:	60f8      	str	r0, [r7, #12]
    301a:	e05f      	b.n	30dc <CLOCK_GetFreq+0x158>
    301c:	f7ff fe54 	bl	2cc8 <CLOCK_GetOscFreq>
    3020:	60f8      	str	r0, [r7, #12]
    3022:	e05b      	b.n	30dc <CLOCK_GetFreq+0x158>
    3024:	f006 f809 	bl	903a <CLOCK_GetRtcFreq>
    3028:	60f8      	str	r0, [r7, #12]
    302a:	e057      	b.n	30dc <CLOCK_GetFreq+0x158>
    302c:	200d      	movs	r0, #13
    302e:	f000 f923 	bl	3278 <CLOCK_GetPllFreq>
    3032:	60f8      	str	r0, [r7, #12]
    3034:	e052      	b.n	30dc <CLOCK_GetFreq+0x158>
    3036:	482c      	ldr	r0, [pc, #176]	; (30e8 <CLOCK_GetFreq+0x164>)
    3038:	f000 f91e 	bl	3278 <CLOCK_GetPllFreq>
    303c:	60f8      	str	r0, [r7, #12]
    303e:	e04d      	b.n	30dc <CLOCK_GetFreq+0x158>
    3040:	2000      	movs	r0, #0
    3042:	f000 fb3f 	bl	36c4 <CLOCK_GetUsb1PfdFreq>
    3046:	60f8      	str	r0, [r7, #12]
    3048:	e048      	b.n	30dc <CLOCK_GetFreq+0x158>
    304a:	2001      	movs	r0, #1
    304c:	f000 fb3a 	bl	36c4 <CLOCK_GetUsb1PfdFreq>
    3050:	60f8      	str	r0, [r7, #12]
    3052:	e043      	b.n	30dc <CLOCK_GetFreq+0x158>
    3054:	2002      	movs	r0, #2
    3056:	f000 fb35 	bl	36c4 <CLOCK_GetUsb1PfdFreq>
    305a:	60f8      	str	r0, [r7, #12]
    305c:	e03e      	b.n	30dc <CLOCK_GetFreq+0x158>
    305e:	2003      	movs	r0, #3
    3060:	f000 fb30 	bl	36c4 <CLOCK_GetUsb1PfdFreq>
    3064:	60f8      	str	r0, [r7, #12]
    3066:	e039      	b.n	30dc <CLOCK_GetFreq+0x158>
    3068:	4820      	ldr	r0, [pc, #128]	; (30ec <CLOCK_GetFreq+0x168>)
    306a:	f000 f905 	bl	3278 <CLOCK_GetPllFreq>
    306e:	60f8      	str	r0, [r7, #12]
    3070:	e034      	b.n	30dc <CLOCK_GetFreq+0x158>
    3072:	481f      	ldr	r0, [pc, #124]	; (30f0 <CLOCK_GetFreq+0x16c>)
    3074:	f000 f900 	bl	3278 <CLOCK_GetPllFreq>
    3078:	60f8      	str	r0, [r7, #12]
    307a:	e02f      	b.n	30dc <CLOCK_GetFreq+0x158>
    307c:	2000      	movs	r0, #0
    307e:	f000 facb 	bl	3618 <CLOCK_GetSysPfdFreq>
    3082:	60f8      	str	r0, [r7, #12]
    3084:	e02a      	b.n	30dc <CLOCK_GetFreq+0x158>
    3086:	2001      	movs	r0, #1
    3088:	f000 fac6 	bl	3618 <CLOCK_GetSysPfdFreq>
    308c:	60f8      	str	r0, [r7, #12]
    308e:	e025      	b.n	30dc <CLOCK_GetFreq+0x158>
    3090:	2002      	movs	r0, #2
    3092:	f000 fac1 	bl	3618 <CLOCK_GetSysPfdFreq>
    3096:	60f8      	str	r0, [r7, #12]
    3098:	e020      	b.n	30dc <CLOCK_GetFreq+0x158>
    309a:	2003      	movs	r0, #3
    309c:	f000 fabc 	bl	3618 <CLOCK_GetSysPfdFreq>
    30a0:	60f8      	str	r0, [r7, #12]
    30a2:	e01b      	b.n	30dc <CLOCK_GetFreq+0x158>
    30a4:	4813      	ldr	r0, [pc, #76]	; (30f4 <CLOCK_GetFreq+0x170>)
    30a6:	f000 f8e7 	bl	3278 <CLOCK_GetPllFreq>
    30aa:	60f8      	str	r0, [r7, #12]
    30ac:	e016      	b.n	30dc <CLOCK_GetFreq+0x158>
    30ae:	4812      	ldr	r0, [pc, #72]	; (30f8 <CLOCK_GetFreq+0x174>)
    30b0:	f000 f8e2 	bl	3278 <CLOCK_GetPllFreq>
    30b4:	60f8      	str	r0, [r7, #12]
    30b6:	e011      	b.n	30dc <CLOCK_GetFreq+0x158>
    30b8:	4810      	ldr	r0, [pc, #64]	; (30fc <CLOCK_GetFreq+0x178>)
    30ba:	f000 f8dd 	bl	3278 <CLOCK_GetPllFreq>
    30be:	60f8      	str	r0, [r7, #12]
    30c0:	e00c      	b.n	30dc <CLOCK_GetFreq+0x158>
    30c2:	480f      	ldr	r0, [pc, #60]	; (3100 <CLOCK_GetFreq+0x17c>)
    30c4:	f000 f8d8 	bl	3278 <CLOCK_GetPllFreq>
    30c8:	60f8      	str	r0, [r7, #12]
    30ca:	e007      	b.n	30dc <CLOCK_GetFreq+0x158>
    30cc:	480d      	ldr	r0, [pc, #52]	; (3104 <CLOCK_GetFreq+0x180>)
    30ce:	f000 f8d3 	bl	3278 <CLOCK_GetPllFreq>
    30d2:	60f8      	str	r0, [r7, #12]
    30d4:	e002      	b.n	30dc <CLOCK_GetFreq+0x158>
    30d6:	2300      	movs	r3, #0
    30d8:	60fb      	str	r3, [r7, #12]
    30da:	bf00      	nop
    30dc:	68fb      	ldr	r3, [r7, #12]
    30de:	4618      	mov	r0, r3
    30e0:	3710      	adds	r7, #16
    30e2:	46bd      	mov	sp, r7
    30e4:	bd80      	pop	{r7, pc}
    30e6:	bf00      	nop
    30e8:	0010000d 	.word	0x0010000d
    30ec:	0020000d 	.word	0x0020000d
    30f0:	0030000d 	.word	0x0030000d
    30f4:	00e0000d 	.word	0x00e0000d
    30f8:	00e00014 	.word	0x00e00014
    30fc:	00e00015 	.word	0x00e00015
    3100:	0070000d 	.word	0x0070000d
    3104:	00a0000d 	.word	0x00a0000d

00003108 <CLOCK_InitArmPll>:
    3108:	b480      	push	{r7}
    310a:	b083      	sub	sp, #12
    310c:	af00      	add	r7, sp, #0
    310e:	6078      	str	r0, [r7, #4]
    3110:	4b15      	ldr	r3, [pc, #84]	; (3168 <CLOCK_InitArmPll+0x60>)
    3112:	681b      	ldr	r3, [r3, #0]
    3114:	f423 32e0 	bic.w	r2, r3, #114688	; 0x1c000
    3118:	687b      	ldr	r3, [r7, #4]
    311a:	791b      	ldrb	r3, [r3, #4]
    311c:	039b      	lsls	r3, r3, #14
    311e:	b29b      	uxth	r3, r3
    3120:	4313      	orrs	r3, r2
    3122:	4a11      	ldr	r2, [pc, #68]	; (3168 <CLOCK_InitArmPll+0x60>)
    3124:	f443 3380 	orr.w	r3, r3, #65536	; 0x10000
    3128:	6013      	str	r3, [r2, #0]
    312a:	4b0f      	ldr	r3, [pc, #60]	; (3168 <CLOCK_InitArmPll+0x60>)
    312c:	681a      	ldr	r2, [r3, #0]
    312e:	4b0f      	ldr	r3, [pc, #60]	; (316c <CLOCK_InitArmPll+0x64>)
    3130:	4013      	ands	r3, r2
    3132:	687a      	ldr	r2, [r7, #4]
    3134:	6812      	ldr	r2, [r2, #0]
    3136:	f002 027f 	and.w	r2, r2, #127	; 0x7f
    313a:	4313      	orrs	r3, r2
    313c:	4a0a      	ldr	r2, [pc, #40]	; (3168 <CLOCK_InitArmPll+0x60>)
    313e:	f443 5300 	orr.w	r3, r3, #8192	; 0x2000
    3142:	6013      	str	r3, [r2, #0]
    3144:	bf00      	nop
    3146:	4b08      	ldr	r3, [pc, #32]	; (3168 <CLOCK_InitArmPll+0x60>)
    3148:	681b      	ldr	r3, [r3, #0]
    314a:	2b00      	cmp	r3, #0
    314c:	dafb      	bge.n	3146 <CLOCK_InitArmPll+0x3e>
    314e:	4b06      	ldr	r3, [pc, #24]	; (3168 <CLOCK_InitArmPll+0x60>)
    3150:	681b      	ldr	r3, [r3, #0]
    3152:	4a05      	ldr	r2, [pc, #20]	; (3168 <CLOCK_InitArmPll+0x60>)
    3154:	f423 3380 	bic.w	r3, r3, #65536	; 0x10000
    3158:	6013      	str	r3, [r2, #0]
    315a:	bf00      	nop
    315c:	370c      	adds	r7, #12
    315e:	46bd      	mov	sp, r7
    3160:	f85d 7b04 	ldr.w	r7, [sp], #4
    3164:	4770      	bx	lr
    3166:	bf00      	nop
    3168:	400d8000 	.word	0x400d8000
    316c:	ffffcf80 	.word	0xffffcf80

00003170 <CLOCK_InitSysPll>:
    3170:	b480      	push	{r7}
    3172:	b083      	sub	sp, #12
    3174:	af00      	add	r7, sp, #0
    3176:	6078      	str	r0, [r7, #4]
    3178:	4b22      	ldr	r3, [pc, #136]	; (3204 <CLOCK_InitSysPll+0x94>)
    317a:	6b1b      	ldr	r3, [r3, #48]	; 0x30
    317c:	f423 32e0 	bic.w	r2, r3, #114688	; 0x1c000
    3180:	687b      	ldr	r3, [r7, #4]
    3182:	7b1b      	ldrb	r3, [r3, #12]
    3184:	039b      	lsls	r3, r3, #14
    3186:	b29b      	uxth	r3, r3
    3188:	4313      	orrs	r3, r2
    318a:	4a1e      	ldr	r2, [pc, #120]	; (3204 <CLOCK_InitSysPll+0x94>)
    318c:	f443 3380 	orr.w	r3, r3, #65536	; 0x10000
    3190:	6313      	str	r3, [r2, #48]	; 0x30
    3192:	4b1c      	ldr	r3, [pc, #112]	; (3204 <CLOCK_InitSysPll+0x94>)
    3194:	6b1a      	ldr	r2, [r3, #48]	; 0x30
    3196:	4b1c      	ldr	r3, [pc, #112]	; (3208 <CLOCK_InitSysPll+0x98>)
    3198:	4013      	ands	r3, r2
    319a:	687a      	ldr	r2, [r7, #4]
    319c:	7812      	ldrb	r2, [r2, #0]
    319e:	f002 0201 	and.w	r2, r2, #1
    31a2:	4313      	orrs	r3, r2
    31a4:	4a17      	ldr	r2, [pc, #92]	; (3204 <CLOCK_InitSysPll+0x94>)
    31a6:	f443 5300 	orr.w	r3, r3, #8192	; 0x2000
    31aa:	6313      	str	r3, [r2, #48]	; 0x30
    31ac:	687b      	ldr	r3, [r7, #4]
    31ae:	685b      	ldr	r3, [r3, #4]
    31b0:	4a14      	ldr	r2, [pc, #80]	; (3204 <CLOCK_InitSysPll+0x94>)
    31b2:	f023 4340 	bic.w	r3, r3, #3221225472	; 0xc0000000
    31b6:	6513      	str	r3, [r2, #80]	; 0x50
    31b8:	687b      	ldr	r3, [r7, #4]
    31ba:	689b      	ldr	r3, [r3, #8]
    31bc:	4a11      	ldr	r2, [pc, #68]	; (3204 <CLOCK_InitSysPll+0x94>)
    31be:	f023 4340 	bic.w	r3, r3, #3221225472	; 0xc0000000
    31c2:	6613      	str	r3, [r2, #96]	; 0x60
    31c4:	687b      	ldr	r3, [r7, #4]
    31c6:	8a5b      	ldrh	r3, [r3, #18]
    31c8:	f3c3 020e 	ubfx	r2, r3, #0, #15
    31cc:	687b      	ldr	r3, [r7, #4]
    31ce:	7c1b      	ldrb	r3, [r3, #16]
    31d0:	03db      	lsls	r3, r3, #15
    31d2:	b29b      	uxth	r3, r3
    31d4:	431a      	orrs	r2, r3
    31d6:	687b      	ldr	r3, [r7, #4]
    31d8:	89db      	ldrh	r3, [r3, #14]
    31da:	041b      	lsls	r3, r3, #16
    31dc:	4909      	ldr	r1, [pc, #36]	; (3204 <CLOCK_InitSysPll+0x94>)
    31de:	4313      	orrs	r3, r2
    31e0:	640b      	str	r3, [r1, #64]	; 0x40
    31e2:	bf00      	nop
    31e4:	4b07      	ldr	r3, [pc, #28]	; (3204 <CLOCK_InitSysPll+0x94>)
    31e6:	6b1b      	ldr	r3, [r3, #48]	; 0x30
    31e8:	2b00      	cmp	r3, #0
    31ea:	dafb      	bge.n	31e4 <CLOCK_InitSysPll+0x74>
    31ec:	4b05      	ldr	r3, [pc, #20]	; (3204 <CLOCK_InitSysPll+0x94>)
    31ee:	6b1b      	ldr	r3, [r3, #48]	; 0x30
    31f0:	4a04      	ldr	r2, [pc, #16]	; (3204 <CLOCK_InitSysPll+0x94>)
    31f2:	f423 3380 	bic.w	r3, r3, #65536	; 0x10000
    31f6:	6313      	str	r3, [r2, #48]	; 0x30
    31f8:	bf00      	nop
    31fa:	370c      	adds	r7, #12
    31fc:	46bd      	mov	sp, r7
    31fe:	f85d 7b04 	ldr.w	r7, [sp], #4
    3202:	4770      	bx	lr
    3204:	400d8000 	.word	0x400d8000
    3208:	ffffcffe 	.word	0xffffcffe

0000320c <CLOCK_DeinitUsb2Pll>:
    320c:	b480      	push	{r7}
    320e:	af00      	add	r7, sp, #0
    3210:	4b03      	ldr	r3, [pc, #12]	; (3220 <CLOCK_DeinitUsb2Pll+0x14>)
    3212:	2200      	movs	r2, #0
    3214:	621a      	str	r2, [r3, #32]
    3216:	bf00      	nop
    3218:	46bd      	mov	sp, r7
    321a:	f85d 7b04 	ldr.w	r7, [sp], #4
    321e:	4770      	bx	lr
    3220:	400d8000 	.word	0x400d8000

00003224 <CLOCK_DeinitAudioPll>:
    3224:	b480      	push	{r7}
    3226:	af00      	add	r7, sp, #0
    3228:	4b04      	ldr	r3, [pc, #16]	; (323c <CLOCK_DeinitAudioPll+0x18>)
    322a:	f44f 5280 	mov.w	r2, #4096	; 0x1000
    322e:	671a      	str	r2, [r3, #112]	; 0x70
    3230:	bf00      	nop
    3232:	46bd      	mov	sp, r7
    3234:	f85d 7b04 	ldr.w	r7, [sp], #4
    3238:	4770      	bx	lr
    323a:	bf00      	nop
    323c:	400d8000 	.word	0x400d8000

00003240 <CLOCK_DeinitVideoPll>:
    3240:	b480      	push	{r7}
    3242:	af00      	add	r7, sp, #0
    3244:	4b04      	ldr	r3, [pc, #16]	; (3258 <CLOCK_DeinitVideoPll+0x18>)
    3246:	f44f 5280 	mov.w	r2, #4096	; 0x1000
    324a:	f8c3 20a0 	str.w	r2, [r3, #160]	; 0xa0
    324e:	bf00      	nop
    3250:	46bd      	mov	sp, r7
    3252:	f85d 7b04 	ldr.w	r7, [sp], #4
    3256:	4770      	bx	lr
    3258:	400d8000 	.word	0x400d8000

0000325c <CLOCK_DeinitEnetPll>:
    325c:	b480      	push	{r7}
    325e:	af00      	add	r7, sp, #0
    3260:	4b04      	ldr	r3, [pc, #16]	; (3274 <CLOCK_DeinitEnetPll+0x18>)
    3262:	f44f 5280 	mov.w	r2, #4096	; 0x1000
    3266:	f8c3 20e0 	str.w	r2, [r3, #224]	; 0xe0
    326a:	bf00      	nop
    326c:	46bd      	mov	sp, r7
    326e:	f85d 7b04 	ldr.w	r7, [sp], #4
    3272:	4770      	bx	lr
    3274:	400d8000 	.word	0x400d8000

00003278 <CLOCK_GetPllFreq>:
    3278:	b590      	push	{r4, r7, lr}
    327a:	b08d      	sub	sp, #52	; 0x34
    327c:	af00      	add	r7, sp, #0
    327e:	6078      	str	r0, [r7, #4]
    3280:	4bb2      	ldr	r3, [pc, #712]	; (354c <CLOCK_GetPllFreq+0x2d4>)
    3282:	f107 040c 	add.w	r4, r7, #12
    3286:	cb0f      	ldmia	r3, {r0, r1, r2, r3}
    3288:	e884 000f 	stmia.w	r4, {r0, r1, r2, r3}
    328c:	6879      	ldr	r1, [r7, #4]
    328e:	48b0      	ldr	r0, [pc, #704]	; (3550 <CLOCK_GetPllFreq+0x2d8>)
    3290:	f005 fef5 	bl	907e <CLOCK_IsPllEnabled>
    3294:	4603      	mov	r3, r0
    3296:	f083 0301 	eor.w	r3, r3, #1
    329a:	b2db      	uxtb	r3, r3
    329c:	2b00      	cmp	r3, #0
    329e:	d001      	beq.n	32a4 <CLOCK_GetPllFreq+0x2c>
    32a0:	2300      	movs	r3, #0
    32a2:	e17e      	b.n	35a2 <CLOCK_GetPllFreq+0x32a>
    32a4:	6879      	ldr	r1, [r7, #4]
    32a6:	48aa      	ldr	r0, [pc, #680]	; (3550 <CLOCK_GetPllFreq+0x2d8>)
    32a8:	f005 ff07 	bl	90ba <CLOCK_GetPllBypassRefClk>
    32ac:	62f8      	str	r0, [r7, #44]	; 0x2c
    32ae:	6879      	ldr	r1, [r7, #4]
    32b0:	48a7      	ldr	r0, [pc, #668]	; (3550 <CLOCK_GetPllFreq+0x2d8>)
    32b2:	f005 fecb 	bl	904c <CLOCK_IsPllBypassed>
    32b6:	4603      	mov	r3, r0
    32b8:	2b00      	cmp	r3, #0
    32ba:	d001      	beq.n	32c0 <CLOCK_GetPllFreq+0x48>
    32bc:	6afb      	ldr	r3, [r7, #44]	; 0x2c
    32be:	e170      	b.n	35a2 <CLOCK_GetPllFreq+0x32a>
    32c0:	687b      	ldr	r3, [r7, #4]
    32c2:	4aa4      	ldr	r2, [pc, #656]	; (3554 <CLOCK_GetPllFreq+0x2dc>)
    32c4:	4293      	cmp	r3, r2
    32c6:	d07e      	beq.n	33c6 <CLOCK_GetPllFreq+0x14e>
    32c8:	687b      	ldr	r3, [r7, #4]
    32ca:	4aa2      	ldr	r2, [pc, #648]	; (3554 <CLOCK_GetPllFreq+0x2dc>)
    32cc:	4293      	cmp	r3, r2
    32ce:	d815      	bhi.n	32fc <CLOCK_GetPllFreq+0x84>
    32d0:	687b      	ldr	r3, [r7, #4]
    32d2:	4aa1      	ldr	r2, [pc, #644]	; (3558 <CLOCK_GetPllFreq+0x2e0>)
    32d4:	4293      	cmp	r3, r2
    32d6:	d068      	beq.n	33aa <CLOCK_GetPllFreq+0x132>
    32d8:	687b      	ldr	r3, [r7, #4]
    32da:	4a9f      	ldr	r2, [pc, #636]	; (3558 <CLOCK_GetPllFreq+0x2e0>)
    32dc:	4293      	cmp	r3, r2
    32de:	d803      	bhi.n	32e8 <CLOCK_GetPllFreq+0x70>
    32e0:	687b      	ldr	r3, [r7, #4]
    32e2:	2b0d      	cmp	r3, #13
    32e4:	d024      	beq.n	3330 <CLOCK_GetPllFreq+0xb8>
    32e6:	e158      	b.n	359a <CLOCK_GetPllFreq+0x322>
    32e8:	687b      	ldr	r3, [r7, #4]
    32ea:	4a9c      	ldr	r2, [pc, #624]	; (355c <CLOCK_GetPllFreq+0x2e4>)
    32ec:	4293      	cmp	r3, r2
    32ee:	f000 8146 	beq.w	357e <CLOCK_GetPllFreq+0x306>
    32f2:	687b      	ldr	r3, [r7, #4]
    32f4:	4a9a      	ldr	r2, [pc, #616]	; (3560 <CLOCK_GetPllFreq+0x2e8>)
    32f6:	4293      	cmp	r3, r2
    32f8:	d024      	beq.n	3344 <CLOCK_GetPllFreq+0xcc>
    32fa:	e14e      	b.n	359a <CLOCK_GetPllFreq+0x322>
    32fc:	687b      	ldr	r3, [r7, #4]
    32fe:	4a99      	ldr	r2, [pc, #612]	; (3564 <CLOCK_GetPllFreq+0x2ec>)
    3300:	4293      	cmp	r3, r2
    3302:	f000 8104 	beq.w	350e <CLOCK_GetPllFreq+0x296>
    3306:	687b      	ldr	r3, [r7, #4]
    3308:	4a96      	ldr	r2, [pc, #600]	; (3564 <CLOCK_GetPllFreq+0x2ec>)
    330a:	4293      	cmp	r3, r2
    330c:	d805      	bhi.n	331a <CLOCK_GetPllFreq+0xa2>
    330e:	687b      	ldr	r3, [r7, #4]
    3310:	4a95      	ldr	r2, [pc, #596]	; (3568 <CLOCK_GetPllFreq+0x2f0>)
    3312:	4293      	cmp	r3, r2
    3314:	f000 80a8 	beq.w	3468 <CLOCK_GetPllFreq+0x1f0>
    3318:	e13f      	b.n	359a <CLOCK_GetPllFreq+0x322>
    331a:	687b      	ldr	r3, [r7, #4]
    331c:	4a93      	ldr	r2, [pc, #588]	; (356c <CLOCK_GetPllFreq+0x2f4>)
    331e:	4293      	cmp	r3, r2
    3320:	f000 8104 	beq.w	352c <CLOCK_GetPllFreq+0x2b4>
    3324:	687b      	ldr	r3, [r7, #4]
    3326:	4a92      	ldr	r2, [pc, #584]	; (3570 <CLOCK_GetPllFreq+0x2f8>)
    3328:	4293      	cmp	r3, r2
    332a:	f000 8125 	beq.w	3578 <CLOCK_GetPllFreq+0x300>
    332e:	e134      	b.n	359a <CLOCK_GetPllFreq+0x322>
    3330:	4b87      	ldr	r3, [pc, #540]	; (3550 <CLOCK_GetPllFreq+0x2d8>)
    3332:	681b      	ldr	r3, [r3, #0]
    3334:	f003 037f 	and.w	r3, r3, #127	; 0x7f
    3338:	6afa      	ldr	r2, [r7, #44]	; 0x2c
    333a:	fb02 f303 	mul.w	r3, r2, r3
    333e:	085b      	lsrs	r3, r3, #1
    3340:	62fb      	str	r3, [r7, #44]	; 0x2c
    3342:	e12d      	b.n	35a0 <CLOCK_GetPllFreq+0x328>
    3344:	6afb      	ldr	r3, [r7, #44]	; 0x2c
    3346:	ee07 3a90 	vmov	s15, r3
    334a:	eeb8 6b67 	vcvt.f64.u32	d6, s15
    334e:	4b80      	ldr	r3, [pc, #512]	; (3550 <CLOCK_GetPllFreq+0x2d8>)
    3350:	6d1b      	ldr	r3, [r3, #80]	; 0x50
    3352:	ee07 3a90 	vmov	s15, r3
    3356:	eeb8 7b67 	vcvt.f64.u32	d7, s15
    335a:	ee26 5b07 	vmul.f64	d5, d6, d7
    335e:	4b7c      	ldr	r3, [pc, #496]	; (3550 <CLOCK_GetPllFreq+0x2d8>)
    3360:	6e1b      	ldr	r3, [r3, #96]	; 0x60
    3362:	ee07 3a90 	vmov	s15, r3
    3366:	eeb8 6b67 	vcvt.f64.u32	d6, s15
    336a:	ee85 7b06 	vdiv.f64	d7, d5, d6
    336e:	ed87 7b08 	vstr	d7, [r7, #32]
    3372:	4b77      	ldr	r3, [pc, #476]	; (3550 <CLOCK_GetPllFreq+0x2d8>)
    3374:	6b1b      	ldr	r3, [r3, #48]	; 0x30
    3376:	f003 0301 	and.w	r3, r3, #1
    337a:	2b00      	cmp	r3, #0
    337c:	d005      	beq.n	338a <CLOCK_GetPllFreq+0x112>
    337e:	6afb      	ldr	r3, [r7, #44]	; 0x2c
    3380:	2216      	movs	r2, #22
    3382:	fb02 f303 	mul.w	r3, r2, r3
    3386:	62fb      	str	r3, [r7, #44]	; 0x2c
    3388:	e005      	b.n	3396 <CLOCK_GetPllFreq+0x11e>
    338a:	6afa      	ldr	r2, [r7, #44]	; 0x2c
    338c:	4613      	mov	r3, r2
    338e:	009b      	lsls	r3, r3, #2
    3390:	4413      	add	r3, r2
    3392:	009b      	lsls	r3, r3, #2
    3394:	62fb      	str	r3, [r7, #44]	; 0x2c
    3396:	ed97 7b08 	vldr	d7, [r7, #32]
    339a:	eefc 7bc7 	vcvt.u32.f64	s15, d7
    339e:	ee17 2a90 	vmov	r2, s15
    33a2:	6afb      	ldr	r3, [r7, #44]	; 0x2c
    33a4:	4413      	add	r3, r2
    33a6:	62fb      	str	r3, [r7, #44]	; 0x2c
    33a8:	e0fa      	b.n	35a0 <CLOCK_GetPllFreq+0x328>
    33aa:	4b69      	ldr	r3, [pc, #420]	; (3550 <CLOCK_GetPllFreq+0x2d8>)
    33ac:	691b      	ldr	r3, [r3, #16]
    33ae:	f003 0302 	and.w	r3, r3, #2
    33b2:	2b00      	cmp	r3, #0
    33b4:	d001      	beq.n	33ba <CLOCK_GetPllFreq+0x142>
    33b6:	2216      	movs	r2, #22
    33b8:	e000      	b.n	33bc <CLOCK_GetPllFreq+0x144>
    33ba:	2214      	movs	r2, #20
    33bc:	6afb      	ldr	r3, [r7, #44]	; 0x2c
    33be:	fb02 f303 	mul.w	r3, r2, r3
    33c2:	62fb      	str	r3, [r7, #44]	; 0x2c
    33c4:	e0ec      	b.n	35a0 <CLOCK_GetPllFreq+0x328>
    33c6:	4b62      	ldr	r3, [pc, #392]	; (3550 <CLOCK_GetPllFreq+0x2d8>)
    33c8:	6f1b      	ldr	r3, [r3, #112]	; 0x70
    33ca:	f003 037f 	and.w	r3, r3, #127	; 0x7f
    33ce:	61fb      	str	r3, [r7, #28]
    33d0:	6afb      	ldr	r3, [r7, #44]	; 0x2c
    33d2:	ee07 3a90 	vmov	s15, r3
    33d6:	eeb8 6b67 	vcvt.f64.u32	d6, s15
    33da:	4b5d      	ldr	r3, [pc, #372]	; (3550 <CLOCK_GetPllFreq+0x2d8>)
    33dc:	f8d3 3080 	ldr.w	r3, [r3, #128]	; 0x80
    33e0:	ee07 3a90 	vmov	s15, r3
    33e4:	eeb8 7b67 	vcvt.f64.u32	d7, s15
    33e8:	ee26 5b07 	vmul.f64	d5, d6, d7
    33ec:	4b58      	ldr	r3, [pc, #352]	; (3550 <CLOCK_GetPllFreq+0x2d8>)
    33ee:	f8d3 3090 	ldr.w	r3, [r3, #144]	; 0x90
    33f2:	ee07 3a90 	vmov	s15, r3
    33f6:	eeb8 6b67 	vcvt.f64.u32	d6, s15
    33fa:	ee85 7b06 	vdiv.f64	d7, d5, d6
    33fe:	ed87 7b08 	vstr	d7, [r7, #32]
    3402:	6afb      	ldr	r3, [r7, #44]	; 0x2c
    3404:	69fa      	ldr	r2, [r7, #28]
    3406:	fb02 f303 	mul.w	r3, r2, r3
    340a:	ed97 7b08 	vldr	d7, [r7, #32]
    340e:	eefc 7bc7 	vcvt.u32.f64	s15, d7
    3412:	ee17 2a90 	vmov	r2, s15
    3416:	4413      	add	r3, r2
    3418:	62fb      	str	r3, [r7, #44]	; 0x2c
    341a:	4b4d      	ldr	r3, [pc, #308]	; (3550 <CLOCK_GetPllFreq+0x2d8>)
    341c:	6f1b      	ldr	r3, [r3, #112]	; 0x70
    341e:	f403 13c0 	and.w	r3, r3, #1572864	; 0x180000
    3422:	2b00      	cmp	r3, #0
    3424:	d003      	beq.n	342e <CLOCK_GetPllFreq+0x1b6>
    3426:	f5b3 2f00 	cmp.w	r3, #524288	; 0x80000
    342a:	d004      	beq.n	3436 <CLOCK_GetPllFreq+0x1be>
    342c:	e007      	b.n	343e <CLOCK_GetPllFreq+0x1c6>
    342e:	6afb      	ldr	r3, [r7, #44]	; 0x2c
    3430:	089b      	lsrs	r3, r3, #2
    3432:	62fb      	str	r3, [r7, #44]	; 0x2c
    3434:	e003      	b.n	343e <CLOCK_GetPllFreq+0x1c6>
    3436:	6afb      	ldr	r3, [r7, #44]	; 0x2c
    3438:	085b      	lsrs	r3, r3, #1
    343a:	62fb      	str	r3, [r7, #44]	; 0x2c
    343c:	bf00      	nop
    343e:	4b44      	ldr	r3, [pc, #272]	; (3550 <CLOCK_GetPllFreq+0x2d8>)
    3440:	f8d3 2170 	ldr.w	r2, [r3, #368]	; 0x170
    3444:	4b4b      	ldr	r3, [pc, #300]	; (3574 <CLOCK_GetPllFreq+0x2fc>)
    3446:	4013      	ands	r3, r2
    3448:	f5b3 4f00 	cmp.w	r3, #32768	; 0x8000
    344c:	d006      	beq.n	345c <CLOCK_GetPllFreq+0x1e4>
    344e:	4a49      	ldr	r2, [pc, #292]	; (3574 <CLOCK_GetPllFreq+0x2fc>)
    3450:	4293      	cmp	r3, r2
    3452:	d107      	bne.n	3464 <CLOCK_GetPllFreq+0x1ec>
    3454:	6afb      	ldr	r3, [r7, #44]	; 0x2c
    3456:	089b      	lsrs	r3, r3, #2
    3458:	62fb      	str	r3, [r7, #44]	; 0x2c
    345a:	e004      	b.n	3466 <CLOCK_GetPllFreq+0x1ee>
    345c:	6afb      	ldr	r3, [r7, #44]	; 0x2c
    345e:	085b      	lsrs	r3, r3, #1
    3460:	62fb      	str	r3, [r7, #44]	; 0x2c
    3462:	e000      	b.n	3466 <CLOCK_GetPllFreq+0x1ee>
    3464:	bf00      	nop
    3466:	e09b      	b.n	35a0 <CLOCK_GetPllFreq+0x328>
    3468:	4b39      	ldr	r3, [pc, #228]	; (3550 <CLOCK_GetPllFreq+0x2d8>)
    346a:	f8d3 30a0 	ldr.w	r3, [r3, #160]	; 0xa0
    346e:	f003 037f 	and.w	r3, r3, #127	; 0x7f
    3472:	61fb      	str	r3, [r7, #28]
    3474:	6afb      	ldr	r3, [r7, #44]	; 0x2c
    3476:	ee07 3a90 	vmov	s15, r3
    347a:	eeb8 6b67 	vcvt.f64.u32	d6, s15
    347e:	4b34      	ldr	r3, [pc, #208]	; (3550 <CLOCK_GetPllFreq+0x2d8>)
    3480:	f8d3 30b0 	ldr.w	r3, [r3, #176]	; 0xb0
    3484:	ee07 3a90 	vmov	s15, r3
    3488:	eeb8 7b67 	vcvt.f64.u32	d7, s15
    348c:	ee26 5b07 	vmul.f64	d5, d6, d7
    3490:	4b2f      	ldr	r3, [pc, #188]	; (3550 <CLOCK_GetPllFreq+0x2d8>)
    3492:	f8d3 30c0 	ldr.w	r3, [r3, #192]	; 0xc0
    3496:	ee07 3a90 	vmov	s15, r3
    349a:	eeb8 6b67 	vcvt.f64.u32	d6, s15
    349e:	ee85 7b06 	vdiv.f64	d7, d5, d6
    34a2:	ed87 7b08 	vstr	d7, [r7, #32]
    34a6:	6afb      	ldr	r3, [r7, #44]	; 0x2c
    34a8:	69fa      	ldr	r2, [r7, #28]
    34aa:	fb02 f303 	mul.w	r3, r2, r3
    34ae:	ed97 7b08 	vldr	d7, [r7, #32]
    34b2:	eefc 7bc7 	vcvt.u32.f64	s15, d7
    34b6:	ee17 2a90 	vmov	r2, s15
    34ba:	4413      	add	r3, r2
    34bc:	62fb      	str	r3, [r7, #44]	; 0x2c
    34be:	4b24      	ldr	r3, [pc, #144]	; (3550 <CLOCK_GetPllFreq+0x2d8>)
    34c0:	f8d3 30a0 	ldr.w	r3, [r3, #160]	; 0xa0
    34c4:	f403 13c0 	and.w	r3, r3, #1572864	; 0x180000
    34c8:	2b00      	cmp	r3, #0
    34ca:	d003      	beq.n	34d4 <CLOCK_GetPllFreq+0x25c>
    34cc:	f5b3 2f00 	cmp.w	r3, #524288	; 0x80000
    34d0:	d004      	beq.n	34dc <CLOCK_GetPllFreq+0x264>
    34d2:	e007      	b.n	34e4 <CLOCK_GetPllFreq+0x26c>
    34d4:	6afb      	ldr	r3, [r7, #44]	; 0x2c
    34d6:	089b      	lsrs	r3, r3, #2
    34d8:	62fb      	str	r3, [r7, #44]	; 0x2c
    34da:	e003      	b.n	34e4 <CLOCK_GetPllFreq+0x26c>
    34dc:	6afb      	ldr	r3, [r7, #44]	; 0x2c
    34de:	085b      	lsrs	r3, r3, #1
    34e0:	62fb      	str	r3, [r7, #44]	; 0x2c
    34e2:	bf00      	nop
    34e4:	4b1a      	ldr	r3, [pc, #104]	; (3550 <CLOCK_GetPllFreq+0x2d8>)
    34e6:	f8d3 3170 	ldr.w	r3, [r3, #368]	; 0x170
    34ea:	f003 4340 	and.w	r3, r3, #3221225472	; 0xc0000000
    34ee:	f1b3 4f80 	cmp.w	r3, #1073741824	; 0x40000000
    34f2:	d006      	beq.n	3502 <CLOCK_GetPllFreq+0x28a>
    34f4:	f1b3 4f40 	cmp.w	r3, #3221225472	; 0xc0000000
    34f8:	d107      	bne.n	350a <CLOCK_GetPllFreq+0x292>
    34fa:	6afb      	ldr	r3, [r7, #44]	; 0x2c
    34fc:	089b      	lsrs	r3, r3, #2
    34fe:	62fb      	str	r3, [r7, #44]	; 0x2c
    3500:	e004      	b.n	350c <CLOCK_GetPllFreq+0x294>
    3502:	6afb      	ldr	r3, [r7, #44]	; 0x2c
    3504:	085b      	lsrs	r3, r3, #1
    3506:	62fb      	str	r3, [r7, #44]	; 0x2c
    3508:	e000      	b.n	350c <CLOCK_GetPllFreq+0x294>
    350a:	bf00      	nop
    350c:	e048      	b.n	35a0 <CLOCK_GetPllFreq+0x328>
    350e:	4b10      	ldr	r3, [pc, #64]	; (3550 <CLOCK_GetPllFreq+0x2d8>)
    3510:	f8d3 30e0 	ldr.w	r3, [r3, #224]	; 0xe0
    3514:	f003 0303 	and.w	r3, r3, #3
    3518:	61fb      	str	r3, [r7, #28]
    351a:	69fb      	ldr	r3, [r7, #28]
    351c:	009b      	lsls	r3, r3, #2
    351e:	f107 0230 	add.w	r2, r7, #48	; 0x30
    3522:	4413      	add	r3, r2
    3524:	f853 3c24 	ldr.w	r3, [r3, #-36]
    3528:	62fb      	str	r3, [r7, #44]	; 0x2c
    352a:	e039      	b.n	35a0 <CLOCK_GetPllFreq+0x328>
    352c:	4b08      	ldr	r3, [pc, #32]	; (3550 <CLOCK_GetPllFreq+0x2d8>)
    352e:	f8d3 30e0 	ldr.w	r3, [r3, #224]	; 0xe0
    3532:	089b      	lsrs	r3, r3, #2
    3534:	f003 0303 	and.w	r3, r3, #3
    3538:	61fb      	str	r3, [r7, #28]
    353a:	69fb      	ldr	r3, [r7, #28]
    353c:	009b      	lsls	r3, r3, #2
    353e:	f107 0230 	add.w	r2, r7, #48	; 0x30
    3542:	4413      	add	r3, r2
    3544:	f853 3c24 	ldr.w	r3, [r3, #-36]
    3548:	62fb      	str	r3, [r7, #44]	; 0x2c
    354a:	e029      	b.n	35a0 <CLOCK_GetPllFreq+0x328>
    354c:	0000ab44 	.word	0x0000ab44
    3550:	400d8000 	.word	0x400d8000
    3554:	0070000d 	.word	0x0070000d
    3558:	0010000d 	.word	0x0010000d
    355c:	0020000d 	.word	0x0020000d
    3560:	0030000d 	.word	0x0030000d
    3564:	00e0000d 	.word	0x00e0000d
    3568:	00a0000d 	.word	0x00a0000d
    356c:	00e00014 	.word	0x00e00014
    3570:	00e00015 	.word	0x00e00015
    3574:	00808000 	.word	0x00808000
    3578:	4b0c      	ldr	r3, [pc, #48]	; (35ac <CLOCK_GetPllFreq+0x334>)
    357a:	62fb      	str	r3, [r7, #44]	; 0x2c
    357c:	e010      	b.n	35a0 <CLOCK_GetPllFreq+0x328>
    357e:	4b0c      	ldr	r3, [pc, #48]	; (35b0 <CLOCK_GetPllFreq+0x338>)
    3580:	6a1b      	ldr	r3, [r3, #32]
    3582:	f003 0302 	and.w	r3, r3, #2
    3586:	2b00      	cmp	r3, #0
    3588:	d001      	beq.n	358e <CLOCK_GetPllFreq+0x316>
    358a:	2216      	movs	r2, #22
    358c:	e000      	b.n	3590 <CLOCK_GetPllFreq+0x318>
    358e:	2214      	movs	r2, #20
    3590:	6afb      	ldr	r3, [r7, #44]	; 0x2c
    3592:	fb02 f303 	mul.w	r3, r2, r3
    3596:	62fb      	str	r3, [r7, #44]	; 0x2c
    3598:	e002      	b.n	35a0 <CLOCK_GetPllFreq+0x328>
    359a:	2300      	movs	r3, #0
    359c:	62fb      	str	r3, [r7, #44]	; 0x2c
    359e:	bf00      	nop
    35a0:	6afb      	ldr	r3, [r7, #44]	; 0x2c
    35a2:	4618      	mov	r0, r3
    35a4:	3734      	adds	r7, #52	; 0x34
    35a6:	46bd      	mov	sp, r7
    35a8:	bd90      	pop	{r4, r7, pc}
    35aa:	bf00      	nop
    35ac:	017d7840 	.word	0x017d7840
    35b0:	400d8000 	.word	0x400d8000

000035b4 <CLOCK_InitSysPfd>:
    35b4:	b480      	push	{r7}
    35b6:	b085      	sub	sp, #20
    35b8:	af00      	add	r7, sp, #0
    35ba:	4603      	mov	r3, r0
    35bc:	460a      	mov	r2, r1
    35be:	71fb      	strb	r3, [r7, #7]
    35c0:	4613      	mov	r3, r2
    35c2:	71bb      	strb	r3, [r7, #6]
    35c4:	79fb      	ldrb	r3, [r7, #7]
    35c6:	60fb      	str	r3, [r7, #12]
    35c8:	4b12      	ldr	r3, [pc, #72]	; (3614 <CLOCK_InitSysPfd+0x60>)
    35ca:	f8d3 2100 	ldr.w	r2, [r3, #256]	; 0x100
    35ce:	68fb      	ldr	r3, [r7, #12]
    35d0:	00db      	lsls	r3, r3, #3
    35d2:	21bf      	movs	r1, #191	; 0xbf
    35d4:	fa01 f303 	lsl.w	r3, r1, r3
    35d8:	43db      	mvns	r3, r3
    35da:	4013      	ands	r3, r2
    35dc:	60bb      	str	r3, [r7, #8]
    35de:	68fb      	ldr	r3, [r7, #12]
    35e0:	00db      	lsls	r3, r3, #3
    35e2:	2280      	movs	r2, #128	; 0x80
    35e4:	409a      	lsls	r2, r3
    35e6:	490b      	ldr	r1, [pc, #44]	; (3614 <CLOCK_InitSysPfd+0x60>)
    35e8:	68bb      	ldr	r3, [r7, #8]
    35ea:	4313      	orrs	r3, r2
    35ec:	f8c1 3100 	str.w	r3, [r1, #256]	; 0x100
    35f0:	79bb      	ldrb	r3, [r7, #6]
    35f2:	f003 023f 	and.w	r2, r3, #63	; 0x3f
    35f6:	68fb      	ldr	r3, [r7, #12]
    35f8:	00db      	lsls	r3, r3, #3
    35fa:	409a      	lsls	r2, r3
    35fc:	4905      	ldr	r1, [pc, #20]	; (3614 <CLOCK_InitSysPfd+0x60>)
    35fe:	68bb      	ldr	r3, [r7, #8]
    3600:	4313      	orrs	r3, r2
    3602:	f8c1 3100 	str.w	r3, [r1, #256]	; 0x100
    3606:	bf00      	nop
    3608:	3714      	adds	r7, #20
    360a:	46bd      	mov	sp, r7
    360c:	f85d 7b04 	ldr.w	r7, [sp], #4
    3610:	4770      	bx	lr
    3612:	bf00      	nop
    3614:	400d8000 	.word	0x400d8000

00003618 <CLOCK_GetSysPfdFreq>:
    3618:	b580      	push	{r7, lr}
    361a:	b084      	sub	sp, #16
    361c:	af00      	add	r7, sp, #0
    361e:	4603      	mov	r3, r0
    3620:	71fb      	strb	r3, [r7, #7]
    3622:	4826      	ldr	r0, [pc, #152]	; (36bc <CLOCK_GetSysPfdFreq+0xa4>)
    3624:	f7ff fe28 	bl	3278 <CLOCK_GetPllFreq>
    3628:	60f8      	str	r0, [r7, #12]
    362a:	79fb      	ldrb	r3, [r7, #7]
    362c:	2b03      	cmp	r3, #3
    362e:	d836      	bhi.n	369e <CLOCK_GetSysPfdFreq+0x86>
    3630:	a201      	add	r2, pc, #4	; (adr r2, 3638 <CLOCK_GetSysPfdFreq+0x20>)
    3632:	f852 f023 	ldr.w	pc, [r2, r3, lsl #2]
    3636:	bf00      	nop
    3638:	00003649 	.word	0x00003649
    363c:	0000365d 	.word	0x0000365d
    3640:	00003673 	.word	0x00003673
    3644:	00003689 	.word	0x00003689
    3648:	4b1d      	ldr	r3, [pc, #116]	; (36c0 <CLOCK_GetSysPfdFreq+0xa8>)
    364a:	f8d3 3100 	ldr.w	r3, [r3, #256]	; 0x100
    364e:	f003 033f 	and.w	r3, r3, #63	; 0x3f
    3652:	68fa      	ldr	r2, [r7, #12]
    3654:	fbb2 f3f3 	udiv	r3, r2, r3
    3658:	60fb      	str	r3, [r7, #12]
    365a:	e023      	b.n	36a4 <CLOCK_GetSysPfdFreq+0x8c>
    365c:	4b18      	ldr	r3, [pc, #96]	; (36c0 <CLOCK_GetSysPfdFreq+0xa8>)
    365e:	f8d3 3100 	ldr.w	r3, [r3, #256]	; 0x100
    3662:	0a1b      	lsrs	r3, r3, #8
    3664:	f003 033f 	and.w	r3, r3, #63	; 0x3f
    3668:	68fa      	ldr	r2, [r7, #12]
    366a:	fbb2 f3f3 	udiv	r3, r2, r3
    366e:	60fb      	str	r3, [r7, #12]
    3670:	e018      	b.n	36a4 <CLOCK_GetSysPfdFreq+0x8c>
    3672:	4b13      	ldr	r3, [pc, #76]	; (36c0 <CLOCK_GetSysPfdFreq+0xa8>)
    3674:	f8d3 3100 	ldr.w	r3, [r3, #256]	; 0x100
    3678:	0c1b      	lsrs	r3, r3, #16
    367a:	f003 033f 	and.w	r3, r3, #63	; 0x3f
    367e:	68fa      	ldr	r2, [r7, #12]
    3680:	fbb2 f3f3 	udiv	r3, r2, r3
    3684:	60fb      	str	r3, [r7, #12]
    3686:	e00d      	b.n	36a4 <CLOCK_GetSysPfdFreq+0x8c>
    3688:	4b0d      	ldr	r3, [pc, #52]	; (36c0 <CLOCK_GetSysPfdFreq+0xa8>)
    368a:	f8d3 3100 	ldr.w	r3, [r3, #256]	; 0x100
    368e:	0e1b      	lsrs	r3, r3, #24
    3690:	f003 033f 	and.w	r3, r3, #63	; 0x3f
    3694:	68fa      	ldr	r2, [r7, #12]
    3696:	fbb2 f3f3 	udiv	r3, r2, r3
    369a:	60fb      	str	r3, [r7, #12]
    369c:	e002      	b.n	36a4 <CLOCK_GetSysPfdFreq+0x8c>
    369e:	2300      	movs	r3, #0
    36a0:	60fb      	str	r3, [r7, #12]
    36a2:	bf00      	nop
    36a4:	68fa      	ldr	r2, [r7, #12]
    36a6:	4613      	mov	r3, r2
    36a8:	00db      	lsls	r3, r3, #3
    36aa:	4413      	add	r3, r2
    36ac:	005b      	lsls	r3, r3, #1
    36ae:	60fb      	str	r3, [r7, #12]
    36b0:	68fb      	ldr	r3, [r7, #12]
    36b2:	4618      	mov	r0, r3
    36b4:	3710      	adds	r7, #16
    36b6:	46bd      	mov	sp, r7
    36b8:	bd80      	pop	{r7, pc}
    36ba:	bf00      	nop
    36bc:	0030000d 	.word	0x0030000d
    36c0:	400d8000 	.word	0x400d8000

000036c4 <CLOCK_GetUsb1PfdFreq>:
    36c4:	b580      	push	{r7, lr}
    36c6:	b084      	sub	sp, #16
    36c8:	af00      	add	r7, sp, #0
    36ca:	4603      	mov	r3, r0
    36cc:	71fb      	strb	r3, [r7, #7]
    36ce:	4826      	ldr	r0, [pc, #152]	; (3768 <CLOCK_GetUsb1PfdFreq+0xa4>)
    36d0:	f7ff fdd2 	bl	3278 <CLOCK_GetPllFreq>
    36d4:	60f8      	str	r0, [r7, #12]
    36d6:	79fb      	ldrb	r3, [r7, #7]
    36d8:	2b03      	cmp	r3, #3
    36da:	d836      	bhi.n	374a <CLOCK_GetUsb1PfdFreq+0x86>
    36dc:	a201      	add	r2, pc, #4	; (adr r2, 36e4 <CLOCK_GetUsb1PfdFreq+0x20>)
    36de:	f852 f023 	ldr.w	pc, [r2, r3, lsl #2]
    36e2:	bf00      	nop
    36e4:	000036f5 	.word	0x000036f5
    36e8:	00003709 	.word	0x00003709
    36ec:	0000371f 	.word	0x0000371f
    36f0:	00003735 	.word	0x00003735
    36f4:	4b1d      	ldr	r3, [pc, #116]	; (376c <CLOCK_GetUsb1PfdFreq+0xa8>)
    36f6:	f8d3 30f0 	ldr.w	r3, [r3, #240]	; 0xf0
    36fa:	f003 033f 	and.w	r3, r3, #63	; 0x3f
    36fe:	68fa      	ldr	r2, [r7, #12]
    3700:	fbb2 f3f3 	udiv	r3, r2, r3
    3704:	60fb      	str	r3, [r7, #12]
    3706:	e023      	b.n	3750 <CLOCK_GetUsb1PfdFreq+0x8c>
    3708:	4b18      	ldr	r3, [pc, #96]	; (376c <CLOCK_GetUsb1PfdFreq+0xa8>)
    370a:	f8d3 30f0 	ldr.w	r3, [r3, #240]	; 0xf0
    370e:	0a1b      	lsrs	r3, r3, #8
    3710:	f003 033f 	and.w	r3, r3, #63	; 0x3f
    3714:	68fa      	ldr	r2, [r7, #12]
    3716:	fbb2 f3f3 	udiv	r3, r2, r3
    371a:	60fb      	str	r3, [r7, #12]
    371c:	e018      	b.n	3750 <CLOCK_GetUsb1PfdFreq+0x8c>
    371e:	4b13      	ldr	r3, [pc, #76]	; (376c <CLOCK_GetUsb1PfdFreq+0xa8>)
    3720:	f8d3 30f0 	ldr.w	r3, [r3, #240]	; 0xf0
    3724:	0c1b      	lsrs	r3, r3, #16
    3726:	f003 033f 	and.w	r3, r3, #63	; 0x3f
    372a:	68fa      	ldr	r2, [r7, #12]
    372c:	fbb2 f3f3 	udiv	r3, r2, r3
    3730:	60fb      	str	r3, [r7, #12]
    3732:	e00d      	b.n	3750 <CLOCK_GetUsb1PfdFreq+0x8c>
    3734:	4b0d      	ldr	r3, [pc, #52]	; (376c <CLOCK_GetUsb1PfdFreq+0xa8>)
    3736:	f8d3 30f0 	ldr.w	r3, [r3, #240]	; 0xf0
    373a:	0e1b      	lsrs	r3, r3, #24
    373c:	f003 033f 	and.w	r3, r3, #63	; 0x3f
    3740:	68fa      	ldr	r2, [r7, #12]
    3742:	fbb2 f3f3 	udiv	r3, r2, r3
    3746:	60fb      	str	r3, [r7, #12]
    3748:	e002      	b.n	3750 <CLOCK_GetUsb1PfdFreq+0x8c>
    374a:	2300      	movs	r3, #0
    374c:	60fb      	str	r3, [r7, #12]
    374e:	bf00      	nop
    3750:	68fa      	ldr	r2, [r7, #12]
    3752:	4613      	mov	r3, r2
    3754:	00db      	lsls	r3, r3, #3
    3756:	4413      	add	r3, r2
    3758:	005b      	lsls	r3, r3, #1
    375a:	60fb      	str	r3, [r7, #12]
    375c:	68fb      	ldr	r3, [r7, #12]
    375e:	4618      	mov	r0, r3
    3760:	3710      	adds	r7, #16
    3762:	46bd      	mov	sp, r7
    3764:	bd80      	pop	{r7, pc}
    3766:	bf00      	nop
    3768:	0010000d 	.word	0x0010000d
    376c:	400d8000 	.word	0x400d8000

00003770 <EDMA_GetChannelStatusFlags>:
    3770:	b580      	push	{r7, lr}
    3772:	b084      	sub	sp, #16
    3774:	af00      	add	r7, sp, #0
    3776:	6078      	str	r0, [r7, #4]
    3778:	6039      	str	r1, [r7, #0]
    377a:	683b      	ldr	r3, [r7, #0]
    377c:	2b1f      	cmp	r3, #31
    377e:	d902      	bls.n	3786 <EDMA_GetChannelStatusFlags+0x16>
    3780:	4817      	ldr	r0, [pc, #92]	; (37e0 <EDMA_GetChannelStatusFlags+0x70>)
    3782:	f004 f92b 	bl	79dc <__assertion_failed>
    3786:	2300      	movs	r3, #0
    3788:	60fb      	str	r3, [r7, #12]
    378a:	687a      	ldr	r2, [r7, #4]
    378c:	683b      	ldr	r3, [r7, #0]
    378e:	015b      	lsls	r3, r3, #5
    3790:	441a      	add	r2, r3
    3792:	f241 031c 	movw	r3, #4124	; 0x101c
    3796:	4413      	add	r3, r2
    3798:	881b      	ldrh	r3, [r3, #0]
    379a:	b29b      	uxth	r3, r3
    379c:	09db      	lsrs	r3, r3, #7
    379e:	f003 0301 	and.w	r3, r3, #1
    37a2:	68fa      	ldr	r2, [r7, #12]
    37a4:	4313      	orrs	r3, r2
    37a6:	60fb      	str	r3, [r7, #12]
    37a8:	687b      	ldr	r3, [r7, #4]
    37aa:	6ada      	ldr	r2, [r3, #44]	; 0x2c
    37ac:	683b      	ldr	r3, [r7, #0]
    37ae:	fa22 f303 	lsr.w	r3, r2, r3
    37b2:	005b      	lsls	r3, r3, #1
    37b4:	f003 0302 	and.w	r3, r3, #2
    37b8:	68fa      	ldr	r2, [r7, #12]
    37ba:	4313      	orrs	r3, r2
    37bc:	60fb      	str	r3, [r7, #12]
    37be:	687b      	ldr	r3, [r7, #4]
    37c0:	6a5a      	ldr	r2, [r3, #36]	; 0x24
    37c2:	683b      	ldr	r3, [r7, #0]
    37c4:	fa22 f303 	lsr.w	r3, r2, r3
    37c8:	009b      	lsls	r3, r3, #2
    37ca:	f003 0304 	and.w	r3, r3, #4
    37ce:	68fa      	ldr	r2, [r7, #12]
    37d0:	4313      	orrs	r3, r2
    37d2:	60fb      	str	r3, [r7, #12]
    37d4:	68fb      	ldr	r3, [r7, #12]
    37d6:	4618      	mov	r0, r3
    37d8:	3710      	adds	r7, #16
    37da:	46bd      	mov	sp, r7
    37dc:	bd80      	pop	{r7, pc}
    37de:	bf00      	nop
    37e0:	0000b49c 	.word	0x0000b49c

000037e4 <EDMA_HandleIRQ>:
    37e4:	b590      	push	{r4, r7, lr}
    37e6:	b089      	sub	sp, #36	; 0x24
    37e8:	af00      	add	r7, sp, #0
    37ea:	6078      	str	r0, [r7, #4]
    37ec:	687b      	ldr	r3, [r7, #4]
    37ee:	2b00      	cmp	r3, #0
    37f0:	d102      	bne.n	37f8 <EDMA_HandleIRQ+0x14>
    37f2:	4853      	ldr	r0, [pc, #332]	; (3940 <EDMA_HandleIRQ+0x15c>)
    37f4:	f004 f8f2 	bl	79dc <__assertion_failed>
    37f8:	687b      	ldr	r3, [r7, #4]
    37fa:	689b      	ldr	r3, [r3, #8]
    37fc:	687a      	ldr	r2, [r7, #4]
    37fe:	7c12      	ldrb	r2, [r2, #16]
    3800:	77da      	strb	r2, [r3, #31]
    3802:	687b      	ldr	r3, [r7, #4]
    3804:	689a      	ldr	r2, [r3, #8]
    3806:	687b      	ldr	r3, [r7, #4]
    3808:	7c1b      	ldrb	r3, [r3, #16]
    380a:	015b      	lsls	r3, r3, #5
    380c:	441a      	add	r2, r3
    380e:	f241 031c 	movw	r3, #4124	; 0x101c
    3812:	4413      	add	r3, r2
    3814:	881b      	ldrh	r3, [r3, #0]
    3816:	b29b      	uxth	r3, r3
    3818:	f003 0380 	and.w	r3, r3, #128	; 0x80
    381c:	2b00      	cmp	r3, #0
    381e:	bf14      	ite	ne
    3820:	2301      	movne	r3, #1
    3822:	2300      	moveq	r3, #0
    3824:	76bb      	strb	r3, [r7, #26]
    3826:	687b      	ldr	r3, [r7, #4]
    3828:	68db      	ldr	r3, [r3, #12]
    382a:	2b00      	cmp	r3, #0
    382c:	d10c      	bne.n	3848 <EDMA_HandleIRQ+0x64>
    382e:	687b      	ldr	r3, [r7, #4]
    3830:	681b      	ldr	r3, [r3, #0]
    3832:	2b00      	cmp	r3, #0
    3834:	d07f      	beq.n	3936 <EDMA_HandleIRQ+0x152>
    3836:	687b      	ldr	r3, [r7, #4]
    3838:	681c      	ldr	r4, [r3, #0]
    383a:	687b      	ldr	r3, [r7, #4]
    383c:	6859      	ldr	r1, [r3, #4]
    383e:	7eba      	ldrb	r2, [r7, #26]
    3840:	2300      	movs	r3, #0
    3842:	6878      	ldr	r0, [r7, #4]
    3844:	47a0      	blx	r4
    3846:	e076      	b.n	3936 <EDMA_HandleIRQ+0x152>
    3848:	687b      	ldr	r3, [r7, #4]
    384a:	689a      	ldr	r2, [r3, #8]
    384c:	687b      	ldr	r3, [r7, #4]
    384e:	7c1b      	ldrb	r3, [r3, #16]
    3850:	015b      	lsls	r3, r3, #5
    3852:	441a      	add	r2, r3
    3854:	f241 0318 	movw	r3, #4120	; 0x1018
    3858:	4413      	add	r3, r2
    385a:	681b      	ldr	r3, [r3, #0]
    385c:	617b      	str	r3, [r7, #20]
    385e:	687b      	ldr	r3, [r7, #4]
    3860:	68db      	ldr	r3, [r3, #12]
    3862:	461a      	mov	r2, r3
    3864:	697b      	ldr	r3, [r7, #20]
    3866:	1a9b      	subs	r3, r3, r2
    3868:	617b      	str	r3, [r7, #20]
    386a:	697b      	ldr	r3, [r7, #20]
    386c:	095b      	lsrs	r3, r3, #5
    386e:	613b      	str	r3, [r7, #16]
    3870:	7ebb      	ldrb	r3, [r7, #26]
    3872:	2b00      	cmp	r3, #0
    3874:	d002      	beq.n	387c <EDMA_HandleIRQ+0x98>
    3876:	693b      	ldr	r3, [r7, #16]
    3878:	76fb      	strb	r3, [r7, #27]
    387a:	e00e      	b.n	389a <EDMA_HandleIRQ+0xb6>
    387c:	693b      	ldr	r3, [r7, #16]
    387e:	2b00      	cmp	r3, #0
    3880:	d004      	beq.n	388c <EDMA_HandleIRQ+0xa8>
    3882:	693b      	ldr	r3, [r7, #16]
    3884:	b2db      	uxtb	r3, r3
    3886:	3b01      	subs	r3, #1
    3888:	b2db      	uxtb	r3, r3
    388a:	e005      	b.n	3898 <EDMA_HandleIRQ+0xb4>
    388c:	687b      	ldr	r3, [r7, #4]
    388e:	7d1b      	ldrb	r3, [r3, #20]
    3890:	b25b      	sxtb	r3, r3
    3892:	b2db      	uxtb	r3, r3
    3894:	3b01      	subs	r3, #1
    3896:	b2db      	uxtb	r3, r3
    3898:	76fb      	strb	r3, [r7, #27]
    389a:	687b      	ldr	r3, [r7, #4]
    389c:	7c5b      	ldrb	r3, [r3, #17]
    389e:	b25a      	sxtb	r2, r3
    38a0:	f997 301b 	ldrsb.w	r3, [r7, #27]
    38a4:	429a      	cmp	r2, r3
    38a6:	d113      	bne.n	38d0 <EDMA_HandleIRQ+0xec>
    38a8:	687b      	ldr	r3, [r7, #4]
    38aa:	7cdb      	ldrb	r3, [r3, #19]
    38ac:	73fb      	strb	r3, [r7, #15]
    38ae:	687b      	ldr	r3, [r7, #4]
    38b0:	7d1b      	ldrb	r3, [r3, #20]
    38b2:	73bb      	strb	r3, [r7, #14]
    38b4:	f997 200f 	ldrsb.w	r2, [r7, #15]
    38b8:	f997 300e 	ldrsb.w	r3, [r7, #14]
    38bc:	429a      	cmp	r2, r3
    38be:	d104      	bne.n	38ca <EDMA_HandleIRQ+0xe6>
    38c0:	687b      	ldr	r3, [r7, #4]
    38c2:	7cdb      	ldrb	r3, [r3, #19]
    38c4:	b25b      	sxtb	r3, r3
    38c6:	61fb      	str	r3, [r7, #28]
    38c8:	e012      	b.n	38f0 <EDMA_HandleIRQ+0x10c>
    38ca:	2300      	movs	r3, #0
    38cc:	61fb      	str	r3, [r7, #28]
    38ce:	e00f      	b.n	38f0 <EDMA_HandleIRQ+0x10c>
    38d0:	7efb      	ldrb	r3, [r7, #27]
    38d2:	687a      	ldr	r2, [r7, #4]
    38d4:	7c52      	ldrb	r2, [r2, #17]
    38d6:	b252      	sxtb	r2, r2
    38d8:	1a9b      	subs	r3, r3, r2
    38da:	61fb      	str	r3, [r7, #28]
    38dc:	69fb      	ldr	r3, [r7, #28]
    38de:	2b00      	cmp	r3, #0
    38e0:	da06      	bge.n	38f0 <EDMA_HandleIRQ+0x10c>
    38e2:	687b      	ldr	r3, [r7, #4]
    38e4:	7d1b      	ldrb	r3, [r3, #20]
    38e6:	b25b      	sxtb	r3, r3
    38e8:	461a      	mov	r2, r3
    38ea:	69fb      	ldr	r3, [r7, #28]
    38ec:	4413      	add	r3, r2
    38ee:	61fb      	str	r3, [r7, #28]
    38f0:	f997 201b 	ldrsb.w	r2, [r7, #27]
    38f4:	687b      	ldr	r3, [r7, #4]
    38f6:	745a      	strb	r2, [r3, #17]
    38f8:	687b      	ldr	r3, [r7, #4]
    38fa:	7cdb      	ldrb	r3, [r3, #19]
    38fc:	b25b      	sxtb	r3, r3
    38fe:	b2da      	uxtb	r2, r3
    3900:	69fb      	ldr	r3, [r7, #28]
    3902:	b2db      	uxtb	r3, r3
    3904:	1ad3      	subs	r3, r2, r3
    3906:	b2db      	uxtb	r3, r3
    3908:	b25a      	sxtb	r2, r3
    390a:	687b      	ldr	r3, [r7, #4]
    390c:	74da      	strb	r2, [r3, #19]
    390e:	687b      	ldr	r3, [r7, #4]
    3910:	681b      	ldr	r3, [r3, #0]
    3912:	2b00      	cmp	r3, #0
    3914:	d007      	beq.n	3926 <EDMA_HandleIRQ+0x142>
    3916:	687b      	ldr	r3, [r7, #4]
    3918:	681c      	ldr	r4, [r3, #0]
    391a:	687b      	ldr	r3, [r7, #4]
    391c:	6859      	ldr	r1, [r3, #4]
    391e:	69fb      	ldr	r3, [r7, #28]
    3920:	7eba      	ldrb	r2, [r7, #26]
    3922:	6878      	ldr	r0, [r7, #4]
    3924:	47a0      	blx	r4
    3926:	7ebb      	ldrb	r3, [r7, #26]
    3928:	2b00      	cmp	r3, #0
    392a:	d004      	beq.n	3936 <EDMA_HandleIRQ+0x152>
    392c:	687b      	ldr	r3, [r7, #4]
    392e:	689b      	ldr	r3, [r3, #8]
    3930:	687a      	ldr	r2, [r7, #4]
    3932:	7c12      	ldrb	r2, [r2, #16]
    3934:	771a      	strb	r2, [r3, #28]
    3936:	bf00      	nop
    3938:	3724      	adds	r7, #36	; 0x24
    393a:	46bd      	mov	sp, r7
    393c:	bd90      	pop	{r4, r7, pc}
    393e:	bf00      	nop
    3940:	0000b96c 	.word	0x0000b96c

00003944 <DMA0_DMA16_DriverIRQHandler>:
    3944:	b580      	push	{r7, lr}
    3946:	af00      	add	r7, sp, #0
    3948:	2100      	movs	r1, #0
    394a:	480e      	ldr	r0, [pc, #56]	; (3984 <DMA0_DMA16_DriverIRQHandler+0x40>)
    394c:	f7ff ff10 	bl	3770 <EDMA_GetChannelStatusFlags>
    3950:	4603      	mov	r3, r0
    3952:	f003 0304 	and.w	r3, r3, #4
    3956:	2b00      	cmp	r3, #0
    3958:	d004      	beq.n	3964 <DMA0_DMA16_DriverIRQHandler+0x20>
    395a:	4b0b      	ldr	r3, [pc, #44]	; (3988 <DMA0_DMA16_DriverIRQHandler+0x44>)
    395c:	681b      	ldr	r3, [r3, #0]
    395e:	4618      	mov	r0, r3
    3960:	f7ff ff40 	bl	37e4 <EDMA_HandleIRQ>
    3964:	2110      	movs	r1, #16
    3966:	4807      	ldr	r0, [pc, #28]	; (3984 <DMA0_DMA16_DriverIRQHandler+0x40>)
    3968:	f7ff ff02 	bl	3770 <EDMA_GetChannelStatusFlags>
    396c:	4603      	mov	r3, r0
    396e:	f003 0304 	and.w	r3, r3, #4
    3972:	2b00      	cmp	r3, #0
    3974:	d004      	beq.n	3980 <DMA0_DMA16_DriverIRQHandler+0x3c>
    3976:	4b04      	ldr	r3, [pc, #16]	; (3988 <DMA0_DMA16_DriverIRQHandler+0x44>)
    3978:	6c1b      	ldr	r3, [r3, #64]	; 0x40
    397a:	4618      	mov	r0, r3
    397c:	f7ff ff32 	bl	37e4 <EDMA_HandleIRQ>
    3980:	bf00      	nop
    3982:	bd80      	pop	{r7, pc}
    3984:	400e8000 	.word	0x400e8000
    3988:	200008f0 	.word	0x200008f0

0000398c <DMA1_DMA17_DriverIRQHandler>:
    398c:	b580      	push	{r7, lr}
    398e:	af00      	add	r7, sp, #0
    3990:	2101      	movs	r1, #1
    3992:	480e      	ldr	r0, [pc, #56]	; (39cc <DMA1_DMA17_DriverIRQHandler+0x40>)
    3994:	f7ff feec 	bl	3770 <EDMA_GetChannelStatusFlags>
    3998:	4603      	mov	r3, r0
    399a:	f003 0304 	and.w	r3, r3, #4
    399e:	2b00      	cmp	r3, #0
    39a0:	d004      	beq.n	39ac <DMA1_DMA17_DriverIRQHandler+0x20>
    39a2:	4b0b      	ldr	r3, [pc, #44]	; (39d0 <DMA1_DMA17_DriverIRQHandler+0x44>)
    39a4:	685b      	ldr	r3, [r3, #4]
    39a6:	4618      	mov	r0, r3
    39a8:	f7ff ff1c 	bl	37e4 <EDMA_HandleIRQ>
    39ac:	2111      	movs	r1, #17
    39ae:	4807      	ldr	r0, [pc, #28]	; (39cc <DMA1_DMA17_DriverIRQHandler+0x40>)
    39b0:	f7ff fede 	bl	3770 <EDMA_GetChannelStatusFlags>
    39b4:	4603      	mov	r3, r0
    39b6:	f003 0304 	and.w	r3, r3, #4
    39ba:	2b00      	cmp	r3, #0
    39bc:	d004      	beq.n	39c8 <DMA1_DMA17_DriverIRQHandler+0x3c>
    39be:	4b04      	ldr	r3, [pc, #16]	; (39d0 <DMA1_DMA17_DriverIRQHandler+0x44>)
    39c0:	6c5b      	ldr	r3, [r3, #68]	; 0x44
    39c2:	4618      	mov	r0, r3
    39c4:	f7ff ff0e 	bl	37e4 <EDMA_HandleIRQ>
    39c8:	bf00      	nop
    39ca:	bd80      	pop	{r7, pc}
    39cc:	400e8000 	.word	0x400e8000
    39d0:	200008f0 	.word	0x200008f0

000039d4 <DMA2_DMA18_DriverIRQHandler>:
    39d4:	b580      	push	{r7, lr}
    39d6:	af00      	add	r7, sp, #0
    39d8:	2102      	movs	r1, #2
    39da:	480e      	ldr	r0, [pc, #56]	; (3a14 <DMA2_DMA18_DriverIRQHandler+0x40>)
    39dc:	f7ff fec8 	bl	3770 <EDMA_GetChannelStatusFlags>
    39e0:	4603      	mov	r3, r0
    39e2:	f003 0304 	and.w	r3, r3, #4
    39e6:	2b00      	cmp	r3, #0
    39e8:	d004      	beq.n	39f4 <DMA2_DMA18_DriverIRQHandler+0x20>
    39ea:	4b0b      	ldr	r3, [pc, #44]	; (3a18 <DMA2_DMA18_DriverIRQHandler+0x44>)
    39ec:	689b      	ldr	r3, [r3, #8]
    39ee:	4618      	mov	r0, r3
    39f0:	f7ff fef8 	bl	37e4 <EDMA_HandleIRQ>
    39f4:	2112      	movs	r1, #18
    39f6:	4807      	ldr	r0, [pc, #28]	; (3a14 <DMA2_DMA18_DriverIRQHandler+0x40>)
    39f8:	f7ff feba 	bl	3770 <EDMA_GetChannelStatusFlags>
    39fc:	4603      	mov	r3, r0
    39fe:	f003 0304 	and.w	r3, r3, #4
    3a02:	2b00      	cmp	r3, #0
    3a04:	d004      	beq.n	3a10 <DMA2_DMA18_DriverIRQHandler+0x3c>
    3a06:	4b04      	ldr	r3, [pc, #16]	; (3a18 <DMA2_DMA18_DriverIRQHandler+0x44>)
    3a08:	6c9b      	ldr	r3, [r3, #72]	; 0x48
    3a0a:	4618      	mov	r0, r3
    3a0c:	f7ff feea 	bl	37e4 <EDMA_HandleIRQ>
    3a10:	bf00      	nop
    3a12:	bd80      	pop	{r7, pc}
    3a14:	400e8000 	.word	0x400e8000
    3a18:	200008f0 	.word	0x200008f0

00003a1c <DMA3_DMA19_DriverIRQHandler>:
    3a1c:	b580      	push	{r7, lr}
    3a1e:	af00      	add	r7, sp, #0
    3a20:	2103      	movs	r1, #3
    3a22:	480e      	ldr	r0, [pc, #56]	; (3a5c <DMA3_DMA19_DriverIRQHandler+0x40>)
    3a24:	f7ff fea4 	bl	3770 <EDMA_GetChannelStatusFlags>
    3a28:	4603      	mov	r3, r0
    3a2a:	f003 0304 	and.w	r3, r3, #4
    3a2e:	2b00      	cmp	r3, #0
    3a30:	d004      	beq.n	3a3c <DMA3_DMA19_DriverIRQHandler+0x20>
    3a32:	4b0b      	ldr	r3, [pc, #44]	; (3a60 <DMA3_DMA19_DriverIRQHandler+0x44>)
    3a34:	68db      	ldr	r3, [r3, #12]
    3a36:	4618      	mov	r0, r3
    3a38:	f7ff fed4 	bl	37e4 <EDMA_HandleIRQ>
    3a3c:	2113      	movs	r1, #19
    3a3e:	4807      	ldr	r0, [pc, #28]	; (3a5c <DMA3_DMA19_DriverIRQHandler+0x40>)
    3a40:	f7ff fe96 	bl	3770 <EDMA_GetChannelStatusFlags>
    3a44:	4603      	mov	r3, r0
    3a46:	f003 0304 	and.w	r3, r3, #4
    3a4a:	2b00      	cmp	r3, #0
    3a4c:	d004      	beq.n	3a58 <DMA3_DMA19_DriverIRQHandler+0x3c>
    3a4e:	4b04      	ldr	r3, [pc, #16]	; (3a60 <DMA3_DMA19_DriverIRQHandler+0x44>)
    3a50:	6cdb      	ldr	r3, [r3, #76]	; 0x4c
    3a52:	4618      	mov	r0, r3
    3a54:	f7ff fec6 	bl	37e4 <EDMA_HandleIRQ>
    3a58:	bf00      	nop
    3a5a:	bd80      	pop	{r7, pc}
    3a5c:	400e8000 	.word	0x400e8000
    3a60:	200008f0 	.word	0x200008f0

00003a64 <DMA4_DMA20_DriverIRQHandler>:
    3a64:	b580      	push	{r7, lr}
    3a66:	af00      	add	r7, sp, #0
    3a68:	2104      	movs	r1, #4
    3a6a:	480e      	ldr	r0, [pc, #56]	; (3aa4 <DMA4_DMA20_DriverIRQHandler+0x40>)
    3a6c:	f7ff fe80 	bl	3770 <EDMA_GetChannelStatusFlags>
    3a70:	4603      	mov	r3, r0
    3a72:	f003 0304 	and.w	r3, r3, #4
    3a76:	2b00      	cmp	r3, #0
    3a78:	d004      	beq.n	3a84 <DMA4_DMA20_DriverIRQHandler+0x20>
    3a7a:	4b0b      	ldr	r3, [pc, #44]	; (3aa8 <DMA4_DMA20_DriverIRQHandler+0x44>)
    3a7c:	691b      	ldr	r3, [r3, #16]
    3a7e:	4618      	mov	r0, r3
    3a80:	f7ff feb0 	bl	37e4 <EDMA_HandleIRQ>
    3a84:	2114      	movs	r1, #20
    3a86:	4807      	ldr	r0, [pc, #28]	; (3aa4 <DMA4_DMA20_DriverIRQHandler+0x40>)
    3a88:	f7ff fe72 	bl	3770 <EDMA_GetChannelStatusFlags>
    3a8c:	4603      	mov	r3, r0
    3a8e:	f003 0304 	and.w	r3, r3, #4
    3a92:	2b00      	cmp	r3, #0
    3a94:	d004      	beq.n	3aa0 <DMA4_DMA20_DriverIRQHandler+0x3c>
    3a96:	4b04      	ldr	r3, [pc, #16]	; (3aa8 <DMA4_DMA20_DriverIRQHandler+0x44>)
    3a98:	6d1b      	ldr	r3, [r3, #80]	; 0x50
    3a9a:	4618      	mov	r0, r3
    3a9c:	f7ff fea2 	bl	37e4 <EDMA_HandleIRQ>
    3aa0:	bf00      	nop
    3aa2:	bd80      	pop	{r7, pc}
    3aa4:	400e8000 	.word	0x400e8000
    3aa8:	200008f0 	.word	0x200008f0

00003aac <DMA5_DMA21_DriverIRQHandler>:
    3aac:	b580      	push	{r7, lr}
    3aae:	af00      	add	r7, sp, #0
    3ab0:	2105      	movs	r1, #5
    3ab2:	480e      	ldr	r0, [pc, #56]	; (3aec <DMA5_DMA21_DriverIRQHandler+0x40>)
    3ab4:	f7ff fe5c 	bl	3770 <EDMA_GetChannelStatusFlags>
    3ab8:	4603      	mov	r3, r0
    3aba:	f003 0304 	and.w	r3, r3, #4
    3abe:	2b00      	cmp	r3, #0
    3ac0:	d004      	beq.n	3acc <DMA5_DMA21_DriverIRQHandler+0x20>
    3ac2:	4b0b      	ldr	r3, [pc, #44]	; (3af0 <DMA5_DMA21_DriverIRQHandler+0x44>)
    3ac4:	695b      	ldr	r3, [r3, #20]
    3ac6:	4618      	mov	r0, r3
    3ac8:	f7ff fe8c 	bl	37e4 <EDMA_HandleIRQ>
    3acc:	2115      	movs	r1, #21
    3ace:	4807      	ldr	r0, [pc, #28]	; (3aec <DMA5_DMA21_DriverIRQHandler+0x40>)
    3ad0:	f7ff fe4e 	bl	3770 <EDMA_GetChannelStatusFlags>
    3ad4:	4603      	mov	r3, r0
    3ad6:	f003 0304 	and.w	r3, r3, #4
    3ada:	2b00      	cmp	r3, #0
    3adc:	d004      	beq.n	3ae8 <DMA5_DMA21_DriverIRQHandler+0x3c>
    3ade:	4b04      	ldr	r3, [pc, #16]	; (3af0 <DMA5_DMA21_DriverIRQHandler+0x44>)
    3ae0:	6d5b      	ldr	r3, [r3, #84]	; 0x54
    3ae2:	4618      	mov	r0, r3
    3ae4:	f7ff fe7e 	bl	37e4 <EDMA_HandleIRQ>
    3ae8:	bf00      	nop
    3aea:	bd80      	pop	{r7, pc}
    3aec:	400e8000 	.word	0x400e8000
    3af0:	200008f0 	.word	0x200008f0

00003af4 <DMA6_DMA22_DriverIRQHandler>:
    3af4:	b580      	push	{r7, lr}
    3af6:	af00      	add	r7, sp, #0
    3af8:	2106      	movs	r1, #6
    3afa:	480e      	ldr	r0, [pc, #56]	; (3b34 <DMA6_DMA22_DriverIRQHandler+0x40>)
    3afc:	f7ff fe38 	bl	3770 <EDMA_GetChannelStatusFlags>
    3b00:	4603      	mov	r3, r0
    3b02:	f003 0304 	and.w	r3, r3, #4
    3b06:	2b00      	cmp	r3, #0
    3b08:	d004      	beq.n	3b14 <DMA6_DMA22_DriverIRQHandler+0x20>
    3b0a:	4b0b      	ldr	r3, [pc, #44]	; (3b38 <DMA6_DMA22_DriverIRQHandler+0x44>)
    3b0c:	699b      	ldr	r3, [r3, #24]
    3b0e:	4618      	mov	r0, r3
    3b10:	f7ff fe68 	bl	37e4 <EDMA_HandleIRQ>
    3b14:	2116      	movs	r1, #22
    3b16:	4807      	ldr	r0, [pc, #28]	; (3b34 <DMA6_DMA22_DriverIRQHandler+0x40>)
    3b18:	f7ff fe2a 	bl	3770 <EDMA_GetChannelStatusFlags>
    3b1c:	4603      	mov	r3, r0
    3b1e:	f003 0304 	and.w	r3, r3, #4
    3b22:	2b00      	cmp	r3, #0
    3b24:	d004      	beq.n	3b30 <DMA6_DMA22_DriverIRQHandler+0x3c>
    3b26:	4b04      	ldr	r3, [pc, #16]	; (3b38 <DMA6_DMA22_DriverIRQHandler+0x44>)
    3b28:	6d9b      	ldr	r3, [r3, #88]	; 0x58
    3b2a:	4618      	mov	r0, r3
    3b2c:	f7ff fe5a 	bl	37e4 <EDMA_HandleIRQ>
    3b30:	bf00      	nop
    3b32:	bd80      	pop	{r7, pc}
    3b34:	400e8000 	.word	0x400e8000
    3b38:	200008f0 	.word	0x200008f0

00003b3c <DMA7_DMA23_DriverIRQHandler>:
    3b3c:	b580      	push	{r7, lr}
    3b3e:	af00      	add	r7, sp, #0
    3b40:	2107      	movs	r1, #7
    3b42:	480e      	ldr	r0, [pc, #56]	; (3b7c <DMA7_DMA23_DriverIRQHandler+0x40>)
    3b44:	f7ff fe14 	bl	3770 <EDMA_GetChannelStatusFlags>
    3b48:	4603      	mov	r3, r0
    3b4a:	f003 0304 	and.w	r3, r3, #4
    3b4e:	2b00      	cmp	r3, #0
    3b50:	d004      	beq.n	3b5c <DMA7_DMA23_DriverIRQHandler+0x20>
    3b52:	4b0b      	ldr	r3, [pc, #44]	; (3b80 <DMA7_DMA23_DriverIRQHandler+0x44>)
    3b54:	69db      	ldr	r3, [r3, #28]
    3b56:	4618      	mov	r0, r3
    3b58:	f7ff fe44 	bl	37e4 <EDMA_HandleIRQ>
    3b5c:	2117      	movs	r1, #23
    3b5e:	4807      	ldr	r0, [pc, #28]	; (3b7c <DMA7_DMA23_DriverIRQHandler+0x40>)
    3b60:	f7ff fe06 	bl	3770 <EDMA_GetChannelStatusFlags>
    3b64:	4603      	mov	r3, r0
    3b66:	f003 0304 	and.w	r3, r3, #4
    3b6a:	2b00      	cmp	r3, #0
    3b6c:	d004      	beq.n	3b78 <DMA7_DMA23_DriverIRQHandler+0x3c>
    3b6e:	4b04      	ldr	r3, [pc, #16]	; (3b80 <DMA7_DMA23_DriverIRQHandler+0x44>)
    3b70:	6ddb      	ldr	r3, [r3, #92]	; 0x5c
    3b72:	4618      	mov	r0, r3
    3b74:	f7ff fe36 	bl	37e4 <EDMA_HandleIRQ>
    3b78:	bf00      	nop
    3b7a:	bd80      	pop	{r7, pc}
    3b7c:	400e8000 	.word	0x400e8000
    3b80:	200008f0 	.word	0x200008f0

00003b84 <DMA8_DMA24_DriverIRQHandler>:
    3b84:	b580      	push	{r7, lr}
    3b86:	af00      	add	r7, sp, #0
    3b88:	2108      	movs	r1, #8
    3b8a:	480e      	ldr	r0, [pc, #56]	; (3bc4 <DMA8_DMA24_DriverIRQHandler+0x40>)
    3b8c:	f7ff fdf0 	bl	3770 <EDMA_GetChannelStatusFlags>
    3b90:	4603      	mov	r3, r0
    3b92:	f003 0304 	and.w	r3, r3, #4
    3b96:	2b00      	cmp	r3, #0
    3b98:	d004      	beq.n	3ba4 <DMA8_DMA24_DriverIRQHandler+0x20>
    3b9a:	4b0b      	ldr	r3, [pc, #44]	; (3bc8 <DMA8_DMA24_DriverIRQHandler+0x44>)
    3b9c:	6a1b      	ldr	r3, [r3, #32]
    3b9e:	4618      	mov	r0, r3
    3ba0:	f7ff fe20 	bl	37e4 <EDMA_HandleIRQ>
    3ba4:	2118      	movs	r1, #24
    3ba6:	4807      	ldr	r0, [pc, #28]	; (3bc4 <DMA8_DMA24_DriverIRQHandler+0x40>)
    3ba8:	f7ff fde2 	bl	3770 <EDMA_GetChannelStatusFlags>
    3bac:	4603      	mov	r3, r0
    3bae:	f003 0304 	and.w	r3, r3, #4
    3bb2:	2b00      	cmp	r3, #0
    3bb4:	d004      	beq.n	3bc0 <DMA8_DMA24_DriverIRQHandler+0x3c>
    3bb6:	4b04      	ldr	r3, [pc, #16]	; (3bc8 <DMA8_DMA24_DriverIRQHandler+0x44>)
    3bb8:	6e1b      	ldr	r3, [r3, #96]	; 0x60
    3bba:	4618      	mov	r0, r3
    3bbc:	f7ff fe12 	bl	37e4 <EDMA_HandleIRQ>
    3bc0:	bf00      	nop
    3bc2:	bd80      	pop	{r7, pc}
    3bc4:	400e8000 	.word	0x400e8000
    3bc8:	200008f0 	.word	0x200008f0

00003bcc <DMA9_DMA25_DriverIRQHandler>:
    3bcc:	b580      	push	{r7, lr}
    3bce:	af00      	add	r7, sp, #0
    3bd0:	2109      	movs	r1, #9
    3bd2:	480e      	ldr	r0, [pc, #56]	; (3c0c <DMA9_DMA25_DriverIRQHandler+0x40>)
    3bd4:	f7ff fdcc 	bl	3770 <EDMA_GetChannelStatusFlags>
    3bd8:	4603      	mov	r3, r0
    3bda:	f003 0304 	and.w	r3, r3, #4
    3bde:	2b00      	cmp	r3, #0
    3be0:	d004      	beq.n	3bec <DMA9_DMA25_DriverIRQHandler+0x20>
    3be2:	4b0b      	ldr	r3, [pc, #44]	; (3c10 <DMA9_DMA25_DriverIRQHandler+0x44>)
    3be4:	6a5b      	ldr	r3, [r3, #36]	; 0x24
    3be6:	4618      	mov	r0, r3
    3be8:	f7ff fdfc 	bl	37e4 <EDMA_HandleIRQ>
    3bec:	2119      	movs	r1, #25
    3bee:	4807      	ldr	r0, [pc, #28]	; (3c0c <DMA9_DMA25_DriverIRQHandler+0x40>)
    3bf0:	f7ff fdbe 	bl	3770 <EDMA_GetChannelStatusFlags>
    3bf4:	4603      	mov	r3, r0
    3bf6:	f003 0304 	and.w	r3, r3, #4
    3bfa:	2b00      	cmp	r3, #0
    3bfc:	d004      	beq.n	3c08 <DMA9_DMA25_DriverIRQHandler+0x3c>
    3bfe:	4b04      	ldr	r3, [pc, #16]	; (3c10 <DMA9_DMA25_DriverIRQHandler+0x44>)
    3c00:	6e5b      	ldr	r3, [r3, #100]	; 0x64
    3c02:	4618      	mov	r0, r3
    3c04:	f7ff fdee 	bl	37e4 <EDMA_HandleIRQ>
    3c08:	bf00      	nop
    3c0a:	bd80      	pop	{r7, pc}
    3c0c:	400e8000 	.word	0x400e8000
    3c10:	200008f0 	.word	0x200008f0

00003c14 <DMA10_DMA26_DriverIRQHandler>:
    3c14:	b580      	push	{r7, lr}
    3c16:	af00      	add	r7, sp, #0
    3c18:	210a      	movs	r1, #10
    3c1a:	480e      	ldr	r0, [pc, #56]	; (3c54 <DMA10_DMA26_DriverIRQHandler+0x40>)
    3c1c:	f7ff fda8 	bl	3770 <EDMA_GetChannelStatusFlags>
    3c20:	4603      	mov	r3, r0
    3c22:	f003 0304 	and.w	r3, r3, #4
    3c26:	2b00      	cmp	r3, #0
    3c28:	d004      	beq.n	3c34 <DMA10_DMA26_DriverIRQHandler+0x20>
    3c2a:	4b0b      	ldr	r3, [pc, #44]	; (3c58 <DMA10_DMA26_DriverIRQHandler+0x44>)
    3c2c:	6a9b      	ldr	r3, [r3, #40]	; 0x28
    3c2e:	4618      	mov	r0, r3
    3c30:	f7ff fdd8 	bl	37e4 <EDMA_HandleIRQ>
    3c34:	211a      	movs	r1, #26
    3c36:	4807      	ldr	r0, [pc, #28]	; (3c54 <DMA10_DMA26_DriverIRQHandler+0x40>)
    3c38:	f7ff fd9a 	bl	3770 <EDMA_GetChannelStatusFlags>
    3c3c:	4603      	mov	r3, r0
    3c3e:	f003 0304 	and.w	r3, r3, #4
    3c42:	2b00      	cmp	r3, #0
    3c44:	d004      	beq.n	3c50 <DMA10_DMA26_DriverIRQHandler+0x3c>
    3c46:	4b04      	ldr	r3, [pc, #16]	; (3c58 <DMA10_DMA26_DriverIRQHandler+0x44>)
    3c48:	6e9b      	ldr	r3, [r3, #104]	; 0x68
    3c4a:	4618      	mov	r0, r3
    3c4c:	f7ff fdca 	bl	37e4 <EDMA_HandleIRQ>
    3c50:	bf00      	nop
    3c52:	bd80      	pop	{r7, pc}
    3c54:	400e8000 	.word	0x400e8000
    3c58:	200008f0 	.word	0x200008f0

00003c5c <DMA11_DMA27_DriverIRQHandler>:
    3c5c:	b580      	push	{r7, lr}
    3c5e:	af00      	add	r7, sp, #0
    3c60:	210b      	movs	r1, #11
    3c62:	480e      	ldr	r0, [pc, #56]	; (3c9c <DMA11_DMA27_DriverIRQHandler+0x40>)
    3c64:	f7ff fd84 	bl	3770 <EDMA_GetChannelStatusFlags>
    3c68:	4603      	mov	r3, r0
    3c6a:	f003 0304 	and.w	r3, r3, #4
    3c6e:	2b00      	cmp	r3, #0
    3c70:	d004      	beq.n	3c7c <DMA11_DMA27_DriverIRQHandler+0x20>
    3c72:	4b0b      	ldr	r3, [pc, #44]	; (3ca0 <DMA11_DMA27_DriverIRQHandler+0x44>)
    3c74:	6adb      	ldr	r3, [r3, #44]	; 0x2c
    3c76:	4618      	mov	r0, r3
    3c78:	f7ff fdb4 	bl	37e4 <EDMA_HandleIRQ>
    3c7c:	211b      	movs	r1, #27
    3c7e:	4807      	ldr	r0, [pc, #28]	; (3c9c <DMA11_DMA27_DriverIRQHandler+0x40>)
    3c80:	f7ff fd76 	bl	3770 <EDMA_GetChannelStatusFlags>
    3c84:	4603      	mov	r3, r0
    3c86:	f003 0304 	and.w	r3, r3, #4
    3c8a:	2b00      	cmp	r3, #0
    3c8c:	d004      	beq.n	3c98 <DMA11_DMA27_DriverIRQHandler+0x3c>
    3c8e:	4b04      	ldr	r3, [pc, #16]	; (3ca0 <DMA11_DMA27_DriverIRQHandler+0x44>)
    3c90:	6edb      	ldr	r3, [r3, #108]	; 0x6c
    3c92:	4618      	mov	r0, r3
    3c94:	f7ff fda6 	bl	37e4 <EDMA_HandleIRQ>
    3c98:	bf00      	nop
    3c9a:	bd80      	pop	{r7, pc}
    3c9c:	400e8000 	.word	0x400e8000
    3ca0:	200008f0 	.word	0x200008f0

00003ca4 <DMA12_DMA28_DriverIRQHandler>:
    3ca4:	b580      	push	{r7, lr}
    3ca6:	af00      	add	r7, sp, #0
    3ca8:	210c      	movs	r1, #12
    3caa:	480e      	ldr	r0, [pc, #56]	; (3ce4 <DMA12_DMA28_DriverIRQHandler+0x40>)
    3cac:	f7ff fd60 	bl	3770 <EDMA_GetChannelStatusFlags>
    3cb0:	4603      	mov	r3, r0
    3cb2:	f003 0304 	and.w	r3, r3, #4
    3cb6:	2b00      	cmp	r3, #0
    3cb8:	d004      	beq.n	3cc4 <DMA12_DMA28_DriverIRQHandler+0x20>
    3cba:	4b0b      	ldr	r3, [pc, #44]	; (3ce8 <DMA12_DMA28_DriverIRQHandler+0x44>)
    3cbc:	6b1b      	ldr	r3, [r3, #48]	; 0x30
    3cbe:	4618      	mov	r0, r3
    3cc0:	f7ff fd90 	bl	37e4 <EDMA_HandleIRQ>
    3cc4:	211c      	movs	r1, #28
    3cc6:	4807      	ldr	r0, [pc, #28]	; (3ce4 <DMA12_DMA28_DriverIRQHandler+0x40>)
    3cc8:	f7ff fd52 	bl	3770 <EDMA_GetChannelStatusFlags>
    3ccc:	4603      	mov	r3, r0
    3cce:	f003 0304 	and.w	r3, r3, #4
    3cd2:	2b00      	cmp	r3, #0
    3cd4:	d004      	beq.n	3ce0 <DMA12_DMA28_DriverIRQHandler+0x3c>
    3cd6:	4b04      	ldr	r3, [pc, #16]	; (3ce8 <DMA12_DMA28_DriverIRQHandler+0x44>)
    3cd8:	6f1b      	ldr	r3, [r3, #112]	; 0x70
    3cda:	4618      	mov	r0, r3
    3cdc:	f7ff fd82 	bl	37e4 <EDMA_HandleIRQ>
    3ce0:	bf00      	nop
    3ce2:	bd80      	pop	{r7, pc}
    3ce4:	400e8000 	.word	0x400e8000
    3ce8:	200008f0 	.word	0x200008f0

00003cec <DMA13_DMA29_DriverIRQHandler>:
    3cec:	b580      	push	{r7, lr}
    3cee:	af00      	add	r7, sp, #0
    3cf0:	210d      	movs	r1, #13
    3cf2:	480e      	ldr	r0, [pc, #56]	; (3d2c <DMA13_DMA29_DriverIRQHandler+0x40>)
    3cf4:	f7ff fd3c 	bl	3770 <EDMA_GetChannelStatusFlags>
    3cf8:	4603      	mov	r3, r0
    3cfa:	f003 0304 	and.w	r3, r3, #4
    3cfe:	2b00      	cmp	r3, #0
    3d00:	d004      	beq.n	3d0c <DMA13_DMA29_DriverIRQHandler+0x20>
    3d02:	4b0b      	ldr	r3, [pc, #44]	; (3d30 <DMA13_DMA29_DriverIRQHandler+0x44>)
    3d04:	6b5b      	ldr	r3, [r3, #52]	; 0x34
    3d06:	4618      	mov	r0, r3
    3d08:	f7ff fd6c 	bl	37e4 <EDMA_HandleIRQ>
    3d0c:	211d      	movs	r1, #29
    3d0e:	4807      	ldr	r0, [pc, #28]	; (3d2c <DMA13_DMA29_DriverIRQHandler+0x40>)
    3d10:	f7ff fd2e 	bl	3770 <EDMA_GetChannelStatusFlags>
    3d14:	4603      	mov	r3, r0
    3d16:	f003 0304 	and.w	r3, r3, #4
    3d1a:	2b00      	cmp	r3, #0
    3d1c:	d004      	beq.n	3d28 <DMA13_DMA29_DriverIRQHandler+0x3c>
    3d1e:	4b04      	ldr	r3, [pc, #16]	; (3d30 <DMA13_DMA29_DriverIRQHandler+0x44>)
    3d20:	6f5b      	ldr	r3, [r3, #116]	; 0x74
    3d22:	4618      	mov	r0, r3
    3d24:	f7ff fd5e 	bl	37e4 <EDMA_HandleIRQ>
    3d28:	bf00      	nop
    3d2a:	bd80      	pop	{r7, pc}
    3d2c:	400e8000 	.word	0x400e8000
    3d30:	200008f0 	.word	0x200008f0

00003d34 <DMA14_DMA30_DriverIRQHandler>:
    3d34:	b580      	push	{r7, lr}
    3d36:	af00      	add	r7, sp, #0
    3d38:	210e      	movs	r1, #14
    3d3a:	480e      	ldr	r0, [pc, #56]	; (3d74 <DMA14_DMA30_DriverIRQHandler+0x40>)
    3d3c:	f7ff fd18 	bl	3770 <EDMA_GetChannelStatusFlags>
    3d40:	4603      	mov	r3, r0
    3d42:	f003 0304 	and.w	r3, r3, #4
    3d46:	2b00      	cmp	r3, #0
    3d48:	d004      	beq.n	3d54 <DMA14_DMA30_DriverIRQHandler+0x20>
    3d4a:	4b0b      	ldr	r3, [pc, #44]	; (3d78 <DMA14_DMA30_DriverIRQHandler+0x44>)
    3d4c:	6b9b      	ldr	r3, [r3, #56]	; 0x38
    3d4e:	4618      	mov	r0, r3
    3d50:	f7ff fd48 	bl	37e4 <EDMA_HandleIRQ>
    3d54:	211e      	movs	r1, #30
    3d56:	4807      	ldr	r0, [pc, #28]	; (3d74 <DMA14_DMA30_DriverIRQHandler+0x40>)
    3d58:	f7ff fd0a 	bl	3770 <EDMA_GetChannelStatusFlags>
    3d5c:	4603      	mov	r3, r0
    3d5e:	f003 0304 	and.w	r3, r3, #4
    3d62:	2b00      	cmp	r3, #0
    3d64:	d004      	beq.n	3d70 <DMA14_DMA30_DriverIRQHandler+0x3c>
    3d66:	4b04      	ldr	r3, [pc, #16]	; (3d78 <DMA14_DMA30_DriverIRQHandler+0x44>)
    3d68:	6f9b      	ldr	r3, [r3, #120]	; 0x78
    3d6a:	4618      	mov	r0, r3
    3d6c:	f7ff fd3a 	bl	37e4 <EDMA_HandleIRQ>
    3d70:	bf00      	nop
    3d72:	bd80      	pop	{r7, pc}
    3d74:	400e8000 	.word	0x400e8000
    3d78:	200008f0 	.word	0x200008f0

00003d7c <DMA15_DMA31_DriverIRQHandler>:
    3d7c:	b580      	push	{r7, lr}
    3d7e:	af00      	add	r7, sp, #0
    3d80:	210f      	movs	r1, #15
    3d82:	480e      	ldr	r0, [pc, #56]	; (3dbc <DMA15_DMA31_DriverIRQHandler+0x40>)
    3d84:	f7ff fcf4 	bl	3770 <EDMA_GetChannelStatusFlags>
    3d88:	4603      	mov	r3, r0
    3d8a:	f003 0304 	and.w	r3, r3, #4
    3d8e:	2b00      	cmp	r3, #0
    3d90:	d004      	beq.n	3d9c <DMA15_DMA31_DriverIRQHandler+0x20>
    3d92:	4b0b      	ldr	r3, [pc, #44]	; (3dc0 <DMA15_DMA31_DriverIRQHandler+0x44>)
    3d94:	6bdb      	ldr	r3, [r3, #60]	; 0x3c
    3d96:	4618      	mov	r0, r3
    3d98:	f7ff fd24 	bl	37e4 <EDMA_HandleIRQ>
    3d9c:	211f      	movs	r1, #31
    3d9e:	4807      	ldr	r0, [pc, #28]	; (3dbc <DMA15_DMA31_DriverIRQHandler+0x40>)
    3da0:	f7ff fce6 	bl	3770 <EDMA_GetChannelStatusFlags>
    3da4:	4603      	mov	r3, r0
    3da6:	f003 0304 	and.w	r3, r3, #4
    3daa:	2b00      	cmp	r3, #0
    3dac:	d004      	beq.n	3db8 <DMA15_DMA31_DriverIRQHandler+0x3c>
    3dae:	4b04      	ldr	r3, [pc, #16]	; (3dc0 <DMA15_DMA31_DriverIRQHandler+0x44>)
    3db0:	6fdb      	ldr	r3, [r3, #124]	; 0x7c
    3db2:	4618      	mov	r0, r3
    3db4:	f7ff fd16 	bl	37e4 <EDMA_HandleIRQ>
    3db8:	bf00      	nop
    3dba:	bd80      	pop	{r7, pc}
    3dbc:	400e8000 	.word	0x400e8000
    3dc0:	200008f0 	.word	0x200008f0

00003dc4 <CLOCK_ControlGate>:
    3dc4:	b580      	push	{r7, lr}
    3dc6:	b086      	sub	sp, #24
    3dc8:	af00      	add	r7, sp, #0
    3dca:	4603      	mov	r3, r0
    3dcc:	460a      	mov	r2, r1
    3dce:	80fb      	strh	r3, [r7, #6]
    3dd0:	4613      	mov	r3, r2
    3dd2:	717b      	strb	r3, [r7, #5]
    3dd4:	f9b7 3006 	ldrsh.w	r3, [r7, #6]
    3dd8:	0a1b      	lsrs	r3, r3, #8
    3dda:	617b      	str	r3, [r7, #20]
    3ddc:	88fb      	ldrh	r3, [r7, #6]
    3dde:	f003 031f 	and.w	r3, r3, #31
    3de2:	613b      	str	r3, [r7, #16]
    3de4:	697b      	ldr	r3, [r7, #20]
    3de6:	2b07      	cmp	r3, #7
    3de8:	d902      	bls.n	3df0 <CLOCK_ControlGate+0x2c>
    3dea:	480d      	ldr	r0, [pc, #52]	; (3e20 <CLOCK_ControlGate+0x5c>)
    3dec:	f003 fdf6 	bl	79dc <__assertion_failed>
    3df0:	697b      	ldr	r3, [r7, #20]
    3df2:	009a      	lsls	r2, r3, #2
    3df4:	4b0b      	ldr	r3, [pc, #44]	; (3e24 <CLOCK_ControlGate+0x60>)
    3df6:	4413      	add	r3, r2
    3df8:	60fb      	str	r3, [r7, #12]
    3dfa:	68fb      	ldr	r3, [r7, #12]
    3dfc:	681a      	ldr	r2, [r3, #0]
    3dfe:	2103      	movs	r1, #3
    3e00:	693b      	ldr	r3, [r7, #16]
    3e02:	fa01 f303 	lsl.w	r3, r1, r3
    3e06:	43db      	mvns	r3, r3
    3e08:	401a      	ands	r2, r3
    3e0a:	7979      	ldrb	r1, [r7, #5]
    3e0c:	693b      	ldr	r3, [r7, #16]
    3e0e:	fa01 f303 	lsl.w	r3, r1, r3
    3e12:	431a      	orrs	r2, r3
    3e14:	68fb      	ldr	r3, [r7, #12]
    3e16:	601a      	str	r2, [r3, #0]
    3e18:	bf00      	nop
    3e1a:	3718      	adds	r7, #24
    3e1c:	46bd      	mov	sp, r7
    3e1e:	bd80      	pop	{r7, pc}
    3e20:	0000b998 	.word	0x0000b998
    3e24:	400fc068 	.word	0x400fc068

00003e28 <GPIO_GetInstance>:
    3e28:	b580      	push	{r7, lr}
    3e2a:	b084      	sub	sp, #16
    3e2c:	af00      	add	r7, sp, #0
    3e2e:	6078      	str	r0, [r7, #4]
    3e30:	2300      	movs	r3, #0
    3e32:	60fb      	str	r3, [r7, #12]
    3e34:	e009      	b.n	3e4a <GPIO_GetInstance+0x22>
    3e36:	4a0d      	ldr	r2, [pc, #52]	; (3e6c <GPIO_GetInstance+0x44>)
    3e38:	68fb      	ldr	r3, [r7, #12]
    3e3a:	f852 3023 	ldr.w	r3, [r2, r3, lsl #2]
    3e3e:	687a      	ldr	r2, [r7, #4]
    3e40:	429a      	cmp	r2, r3
    3e42:	d006      	beq.n	3e52 <GPIO_GetInstance+0x2a>
    3e44:	68fb      	ldr	r3, [r7, #12]
    3e46:	3301      	adds	r3, #1
    3e48:	60fb      	str	r3, [r7, #12]
    3e4a:	68fb      	ldr	r3, [r7, #12]
    3e4c:	2b09      	cmp	r3, #9
    3e4e:	d9f2      	bls.n	3e36 <GPIO_GetInstance+0xe>
    3e50:	e000      	b.n	3e54 <GPIO_GetInstance+0x2c>
    3e52:	bf00      	nop
    3e54:	68fb      	ldr	r3, [r7, #12]
    3e56:	2b09      	cmp	r3, #9
    3e58:	d902      	bls.n	3e60 <GPIO_GetInstance+0x38>
    3e5a:	4805      	ldr	r0, [pc, #20]	; (3e70 <GPIO_GetInstance+0x48>)
    3e5c:	f003 fdbe 	bl	79dc <__assertion_failed>
    3e60:	68fb      	ldr	r3, [r7, #12]
    3e62:	4618      	mov	r0, r3
    3e64:	3710      	adds	r7, #16
    3e66:	46bd      	mov	sp, r7
    3e68:	bd80      	pop	{r7, pc}
    3e6a:	bf00      	nop
    3e6c:	0000ba2c 	.word	0x0000ba2c
    3e70:	0000b9c4 	.word	0x0000b9c4

00003e74 <GPIO_PinInit>:
    3e74:	b580      	push	{r7, lr}
    3e76:	b086      	sub	sp, #24
    3e78:	af00      	add	r7, sp, #0
    3e7a:	60f8      	str	r0, [r7, #12]
    3e7c:	60b9      	str	r1, [r7, #8]
    3e7e:	607a      	str	r2, [r7, #4]
    3e80:	68f8      	ldr	r0, [r7, #12]
    3e82:	f7ff ffd1 	bl	3e28 <GPIO_GetInstance>
    3e86:	6178      	str	r0, [r7, #20]
    3e88:	697b      	ldr	r3, [r7, #20]
    3e8a:	2b05      	cmp	r3, #5
    3e8c:	d80d      	bhi.n	3eaa <GPIO_PinInit+0x36>
    3e8e:	4a21      	ldr	r2, [pc, #132]	; (3f14 <GPIO_PinInit+0xa0>)
    3e90:	697b      	ldr	r3, [r7, #20]
    3e92:	f932 3013 	ldrsh.w	r3, [r2, r3, lsl #1]
    3e96:	f1b3 3fff 	cmp.w	r3, #4294967295
    3e9a:	d006      	beq.n	3eaa <GPIO_PinInit+0x36>
    3e9c:	4a1d      	ldr	r2, [pc, #116]	; (3f14 <GPIO_PinInit+0xa0>)
    3e9e:	697b      	ldr	r3, [r7, #20]
    3ea0:	f932 3013 	ldrsh.w	r3, [r2, r3, lsl #1]
    3ea4:	4618      	mov	r0, r3
    3ea6:	f005 f922 	bl	90ee <CLOCK_EnableClock>
    3eaa:	68fb      	ldr	r3, [r7, #12]
    3eac:	695a      	ldr	r2, [r3, #20]
    3eae:	2101      	movs	r1, #1
    3eb0:	68bb      	ldr	r3, [r7, #8]
    3eb2:	fa01 f303 	lsl.w	r3, r1, r3
    3eb6:	43db      	mvns	r3, r3
    3eb8:	401a      	ands	r2, r3
    3eba:	68fb      	ldr	r3, [r7, #12]
    3ebc:	615a      	str	r2, [r3, #20]
    3ebe:	687b      	ldr	r3, [r7, #4]
    3ec0:	781b      	ldrb	r3, [r3, #0]
    3ec2:	2b00      	cmp	r3, #0
    3ec4:	d10a      	bne.n	3edc <GPIO_PinInit+0x68>
    3ec6:	68fb      	ldr	r3, [r7, #12]
    3ec8:	685a      	ldr	r2, [r3, #4]
    3eca:	2101      	movs	r1, #1
    3ecc:	68bb      	ldr	r3, [r7, #8]
    3ece:	fa01 f303 	lsl.w	r3, r1, r3
    3ed2:	43db      	mvns	r3, r3
    3ed4:	401a      	ands	r2, r3
    3ed6:	68fb      	ldr	r3, [r7, #12]
    3ed8:	605a      	str	r2, [r3, #4]
    3eda:	e00f      	b.n	3efc <GPIO_PinInit+0x88>
    3edc:	687b      	ldr	r3, [r7, #4]
    3ede:	785b      	ldrb	r3, [r3, #1]
    3ee0:	461a      	mov	r2, r3
    3ee2:	68b9      	ldr	r1, [r7, #8]
    3ee4:	68f8      	ldr	r0, [r7, #12]
    3ee6:	f000 f817 	bl	3f18 <GPIO_PinWrite>
    3eea:	68fb      	ldr	r3, [r7, #12]
    3eec:	685a      	ldr	r2, [r3, #4]
    3eee:	2101      	movs	r1, #1
    3ef0:	68bb      	ldr	r3, [r7, #8]
    3ef2:	fa01 f303 	lsl.w	r3, r1, r3
    3ef6:	431a      	orrs	r2, r3
    3ef8:	68fb      	ldr	r3, [r7, #12]
    3efa:	605a      	str	r2, [r3, #4]
    3efc:	687b      	ldr	r3, [r7, #4]
    3efe:	789b      	ldrb	r3, [r3, #2]
    3f00:	461a      	mov	r2, r3
    3f02:	68b9      	ldr	r1, [r7, #8]
    3f04:	68f8      	ldr	r0, [r7, #12]
    3f06:	f005 f901 	bl	910c <GPIO_SetPinInterruptConfig>
    3f0a:	bf00      	nop
    3f0c:	3718      	adds	r7, #24
    3f0e:	46bd      	mov	sp, r7
    3f10:	bd80      	pop	{r7, pc}
    3f12:	bf00      	nop
    3f14:	0000ba54 	.word	0x0000ba54

00003f18 <GPIO_PinWrite>:
    3f18:	b580      	push	{r7, lr}
    3f1a:	b084      	sub	sp, #16
    3f1c:	af00      	add	r7, sp, #0
    3f1e:	60f8      	str	r0, [r7, #12]
    3f20:	60b9      	str	r1, [r7, #8]
    3f22:	4613      	mov	r3, r2
    3f24:	71fb      	strb	r3, [r7, #7]
    3f26:	68bb      	ldr	r3, [r7, #8]
    3f28:	2b1f      	cmp	r3, #31
    3f2a:	d902      	bls.n	3f32 <GPIO_PinWrite+0x1a>
    3f2c:	480e      	ldr	r0, [pc, #56]	; (3f68 <GPIO_PinWrite+0x50>)
    3f2e:	f003 fd55 	bl	79dc <__assertion_failed>
    3f32:	79fb      	ldrb	r3, [r7, #7]
    3f34:	2b00      	cmp	r3, #0
    3f36:	d10a      	bne.n	3f4e <GPIO_PinWrite+0x36>
    3f38:	68fb      	ldr	r3, [r7, #12]
    3f3a:	681a      	ldr	r2, [r3, #0]
    3f3c:	2101      	movs	r1, #1
    3f3e:	68bb      	ldr	r3, [r7, #8]
    3f40:	fa01 f303 	lsl.w	r3, r1, r3
    3f44:	43db      	mvns	r3, r3
    3f46:	401a      	ands	r2, r3
    3f48:	68fb      	ldr	r3, [r7, #12]
    3f4a:	601a      	str	r2, [r3, #0]
    3f4c:	e008      	b.n	3f60 <GPIO_PinWrite+0x48>
    3f4e:	68fb      	ldr	r3, [r7, #12]
    3f50:	681a      	ldr	r2, [r3, #0]
    3f52:	2101      	movs	r1, #1
    3f54:	68bb      	ldr	r3, [r7, #8]
    3f56:	fa01 f303 	lsl.w	r3, r1, r3
    3f5a:	431a      	orrs	r2, r3
    3f5c:	68fb      	ldr	r3, [r7, #12]
    3f5e:	601a      	str	r2, [r3, #0]
    3f60:	bf00      	nop
    3f62:	3710      	adds	r7, #16
    3f64:	46bd      	mov	sp, r7
    3f66:	bd80      	pop	{r7, pc}
    3f68:	0000ba04 	.word	0x0000ba04

00003f6c <GPIO_PinSetInterruptConfig>:
    3f6c:	b480      	push	{r7}
    3f6e:	b087      	sub	sp, #28
    3f70:	af00      	add	r7, sp, #0
    3f72:	60f8      	str	r0, [r7, #12]
    3f74:	60b9      	str	r1, [r7, #8]
    3f76:	4613      	mov	r3, r2
    3f78:	71fb      	strb	r3, [r7, #7]
    3f7a:	68bb      	ldr	r3, [r7, #8]
    3f7c:	613b      	str	r3, [r7, #16]
    3f7e:	68fb      	ldr	r3, [r7, #12]
    3f80:	69da      	ldr	r2, [r3, #28]
    3f82:	2101      	movs	r1, #1
    3f84:	68bb      	ldr	r3, [r7, #8]
    3f86:	fa01 f303 	lsl.w	r3, r1, r3
    3f8a:	43db      	mvns	r3, r3
    3f8c:	401a      	ands	r2, r3
    3f8e:	68fb      	ldr	r3, [r7, #12]
    3f90:	61da      	str	r2, [r3, #28]
    3f92:	68bb      	ldr	r3, [r7, #8]
    3f94:	2b0f      	cmp	r3, #15
    3f96:	d803      	bhi.n	3fa0 <GPIO_PinSetInterruptConfig+0x34>
    3f98:	68fb      	ldr	r3, [r7, #12]
    3f9a:	330c      	adds	r3, #12
    3f9c:	617b      	str	r3, [r7, #20]
    3f9e:	e005      	b.n	3fac <GPIO_PinSetInterruptConfig+0x40>
    3fa0:	68fb      	ldr	r3, [r7, #12]
    3fa2:	3310      	adds	r3, #16
    3fa4:	617b      	str	r3, [r7, #20]
    3fa6:	693b      	ldr	r3, [r7, #16]
    3fa8:	3b10      	subs	r3, #16
    3faa:	613b      	str	r3, [r7, #16]
    3fac:	79fb      	ldrb	r3, [r7, #7]
    3fae:	3b01      	subs	r3, #1
    3fb0:	2b04      	cmp	r3, #4
    3fb2:	d852      	bhi.n	405a <GPIO_PinSetInterruptConfig+0xee>
    3fb4:	a201      	add	r2, pc, #4	; (adr r2, 3fbc <GPIO_PinSetInterruptConfig+0x50>)
    3fb6:	f852 f023 	ldr.w	pc, [r2, r3, lsl #2]
    3fba:	bf00      	nop
    3fbc:	00003fd1 	.word	0x00003fd1
    3fc0:	00003fe9 	.word	0x00003fe9
    3fc4:	0000400d 	.word	0x0000400d
    3fc8:	00004031 	.word	0x00004031
    3fcc:	00004047 	.word	0x00004047
    3fd0:	697b      	ldr	r3, [r7, #20]
    3fd2:	681a      	ldr	r2, [r3, #0]
    3fd4:	693b      	ldr	r3, [r7, #16]
    3fd6:	005b      	lsls	r3, r3, #1
    3fd8:	2103      	movs	r1, #3
    3fda:	fa01 f303 	lsl.w	r3, r1, r3
    3fde:	43db      	mvns	r3, r3
    3fe0:	401a      	ands	r2, r3
    3fe2:	697b      	ldr	r3, [r7, #20]
    3fe4:	601a      	str	r2, [r3, #0]
    3fe6:	e039      	b.n	405c <GPIO_PinSetInterruptConfig+0xf0>
    3fe8:	697b      	ldr	r3, [r7, #20]
    3fea:	681a      	ldr	r2, [r3, #0]
    3fec:	693b      	ldr	r3, [r7, #16]
    3fee:	005b      	lsls	r3, r3, #1
    3ff0:	2103      	movs	r1, #3
    3ff2:	fa01 f303 	lsl.w	r3, r1, r3
    3ff6:	43db      	mvns	r3, r3
    3ff8:	401a      	ands	r2, r3
    3ffa:	693b      	ldr	r3, [r7, #16]
    3ffc:	005b      	lsls	r3, r3, #1
    3ffe:	2101      	movs	r1, #1
    4000:	fa01 f303 	lsl.w	r3, r1, r3
    4004:	431a      	orrs	r2, r3
    4006:	697b      	ldr	r3, [r7, #20]
    4008:	601a      	str	r2, [r3, #0]
    400a:	e027      	b.n	405c <GPIO_PinSetInterruptConfig+0xf0>
    400c:	697b      	ldr	r3, [r7, #20]
    400e:	681a      	ldr	r2, [r3, #0]
    4010:	693b      	ldr	r3, [r7, #16]
    4012:	005b      	lsls	r3, r3, #1
    4014:	2103      	movs	r1, #3
    4016:	fa01 f303 	lsl.w	r3, r1, r3
    401a:	43db      	mvns	r3, r3
    401c:	401a      	ands	r2, r3
    401e:	693b      	ldr	r3, [r7, #16]
    4020:	005b      	lsls	r3, r3, #1
    4022:	2102      	movs	r1, #2
    4024:	fa01 f303 	lsl.w	r3, r1, r3
    4028:	431a      	orrs	r2, r3
    402a:	697b      	ldr	r3, [r7, #20]
    402c:	601a      	str	r2, [r3, #0]
    402e:	e015      	b.n	405c <GPIO_PinSetInterruptConfig+0xf0>
    4030:	697b      	ldr	r3, [r7, #20]
    4032:	681a      	ldr	r2, [r3, #0]
    4034:	693b      	ldr	r3, [r7, #16]
    4036:	005b      	lsls	r3, r3, #1
    4038:	2103      	movs	r1, #3
    403a:	fa01 f303 	lsl.w	r3, r1, r3
    403e:	431a      	orrs	r2, r3
    4040:	697b      	ldr	r3, [r7, #20]
    4042:	601a      	str	r2, [r3, #0]
    4044:	e00a      	b.n	405c <GPIO_PinSetInterruptConfig+0xf0>
    4046:	68fb      	ldr	r3, [r7, #12]
    4048:	69da      	ldr	r2, [r3, #28]
    404a:	2101      	movs	r1, #1
    404c:	68bb      	ldr	r3, [r7, #8]
    404e:	fa01 f303 	lsl.w	r3, r1, r3
    4052:	431a      	orrs	r2, r3
    4054:	68fb      	ldr	r3, [r7, #12]
    4056:	61da      	str	r2, [r3, #28]
    4058:	e000      	b.n	405c <GPIO_PinSetInterruptConfig+0xf0>
    405a:	bf00      	nop
    405c:	bf00      	nop
    405e:	371c      	adds	r7, #28
    4060:	46bd      	mov	sp, r7
    4062:	f85d 7b04 	ldr.w	r7, [sp], #4
    4066:	4770      	bx	lr

00004068 <__NVIC_EnableIRQ>:
    4068:	b480      	push	{r7}
    406a:	b083      	sub	sp, #12
    406c:	af00      	add	r7, sp, #0
    406e:	4603      	mov	r3, r0
    4070:	80fb      	strh	r3, [r7, #6]
    4072:	f9b7 3006 	ldrsh.w	r3, [r7, #6]
    4076:	2b00      	cmp	r3, #0
    4078:	db0b      	blt.n	4092 <__NVIC_EnableIRQ+0x2a>
    407a:	88fb      	ldrh	r3, [r7, #6]
    407c:	f003 021f 	and.w	r2, r3, #31
    4080:	4907      	ldr	r1, [pc, #28]	; (40a0 <__NVIC_EnableIRQ+0x38>)
    4082:	f9b7 3006 	ldrsh.w	r3, [r7, #6]
    4086:	095b      	lsrs	r3, r3, #5
    4088:	2001      	movs	r0, #1
    408a:	fa00 f202 	lsl.w	r2, r0, r2
    408e:	f841 2023 	str.w	r2, [r1, r3, lsl #2]
    4092:	bf00      	nop
    4094:	370c      	adds	r7, #12
    4096:	46bd      	mov	sp, r7
    4098:	f85d 7b04 	ldr.w	r7, [sp], #4
    409c:	4770      	bx	lr
    409e:	bf00      	nop
    40a0:	e000e100 	.word	0xe000e100

000040a4 <CLOCK_ControlGate>:
    40a4:	b580      	push	{r7, lr}
    40a6:	b086      	sub	sp, #24
    40a8:	af00      	add	r7, sp, #0
    40aa:	4603      	mov	r3, r0
    40ac:	460a      	mov	r2, r1
    40ae:	80fb      	strh	r3, [r7, #6]
    40b0:	4613      	mov	r3, r2
    40b2:	717b      	strb	r3, [r7, #5]
    40b4:	f9b7 3006 	ldrsh.w	r3, [r7, #6]
    40b8:	0a1b      	lsrs	r3, r3, #8
    40ba:	617b      	str	r3, [r7, #20]
    40bc:	88fb      	ldrh	r3, [r7, #6]
    40be:	f003 031f 	and.w	r3, r3, #31
    40c2:	613b      	str	r3, [r7, #16]
    40c4:	697b      	ldr	r3, [r7, #20]
    40c6:	2b07      	cmp	r3, #7
    40c8:	d902      	bls.n	40d0 <CLOCK_ControlGate+0x2c>
    40ca:	480d      	ldr	r0, [pc, #52]	; (4100 <CLOCK_ControlGate+0x5c>)
    40cc:	f003 fc86 	bl	79dc <__assertion_failed>
    40d0:	697b      	ldr	r3, [r7, #20]
    40d2:	009a      	lsls	r2, r3, #2
    40d4:	4b0b      	ldr	r3, [pc, #44]	; (4104 <CLOCK_ControlGate+0x60>)
    40d6:	4413      	add	r3, r2
    40d8:	60fb      	str	r3, [r7, #12]
    40da:	68fb      	ldr	r3, [r7, #12]
    40dc:	681a      	ldr	r2, [r3, #0]
    40de:	2103      	movs	r1, #3
    40e0:	693b      	ldr	r3, [r7, #16]
    40e2:	fa01 f303 	lsl.w	r3, r1, r3
    40e6:	43db      	mvns	r3, r3
    40e8:	401a      	ands	r2, r3
    40ea:	7979      	ldrb	r1, [r7, #5]
    40ec:	693b      	ldr	r3, [r7, #16]
    40ee:	fa01 f303 	lsl.w	r3, r1, r3
    40f2:	431a      	orrs	r2, r3
    40f4:	68fb      	ldr	r3, [r7, #12]
    40f6:	601a      	str	r2, [r3, #0]
    40f8:	bf00      	nop
    40fa:	3718      	adds	r7, #24
    40fc:	46bd      	mov	sp, r7
    40fe:	bd80      	pop	{r7, pc}
    4100:	0000ba60 	.word	0x0000ba60
    4104:	400fc068 	.word	0x400fc068

00004108 <LPSPI_GetInstance>:
    4108:	b580      	push	{r7, lr}
    410a:	b084      	sub	sp, #16
    410c:	af00      	add	r7, sp, #0
    410e:	6078      	str	r0, [r7, #4]
    4110:	2300      	movs	r3, #0
    4112:	73fb      	strb	r3, [r7, #15]
    4114:	2300      	movs	r3, #0
    4116:	73fb      	strb	r3, [r7, #15]
    4118:	e009      	b.n	412e <LPSPI_GetInstance+0x26>
    411a:	7bfb      	ldrb	r3, [r7, #15]
    411c:	4a0c      	ldr	r2, [pc, #48]	; (4150 <LPSPI_GetInstance+0x48>)
    411e:	f852 3023 	ldr.w	r3, [r2, r3, lsl #2]
    4122:	687a      	ldr	r2, [r7, #4]
    4124:	429a      	cmp	r2, r3
    4126:	d006      	beq.n	4136 <LPSPI_GetInstance+0x2e>
    4128:	7bfb      	ldrb	r3, [r7, #15]
    412a:	3301      	adds	r3, #1
    412c:	73fb      	strb	r3, [r7, #15]
    412e:	7bfb      	ldrb	r3, [r7, #15]
    4130:	2b04      	cmp	r3, #4
    4132:	d9f2      	bls.n	411a <LPSPI_GetInstance+0x12>
    4134:	e000      	b.n	4138 <LPSPI_GetInstance+0x30>
    4136:	bf00      	nop
    4138:	7bfb      	ldrb	r3, [r7, #15]
    413a:	2b04      	cmp	r3, #4
    413c:	d902      	bls.n	4144 <LPSPI_GetInstance+0x3c>
    413e:	4805      	ldr	r0, [pc, #20]	; (4154 <LPSPI_GetInstance+0x4c>)
    4140:	f003 fc4c 	bl	79dc <__assertion_failed>
    4144:	7bfb      	ldrb	r3, [r7, #15]
    4146:	4618      	mov	r0, r3
    4148:	3710      	adds	r7, #16
    414a:	46bd      	mov	sp, r7
    414c:	bd80      	pop	{r7, pc}
    414e:	bf00      	nop
    4150:	0000bffc 	.word	0x0000bffc
    4154:	0000ba8c 	.word	0x0000ba8c

00004158 <LPSPI_SetDummyData>:
    4158:	b580      	push	{r7, lr}
    415a:	b084      	sub	sp, #16
    415c:	af00      	add	r7, sp, #0
    415e:	6078      	str	r0, [r7, #4]
    4160:	460b      	mov	r3, r1
    4162:	70fb      	strb	r3, [r7, #3]
    4164:	6878      	ldr	r0, [r7, #4]
    4166:	f7ff ffcf 	bl	4108 <LPSPI_GetInstance>
    416a:	60f8      	str	r0, [r7, #12]
    416c:	4a04      	ldr	r2, [pc, #16]	; (4180 <LPSPI_SetDummyData+0x28>)
    416e:	68fb      	ldr	r3, [r7, #12]
    4170:	4413      	add	r3, r2
    4172:	78fa      	ldrb	r2, [r7, #3]
    4174:	701a      	strb	r2, [r3, #0]
    4176:	bf00      	nop
    4178:	3710      	adds	r7, #16
    417a:	46bd      	mov	sp, r7
    417c:	bd80      	pop	{r7, pc}
    417e:	bf00      	nop
    4180:	2000098c 	.word	0x2000098c

00004184 <LPSPI_MasterInit>:
    4184:	b580      	push	{r7, lr}
    4186:	b086      	sub	sp, #24
    4188:	af00      	add	r7, sp, #0
    418a:	60f8      	str	r0, [r7, #12]
    418c:	60b9      	str	r1, [r7, #8]
    418e:	607a      	str	r2, [r7, #4]
    4190:	68bb      	ldr	r3, [r7, #8]
    4192:	2b00      	cmp	r3, #0
    4194:	d102      	bne.n	419c <LPSPI_MasterInit+0x18>
    4196:	483f      	ldr	r0, [pc, #252]	; (4294 <LPSPI_MasterInit+0x110>)
    4198:	f003 fc20 	bl	79dc <__assertion_failed>
    419c:	2300      	movs	r3, #0
    419e:	613b      	str	r3, [r7, #16]
    41a0:	68f8      	ldr	r0, [r7, #12]
    41a2:	f7ff ffb1 	bl	4108 <LPSPI_GetInstance>
    41a6:	6178      	str	r0, [r7, #20]
    41a8:	4a3b      	ldr	r2, [pc, #236]	; (4298 <LPSPI_MasterInit+0x114>)
    41aa:	697b      	ldr	r3, [r7, #20]
    41ac:	f932 3013 	ldrsh.w	r3, [r2, r3, lsl #1]
    41b0:	4618      	mov	r0, r3
    41b2:	f004 ffbc 	bl	912e <CLOCK_EnableClock>
    41b6:	2101      	movs	r1, #1
    41b8:	68f8      	ldr	r0, [r7, #12]
    41ba:	f005 f873 	bl	92a4 <LPSPI_SetMasterSlaveMode>
    41be:	68bb      	ldr	r3, [r7, #8]
    41c0:	7e19      	ldrb	r1, [r3, #24]
    41c2:	68bb      	ldr	r3, [r7, #8]
    41c4:	7e5b      	ldrb	r3, [r3, #25]
    41c6:	461a      	mov	r2, r3
    41c8:	68f8      	ldr	r0, [r7, #12]
    41ca:	f005 f8f5 	bl	93b8 <LPSPI_SetOnePcsPolarity>
    41ce:	68fb      	ldr	r3, [r7, #12]
    41d0:	6a5a      	ldr	r2, [r3, #36]	; 0x24
    41d2:	4b32      	ldr	r3, [pc, #200]	; (429c <LPSPI_MasterInit+0x118>)
    41d4:	4013      	ands	r3, r2
    41d6:	68ba      	ldr	r2, [r7, #8]
    41d8:	7ed2      	ldrb	r2, [r2, #27]
    41da:	0692      	lsls	r2, r2, #26
    41dc:	f002 6280 	and.w	r2, r2, #67108864	; 0x4000000
    41e0:	431a      	orrs	r2, r3
    41e2:	68bb      	ldr	r3, [r7, #8]
    41e4:	7e9b      	ldrb	r3, [r3, #26]
    41e6:	061b      	lsls	r3, r3, #24
    41e8:	f003 7340 	and.w	r3, r3, #50331648	; 0x3000000
    41ec:	431a      	orrs	r2, r3
    41ee:	68fb      	ldr	r3, [r7, #12]
    41f0:	625a      	str	r2, [r3, #36]	; 0x24
    41f2:	68bb      	ldr	r3, [r7, #8]
    41f4:	6819      	ldr	r1, [r3, #0]
    41f6:	f107 0310 	add.w	r3, r7, #16
    41fa:	687a      	ldr	r2, [r7, #4]
    41fc:	68f8      	ldr	r0, [r7, #12]
    41fe:	f000 f941 	bl	4484 <LPSPI_MasterSetBaudRate>
    4202:	2200      	movs	r2, #0
    4204:	2100      	movs	r1, #0
    4206:	68f8      	ldr	r0, [r7, #12]
    4208:	f005 f88d 	bl	9326 <LPSPI_SetFifoWatermarks>
    420c:	68bb      	ldr	r3, [r7, #8]
    420e:	7a1b      	ldrb	r3, [r3, #8]
    4210:	07da      	lsls	r2, r3, #31
    4212:	68bb      	ldr	r3, [r7, #8]
    4214:	7a5b      	ldrb	r3, [r3, #9]
    4216:	079b      	lsls	r3, r3, #30
    4218:	f003 4380 	and.w	r3, r3, #1073741824	; 0x40000000
    421c:	431a      	orrs	r2, r3
    421e:	68bb      	ldr	r3, [r7, #8]
    4220:	7a9b      	ldrb	r3, [r3, #10]
    4222:	05db      	lsls	r3, r3, #23
    4224:	f403 0300 	and.w	r3, r3, #8388608	; 0x800000
    4228:	431a      	orrs	r2, r3
    422a:	68bb      	ldr	r3, [r7, #8]
    422c:	685b      	ldr	r3, [r3, #4]
    422e:	3b01      	subs	r3, #1
    4230:	f3c3 030b 	ubfx	r3, r3, #0, #12
    4234:	431a      	orrs	r2, r3
    4236:	693b      	ldr	r3, [r7, #16]
    4238:	06db      	lsls	r3, r3, #27
    423a:	f003 5360 	and.w	r3, r3, #939524096	; 0x38000000
    423e:	431a      	orrs	r2, r3
    4240:	68bb      	ldr	r3, [r7, #8]
    4242:	7e1b      	ldrb	r3, [r3, #24]
    4244:	061b      	lsls	r3, r3, #24
    4246:	f003 7340 	and.w	r3, r3, #50331648	; 0x3000000
    424a:	431a      	orrs	r2, r3
    424c:	68fb      	ldr	r3, [r7, #12]
    424e:	661a      	str	r2, [r3, #96]	; 0x60
    4250:	2101      	movs	r1, #1
    4252:	68f8      	ldr	r0, [r7, #12]
    4254:	f004 ff9f 	bl	9196 <LPSPI_Enable>
    4258:	68bb      	ldr	r3, [r7, #8]
    425a:	68d9      	ldr	r1, [r3, #12]
    425c:	687b      	ldr	r3, [r7, #4]
    425e:	2201      	movs	r2, #1
    4260:	68f8      	ldr	r0, [r7, #12]
    4262:	f7fc f88d 	bl	380 <LPSPI_MasterSetDelayTimes>
    4266:	68bb      	ldr	r3, [r7, #8]
    4268:	6919      	ldr	r1, [r3, #16]
    426a:	687b      	ldr	r3, [r7, #4]
    426c:	2202      	movs	r2, #2
    426e:	68f8      	ldr	r0, [r7, #12]
    4270:	f7fc f886 	bl	380 <LPSPI_MasterSetDelayTimes>
    4274:	68bb      	ldr	r3, [r7, #8]
    4276:	6959      	ldr	r1, [r3, #20]
    4278:	687b      	ldr	r3, [r7, #4]
    427a:	2203      	movs	r2, #3
    427c:	68f8      	ldr	r0, [r7, #12]
    427e:	f7fc f87f 	bl	380 <LPSPI_MasterSetDelayTimes>
    4282:	2100      	movs	r1, #0
    4284:	68f8      	ldr	r0, [r7, #12]
    4286:	f7ff ff67 	bl	4158 <LPSPI_SetDummyData>
    428a:	bf00      	nop
    428c:	3718      	adds	r7, #24
    428e:	46bd      	mov	sp, r7
    4290:	bd80      	pop	{r7, pc}
    4292:	bf00      	nop
    4294:	0000bad0 	.word	0x0000bad0
    4298:	0000c01c 	.word	0x0000c01c
    429c:	f8fffff7 	.word	0xf8fffff7

000042a0 <LPSPI_MasterGetDefaultConfig>:
    42a0:	b580      	push	{r7, lr}
    42a2:	b082      	sub	sp, #8
    42a4:	af00      	add	r7, sp, #0
    42a6:	6078      	str	r0, [r7, #4]
    42a8:	687b      	ldr	r3, [r7, #4]
    42aa:	2b00      	cmp	r3, #0
    42ac:	d102      	bne.n	42b4 <LPSPI_MasterGetDefaultConfig+0x14>
    42ae:	481f      	ldr	r0, [pc, #124]	; (432c <LPSPI_MasterGetDefaultConfig+0x8c>)
    42b0:	f003 fb94 	bl	79dc <__assertion_failed>
    42b4:	221c      	movs	r2, #28
    42b6:	2100      	movs	r1, #0
    42b8:	6878      	ldr	r0, [r7, #4]
    42ba:	f005 ff0f 	bl	a0dc <memset>
    42be:	687b      	ldr	r3, [r7, #4]
    42c0:	4a1b      	ldr	r2, [pc, #108]	; (4330 <LPSPI_MasterGetDefaultConfig+0x90>)
    42c2:	601a      	str	r2, [r3, #0]
    42c4:	687b      	ldr	r3, [r7, #4]
    42c6:	2208      	movs	r2, #8
    42c8:	605a      	str	r2, [r3, #4]
    42ca:	687b      	ldr	r3, [r7, #4]
    42cc:	2200      	movs	r2, #0
    42ce:	721a      	strb	r2, [r3, #8]
    42d0:	687b      	ldr	r3, [r7, #4]
    42d2:	2200      	movs	r2, #0
    42d4:	725a      	strb	r2, [r3, #9]
    42d6:	687b      	ldr	r3, [r7, #4]
    42d8:	2200      	movs	r2, #0
    42da:	729a      	strb	r2, [r3, #10]
    42dc:	687b      	ldr	r3, [r7, #4]
    42de:	681b      	ldr	r3, [r3, #0]
    42e0:	4a14      	ldr	r2, [pc, #80]	; (4334 <LPSPI_MasterGetDefaultConfig+0x94>)
    42e2:	fbb2 f3f3 	udiv	r3, r2, r3
    42e6:	005a      	lsls	r2, r3, #1
    42e8:	687b      	ldr	r3, [r7, #4]
    42ea:	60da      	str	r2, [r3, #12]
    42ec:	687b      	ldr	r3, [r7, #4]
    42ee:	681b      	ldr	r3, [r3, #0]
    42f0:	4a10      	ldr	r2, [pc, #64]	; (4334 <LPSPI_MasterGetDefaultConfig+0x94>)
    42f2:	fbb2 f3f3 	udiv	r3, r2, r3
    42f6:	005a      	lsls	r2, r3, #1
    42f8:	687b      	ldr	r3, [r7, #4]
    42fa:	611a      	str	r2, [r3, #16]
    42fc:	687b      	ldr	r3, [r7, #4]
    42fe:	681b      	ldr	r3, [r3, #0]
    4300:	4a0c      	ldr	r2, [pc, #48]	; (4334 <LPSPI_MasterGetDefaultConfig+0x94>)
    4302:	fbb2 f3f3 	udiv	r3, r2, r3
    4306:	005a      	lsls	r2, r3, #1
    4308:	687b      	ldr	r3, [r7, #4]
    430a:	615a      	str	r2, [r3, #20]
    430c:	687b      	ldr	r3, [r7, #4]
    430e:	2200      	movs	r2, #0
    4310:	761a      	strb	r2, [r3, #24]
    4312:	687b      	ldr	r3, [r7, #4]
    4314:	2200      	movs	r2, #0
    4316:	765a      	strb	r2, [r3, #25]
    4318:	687b      	ldr	r3, [r7, #4]
    431a:	2200      	movs	r2, #0
    431c:	769a      	strb	r2, [r3, #26]
    431e:	687b      	ldr	r3, [r7, #4]
    4320:	2200      	movs	r2, #0
    4322:	76da      	strb	r2, [r3, #27]
    4324:	bf00      	nop
    4326:	3708      	adds	r7, #8
    4328:	46bd      	mov	sp, r7
    432a:	bd80      	pop	{r7, pc}
    432c:	0000bafc 	.word	0x0000bafc
    4330:	0007a120 	.word	0x0007a120
    4334:	3b9aca00 	.word	0x3b9aca00

00004338 <LPSPI_SlaveInit>:
    4338:	b580      	push	{r7, lr}
    433a:	b084      	sub	sp, #16
    433c:	af00      	add	r7, sp, #0
    433e:	6078      	str	r0, [r7, #4]
    4340:	6039      	str	r1, [r7, #0]
    4342:	683b      	ldr	r3, [r7, #0]
    4344:	2b00      	cmp	r3, #0
    4346:	d102      	bne.n	434e <LPSPI_SlaveInit+0x16>
    4348:	4829      	ldr	r0, [pc, #164]	; (43f0 <LPSPI_SlaveInit+0xb8>)
    434a:	f003 fb47 	bl	79dc <__assertion_failed>
    434e:	6878      	ldr	r0, [r7, #4]
    4350:	f7ff feda 	bl	4108 <LPSPI_GetInstance>
    4354:	60f8      	str	r0, [r7, #12]
    4356:	4a27      	ldr	r2, [pc, #156]	; (43f4 <LPSPI_SlaveInit+0xbc>)
    4358:	68fb      	ldr	r3, [r7, #12]
    435a:	f932 3013 	ldrsh.w	r3, [r2, r3, lsl #1]
    435e:	4618      	mov	r0, r3
    4360:	f004 fee5 	bl	912e <CLOCK_EnableClock>
    4364:	2100      	movs	r1, #0
    4366:	6878      	ldr	r0, [r7, #4]
    4368:	f004 ff9c 	bl	92a4 <LPSPI_SetMasterSlaveMode>
    436c:	683b      	ldr	r3, [r7, #0]
    436e:	79d9      	ldrb	r1, [r3, #7]
    4370:	683b      	ldr	r3, [r7, #0]
    4372:	7a1b      	ldrb	r3, [r3, #8]
    4374:	461a      	mov	r2, r3
    4376:	6878      	ldr	r0, [r7, #4]
    4378:	f005 f81e 	bl	93b8 <LPSPI_SetOnePcsPolarity>
    437c:	687b      	ldr	r3, [r7, #4]
    437e:	6a5b      	ldr	r3, [r3, #36]	; 0x24
    4380:	f023 62e0 	bic.w	r2, r3, #117440512	; 0x7000000
    4384:	683b      	ldr	r3, [r7, #0]
    4386:	7a9b      	ldrb	r3, [r3, #10]
    4388:	069b      	lsls	r3, r3, #26
    438a:	f003 6380 	and.w	r3, r3, #67108864	; 0x4000000
    438e:	431a      	orrs	r2, r3
    4390:	683b      	ldr	r3, [r7, #0]
    4392:	7a5b      	ldrb	r3, [r3, #9]
    4394:	061b      	lsls	r3, r3, #24
    4396:	f003 7340 	and.w	r3, r3, #50331648	; 0x3000000
    439a:	431a      	orrs	r2, r3
    439c:	687b      	ldr	r3, [r7, #4]
    439e:	625a      	str	r2, [r3, #36]	; 0x24
    43a0:	2200      	movs	r2, #0
    43a2:	2100      	movs	r1, #0
    43a4:	6878      	ldr	r0, [r7, #4]
    43a6:	f004 ffbe 	bl	9326 <LPSPI_SetFifoWatermarks>
    43aa:	683b      	ldr	r3, [r7, #0]
    43ac:	791b      	ldrb	r3, [r3, #4]
    43ae:	07da      	lsls	r2, r3, #31
    43b0:	683b      	ldr	r3, [r7, #0]
    43b2:	795b      	ldrb	r3, [r3, #5]
    43b4:	079b      	lsls	r3, r3, #30
    43b6:	f003 4380 	and.w	r3, r3, #1073741824	; 0x40000000
    43ba:	431a      	orrs	r2, r3
    43bc:	683b      	ldr	r3, [r7, #0]
    43be:	799b      	ldrb	r3, [r3, #6]
    43c0:	05db      	lsls	r3, r3, #23
    43c2:	f403 0300 	and.w	r3, r3, #8388608	; 0x800000
    43c6:	431a      	orrs	r2, r3
    43c8:	683b      	ldr	r3, [r7, #0]
    43ca:	681b      	ldr	r3, [r3, #0]
    43cc:	3b01      	subs	r3, #1
    43ce:	f3c3 030b 	ubfx	r3, r3, #0, #12
    43d2:	431a      	orrs	r2, r3
    43d4:	687b      	ldr	r3, [r7, #4]
    43d6:	661a      	str	r2, [r3, #96]	; 0x60
    43d8:	2100      	movs	r1, #0
    43da:	6878      	ldr	r0, [r7, #4]
    43dc:	f7ff febc 	bl	4158 <LPSPI_SetDummyData>
    43e0:	2101      	movs	r1, #1
    43e2:	6878      	ldr	r0, [r7, #4]
    43e4:	f004 fed7 	bl	9196 <LPSPI_Enable>
    43e8:	bf00      	nop
    43ea:	3710      	adds	r7, #16
    43ec:	46bd      	mov	sp, r7
    43ee:	bd80      	pop	{r7, pc}
    43f0:	0000bb28 	.word	0x0000bb28
    43f4:	0000c01c 	.word	0x0000c01c

000043f8 <LPSPI_SlaveGetDefaultConfig>:
    43f8:	b580      	push	{r7, lr}
    43fa:	b082      	sub	sp, #8
    43fc:	af00      	add	r7, sp, #0
    43fe:	6078      	str	r0, [r7, #4]
    4400:	687b      	ldr	r3, [r7, #4]
    4402:	2b00      	cmp	r3, #0
    4404:	d102      	bne.n	440c <LPSPI_SlaveGetDefaultConfig+0x14>
    4406:	4812      	ldr	r0, [pc, #72]	; (4450 <LPSPI_SlaveGetDefaultConfig+0x58>)
    4408:	f003 fae8 	bl	79dc <__assertion_failed>
    440c:	220c      	movs	r2, #12
    440e:	2100      	movs	r1, #0
    4410:	6878      	ldr	r0, [r7, #4]
    4412:	f005 fe63 	bl	a0dc <memset>
    4416:	687b      	ldr	r3, [r7, #4]
    4418:	2208      	movs	r2, #8
    441a:	601a      	str	r2, [r3, #0]
    441c:	687b      	ldr	r3, [r7, #4]
    441e:	2200      	movs	r2, #0
    4420:	711a      	strb	r2, [r3, #4]
    4422:	687b      	ldr	r3, [r7, #4]
    4424:	2200      	movs	r2, #0
    4426:	715a      	strb	r2, [r3, #5]
    4428:	687b      	ldr	r3, [r7, #4]
    442a:	2200      	movs	r2, #0
    442c:	719a      	strb	r2, [r3, #6]
    442e:	687b      	ldr	r3, [r7, #4]
    4430:	2200      	movs	r2, #0
    4432:	71da      	strb	r2, [r3, #7]
    4434:	687b      	ldr	r3, [r7, #4]
    4436:	2200      	movs	r2, #0
    4438:	721a      	strb	r2, [r3, #8]
    443a:	687b      	ldr	r3, [r7, #4]
    443c:	2200      	movs	r2, #0
    443e:	725a      	strb	r2, [r3, #9]
    4440:	687b      	ldr	r3, [r7, #4]
    4442:	2200      	movs	r2, #0
    4444:	729a      	strb	r2, [r3, #10]
    4446:	bf00      	nop
    4448:	3708      	adds	r7, #8
    444a:	46bd      	mov	sp, r7
    444c:	bd80      	pop	{r7, pc}
    444e:	bf00      	nop
    4450:	0000bb54 	.word	0x0000bb54

00004454 <LPSPI_Deinit>:
    4454:	b580      	push	{r7, lr}
    4456:	b084      	sub	sp, #16
    4458:	af00      	add	r7, sp, #0
    445a:	6078      	str	r0, [r7, #4]
    445c:	6878      	ldr	r0, [r7, #4]
    445e:	f004 ff92 	bl	9386 <LPSPI_Reset>
    4462:	6878      	ldr	r0, [r7, #4]
    4464:	f7ff fe50 	bl	4108 <LPSPI_GetInstance>
    4468:	60f8      	str	r0, [r7, #12]
    446a:	4a05      	ldr	r2, [pc, #20]	; (4480 <LPSPI_Deinit+0x2c>)
    446c:	68fb      	ldr	r3, [r7, #12]
    446e:	f932 3013 	ldrsh.w	r3, [r2, r3, lsl #1]
    4472:	4618      	mov	r0, r3
    4474:	f004 fe6a 	bl	914c <CLOCK_DisableClock>
    4478:	bf00      	nop
    447a:	3710      	adds	r7, #16
    447c:	46bd      	mov	sp, r7
    447e:	bd80      	pop	{r7, pc}
    4480:	0000c01c 	.word	0x0000c01c

00004484 <LPSPI_MasterSetBaudRate>:
    4484:	b580      	push	{r7, lr}
    4486:	b08e      	sub	sp, #56	; 0x38
    4488:	af00      	add	r7, sp, #0
    448a:	60f8      	str	r0, [r7, #12]
    448c:	60b9      	str	r1, [r7, #8]
    448e:	607a      	str	r2, [r7, #4]
    4490:	603b      	str	r3, [r7, #0]
    4492:	683b      	ldr	r3, [r7, #0]
    4494:	2b00      	cmp	r3, #0
    4496:	d102      	bne.n	449e <LPSPI_MasterSetBaudRate+0x1a>
    4498:	4834      	ldr	r0, [pc, #208]	; (456c <LPSPI_MasterSetBaudRate+0xe8>)
    449a:	f003 fa9f 	bl	79dc <__assertion_failed>
    449e:	68f8      	ldr	r0, [r7, #12]
    44a0:	f004 ff16 	bl	92d0 <LPSPI_IsMaster>
    44a4:	4603      	mov	r3, r0
    44a6:	f083 0301 	eor.w	r3, r3, #1
    44aa:	b2db      	uxtb	r3, r3
    44ac:	2b00      	cmp	r3, #0
    44ae:	d105      	bne.n	44bc <LPSPI_MasterSetBaudRate+0x38>
    44b0:	68fb      	ldr	r3, [r7, #12]
    44b2:	691b      	ldr	r3, [r3, #16]
    44b4:	f003 0301 	and.w	r3, r3, #1
    44b8:	2b00      	cmp	r3, #0
    44ba:	d001      	beq.n	44c0 <LPSPI_MasterSetBaudRate+0x3c>
    44bc:	2300      	movs	r3, #0
    44be:	e050      	b.n	4562 <LPSPI_MasterSetBaudRate+0xde>
    44c0:	68bb      	ldr	r3, [r7, #8]
    44c2:	61fb      	str	r3, [r7, #28]
    44c4:	f04f 33ff 	mov.w	r3, #4294967295
    44c8:	623b      	str	r3, [r7, #32]
    44ca:	2307      	movs	r3, #7
    44cc:	633b      	str	r3, [r7, #48]	; 0x30
    44ce:	23ff      	movs	r3, #255	; 0xff
    44d0:	62bb      	str	r3, [r7, #40]	; 0x28
    44d2:	2300      	movs	r3, #0
    44d4:	627b      	str	r3, [r7, #36]	; 0x24
    44d6:	2300      	movs	r3, #0
    44d8:	637b      	str	r3, [r7, #52]	; 0x34
    44da:	e02f      	b.n	453c <LPSPI_MasterSetBaudRate+0xb8>
    44dc:	2300      	movs	r3, #0
    44de:	62fb      	str	r3, [r7, #44]	; 0x2c
    44e0:	e023      	b.n	452a <LPSPI_MasterSetBaudRate+0xa6>
    44e2:	4a23      	ldr	r2, [pc, #140]	; (4570 <LPSPI_MasterSetBaudRate+0xec>)
    44e4:	6b7b      	ldr	r3, [r7, #52]	; 0x34
    44e6:	4413      	add	r3, r2
    44e8:	781b      	ldrb	r3, [r3, #0]
    44ea:	461a      	mov	r2, r3
    44ec:	6afb      	ldr	r3, [r7, #44]	; 0x2c
    44ee:	3302      	adds	r3, #2
    44f0:	fb03 f302 	mul.w	r3, r3, r2
    44f4:	687a      	ldr	r2, [r7, #4]
    44f6:	fbb2 f3f3 	udiv	r3, r2, r3
    44fa:	61bb      	str	r3, [r7, #24]
    44fc:	69fa      	ldr	r2, [r7, #28]
    44fe:	69bb      	ldr	r3, [r7, #24]
    4500:	429a      	cmp	r2, r3
    4502:	d30f      	bcc.n	4524 <LPSPI_MasterSetBaudRate+0xa0>
    4504:	69fa      	ldr	r2, [r7, #28]
    4506:	69bb      	ldr	r3, [r7, #24]
    4508:	1ad3      	subs	r3, r2, r3
    450a:	617b      	str	r3, [r7, #20]
    450c:	6a3a      	ldr	r2, [r7, #32]
    450e:	697b      	ldr	r3, [r7, #20]
    4510:	429a      	cmp	r2, r3
    4512:	d907      	bls.n	4524 <LPSPI_MasterSetBaudRate+0xa0>
    4514:	697b      	ldr	r3, [r7, #20]
    4516:	623b      	str	r3, [r7, #32]
    4518:	6b7b      	ldr	r3, [r7, #52]	; 0x34
    451a:	633b      	str	r3, [r7, #48]	; 0x30
    451c:	6afb      	ldr	r3, [r7, #44]	; 0x2c
    451e:	62bb      	str	r3, [r7, #40]	; 0x28
    4520:	69bb      	ldr	r3, [r7, #24]
    4522:	627b      	str	r3, [r7, #36]	; 0x24
    4524:	6afb      	ldr	r3, [r7, #44]	; 0x2c
    4526:	3301      	adds	r3, #1
    4528:	62fb      	str	r3, [r7, #44]	; 0x2c
    452a:	6afb      	ldr	r3, [r7, #44]	; 0x2c
    452c:	2bff      	cmp	r3, #255	; 0xff
    452e:	d802      	bhi.n	4536 <LPSPI_MasterSetBaudRate+0xb2>
    4530:	6a3b      	ldr	r3, [r7, #32]
    4532:	2b00      	cmp	r3, #0
    4534:	d1d5      	bne.n	44e2 <LPSPI_MasterSetBaudRate+0x5e>
    4536:	6b7b      	ldr	r3, [r7, #52]	; 0x34
    4538:	3301      	adds	r3, #1
    453a:	637b      	str	r3, [r7, #52]	; 0x34
    453c:	6b7b      	ldr	r3, [r7, #52]	; 0x34
    453e:	2b07      	cmp	r3, #7
    4540:	d802      	bhi.n	4548 <LPSPI_MasterSetBaudRate+0xc4>
    4542:	6a3b      	ldr	r3, [r7, #32]
    4544:	2b00      	cmp	r3, #0
    4546:	d1c9      	bne.n	44dc <LPSPI_MasterSetBaudRate+0x58>
    4548:	68fb      	ldr	r3, [r7, #12]
    454a:	6c1b      	ldr	r3, [r3, #64]	; 0x40
    454c:	f023 02ff 	bic.w	r2, r3, #255	; 0xff
    4550:	6abb      	ldr	r3, [r7, #40]	; 0x28
    4552:	b2db      	uxtb	r3, r3
    4554:	431a      	orrs	r2, r3
    4556:	68fb      	ldr	r3, [r7, #12]
    4558:	641a      	str	r2, [r3, #64]	; 0x40
    455a:	683b      	ldr	r3, [r7, #0]
    455c:	6b3a      	ldr	r2, [r7, #48]	; 0x30
    455e:	601a      	str	r2, [r3, #0]
    4560:	6a7b      	ldr	r3, [r7, #36]	; 0x24
    4562:	4618      	mov	r0, r3
    4564:	3738      	adds	r7, #56	; 0x38
    4566:	46bd      	mov	sp, r7
    4568:	bd80      	pop	{r7, pc}
    456a:	bf00      	nop
    456c:	0000bb80 	.word	0x0000bb80
    4570:	0000bff4 	.word	0x0000bff4

00004574 <LPSPI_MasterSetDelayScaler>:
    4574:	b580      	push	{r7, lr}
    4576:	b084      	sub	sp, #16
    4578:	af00      	add	r7, sp, #0
    457a:	60f8      	str	r0, [r7, #12]
    457c:	60b9      	str	r1, [r7, #8]
    457e:	4613      	mov	r3, r2
    4580:	71fb      	strb	r3, [r7, #7]
    4582:	79fb      	ldrb	r3, [r7, #7]
    4584:	2b02      	cmp	r3, #2
    4586:	d00f      	beq.n	45a8 <LPSPI_MasterSetDelayScaler+0x34>
    4588:	2b03      	cmp	r3, #3
    458a:	d017      	beq.n	45bc <LPSPI_MasterSetDelayScaler+0x48>
    458c:	2b01      	cmp	r3, #1
    458e:	d120      	bne.n	45d2 <LPSPI_MasterSetDelayScaler+0x5e>
    4590:	68fb      	ldr	r3, [r7, #12]
    4592:	6c1b      	ldr	r3, [r3, #64]	; 0x40
    4594:	f423 027f 	bic.w	r2, r3, #16711680	; 0xff0000
    4598:	68bb      	ldr	r3, [r7, #8]
    459a:	041b      	lsls	r3, r3, #16
    459c:	f403 037f 	and.w	r3, r3, #16711680	; 0xff0000
    45a0:	431a      	orrs	r2, r3
    45a2:	68fb      	ldr	r3, [r7, #12]
    45a4:	641a      	str	r2, [r3, #64]	; 0x40
    45a6:	e017      	b.n	45d8 <LPSPI_MasterSetDelayScaler+0x64>
    45a8:	68fb      	ldr	r3, [r7, #12]
    45aa:	6c1b      	ldr	r3, [r3, #64]	; 0x40
    45ac:	f023 427f 	bic.w	r2, r3, #4278190080	; 0xff000000
    45b0:	68bb      	ldr	r3, [r7, #8]
    45b2:	061b      	lsls	r3, r3, #24
    45b4:	431a      	orrs	r2, r3
    45b6:	68fb      	ldr	r3, [r7, #12]
    45b8:	641a      	str	r2, [r3, #64]	; 0x40
    45ba:	e00d      	b.n	45d8 <LPSPI_MasterSetDelayScaler+0x64>
    45bc:	68fb      	ldr	r3, [r7, #12]
    45be:	6c1b      	ldr	r3, [r3, #64]	; 0x40
    45c0:	f423 427f 	bic.w	r2, r3, #65280	; 0xff00
    45c4:	68bb      	ldr	r3, [r7, #8]
    45c6:	021b      	lsls	r3, r3, #8
    45c8:	b29b      	uxth	r3, r3
    45ca:	431a      	orrs	r2, r3
    45cc:	68fb      	ldr	r3, [r7, #12]
    45ce:	641a      	str	r2, [r3, #64]	; 0x40
    45d0:	e002      	b.n	45d8 <LPSPI_MasterSetDelayScaler+0x64>
    45d2:	4803      	ldr	r0, [pc, #12]	; (45e0 <LPSPI_MasterSetDelayScaler+0x6c>)
    45d4:	f003 fa02 	bl	79dc <__assertion_failed>
    45d8:	bf00      	nop
    45da:	3710      	adds	r7, #16
    45dc:	46bd      	mov	sp, r7
    45de:	bd80      	pop	{r7, pc}
    45e0:	0000bbb0 	.word	0x0000bbb0

000045e4 <LPSPI_MasterTransferCreateHandle>:
    45e4:	b580      	push	{r7, lr}
    45e6:	b084      	sub	sp, #16
    45e8:	af00      	add	r7, sp, #0
    45ea:	60f8      	str	r0, [r7, #12]
    45ec:	60b9      	str	r1, [r7, #8]
    45ee:	607a      	str	r2, [r7, #4]
    45f0:	603b      	str	r3, [r7, #0]
    45f2:	68bb      	ldr	r3, [r7, #8]
    45f4:	2b00      	cmp	r3, #0
    45f6:	d102      	bne.n	45fe <LPSPI_MasterTransferCreateHandle+0x1a>
    45f8:	480e      	ldr	r0, [pc, #56]	; (4634 <LPSPI_MasterTransferCreateHandle+0x50>)
    45fa:	f003 f9ef 	bl	79dc <__assertion_failed>
    45fe:	2234      	movs	r2, #52	; 0x34
    4600:	2100      	movs	r1, #0
    4602:	68b8      	ldr	r0, [r7, #8]
    4604:	f005 fd6a 	bl	a0dc <memset>
    4608:	68f8      	ldr	r0, [r7, #12]
    460a:	f7ff fd7d 	bl	4108 <LPSPI_GetInstance>
    460e:	4601      	mov	r1, r0
    4610:	4a09      	ldr	r2, [pc, #36]	; (4638 <LPSPI_MasterTransferCreateHandle+0x54>)
    4612:	68bb      	ldr	r3, [r7, #8]
    4614:	f842 3021 	str.w	r3, [r2, r1, lsl #2]
    4618:	4b08      	ldr	r3, [pc, #32]	; (463c <LPSPI_MasterTransferCreateHandle+0x58>)
    461a:	4a09      	ldr	r2, [pc, #36]	; (4640 <LPSPI_MasterTransferCreateHandle+0x5c>)
    461c:	601a      	str	r2, [r3, #0]
    461e:	68bb      	ldr	r3, [r7, #8]
    4620:	687a      	ldr	r2, [r7, #4]
    4622:	62da      	str	r2, [r3, #44]	; 0x2c
    4624:	68bb      	ldr	r3, [r7, #8]
    4626:	683a      	ldr	r2, [r7, #0]
    4628:	631a      	str	r2, [r3, #48]	; 0x30
    462a:	bf00      	nop
    462c:	3710      	adds	r7, #16
    462e:	46bd      	mov	sp, r7
    4630:	bd80      	pop	{r7, pc}
    4632:	bf00      	nop
    4634:	0000bbd4 	.word	0x0000bbd4
    4638:	20000970 	.word	0x20000970
    463c:	20000984 	.word	0x20000984
    4640:	00004b61 	.word	0x00004b61

00004644 <LPSPI_CheckTransferArgument>:
    4644:	b580      	push	{r7, lr}
    4646:	b084      	sub	sp, #16
    4648:	af00      	add	r7, sp, #0
    464a:	60f8      	str	r0, [r7, #12]
    464c:	60b9      	str	r1, [r7, #8]
    464e:	607a      	str	r2, [r7, #4]
    4650:	68fb      	ldr	r3, [r7, #12]
    4652:	2b00      	cmp	r3, #0
    4654:	d102      	bne.n	465c <LPSPI_CheckTransferArgument+0x18>
    4656:	4820      	ldr	r0, [pc, #128]	; (46d8 <LPSPI_CheckTransferArgument+0x94>)
    4658:	f003 f9c0 	bl	79dc <__assertion_failed>
    465c:	68fb      	ldr	r3, [r7, #12]
    465e:	689b      	ldr	r3, [r3, #8]
    4660:	2b00      	cmp	r3, #0
    4662:	d101      	bne.n	4668 <LPSPI_CheckTransferArgument+0x24>
    4664:	2300      	movs	r3, #0
    4666:	e033      	b.n	46d0 <LPSPI_CheckTransferArgument+0x8c>
    4668:	68fb      	ldr	r3, [r7, #12]
    466a:	681b      	ldr	r3, [r3, #0]
    466c:	2b00      	cmp	r3, #0
    466e:	d105      	bne.n	467c <LPSPI_CheckTransferArgument+0x38>
    4670:	68fb      	ldr	r3, [r7, #12]
    4672:	685b      	ldr	r3, [r3, #4]
    4674:	2b00      	cmp	r3, #0
    4676:	d101      	bne.n	467c <LPSPI_CheckTransferArgument+0x38>
    4678:	2300      	movs	r3, #0
    467a:	e029      	b.n	46d0 <LPSPI_CheckTransferArgument+0x8c>
    467c:	687b      	ldr	r3, [r7, #4]
    467e:	2b04      	cmp	r3, #4
    4680:	d80c      	bhi.n	469c <LPSPI_CheckTransferArgument+0x58>
    4682:	68fb      	ldr	r3, [r7, #12]
    4684:	689b      	ldr	r3, [r3, #8]
    4686:	687a      	ldr	r2, [r7, #4]
    4688:	fbb3 f2f2 	udiv	r2, r3, r2
    468c:	6879      	ldr	r1, [r7, #4]
    468e:	fb01 f202 	mul.w	r2, r1, r2
    4692:	1a9b      	subs	r3, r3, r2
    4694:	2b00      	cmp	r3, #0
    4696:	d01a      	beq.n	46ce <LPSPI_CheckTransferArgument+0x8a>
    4698:	2300      	movs	r3, #0
    469a:	e019      	b.n	46d0 <LPSPI_CheckTransferArgument+0x8c>
    469c:	687b      	ldr	r3, [r7, #4]
    469e:	f003 0303 	and.w	r3, r3, #3
    46a2:	2b00      	cmp	r3, #0
    46a4:	d006      	beq.n	46b4 <LPSPI_CheckTransferArgument+0x70>
    46a6:	68fb      	ldr	r3, [r7, #12]
    46a8:	689b      	ldr	r3, [r3, #8]
    46aa:	687a      	ldr	r2, [r7, #4]
    46ac:	429a      	cmp	r2, r3
    46ae:	d00e      	beq.n	46ce <LPSPI_CheckTransferArgument+0x8a>
    46b0:	2300      	movs	r3, #0
    46b2:	e00d      	b.n	46d0 <LPSPI_CheckTransferArgument+0x8c>
    46b4:	68fb      	ldr	r3, [r7, #12]
    46b6:	689b      	ldr	r3, [r3, #8]
    46b8:	687a      	ldr	r2, [r7, #4]
    46ba:	fbb3 f2f2 	udiv	r2, r3, r2
    46be:	6879      	ldr	r1, [r7, #4]
    46c0:	fb01 f202 	mul.w	r2, r1, r2
    46c4:	1a9b      	subs	r3, r3, r2
    46c6:	2b00      	cmp	r3, #0
    46c8:	d001      	beq.n	46ce <LPSPI_CheckTransferArgument+0x8a>
    46ca:	2300      	movs	r3, #0
    46cc:	e000      	b.n	46d0 <LPSPI_CheckTransferArgument+0x8c>
    46ce:	2301      	movs	r3, #1
    46d0:	4618      	mov	r0, r3
    46d2:	3710      	adds	r7, #16
    46d4:	46bd      	mov	sp, r7
    46d6:	bd80      	pop	{r7, pc}
    46d8:	0000bbf8 	.word	0x0000bbf8

000046dc <LPSPI_MasterTransferNonBlocking>:
    46dc:	b580      	push	{r7, lr}
    46de:	b08a      	sub	sp, #40	; 0x28
    46e0:	af00      	add	r7, sp, #0
    46e2:	60f8      	str	r0, [r7, #12]
    46e4:	60b9      	str	r1, [r7, #8]
    46e6:	607a      	str	r2, [r7, #4]
    46e8:	68bb      	ldr	r3, [r7, #8]
    46ea:	2b00      	cmp	r3, #0
    46ec:	d102      	bne.n	46f4 <LPSPI_MasterTransferNonBlocking+0x18>
    46ee:	488d      	ldr	r0, [pc, #564]	; (4924 <LPSPI_MasterTransferNonBlocking+0x248>)
    46f0:	f003 f974 	bl	79dc <__assertion_failed>
    46f4:	687b      	ldr	r3, [r7, #4]
    46f6:	2b00      	cmp	r3, #0
    46f8:	d102      	bne.n	4700 <LPSPI_MasterTransferNonBlocking+0x24>
    46fa:	488b      	ldr	r0, [pc, #556]	; (4928 <LPSPI_MasterTransferNonBlocking+0x24c>)
    46fc:	f003 f96e 	bl	79dc <__assertion_failed>
    4700:	68fb      	ldr	r3, [r7, #12]
    4702:	6e1b      	ldr	r3, [r3, #96]	; 0x60
    4704:	f3c3 030b 	ubfx	r3, r3, #0, #12
    4708:	3301      	adds	r3, #1
    470a:	623b      	str	r3, [r7, #32]
    470c:	6a3b      	ldr	r3, [r7, #32]
    470e:	3307      	adds	r3, #7
    4710:	08db      	lsrs	r3, r3, #3
    4712:	61fb      	str	r3, [r7, #28]
    4714:	2300      	movs	r3, #0
    4716:	61bb      	str	r3, [r7, #24]
    4718:	68f8      	ldr	r0, [r7, #12]
    471a:	f7ff fcf5 	bl	4108 <LPSPI_GetInstance>
    471e:	4602      	mov	r2, r0
    4720:	4b82      	ldr	r3, [pc, #520]	; (492c <LPSPI_MasterTransferNonBlocking+0x250>)
    4722:	5c9b      	ldrb	r3, [r3, r2]
    4724:	75fb      	strb	r3, [r7, #23]
    4726:	69fa      	ldr	r2, [r7, #28]
    4728:	6a39      	ldr	r1, [r7, #32]
    472a:	6878      	ldr	r0, [r7, #4]
    472c:	f7ff ff8a 	bl	4644 <LPSPI_CheckTransferArgument>
    4730:	4603      	mov	r3, r0
    4732:	f083 0301 	eor.w	r3, r3, #1
    4736:	b2db      	uxtb	r3, r3
    4738:	2b00      	cmp	r3, #0
    473a:	d001      	beq.n	4740 <LPSPI_MasterTransferNonBlocking+0x64>
    473c:	2304      	movs	r3, #4
    473e:	e136      	b.n	49ae <LPSPI_MasterTransferNonBlocking+0x2d2>
    4740:	68bb      	ldr	r3, [r7, #8]
    4742:	f893 3028 	ldrb.w	r3, [r3, #40]	; 0x28
    4746:	b2db      	uxtb	r3, r3
    4748:	2b01      	cmp	r3, #1
    474a:	d102      	bne.n	4752 <LPSPI_MasterTransferNonBlocking+0x76>
    474c:	f44f 73c8 	mov.w	r3, #400	; 0x190
    4750:	e12d      	b.n	49ae <LPSPI_MasterTransferNonBlocking+0x2d2>
    4752:	68bb      	ldr	r3, [r7, #8]
    4754:	2201      	movs	r2, #1
    4756:	f883 2028 	strb.w	r2, [r3, #40]	; 0x28
    475a:	2300      	movs	r3, #0
    475c:	f887 3027 	strb.w	r3, [r7, #39]	; 0x27
    4760:	687b      	ldr	r3, [r7, #4]
    4762:	68db      	ldr	r3, [r3, #12]
    4764:	091b      	lsrs	r3, r3, #4
    4766:	f003 030f 	and.w	r3, r3, #15
    476a:	613b      	str	r3, [r7, #16]
    476c:	687b      	ldr	r3, [r7, #4]
    476e:	681a      	ldr	r2, [r3, #0]
    4770:	68bb      	ldr	r3, [r7, #8]
    4772:	609a      	str	r2, [r3, #8]
    4774:	687b      	ldr	r3, [r7, #4]
    4776:	685a      	ldr	r2, [r3, #4]
    4778:	68bb      	ldr	r3, [r7, #8]
    477a:	60da      	str	r2, [r3, #12]
    477c:	687b      	ldr	r3, [r7, #4]
    477e:	689a      	ldr	r2, [r3, #8]
    4780:	68bb      	ldr	r3, [r7, #8]
    4782:	611a      	str	r2, [r3, #16]
    4784:	687b      	ldr	r3, [r7, #4]
    4786:	689a      	ldr	r2, [r3, #8]
    4788:	68bb      	ldr	r3, [r7, #8]
    478a:	615a      	str	r2, [r3, #20]
    478c:	687b      	ldr	r3, [r7, #4]
    478e:	689a      	ldr	r2, [r3, #8]
    4790:	68bb      	ldr	r3, [r7, #8]
    4792:	621a      	str	r2, [r3, #32]
    4794:	68bb      	ldr	r3, [r7, #8]
    4796:	2200      	movs	r2, #0
    4798:	705a      	strb	r2, [r3, #1]
    479a:	687b      	ldr	r3, [r7, #4]
    479c:	689a      	ldr	r2, [r3, #8]
    479e:	69fb      	ldr	r3, [r7, #28]
    47a0:	fbb2 f3f3 	udiv	r3, r2, r3
    47a4:	69fa      	ldr	r2, [r7, #28]
    47a6:	3203      	adds	r2, #3
    47a8:	0892      	lsrs	r2, r2, #2
    47aa:	fb02 f203 	mul.w	r2, r2, r3
    47ae:	68bb      	ldr	r3, [r7, #8]
    47b0:	619a      	str	r2, [r3, #24]
    47b2:	68bb      	ldr	r3, [r7, #8]
    47b4:	699a      	ldr	r2, [r3, #24]
    47b6:	68bb      	ldr	r3, [r7, #8]
    47b8:	61da      	str	r2, [r3, #28]
    47ba:	7dfa      	ldrb	r2, [r7, #23]
    47bc:	7dfb      	ldrb	r3, [r7, #23]
    47be:	021b      	lsls	r3, r3, #8
    47c0:	431a      	orrs	r2, r3
    47c2:	7dfb      	ldrb	r3, [r7, #23]
    47c4:	041b      	lsls	r3, r3, #16
    47c6:	431a      	orrs	r2, r3
    47c8:	7dfb      	ldrb	r3, [r7, #23]
    47ca:	061b      	lsls	r3, r3, #24
    47cc:	431a      	orrs	r2, r3
    47ce:	68bb      	ldr	r3, [r7, #8]
    47d0:	625a      	str	r2, [r3, #36]	; 0x24
    47d2:	68f8      	ldr	r0, [r7, #12]
    47d4:	f004 fd07 	bl	91e6 <LPSPI_GetRxFifoSize>
    47d8:	4603      	mov	r3, r0
    47da:	b2da      	uxtb	r2, r3
    47dc:	68bb      	ldr	r3, [r7, #8]
    47de:	70da      	strb	r2, [r3, #3]
    47e0:	687b      	ldr	r3, [r7, #4]
    47e2:	68db      	ldr	r3, [r3, #12]
    47e4:	f403 1380 	and.w	r3, r3, #1048576	; 0x100000
    47e8:	2b00      	cmp	r3, #0
    47ea:	bf14      	ite	ne
    47ec:	2301      	movne	r3, #1
    47ee:	2300      	moveq	r3, #0
    47f0:	b2da      	uxtb	r2, r3
    47f2:	68bb      	ldr	r3, [r7, #8]
    47f4:	701a      	strb	r2, [r3, #0]
    47f6:	687b      	ldr	r3, [r7, #4]
    47f8:	68db      	ldr	r3, [r3, #12]
    47fa:	f403 0380 	and.w	r3, r3, #4194304	; 0x400000
    47fe:	2b00      	cmp	r3, #0
    4800:	bf14      	ite	ne
    4802:	2301      	movne	r3, #1
    4804:	2300      	moveq	r3, #0
    4806:	b2da      	uxtb	r2, r3
    4808:	68bb      	ldr	r3, [r7, #8]
    480a:	709a      	strb	r2, [r3, #2]
    480c:	68bb      	ldr	r3, [r7, #8]
    480e:	78db      	ldrb	r3, [r3, #3]
    4810:	b2db      	uxtb	r3, r3
    4812:	2b01      	cmp	r3, #1
    4814:	d90a      	bls.n	482c <LPSPI_MasterTransferNonBlocking+0x150>
    4816:	2301      	movs	r3, #1
    4818:	f887 3026 	strb.w	r3, [r7, #38]	; 0x26
    481c:	68bb      	ldr	r3, [r7, #8]
    481e:	78db      	ldrb	r3, [r3, #3]
    4820:	b2db      	uxtb	r3, r3
    4822:	3b02      	subs	r3, #2
    4824:	b2da      	uxtb	r2, r3
    4826:	68bb      	ldr	r3, [r7, #8]
    4828:	711a      	strb	r2, [r3, #4]
    482a:	e005      	b.n	4838 <LPSPI_MasterTransferNonBlocking+0x15c>
    482c:	2300      	movs	r3, #0
    482e:	f887 3026 	strb.w	r3, [r7, #38]	; 0x26
    4832:	68bb      	ldr	r3, [r7, #8]
    4834:	2200      	movs	r2, #0
    4836:	711a      	strb	r2, [r3, #4]
    4838:	f897 1026 	ldrb.w	r1, [r7, #38]	; 0x26
    483c:	68bb      	ldr	r3, [r7, #8]
    483e:	791b      	ldrb	r3, [r3, #4]
    4840:	b2db      	uxtb	r3, r3
    4842:	461a      	mov	r2, r3
    4844:	68f8      	ldr	r0, [r7, #12]
    4846:	f004 fd6e 	bl	9326 <LPSPI_SetFifoWatermarks>
    484a:	2100      	movs	r1, #0
    484c:	68f8      	ldr	r0, [r7, #12]
    484e:	f004 fca2 	bl	9196 <LPSPI_Enable>
    4852:	68fb      	ldr	r3, [r7, #12]
    4854:	6a5b      	ldr	r3, [r3, #36]	; 0x24
    4856:	f023 0208 	bic.w	r2, r3, #8
    485a:	68fb      	ldr	r3, [r7, #12]
    485c:	625a      	str	r2, [r3, #36]	; 0x24
    485e:	68fb      	ldr	r3, [r7, #12]
    4860:	6a5b      	ldr	r3, [r3, #36]	; 0x24
    4862:	61bb      	str	r3, [r7, #24]
    4864:	69bb      	ldr	r3, [r7, #24]
    4866:	f003 7340 	and.w	r3, r3, #50331648	; 0x3000000
    486a:	61bb      	str	r3, [r7, #24]
    486c:	69bb      	ldr	r3, [r7, #24]
    486e:	f1b3 7f80 	cmp.w	r3, #16777216	; 0x1000000
    4872:	d003      	beq.n	487c <LPSPI_MasterTransferNonBlocking+0x1a0>
    4874:	69bb      	ldr	r3, [r7, #24]
    4876:	f1b3 7f00 	cmp.w	r3, #33554432	; 0x2000000
    487a:	d113      	bne.n	48a4 <LPSPI_MasterTransferNonBlocking+0x1c8>
    487c:	68bb      	ldr	r3, [r7, #8]
    487e:	689b      	ldr	r3, [r3, #8]
    4880:	2b00      	cmp	r3, #0
    4882:	d105      	bne.n	4890 <LPSPI_MasterTransferNonBlocking+0x1b4>
    4884:	68fb      	ldr	r3, [r7, #12]
    4886:	6a5b      	ldr	r3, [r3, #36]	; 0x24
    4888:	f043 6280 	orr.w	r2, r3, #67108864	; 0x4000000
    488c:	68fb      	ldr	r3, [r7, #12]
    488e:	625a      	str	r2, [r3, #36]	; 0x24
    4890:	68bb      	ldr	r3, [r7, #8]
    4892:	689b      	ldr	r3, [r3, #8]
    4894:	2b00      	cmp	r3, #0
    4896:	d005      	beq.n	48a4 <LPSPI_MasterTransferNonBlocking+0x1c8>
    4898:	68bb      	ldr	r3, [r7, #8]
    489a:	68db      	ldr	r3, [r3, #12]
    489c:	2b00      	cmp	r3, #0
    489e:	d001      	beq.n	48a4 <LPSPI_MasterTransferNonBlocking+0x1c8>
    48a0:	2304      	movs	r3, #4
    48a2:	e084      	b.n	49ae <LPSPI_MasterTransferNonBlocking+0x2d2>
    48a4:	2101      	movs	r1, #1
    48a6:	68f8      	ldr	r0, [r7, #12]
    48a8:	f004 fc75 	bl	9196 <LPSPI_Enable>
    48ac:	2201      	movs	r2, #1
    48ae:	2101      	movs	r1, #1
    48b0:	68f8      	ldr	r0, [r7, #12]
    48b2:	f004 fd20 	bl	92f6 <LPSPI_FlushFifo>
    48b6:	491e      	ldr	r1, [pc, #120]	; (4930 <LPSPI_MasterTransferNonBlocking+0x254>)
    48b8:	68f8      	ldr	r0, [r7, #12]
    48ba:	f004 fcc2 	bl	9242 <LPSPI_ClearStatusFlags>
    48be:	f643 7103 	movw	r1, #16131	; 0x3f03
    48c2:	68f8      	ldr	r0, [r7, #12]
    48c4:	f004 fcdc 	bl	9280 <LPSPI_DisableInterrupts>
    48c8:	68bb      	ldr	r3, [r7, #8]
    48ca:	68db      	ldr	r3, [r3, #12]
    48cc:	2b00      	cmp	r3, #0
    48ce:	d105      	bne.n	48dc <LPSPI_MasterTransferNonBlocking+0x200>
    48d0:	2301      	movs	r3, #1
    48d2:	f887 3027 	strb.w	r3, [r7, #39]	; 0x27
    48d6:	68bb      	ldr	r3, [r7, #8]
    48d8:	2200      	movs	r2, #0
    48da:	615a      	str	r2, [r3, #20]
    48dc:	68fb      	ldr	r3, [r7, #12]
    48de:	6e1b      	ldr	r3, [r3, #96]	; 0x60
    48e0:	f023 724e 	bic.w	r2, r3, #54001664	; 0x3380000
    48e4:	68bb      	ldr	r3, [r7, #8]
    48e6:	781b      	ldrb	r3, [r3, #0]
    48e8:	b2db      	uxtb	r3, r3
    48ea:	055b      	lsls	r3, r3, #21
    48ec:	f403 1300 	and.w	r3, r3, #2097152	; 0x200000
    48f0:	431a      	orrs	r2, r3
    48f2:	f897 3027 	ldrb.w	r3, [r7, #39]	; 0x27
    48f6:	04db      	lsls	r3, r3, #19
    48f8:	f403 2300 	and.w	r3, r3, #524288	; 0x80000
    48fc:	431a      	orrs	r2, r3
    48fe:	693b      	ldr	r3, [r7, #16]
    4900:	061b      	lsls	r3, r3, #24
    4902:	f003 7340 	and.w	r3, r3, #50331648	; 0x3000000
    4906:	431a      	orrs	r2, r3
    4908:	68fb      	ldr	r3, [r7, #12]
    490a:	661a      	str	r2, [r3, #96]	; 0x60
    490c:	69fb      	ldr	r3, [r7, #28]
    490e:	2b04      	cmp	r3, #4
    4910:	d810      	bhi.n	4934 <LPSPI_MasterTransferNonBlocking+0x258>
    4912:	69fb      	ldr	r3, [r7, #28]
    4914:	b2da      	uxtb	r2, r3
    4916:	68bb      	ldr	r3, [r7, #8]
    4918:	715a      	strb	r2, [r3, #5]
    491a:	69fb      	ldr	r3, [r7, #28]
    491c:	b2da      	uxtb	r2, r3
    491e:	68bb      	ldr	r3, [r7, #8]
    4920:	719a      	strb	r2, [r3, #6]
    4922:	e00d      	b.n	4940 <LPSPI_MasterTransferNonBlocking+0x264>
    4924:	0000bc48 	.word	0x0000bc48
    4928:	0000bc6c 	.word	0x0000bc6c
    492c:	2000098c 	.word	0x2000098c
    4930:	01003f03 	.word	0x01003f03
    4934:	68bb      	ldr	r3, [r7, #8]
    4936:	2204      	movs	r2, #4
    4938:	715a      	strb	r2, [r3, #5]
    493a:	68bb      	ldr	r3, [r7, #8]
    493c:	2204      	movs	r2, #4
    493e:	719a      	strb	r2, [r3, #6]
    4940:	68f8      	ldr	r0, [r7, #12]
    4942:	f7ff fbe1 	bl	4108 <LPSPI_GetInstance>
    4946:	4602      	mov	r2, r0
    4948:	4b1b      	ldr	r3, [pc, #108]	; (49b8 <LPSPI_MasterTransferNonBlocking+0x2dc>)
    494a:	f933 3012 	ldrsh.w	r3, [r3, r2, lsl #1]
    494e:	4618      	mov	r0, r3
    4950:	f004 fc0b 	bl	916a <EnableIRQ>
    4954:	bf00      	nop
    4956:	68f8      	ldr	r0, [r7, #12]
    4958:	f004 fc56 	bl	9208 <LPSPI_GetTxFifoCount>
    495c:	4603      	mov	r3, r0
    495e:	2b00      	cmp	r3, #0
    4960:	d1f9      	bne.n	4956 <LPSPI_MasterTransferNonBlocking+0x27a>
    4962:	68b9      	ldr	r1, [r7, #8]
    4964:	68f8      	ldr	r0, [r7, #12]
    4966:	f000 f829 	bl	49bc <LPSPI_MasterTransferFillUpTxFifo>
    496a:	68bb      	ldr	r3, [r7, #8]
    496c:	68db      	ldr	r3, [r3, #12]
    496e:	2b00      	cmp	r3, #0
    4970:	d018      	beq.n	49a4 <LPSPI_MasterTransferNonBlocking+0x2c8>
    4972:	68bb      	ldr	r3, [r7, #8]
    4974:	69db      	ldr	r3, [r3, #28]
    4976:	68ba      	ldr	r2, [r7, #8]
    4978:	7912      	ldrb	r2, [r2, #4]
    497a:	b2d2      	uxtb	r2, r2
    497c:	4293      	cmp	r3, r2
    497e:	d80c      	bhi.n	499a <LPSPI_MasterTransferNonBlocking+0x2be>
    4980:	68fb      	ldr	r3, [r7, #12]
    4982:	6d9b      	ldr	r3, [r3, #88]	; 0x58
    4984:	f423 2270 	bic.w	r2, r3, #983040	; 0xf0000
    4988:	68bb      	ldr	r3, [r7, #8]
    498a:	69db      	ldr	r3, [r3, #28]
    498c:	3b01      	subs	r3, #1
    498e:	041b      	lsls	r3, r3, #16
    4990:	f403 2370 	and.w	r3, r3, #983040	; 0xf0000
    4994:	431a      	orrs	r2, r3
    4996:	68fb      	ldr	r3, [r7, #12]
    4998:	659a      	str	r2, [r3, #88]	; 0x58
    499a:	2102      	movs	r1, #2
    499c:	68f8      	ldr	r0, [r7, #12]
    499e:	f004 fc5e 	bl	925e <LPSPI_EnableInterrupts>
    49a2:	e003      	b.n	49ac <LPSPI_MasterTransferNonBlocking+0x2d0>
    49a4:	2101      	movs	r1, #1
    49a6:	68f8      	ldr	r0, [r7, #12]
    49a8:	f004 fc59 	bl	925e <LPSPI_EnableInterrupts>
    49ac:	2300      	movs	r3, #0
    49ae:	4618      	mov	r0, r3
    49b0:	3728      	adds	r7, #40	; 0x28
    49b2:	46bd      	mov	sp, r7
    49b4:	bd80      	pop	{r7, pc}
    49b6:	bf00      	nop
    49b8:	0000c010 	.word	0x0000c010

000049bc <LPSPI_MasterTransferFillUpTxFifo>:
    49bc:	b580      	push	{r7, lr}
    49be:	b084      	sub	sp, #16
    49c0:	af00      	add	r7, sp, #0
    49c2:	6078      	str	r0, [r7, #4]
    49c4:	6039      	str	r1, [r7, #0]
    49c6:	683b      	ldr	r3, [r7, #0]
    49c8:	2b00      	cmp	r3, #0
    49ca:	d102      	bne.n	49d2 <LPSPI_MasterTransferFillUpTxFifo+0x16>
    49cc:	483e      	ldr	r0, [pc, #248]	; (4ac8 <LPSPI_MasterTransferFillUpTxFifo+0x10c>)
    49ce:	f003 f805 	bl	79dc <__assertion_failed>
    49d2:	2300      	movs	r3, #0
    49d4:	60fb      	str	r3, [r7, #12]
    49d6:	e059      	b.n	4a8c <LPSPI_MasterTransferFillUpTxFifo+0xd0>
    49d8:	683b      	ldr	r3, [r7, #0]
    49da:	691b      	ldr	r3, [r3, #16]
    49dc:	683a      	ldr	r2, [r7, #0]
    49de:	7952      	ldrb	r2, [r2, #5]
    49e0:	b2d2      	uxtb	r2, r2
    49e2:	4293      	cmp	r3, r2
    49e4:	d204      	bcs.n	49f0 <LPSPI_MasterTransferFillUpTxFifo+0x34>
    49e6:	683b      	ldr	r3, [r7, #0]
    49e8:	691b      	ldr	r3, [r3, #16]
    49ea:	b2da      	uxtb	r2, r3
    49ec:	683b      	ldr	r3, [r7, #0]
    49ee:	715a      	strb	r2, [r3, #5]
    49f0:	683b      	ldr	r3, [r7, #0]
    49f2:	689b      	ldr	r3, [r3, #8]
    49f4:	2b00      	cmp	r3, #0
    49f6:	d015      	beq.n	4a24 <LPSPI_MasterTransferFillUpTxFifo+0x68>
    49f8:	683b      	ldr	r3, [r7, #0]
    49fa:	6898      	ldr	r0, [r3, #8]
    49fc:	683b      	ldr	r3, [r7, #0]
    49fe:	795b      	ldrb	r3, [r3, #5]
    4a00:	b2db      	uxtb	r3, r3
    4a02:	4619      	mov	r1, r3
    4a04:	683b      	ldr	r3, [r7, #0]
    4a06:	789b      	ldrb	r3, [r3, #2]
    4a08:	b2db      	uxtb	r3, r3
    4a0a:	461a      	mov	r2, r3
    4a0c:	f000 fcde 	bl	53cc <LPSPI_CombineWriteData>
    4a10:	60f8      	str	r0, [r7, #12]
    4a12:	683b      	ldr	r3, [r7, #0]
    4a14:	795b      	ldrb	r3, [r3, #5]
    4a16:	b2da      	uxtb	r2, r3
    4a18:	683b      	ldr	r3, [r7, #0]
    4a1a:	689b      	ldr	r3, [r3, #8]
    4a1c:	441a      	add	r2, r3
    4a1e:	683b      	ldr	r3, [r7, #0]
    4a20:	609a      	str	r2, [r3, #8]
    4a22:	e002      	b.n	4a2a <LPSPI_MasterTransferFillUpTxFifo+0x6e>
    4a24:	683b      	ldr	r3, [r7, #0]
    4a26:	6a5b      	ldr	r3, [r3, #36]	; 0x24
    4a28:	60fb      	str	r3, [r7, #12]
    4a2a:	68f9      	ldr	r1, [r7, #12]
    4a2c:	6878      	ldr	r0, [r7, #4]
    4a2e:	f004 fc90 	bl	9352 <LPSPI_WriteData>
    4a32:	683b      	ldr	r3, [r7, #0]
    4a34:	699b      	ldr	r3, [r3, #24]
    4a36:	1e5a      	subs	r2, r3, #1
    4a38:	683b      	ldr	r3, [r7, #0]
    4a3a:	619a      	str	r2, [r3, #24]
    4a3c:	683b      	ldr	r3, [r7, #0]
    4a3e:	795b      	ldrb	r3, [r3, #5]
    4a40:	b2da      	uxtb	r2, r3
    4a42:	683b      	ldr	r3, [r7, #0]
    4a44:	691b      	ldr	r3, [r3, #16]
    4a46:	1a9a      	subs	r2, r3, r2
    4a48:	683b      	ldr	r3, [r7, #0]
    4a4a:	611a      	str	r2, [r3, #16]
    4a4c:	683b      	ldr	r3, [r7, #0]
    4a4e:	691b      	ldr	r3, [r3, #16]
    4a50:	2b00      	cmp	r3, #0
    4a52:	d11b      	bne.n	4a8c <LPSPI_MasterTransferFillUpTxFifo+0xd0>
    4a54:	683b      	ldr	r3, [r7, #0]
    4a56:	781b      	ldrb	r3, [r3, #0]
    4a58:	b2db      	uxtb	r3, r3
    4a5a:	2b00      	cmp	r3, #0
    4a5c:	d02e      	beq.n	4abc <LPSPI_MasterTransferFillUpTxFifo+0x100>
    4a5e:	6878      	ldr	r0, [r7, #4]
    4a60:	f004 fbd2 	bl	9208 <LPSPI_GetTxFifoCount>
    4a64:	4602      	mov	r2, r0
    4a66:	683b      	ldr	r3, [r7, #0]
    4a68:	78db      	ldrb	r3, [r3, #3]
    4a6a:	b2db      	uxtb	r3, r3
    4a6c:	429a      	cmp	r2, r3
    4a6e:	d209      	bcs.n	4a84 <LPSPI_MasterTransferFillUpTxFifo+0xc8>
    4a70:	687b      	ldr	r3, [r7, #4]
    4a72:	6e1b      	ldr	r3, [r3, #96]	; 0x60
    4a74:	f423 1280 	bic.w	r2, r3, #1048576	; 0x100000
    4a78:	687b      	ldr	r3, [r7, #4]
    4a7a:	661a      	str	r2, [r3, #96]	; 0x60
    4a7c:	683b      	ldr	r3, [r7, #0]
    4a7e:	2200      	movs	r2, #0
    4a80:	705a      	strb	r2, [r3, #1]
    4a82:	e01b      	b.n	4abc <LPSPI_MasterTransferFillUpTxFifo+0x100>
    4a84:	683b      	ldr	r3, [r7, #0]
    4a86:	2201      	movs	r2, #1
    4a88:	705a      	strb	r2, [r3, #1]
    4a8a:	e017      	b.n	4abc <LPSPI_MasterTransferFillUpTxFifo+0x100>
    4a8c:	6878      	ldr	r0, [r7, #4]
    4a8e:	f004 fbbb 	bl	9208 <LPSPI_GetTxFifoCount>
    4a92:	4602      	mov	r2, r0
    4a94:	683b      	ldr	r3, [r7, #0]
    4a96:	78db      	ldrb	r3, [r3, #3]
    4a98:	b2db      	uxtb	r3, r3
    4a9a:	429a      	cmp	r2, r3
    4a9c:	d20f      	bcs.n	4abe <LPSPI_MasterTransferFillUpTxFifo+0x102>
    4a9e:	683b      	ldr	r3, [r7, #0]
    4aa0:	69da      	ldr	r2, [r3, #28]
    4aa2:	683b      	ldr	r3, [r7, #0]
    4aa4:	699b      	ldr	r3, [r3, #24]
    4aa6:	1ad3      	subs	r3, r2, r3
    4aa8:	683a      	ldr	r2, [r7, #0]
    4aaa:	78d2      	ldrb	r2, [r2, #3]
    4aac:	b2d2      	uxtb	r2, r2
    4aae:	4293      	cmp	r3, r2
    4ab0:	d392      	bcc.n	49d8 <LPSPI_MasterTransferFillUpTxFifo+0x1c>
    4ab2:	683b      	ldr	r3, [r7, #0]
    4ab4:	68db      	ldr	r3, [r3, #12]
    4ab6:	2b00      	cmp	r3, #0
    4ab8:	d08e      	beq.n	49d8 <LPSPI_MasterTransferFillUpTxFifo+0x1c>
    4aba:	e000      	b.n	4abe <LPSPI_MasterTransferFillUpTxFifo+0x102>
    4abc:	bf00      	nop
    4abe:	bf00      	nop
    4ac0:	3710      	adds	r7, #16
    4ac2:	46bd      	mov	sp, r7
    4ac4:	bd80      	pop	{r7, pc}
    4ac6:	bf00      	nop
    4ac8:	0000bc94 	.word	0x0000bc94

00004acc <LPSPI_MasterTransferComplete>:
    4acc:	b590      	push	{r4, r7, lr}
    4ace:	b083      	sub	sp, #12
    4ad0:	af00      	add	r7, sp, #0
    4ad2:	6078      	str	r0, [r7, #4]
    4ad4:	6039      	str	r1, [r7, #0]
    4ad6:	683b      	ldr	r3, [r7, #0]
    4ad8:	2b00      	cmp	r3, #0
    4ada:	d102      	bne.n	4ae2 <LPSPI_MasterTransferComplete+0x16>
    4adc:	480d      	ldr	r0, [pc, #52]	; (4b14 <LPSPI_MasterTransferComplete+0x48>)
    4ade:	f002 ff7d 	bl	79dc <__assertion_failed>
    4ae2:	f643 7103 	movw	r1, #16131	; 0x3f03
    4ae6:	6878      	ldr	r0, [r7, #4]
    4ae8:	f004 fbca 	bl	9280 <LPSPI_DisableInterrupts>
    4aec:	683b      	ldr	r3, [r7, #0]
    4aee:	2200      	movs	r2, #0
    4af0:	f883 2028 	strb.w	r2, [r3, #40]	; 0x28
    4af4:	683b      	ldr	r3, [r7, #0]
    4af6:	6adb      	ldr	r3, [r3, #44]	; 0x2c
    4af8:	2b00      	cmp	r3, #0
    4afa:	d007      	beq.n	4b0c <LPSPI_MasterTransferComplete+0x40>
    4afc:	683b      	ldr	r3, [r7, #0]
    4afe:	6adc      	ldr	r4, [r3, #44]	; 0x2c
    4b00:	683b      	ldr	r3, [r7, #0]
    4b02:	6b1b      	ldr	r3, [r3, #48]	; 0x30
    4b04:	2200      	movs	r2, #0
    4b06:	6839      	ldr	r1, [r7, #0]
    4b08:	6878      	ldr	r0, [r7, #4]
    4b0a:	47a0      	blx	r4
    4b0c:	bf00      	nop
    4b0e:	370c      	adds	r7, #12
    4b10:	46bd      	mov	sp, r7
    4b12:	bd90      	pop	{r4, r7, pc}
    4b14:	0000bcbc 	.word	0x0000bcbc

00004b18 <LPSPI_MasterTransferAbort>:
    4b18:	b580      	push	{r7, lr}
    4b1a:	b082      	sub	sp, #8
    4b1c:	af00      	add	r7, sp, #0
    4b1e:	6078      	str	r0, [r7, #4]
    4b20:	6039      	str	r1, [r7, #0]
    4b22:	683b      	ldr	r3, [r7, #0]
    4b24:	2b00      	cmp	r3, #0
    4b26:	d102      	bne.n	4b2e <LPSPI_MasterTransferAbort+0x16>
    4b28:	480c      	ldr	r0, [pc, #48]	; (4b5c <LPSPI_MasterTransferAbort+0x44>)
    4b2a:	f002 ff57 	bl	79dc <__assertion_failed>
    4b2e:	f643 7103 	movw	r1, #16131	; 0x3f03
    4b32:	6878      	ldr	r0, [r7, #4]
    4b34:	f004 fba4 	bl	9280 <LPSPI_DisableInterrupts>
    4b38:	6878      	ldr	r0, [r7, #4]
    4b3a:	f004 fc24 	bl	9386 <LPSPI_Reset>
    4b3e:	683b      	ldr	r3, [r7, #0]
    4b40:	2200      	movs	r2, #0
    4b42:	f883 2028 	strb.w	r2, [r3, #40]	; 0x28
    4b46:	683b      	ldr	r3, [r7, #0]
    4b48:	2200      	movs	r2, #0
    4b4a:	611a      	str	r2, [r3, #16]
    4b4c:	683b      	ldr	r3, [r7, #0]
    4b4e:	2200      	movs	r2, #0
    4b50:	615a      	str	r2, [r3, #20]
    4b52:	bf00      	nop
    4b54:	3708      	adds	r7, #8
    4b56:	46bd      	mov	sp, r7
    4b58:	bd80      	pop	{r7, pc}
    4b5a:	bf00      	nop
    4b5c:	0000bd0c 	.word	0x0000bd0c

00004b60 <LPSPI_MasterTransferHandleIRQ>:
    4b60:	b580      	push	{r7, lr}
    4b62:	b084      	sub	sp, #16
    4b64:	af00      	add	r7, sp, #0
    4b66:	6078      	str	r0, [r7, #4]
    4b68:	6039      	str	r1, [r7, #0]
    4b6a:	683b      	ldr	r3, [r7, #0]
    4b6c:	2b00      	cmp	r3, #0
    4b6e:	d102      	bne.n	4b76 <LPSPI_MasterTransferHandleIRQ+0x16>
    4b70:	4862      	ldr	r0, [pc, #392]	; (4cfc <LPSPI_MasterTransferHandleIRQ+0x19c>)
    4b72:	f002 ff33 	bl	79dc <__assertion_failed>
    4b76:	683b      	ldr	r3, [r7, #0]
    4b78:	68db      	ldr	r3, [r3, #12]
    4b7a:	2b00      	cmp	r3, #0
    4b7c:	d065      	beq.n	4c4a <LPSPI_MasterTransferHandleIRQ+0xea>
    4b7e:	683b      	ldr	r3, [r7, #0]
    4b80:	695b      	ldr	r3, [r3, #20]
    4b82:	2b00      	cmp	r3, #0
    4b84:	d047      	beq.n	4c16 <LPSPI_MasterTransferHandleIRQ+0xb6>
    4b86:	2102      	movs	r1, #2
    4b88:	6878      	ldr	r0, [r7, #4]
    4b8a:	f004 fb79 	bl	9280 <LPSPI_DisableInterrupts>
    4b8e:	e030      	b.n	4bf2 <LPSPI_MasterTransferHandleIRQ+0x92>
    4b90:	6878      	ldr	r0, [r7, #4]
    4b92:	f004 fbec 	bl	936e <LPSPI_ReadData>
    4b96:	60f8      	str	r0, [r7, #12]
    4b98:	683b      	ldr	r3, [r7, #0]
    4b9a:	69db      	ldr	r3, [r3, #28]
    4b9c:	1e5a      	subs	r2, r3, #1
    4b9e:	683b      	ldr	r3, [r7, #0]
    4ba0:	61da      	str	r2, [r3, #28]
    4ba2:	683b      	ldr	r3, [r7, #0]
    4ba4:	695b      	ldr	r3, [r3, #20]
    4ba6:	683a      	ldr	r2, [r7, #0]
    4ba8:	7992      	ldrb	r2, [r2, #6]
    4baa:	b2d2      	uxtb	r2, r2
    4bac:	4293      	cmp	r3, r2
    4bae:	d204      	bcs.n	4bba <LPSPI_MasterTransferHandleIRQ+0x5a>
    4bb0:	683b      	ldr	r3, [r7, #0]
    4bb2:	695b      	ldr	r3, [r3, #20]
    4bb4:	b2da      	uxtb	r2, r3
    4bb6:	683b      	ldr	r3, [r7, #0]
    4bb8:	719a      	strb	r2, [r3, #6]
    4bba:	683b      	ldr	r3, [r7, #0]
    4bbc:	68d8      	ldr	r0, [r3, #12]
    4bbe:	683b      	ldr	r3, [r7, #0]
    4bc0:	799b      	ldrb	r3, [r3, #6]
    4bc2:	b2db      	uxtb	r3, r3
    4bc4:	461a      	mov	r2, r3
    4bc6:	683b      	ldr	r3, [r7, #0]
    4bc8:	789b      	ldrb	r3, [r3, #2]
    4bca:	b2db      	uxtb	r3, r3
    4bcc:	68f9      	ldr	r1, [r7, #12]
    4bce:	f000 fcdb 	bl	5588 <LPSPI_SeparateReadData>
    4bd2:	683b      	ldr	r3, [r7, #0]
    4bd4:	799b      	ldrb	r3, [r3, #6]
    4bd6:	b2da      	uxtb	r2, r3
    4bd8:	683b      	ldr	r3, [r7, #0]
    4bda:	68db      	ldr	r3, [r3, #12]
    4bdc:	441a      	add	r2, r3
    4bde:	683b      	ldr	r3, [r7, #0]
    4be0:	60da      	str	r2, [r3, #12]
    4be2:	683b      	ldr	r3, [r7, #0]
    4be4:	799b      	ldrb	r3, [r3, #6]
    4be6:	b2da      	uxtb	r2, r3
    4be8:	683b      	ldr	r3, [r7, #0]
    4bea:	695b      	ldr	r3, [r3, #20]
    4bec:	1a9a      	subs	r2, r3, r2
    4bee:	683b      	ldr	r3, [r7, #0]
    4bf0:	615a      	str	r2, [r3, #20]
    4bf2:	6878      	ldr	r0, [r7, #4]
    4bf4:	f004 fb16 	bl	9224 <LPSPI_GetRxFifoCount>
    4bf8:	4603      	mov	r3, r0
    4bfa:	2b00      	cmp	r3, #0
    4bfc:	d003      	beq.n	4c06 <LPSPI_MasterTransferHandleIRQ+0xa6>
    4bfe:	683b      	ldr	r3, [r7, #0]
    4c00:	695b      	ldr	r3, [r3, #20]
    4c02:	2b00      	cmp	r3, #0
    4c04:	d1c4      	bne.n	4b90 <LPSPI_MasterTransferHandleIRQ+0x30>
    4c06:	683b      	ldr	r3, [r7, #0]
    4c08:	695b      	ldr	r3, [r3, #20]
    4c0a:	2b00      	cmp	r3, #0
    4c0c:	d003      	beq.n	4c16 <LPSPI_MasterTransferHandleIRQ+0xb6>
    4c0e:	2102      	movs	r1, #2
    4c10:	6878      	ldr	r0, [r7, #4]
    4c12:	f004 fb24 	bl	925e <LPSPI_EnableInterrupts>
    4c16:	683b      	ldr	r3, [r7, #0]
    4c18:	69db      	ldr	r3, [r3, #28]
    4c1a:	683a      	ldr	r2, [r7, #0]
    4c1c:	7912      	ldrb	r2, [r2, #4]
    4c1e:	b2d2      	uxtb	r2, r2
    4c20:	4293      	cmp	r3, r2
    4c22:	d812      	bhi.n	4c4a <LPSPI_MasterTransferHandleIRQ+0xea>
    4c24:	687b      	ldr	r3, [r7, #4]
    4c26:	6d9b      	ldr	r3, [r3, #88]	; 0x58
    4c28:	f423 2270 	bic.w	r2, r3, #983040	; 0xf0000
    4c2c:	683b      	ldr	r3, [r7, #0]
    4c2e:	69db      	ldr	r3, [r3, #28]
    4c30:	2b01      	cmp	r3, #1
    4c32:	d906      	bls.n	4c42 <LPSPI_MasterTransferHandleIRQ+0xe2>
    4c34:	683b      	ldr	r3, [r7, #0]
    4c36:	69db      	ldr	r3, [r3, #28]
    4c38:	3b01      	subs	r3, #1
    4c3a:	041b      	lsls	r3, r3, #16
    4c3c:	f403 2370 	and.w	r3, r3, #983040	; 0xf0000
    4c40:	e000      	b.n	4c44 <LPSPI_MasterTransferHandleIRQ+0xe4>
    4c42:	2300      	movs	r3, #0
    4c44:	431a      	orrs	r2, r3
    4c46:	687b      	ldr	r3, [r7, #4]
    4c48:	659a      	str	r2, [r3, #88]	; 0x58
    4c4a:	683b      	ldr	r3, [r7, #0]
    4c4c:	691b      	ldr	r3, [r3, #16]
    4c4e:	2b00      	cmp	r3, #0
    4c50:	d004      	beq.n	4c5c <LPSPI_MasterTransferHandleIRQ+0xfc>
    4c52:	6839      	ldr	r1, [r7, #0]
    4c54:	6878      	ldr	r0, [r7, #4]
    4c56:	f7ff feb1 	bl	49bc <LPSPI_MasterTransferFillUpTxFifo>
    4c5a:	e01b      	b.n	4c94 <LPSPI_MasterTransferHandleIRQ+0x134>
    4c5c:	6878      	ldr	r0, [r7, #4]
    4c5e:	f004 fad3 	bl	9208 <LPSPI_GetTxFifoCount>
    4c62:	4602      	mov	r2, r0
    4c64:	683b      	ldr	r3, [r7, #0]
    4c66:	78db      	ldrb	r3, [r3, #3]
    4c68:	b2db      	uxtb	r3, r3
    4c6a:	429a      	cmp	r2, r3
    4c6c:	d212      	bcs.n	4c94 <LPSPI_MasterTransferHandleIRQ+0x134>
    4c6e:	683b      	ldr	r3, [r7, #0]
    4c70:	781b      	ldrb	r3, [r3, #0]
    4c72:	b2db      	uxtb	r3, r3
    4c74:	2b00      	cmp	r3, #0
    4c76:	d00d      	beq.n	4c94 <LPSPI_MasterTransferHandleIRQ+0x134>
    4c78:	683b      	ldr	r3, [r7, #0]
    4c7a:	785b      	ldrb	r3, [r3, #1]
    4c7c:	b2db      	uxtb	r3, r3
    4c7e:	2b00      	cmp	r3, #0
    4c80:	d008      	beq.n	4c94 <LPSPI_MasterTransferHandleIRQ+0x134>
    4c82:	687b      	ldr	r3, [r7, #4]
    4c84:	6e1b      	ldr	r3, [r3, #96]	; 0x60
    4c86:	f423 1280 	bic.w	r2, r3, #1048576	; 0x100000
    4c8a:	687b      	ldr	r3, [r7, #4]
    4c8c:	661a      	str	r2, [r3, #96]	; 0x60
    4c8e:	683b      	ldr	r3, [r7, #0]
    4c90:	2200      	movs	r2, #0
    4c92:	705a      	strb	r2, [r3, #1]
    4c94:	683b      	ldr	r3, [r7, #0]
    4c96:	691b      	ldr	r3, [r3, #16]
    4c98:	2b00      	cmp	r3, #0
    4c9a:	d12a      	bne.n	4cf2 <LPSPI_MasterTransferHandleIRQ+0x192>
    4c9c:	683b      	ldr	r3, [r7, #0]
    4c9e:	695b      	ldr	r3, [r3, #20]
    4ca0:	2b00      	cmp	r3, #0
    4ca2:	d126      	bne.n	4cf2 <LPSPI_MasterTransferHandleIRQ+0x192>
    4ca4:	683b      	ldr	r3, [r7, #0]
    4ca6:	785b      	ldrb	r3, [r3, #1]
    4ca8:	b2db      	uxtb	r3, r3
    4caa:	f083 0301 	eor.w	r3, r3, #1
    4cae:	b2db      	uxtb	r3, r3
    4cb0:	2b00      	cmp	r3, #0
    4cb2:	d01e      	beq.n	4cf2 <LPSPI_MasterTransferHandleIRQ+0x192>
    4cb4:	683b      	ldr	r3, [r7, #0]
    4cb6:	68db      	ldr	r3, [r3, #12]
    4cb8:	2b00      	cmp	r3, #0
    4cba:	d116      	bne.n	4cea <LPSPI_MasterTransferHandleIRQ+0x18a>
    4cbc:	6878      	ldr	r0, [r7, #4]
    4cbe:	f004 fa86 	bl	91ce <LPSPI_GetStatusFlags>
    4cc2:	4603      	mov	r3, r0
    4cc4:	f403 6380 	and.w	r3, r3, #1024	; 0x400
    4cc8:	2b00      	cmp	r3, #0
    4cca:	d004      	beq.n	4cd6 <LPSPI_MasterTransferHandleIRQ+0x176>
    4ccc:	6839      	ldr	r1, [r7, #0]
    4cce:	6878      	ldr	r0, [r7, #4]
    4cd0:	f7ff fefc 	bl	4acc <LPSPI_MasterTransferComplete>
    4cd4:	e00d      	b.n	4cf2 <LPSPI_MasterTransferHandleIRQ+0x192>
    4cd6:	f44f 6180 	mov.w	r1, #1024	; 0x400
    4cda:	6878      	ldr	r0, [r7, #4]
    4cdc:	f004 fabf 	bl	925e <LPSPI_EnableInterrupts>
    4ce0:	2103      	movs	r1, #3
    4ce2:	6878      	ldr	r0, [r7, #4]
    4ce4:	f004 facc 	bl	9280 <LPSPI_DisableInterrupts>
    4ce8:	e003      	b.n	4cf2 <LPSPI_MasterTransferHandleIRQ+0x192>
    4cea:	6839      	ldr	r1, [r7, #0]
    4cec:	6878      	ldr	r0, [r7, #4]
    4cee:	f7ff feed 	bl	4acc <LPSPI_MasterTransferComplete>
    4cf2:	bf00      	nop
    4cf4:	3710      	adds	r7, #16
    4cf6:	46bd      	mov	sp, r7
    4cf8:	bd80      	pop	{r7, pc}
    4cfa:	bf00      	nop
    4cfc:	0000bd34 	.word	0x0000bd34

00004d00 <LPSPI_SlaveTransferCreateHandle>:
    4d00:	b580      	push	{r7, lr}
    4d02:	b084      	sub	sp, #16
    4d04:	af00      	add	r7, sp, #0
    4d06:	60f8      	str	r0, [r7, #12]
    4d08:	60b9      	str	r1, [r7, #8]
    4d0a:	607a      	str	r2, [r7, #4]
    4d0c:	603b      	str	r3, [r7, #0]
    4d0e:	68bb      	ldr	r3, [r7, #8]
    4d10:	2b00      	cmp	r3, #0
    4d12:	d102      	bne.n	4d1a <LPSPI_SlaveTransferCreateHandle+0x1a>
    4d14:	480e      	ldr	r0, [pc, #56]	; (4d50 <LPSPI_SlaveTransferCreateHandle+0x50>)
    4d16:	f002 fe61 	bl	79dc <__assertion_failed>
    4d1a:	2234      	movs	r2, #52	; 0x34
    4d1c:	2100      	movs	r1, #0
    4d1e:	68b8      	ldr	r0, [r7, #8]
    4d20:	f005 f9dc 	bl	a0dc <memset>
    4d24:	68f8      	ldr	r0, [r7, #12]
    4d26:	f7ff f9ef 	bl	4108 <LPSPI_GetInstance>
    4d2a:	4601      	mov	r1, r0
    4d2c:	4a09      	ldr	r2, [pc, #36]	; (4d54 <LPSPI_SlaveTransferCreateHandle+0x54>)
    4d2e:	68bb      	ldr	r3, [r7, #8]
    4d30:	f842 3021 	str.w	r3, [r2, r1, lsl #2]
    4d34:	4b08      	ldr	r3, [pc, #32]	; (4d58 <LPSPI_SlaveTransferCreateHandle+0x58>)
    4d36:	4a09      	ldr	r2, [pc, #36]	; (4d5c <LPSPI_SlaveTransferCreateHandle+0x5c>)
    4d38:	601a      	str	r2, [r3, #0]
    4d3a:	68bb      	ldr	r3, [r7, #8]
    4d3c:	687a      	ldr	r2, [r7, #4]
    4d3e:	62da      	str	r2, [r3, #44]	; 0x2c
    4d40:	68bb      	ldr	r3, [r7, #8]
    4d42:	683a      	ldr	r2, [r7, #0]
    4d44:	631a      	str	r2, [r3, #48]	; 0x30
    4d46:	bf00      	nop
    4d48:	3710      	adds	r7, #16
    4d4a:	46bd      	mov	sp, r7
    4d4c:	bd80      	pop	{r7, pc}
    4d4e:	bf00      	nop
    4d50:	0000bd5c 	.word	0x0000bd5c
    4d54:	20000970 	.word	0x20000970
    4d58:	20000988 	.word	0x20000988
    4d5c:	0000517d 	.word	0x0000517d

00004d60 <LPSPI_SlaveTransferNonBlocking>:
    4d60:	b580      	push	{r7, lr}
    4d62:	b08a      	sub	sp, #40	; 0x28
    4d64:	af00      	add	r7, sp, #0
    4d66:	60f8      	str	r0, [r7, #12]
    4d68:	60b9      	str	r1, [r7, #8]
    4d6a:	607a      	str	r2, [r7, #4]
    4d6c:	68bb      	ldr	r3, [r7, #8]
    4d6e:	2b00      	cmp	r3, #0
    4d70:	d102      	bne.n	4d78 <LPSPI_SlaveTransferNonBlocking+0x18>
    4d72:	48ab      	ldr	r0, [pc, #684]	; (5020 <LPSPI_SlaveTransferNonBlocking+0x2c0>)
    4d74:	f002 fe32 	bl	79dc <__assertion_failed>
    4d78:	687b      	ldr	r3, [r7, #4]
    4d7a:	2b00      	cmp	r3, #0
    4d7c:	d102      	bne.n	4d84 <LPSPI_SlaveTransferNonBlocking+0x24>
    4d7e:	48a9      	ldr	r0, [pc, #676]	; (5024 <LPSPI_SlaveTransferNonBlocking+0x2c4>)
    4d80:	f002 fe2c 	bl	79dc <__assertion_failed>
    4d84:	68fb      	ldr	r3, [r7, #12]
    4d86:	6e1b      	ldr	r3, [r3, #96]	; 0x60
    4d88:	f3c3 030b 	ubfx	r3, r3, #0, #12
    4d8c:	3301      	adds	r3, #1
    4d8e:	623b      	str	r3, [r7, #32]
    4d90:	6a3b      	ldr	r3, [r7, #32]
    4d92:	3307      	adds	r3, #7
    4d94:	08db      	lsrs	r3, r3, #3
    4d96:	61fb      	str	r3, [r7, #28]
    4d98:	2300      	movs	r3, #0
    4d9a:	61bb      	str	r3, [r7, #24]
    4d9c:	69fa      	ldr	r2, [r7, #28]
    4d9e:	6a39      	ldr	r1, [r7, #32]
    4da0:	6878      	ldr	r0, [r7, #4]
    4da2:	f7ff fc4f 	bl	4644 <LPSPI_CheckTransferArgument>
    4da6:	4603      	mov	r3, r0
    4da8:	f083 0301 	eor.w	r3, r3, #1
    4dac:	b2db      	uxtb	r3, r3
    4dae:	2b00      	cmp	r3, #0
    4db0:	d001      	beq.n	4db6 <LPSPI_SlaveTransferNonBlocking+0x56>
    4db2:	2304      	movs	r3, #4
    4db4:	e130      	b.n	5018 <LPSPI_SlaveTransferNonBlocking+0x2b8>
    4db6:	68bb      	ldr	r3, [r7, #8]
    4db8:	f893 3024 	ldrb.w	r3, [r3, #36]	; 0x24
    4dbc:	b2db      	uxtb	r3, r3
    4dbe:	2b01      	cmp	r3, #1
    4dc0:	d102      	bne.n	4dc8 <LPSPI_SlaveTransferNonBlocking+0x68>
    4dc2:	f44f 73c8 	mov.w	r3, #400	; 0x190
    4dc6:	e127      	b.n	5018 <LPSPI_SlaveTransferNonBlocking+0x2b8>
    4dc8:	68bb      	ldr	r3, [r7, #8]
    4dca:	2201      	movs	r2, #1
    4dcc:	f883 2024 	strb.w	r2, [r3, #36]	; 0x24
    4dd0:	2300      	movs	r3, #0
    4dd2:	f887 3027 	strb.w	r3, [r7, #39]	; 0x27
    4dd6:	2300      	movs	r3, #0
    4dd8:	f887 3026 	strb.w	r3, [r7, #38]	; 0x26
    4ddc:	687b      	ldr	r3, [r7, #4]
    4dde:	68db      	ldr	r3, [r3, #12]
    4de0:	091b      	lsrs	r3, r3, #4
    4de2:	f003 030f 	and.w	r3, r3, #15
    4de6:	617b      	str	r3, [r7, #20]
    4de8:	687b      	ldr	r3, [r7, #4]
    4dea:	681a      	ldr	r2, [r3, #0]
    4dec:	68bb      	ldr	r3, [r7, #8]
    4dee:	609a      	str	r2, [r3, #8]
    4df0:	687b      	ldr	r3, [r7, #4]
    4df2:	685a      	ldr	r2, [r3, #4]
    4df4:	68bb      	ldr	r3, [r7, #8]
    4df6:	60da      	str	r2, [r3, #12]
    4df8:	687b      	ldr	r3, [r7, #4]
    4dfa:	689a      	ldr	r2, [r3, #8]
    4dfc:	68bb      	ldr	r3, [r7, #8]
    4dfe:	611a      	str	r2, [r3, #16]
    4e00:	687b      	ldr	r3, [r7, #4]
    4e02:	689a      	ldr	r2, [r3, #8]
    4e04:	68bb      	ldr	r3, [r7, #8]
    4e06:	615a      	str	r2, [r3, #20]
    4e08:	687b      	ldr	r3, [r7, #4]
    4e0a:	689a      	ldr	r2, [r3, #8]
    4e0c:	68bb      	ldr	r3, [r7, #8]
    4e0e:	621a      	str	r2, [r3, #32]
    4e10:	687b      	ldr	r3, [r7, #4]
    4e12:	689a      	ldr	r2, [r3, #8]
    4e14:	69fb      	ldr	r3, [r7, #28]
    4e16:	fbb2 f3f3 	udiv	r3, r2, r3
    4e1a:	69fa      	ldr	r2, [r7, #28]
    4e1c:	3203      	adds	r2, #3
    4e1e:	0892      	lsrs	r2, r2, #2
    4e20:	fb02 f203 	mul.w	r2, r2, r3
    4e24:	68bb      	ldr	r3, [r7, #8]
    4e26:	619a      	str	r2, [r3, #24]
    4e28:	68bb      	ldr	r3, [r7, #8]
    4e2a:	699a      	ldr	r2, [r3, #24]
    4e2c:	68bb      	ldr	r3, [r7, #8]
    4e2e:	61da      	str	r2, [r3, #28]
    4e30:	68f8      	ldr	r0, [r7, #12]
    4e32:	f004 f9d8 	bl	91e6 <LPSPI_GetRxFifoSize>
    4e36:	4603      	mov	r3, r0
    4e38:	b2da      	uxtb	r2, r3
    4e3a:	68bb      	ldr	r3, [r7, #8]
    4e3c:	705a      	strb	r2, [r3, #1]
    4e3e:	687b      	ldr	r3, [r7, #4]
    4e40:	68db      	ldr	r3, [r3, #12]
    4e42:	f403 0380 	and.w	r3, r3, #4194304	; 0x400000
    4e46:	2b00      	cmp	r3, #0
    4e48:	bf14      	ite	ne
    4e4a:	2301      	movne	r3, #1
    4e4c:	2300      	moveq	r3, #0
    4e4e:	b2da      	uxtb	r2, r3
    4e50:	68bb      	ldr	r3, [r7, #8]
    4e52:	701a      	strb	r2, [r3, #0]
    4e54:	68bb      	ldr	r3, [r7, #8]
    4e56:	785b      	ldrb	r3, [r3, #1]
    4e58:	b2db      	uxtb	r3, r3
    4e5a:	2b01      	cmp	r3, #1
    4e5c:	d90a      	bls.n	4e74 <LPSPI_SlaveTransferNonBlocking+0x114>
    4e5e:	2301      	movs	r3, #1
    4e60:	f887 3025 	strb.w	r3, [r7, #37]	; 0x25
    4e64:	68bb      	ldr	r3, [r7, #8]
    4e66:	785b      	ldrb	r3, [r3, #1]
    4e68:	b2db      	uxtb	r3, r3
    4e6a:	3b02      	subs	r3, #2
    4e6c:	b2da      	uxtb	r2, r3
    4e6e:	68bb      	ldr	r3, [r7, #8]
    4e70:	709a      	strb	r2, [r3, #2]
    4e72:	e005      	b.n	4e80 <LPSPI_SlaveTransferNonBlocking+0x120>
    4e74:	2300      	movs	r3, #0
    4e76:	f887 3025 	strb.w	r3, [r7, #37]	; 0x25
    4e7a:	68bb      	ldr	r3, [r7, #8]
    4e7c:	2200      	movs	r2, #0
    4e7e:	709a      	strb	r2, [r3, #2]
    4e80:	f897 1025 	ldrb.w	r1, [r7, #37]	; 0x25
    4e84:	68bb      	ldr	r3, [r7, #8]
    4e86:	789b      	ldrb	r3, [r3, #2]
    4e88:	b2db      	uxtb	r3, r3
    4e8a:	461a      	mov	r2, r3
    4e8c:	68f8      	ldr	r0, [r7, #12]
    4e8e:	f004 fa4a 	bl	9326 <LPSPI_SetFifoWatermarks>
    4e92:	68fb      	ldr	r3, [r7, #12]
    4e94:	6a5b      	ldr	r3, [r3, #36]	; 0x24
    4e96:	61bb      	str	r3, [r7, #24]
    4e98:	69bb      	ldr	r3, [r7, #24]
    4e9a:	f003 7340 	and.w	r3, r3, #50331648	; 0x3000000
    4e9e:	61bb      	str	r3, [r7, #24]
    4ea0:	69bb      	ldr	r3, [r7, #24]
    4ea2:	f1b3 7f80 	cmp.w	r3, #16777216	; 0x1000000
    4ea6:	d003      	beq.n	4eb0 <LPSPI_SlaveTransferNonBlocking+0x150>
    4ea8:	69bb      	ldr	r3, [r7, #24]
    4eaa:	f1b3 7f00 	cmp.w	r3, #33554432	; 0x2000000
    4eae:	d11b      	bne.n	4ee8 <LPSPI_SlaveTransferNonBlocking+0x188>
    4eb0:	68bb      	ldr	r3, [r7, #8]
    4eb2:	689b      	ldr	r3, [r3, #8]
    4eb4:	2b00      	cmp	r3, #0
    4eb6:	d10d      	bne.n	4ed4 <LPSPI_SlaveTransferNonBlocking+0x174>
    4eb8:	2100      	movs	r1, #0
    4eba:	68f8      	ldr	r0, [r7, #12]
    4ebc:	f004 f96b 	bl	9196 <LPSPI_Enable>
    4ec0:	68fb      	ldr	r3, [r7, #12]
    4ec2:	6a5b      	ldr	r3, [r3, #36]	; 0x24
    4ec4:	f043 6280 	orr.w	r2, r3, #67108864	; 0x4000000
    4ec8:	68fb      	ldr	r3, [r7, #12]
    4eca:	625a      	str	r2, [r3, #36]	; 0x24
    4ecc:	2101      	movs	r1, #1
    4ece:	68f8      	ldr	r0, [r7, #12]
    4ed0:	f004 f961 	bl	9196 <LPSPI_Enable>
    4ed4:	68bb      	ldr	r3, [r7, #8]
    4ed6:	689b      	ldr	r3, [r3, #8]
    4ed8:	2b00      	cmp	r3, #0
    4eda:	d005      	beq.n	4ee8 <LPSPI_SlaveTransferNonBlocking+0x188>
    4edc:	68bb      	ldr	r3, [r7, #8]
    4ede:	68db      	ldr	r3, [r3, #12]
    4ee0:	2b00      	cmp	r3, #0
    4ee2:	d001      	beq.n	4ee8 <LPSPI_SlaveTransferNonBlocking+0x188>
    4ee4:	2304      	movs	r3, #4
    4ee6:	e097      	b.n	5018 <LPSPI_SlaveTransferNonBlocking+0x2b8>
    4ee8:	2201      	movs	r2, #1
    4eea:	2101      	movs	r1, #1
    4eec:	68f8      	ldr	r0, [r7, #12]
    4eee:	f004 fa02 	bl	92f6 <LPSPI_FlushFifo>
    4ef2:	494d      	ldr	r1, [pc, #308]	; (5028 <LPSPI_SlaveTransferNonBlocking+0x2c8>)
    4ef4:	68f8      	ldr	r0, [r7, #12]
    4ef6:	f004 f9a4 	bl	9242 <LPSPI_ClearStatusFlags>
    4efa:	f643 7103 	movw	r1, #16131	; 0x3f03
    4efe:	68f8      	ldr	r0, [r7, #12]
    4f00:	f004 f9be 	bl	9280 <LPSPI_DisableInterrupts>
    4f04:	68bb      	ldr	r3, [r7, #8]
    4f06:	68db      	ldr	r3, [r3, #12]
    4f08:	2b00      	cmp	r3, #0
    4f0a:	d105      	bne.n	4f18 <LPSPI_SlaveTransferNonBlocking+0x1b8>
    4f0c:	2301      	movs	r3, #1
    4f0e:	f887 3027 	strb.w	r3, [r7, #39]	; 0x27
    4f12:	68bb      	ldr	r3, [r7, #8]
    4f14:	2200      	movs	r2, #0
    4f16:	615a      	str	r2, [r3, #20]
    4f18:	68bb      	ldr	r3, [r7, #8]
    4f1a:	689b      	ldr	r3, [r3, #8]
    4f1c:	2b00      	cmp	r3, #0
    4f1e:	d105      	bne.n	4f2c <LPSPI_SlaveTransferNonBlocking+0x1cc>
    4f20:	2301      	movs	r3, #1
    4f22:	f887 3026 	strb.w	r3, [r7, #38]	; 0x26
    4f26:	68bb      	ldr	r3, [r7, #8]
    4f28:	2200      	movs	r2, #0
    4f2a:	611a      	str	r2, [r3, #16]
    4f2c:	68fb      	ldr	r3, [r7, #12]
    4f2e:	6e1b      	ldr	r3, [r3, #96]	; 0x60
    4f30:	f023 724f 	bic.w	r2, r3, #54263808	; 0x33c0000
    4f34:	f897 3027 	ldrb.w	r3, [r7, #39]	; 0x27
    4f38:	04db      	lsls	r3, r3, #19
    4f3a:	f403 2300 	and.w	r3, r3, #524288	; 0x80000
    4f3e:	431a      	orrs	r2, r3
    4f40:	f897 3026 	ldrb.w	r3, [r7, #38]	; 0x26
    4f44:	049b      	lsls	r3, r3, #18
    4f46:	f403 2380 	and.w	r3, r3, #262144	; 0x40000
    4f4a:	431a      	orrs	r2, r3
    4f4c:	697b      	ldr	r3, [r7, #20]
    4f4e:	061b      	lsls	r3, r3, #24
    4f50:	f003 7340 	and.w	r3, r3, #50331648	; 0x3000000
    4f54:	431a      	orrs	r2, r3
    4f56:	68fb      	ldr	r3, [r7, #12]
    4f58:	661a      	str	r2, [r3, #96]	; 0x60
    4f5a:	69fb      	ldr	r3, [r7, #28]
    4f5c:	2b04      	cmp	r3, #4
    4f5e:	d808      	bhi.n	4f72 <LPSPI_SlaveTransferNonBlocking+0x212>
    4f60:	69fb      	ldr	r3, [r7, #28]
    4f62:	b2da      	uxtb	r2, r3
    4f64:	68bb      	ldr	r3, [r7, #8]
    4f66:	70da      	strb	r2, [r3, #3]
    4f68:	69fb      	ldr	r3, [r7, #28]
    4f6a:	b2da      	uxtb	r2, r3
    4f6c:	68bb      	ldr	r3, [r7, #8]
    4f6e:	711a      	strb	r2, [r3, #4]
    4f70:	e005      	b.n	4f7e <LPSPI_SlaveTransferNonBlocking+0x21e>
    4f72:	68bb      	ldr	r3, [r7, #8]
    4f74:	2204      	movs	r2, #4
    4f76:	70da      	strb	r2, [r3, #3]
    4f78:	68bb      	ldr	r3, [r7, #8]
    4f7a:	2204      	movs	r2, #4
    4f7c:	711a      	strb	r2, [r3, #4]
    4f7e:	68f8      	ldr	r0, [r7, #12]
    4f80:	f7ff f8c2 	bl	4108 <LPSPI_GetInstance>
    4f84:	4602      	mov	r2, r0
    4f86:	4b29      	ldr	r3, [pc, #164]	; (502c <LPSPI_SlaveTransferNonBlocking+0x2cc>)
    4f88:	f933 3012 	ldrsh.w	r3, [r3, r2, lsl #1]
    4f8c:	4618      	mov	r0, r3
    4f8e:	f004 f8ec 	bl	916a <EnableIRQ>
    4f92:	bf00      	nop
    4f94:	68f8      	ldr	r0, [r7, #12]
    4f96:	f004 f937 	bl	9208 <LPSPI_GetTxFifoCount>
    4f9a:	4603      	mov	r3, r0
    4f9c:	2b00      	cmp	r3, #0
    4f9e:	d1f9      	bne.n	4f94 <LPSPI_SlaveTransferNonBlocking+0x234>
    4fa0:	68bb      	ldr	r3, [r7, #8]
    4fa2:	689b      	ldr	r3, [r3, #8]
    4fa4:	2b00      	cmp	r3, #0
    4fa6:	d003      	beq.n	4fb0 <LPSPI_SlaveTransferNonBlocking+0x250>
    4fa8:	68b9      	ldr	r1, [r7, #8]
    4faa:	68f8      	ldr	r0, [r7, #12]
    4fac:	f000 f840 	bl	5030 <LPSPI_SlaveTransferFillUpTxFifo>
    4fb0:	68bb      	ldr	r3, [r7, #8]
    4fb2:	68db      	ldr	r3, [r3, #12]
    4fb4:	2b00      	cmp	r3, #0
    4fb6:	d018      	beq.n	4fea <LPSPI_SlaveTransferNonBlocking+0x28a>
    4fb8:	68bb      	ldr	r3, [r7, #8]
    4fba:	69db      	ldr	r3, [r3, #28]
    4fbc:	68ba      	ldr	r2, [r7, #8]
    4fbe:	7892      	ldrb	r2, [r2, #2]
    4fc0:	b2d2      	uxtb	r2, r2
    4fc2:	4293      	cmp	r3, r2
    4fc4:	d80c      	bhi.n	4fe0 <LPSPI_SlaveTransferNonBlocking+0x280>
    4fc6:	68fb      	ldr	r3, [r7, #12]
    4fc8:	6d9b      	ldr	r3, [r3, #88]	; 0x58
    4fca:	f423 2270 	bic.w	r2, r3, #983040	; 0xf0000
    4fce:	68bb      	ldr	r3, [r7, #8]
    4fd0:	69db      	ldr	r3, [r3, #28]
    4fd2:	3b01      	subs	r3, #1
    4fd4:	041b      	lsls	r3, r3, #16
    4fd6:	f403 2370 	and.w	r3, r3, #983040	; 0xf0000
    4fda:	431a      	orrs	r2, r3
    4fdc:	68fb      	ldr	r3, [r7, #12]
    4fde:	659a      	str	r2, [r3, #88]	; 0x58
    4fe0:	2102      	movs	r1, #2
    4fe2:	68f8      	ldr	r0, [r7, #12]
    4fe4:	f004 f93b 	bl	925e <LPSPI_EnableInterrupts>
    4fe8:	e003      	b.n	4ff2 <LPSPI_SlaveTransferNonBlocking+0x292>
    4fea:	2101      	movs	r1, #1
    4fec:	68f8      	ldr	r0, [r7, #12]
    4fee:	f004 f936 	bl	925e <LPSPI_EnableInterrupts>
    4ff2:	68bb      	ldr	r3, [r7, #8]
    4ff4:	68db      	ldr	r3, [r3, #12]
    4ff6:	2b00      	cmp	r3, #0
    4ff8:	d004      	beq.n	5004 <LPSPI_SlaveTransferNonBlocking+0x2a4>
    4ffa:	f44f 5180 	mov.w	r1, #4096	; 0x1000
    4ffe:	68f8      	ldr	r0, [r7, #12]
    5000:	f004 f92d 	bl	925e <LPSPI_EnableInterrupts>
    5004:	68bb      	ldr	r3, [r7, #8]
    5006:	689b      	ldr	r3, [r3, #8]
    5008:	2b00      	cmp	r3, #0
    500a:	d004      	beq.n	5016 <LPSPI_SlaveTransferNonBlocking+0x2b6>
    500c:	f44f 6100 	mov.w	r1, #2048	; 0x800
    5010:	68f8      	ldr	r0, [r7, #12]
    5012:	f004 f924 	bl	925e <LPSPI_EnableInterrupts>
    5016:	2300      	movs	r3, #0
    5018:	4618      	mov	r0, r3
    501a:	3728      	adds	r7, #40	; 0x28
    501c:	46bd      	mov	sp, r7
    501e:	bd80      	pop	{r7, pc}
    5020:	0000bd84 	.word	0x0000bd84
    5024:	0000bdac 	.word	0x0000bdac
    5028:	01003f03 	.word	0x01003f03
    502c:	0000c010 	.word	0x0000c010

00005030 <LPSPI_SlaveTransferFillUpTxFifo>:
    5030:	b580      	push	{r7, lr}
    5032:	b084      	sub	sp, #16
    5034:	af00      	add	r7, sp, #0
    5036:	6078      	str	r0, [r7, #4]
    5038:	6039      	str	r1, [r7, #0]
    503a:	683b      	ldr	r3, [r7, #0]
    503c:	2b00      	cmp	r3, #0
    503e:	d102      	bne.n	5046 <LPSPI_SlaveTransferFillUpTxFifo+0x16>
    5040:	4822      	ldr	r0, [pc, #136]	; (50cc <LPSPI_SlaveTransferFillUpTxFifo+0x9c>)
    5042:	f002 fccb 	bl	79dc <__assertion_failed>
    5046:	2300      	movs	r3, #0
    5048:	60fb      	str	r3, [r7, #12]
    504a:	e030      	b.n	50ae <LPSPI_SlaveTransferFillUpTxFifo+0x7e>
    504c:	683b      	ldr	r3, [r7, #0]
    504e:	691b      	ldr	r3, [r3, #16]
    5050:	683a      	ldr	r2, [r7, #0]
    5052:	78d2      	ldrb	r2, [r2, #3]
    5054:	b2d2      	uxtb	r2, r2
    5056:	4293      	cmp	r3, r2
    5058:	d204      	bcs.n	5064 <LPSPI_SlaveTransferFillUpTxFifo+0x34>
    505a:	683b      	ldr	r3, [r7, #0]
    505c:	691b      	ldr	r3, [r3, #16]
    505e:	b2da      	uxtb	r2, r3
    5060:	683b      	ldr	r3, [r7, #0]
    5062:	70da      	strb	r2, [r3, #3]
    5064:	683b      	ldr	r3, [r7, #0]
    5066:	6898      	ldr	r0, [r3, #8]
    5068:	683b      	ldr	r3, [r7, #0]
    506a:	78db      	ldrb	r3, [r3, #3]
    506c:	b2db      	uxtb	r3, r3
    506e:	4619      	mov	r1, r3
    5070:	683b      	ldr	r3, [r7, #0]
    5072:	781b      	ldrb	r3, [r3, #0]
    5074:	b2db      	uxtb	r3, r3
    5076:	461a      	mov	r2, r3
    5078:	f000 f9a8 	bl	53cc <LPSPI_CombineWriteData>
    507c:	60f8      	str	r0, [r7, #12]
    507e:	683b      	ldr	r3, [r7, #0]
    5080:	78db      	ldrb	r3, [r3, #3]
    5082:	b2da      	uxtb	r2, r3
    5084:	683b      	ldr	r3, [r7, #0]
    5086:	689b      	ldr	r3, [r3, #8]
    5088:	441a      	add	r2, r3
    508a:	683b      	ldr	r3, [r7, #0]
    508c:	609a      	str	r2, [r3, #8]
    508e:	683b      	ldr	r3, [r7, #0]
    5090:	78db      	ldrb	r3, [r3, #3]
    5092:	b2da      	uxtb	r2, r3
    5094:	683b      	ldr	r3, [r7, #0]
    5096:	691b      	ldr	r3, [r3, #16]
    5098:	1a9a      	subs	r2, r3, r2
    509a:	683b      	ldr	r3, [r7, #0]
    509c:	611a      	str	r2, [r3, #16]
    509e:	68f9      	ldr	r1, [r7, #12]
    50a0:	6878      	ldr	r0, [r7, #4]
    50a2:	f004 f956 	bl	9352 <LPSPI_WriteData>
    50a6:	683b      	ldr	r3, [r7, #0]
    50a8:	691b      	ldr	r3, [r3, #16]
    50aa:	2b00      	cmp	r3, #0
    50ac:	d009      	beq.n	50c2 <LPSPI_SlaveTransferFillUpTxFifo+0x92>
    50ae:	6878      	ldr	r0, [r7, #4]
    50b0:	f004 f8aa 	bl	9208 <LPSPI_GetTxFifoCount>
    50b4:	4602      	mov	r2, r0
    50b6:	683b      	ldr	r3, [r7, #0]
    50b8:	785b      	ldrb	r3, [r3, #1]
    50ba:	b2db      	uxtb	r3, r3
    50bc:	429a      	cmp	r2, r3
    50be:	d3c5      	bcc.n	504c <LPSPI_SlaveTransferFillUpTxFifo+0x1c>
    50c0:	e000      	b.n	50c4 <LPSPI_SlaveTransferFillUpTxFifo+0x94>
    50c2:	bf00      	nop
    50c4:	bf00      	nop
    50c6:	3710      	adds	r7, #16
    50c8:	46bd      	mov	sp, r7
    50ca:	bd80      	pop	{r7, pc}
    50cc:	0000bdd4 	.word	0x0000bdd4

000050d0 <LPSPI_SlaveTransferComplete>:
    50d0:	b590      	push	{r4, r7, lr}
    50d2:	b085      	sub	sp, #20
    50d4:	af00      	add	r7, sp, #0
    50d6:	6078      	str	r0, [r7, #4]
    50d8:	6039      	str	r1, [r7, #0]
    50da:	683b      	ldr	r3, [r7, #0]
    50dc:	2b00      	cmp	r3, #0
    50de:	d102      	bne.n	50e6 <LPSPI_SlaveTransferComplete+0x16>
    50e0:	4814      	ldr	r0, [pc, #80]	; (5134 <LPSPI_SlaveTransferComplete+0x64>)
    50e2:	f002 fc7b 	bl	79dc <__assertion_failed>
    50e6:	2300      	movs	r3, #0
    50e8:	60fb      	str	r3, [r7, #12]
    50ea:	f643 7103 	movw	r1, #16131	; 0x3f03
    50ee:	6878      	ldr	r0, [r7, #4]
    50f0:	f004 f8c6 	bl	9280 <LPSPI_DisableInterrupts>
    50f4:	683b      	ldr	r3, [r7, #0]
    50f6:	f893 3024 	ldrb.w	r3, [r3, #36]	; 0x24
    50fa:	b2db      	uxtb	r3, r3
    50fc:	2b02      	cmp	r3, #2
    50fe:	d103      	bne.n	5108 <LPSPI_SlaveTransferComplete+0x38>
    5100:	f240 1391 	movw	r3, #401	; 0x191
    5104:	60fb      	str	r3, [r7, #12]
    5106:	e001      	b.n	510c <LPSPI_SlaveTransferComplete+0x3c>
    5108:	2300      	movs	r3, #0
    510a:	60fb      	str	r3, [r7, #12]
    510c:	683b      	ldr	r3, [r7, #0]
    510e:	2200      	movs	r2, #0
    5110:	f883 2024 	strb.w	r2, [r3, #36]	; 0x24
    5114:	683b      	ldr	r3, [r7, #0]
    5116:	6adb      	ldr	r3, [r3, #44]	; 0x2c
    5118:	2b00      	cmp	r3, #0
    511a:	d007      	beq.n	512c <LPSPI_SlaveTransferComplete+0x5c>
    511c:	683b      	ldr	r3, [r7, #0]
    511e:	6adc      	ldr	r4, [r3, #44]	; 0x2c
    5120:	683b      	ldr	r3, [r7, #0]
    5122:	6b1b      	ldr	r3, [r3, #48]	; 0x30
    5124:	68fa      	ldr	r2, [r7, #12]
    5126:	6839      	ldr	r1, [r7, #0]
    5128:	6878      	ldr	r0, [r7, #4]
    512a:	47a0      	blx	r4
    512c:	bf00      	nop
    512e:	3714      	adds	r7, #20
    5130:	46bd      	mov	sp, r7
    5132:	bd90      	pop	{r4, r7, pc}
    5134:	0000bdfc 	.word	0x0000bdfc

00005138 <LPSPI_SlaveTransferAbort>:
    5138:	b580      	push	{r7, lr}
    513a:	b082      	sub	sp, #8
    513c:	af00      	add	r7, sp, #0
    513e:	6078      	str	r0, [r7, #4]
    5140:	6039      	str	r1, [r7, #0]
    5142:	683b      	ldr	r3, [r7, #0]
    5144:	2b00      	cmp	r3, #0
    5146:	d102      	bne.n	514e <LPSPI_SlaveTransferAbort+0x16>
    5148:	480b      	ldr	r0, [pc, #44]	; (5178 <LPSPI_SlaveTransferAbort+0x40>)
    514a:	f002 fc47 	bl	79dc <__assertion_failed>
    514e:	2103      	movs	r1, #3
    5150:	6878      	ldr	r0, [r7, #4]
    5152:	f004 f895 	bl	9280 <LPSPI_DisableInterrupts>
    5156:	6878      	ldr	r0, [r7, #4]
    5158:	f004 f915 	bl	9386 <LPSPI_Reset>
    515c:	683b      	ldr	r3, [r7, #0]
    515e:	2200      	movs	r2, #0
    5160:	f883 2024 	strb.w	r2, [r3, #36]	; 0x24
    5164:	683b      	ldr	r3, [r7, #0]
    5166:	2200      	movs	r2, #0
    5168:	611a      	str	r2, [r3, #16]
    516a:	683b      	ldr	r3, [r7, #0]
    516c:	2200      	movs	r2, #0
    516e:	615a      	str	r2, [r3, #20]
    5170:	bf00      	nop
    5172:	3708      	adds	r7, #8
    5174:	46bd      	mov	sp, r7
    5176:	bd80      	pop	{r7, pc}
    5178:	0000be4c 	.word	0x0000be4c

0000517c <LPSPI_SlaveTransferHandleIRQ>:
    517c:	b580      	push	{r7, lr}
    517e:	b084      	sub	sp, #16
    5180:	af00      	add	r7, sp, #0
    5182:	6078      	str	r0, [r7, #4]
    5184:	6039      	str	r1, [r7, #0]
    5186:	683b      	ldr	r3, [r7, #0]
    5188:	2b00      	cmp	r3, #0
    518a:	d102      	bne.n	5192 <LPSPI_SlaveTransferHandleIRQ+0x16>
    518c:	488e      	ldr	r0, [pc, #568]	; (53c8 <LPSPI_SlaveTransferHandleIRQ+0x24c>)
    518e:	f002 fc25 	bl	79dc <__assertion_failed>
    5192:	683b      	ldr	r3, [r7, #0]
    5194:	68db      	ldr	r3, [r3, #12]
    5196:	2b00      	cmp	r3, #0
    5198:	f000 8092 	beq.w	52c0 <LPSPI_SlaveTransferHandleIRQ+0x144>
    519c:	683b      	ldr	r3, [r7, #0]
    519e:	695b      	ldr	r3, [r3, #20]
    51a0:	2b00      	cmp	r3, #0
    51a2:	d072      	beq.n	528a <LPSPI_SlaveTransferHandleIRQ+0x10e>
    51a4:	e069      	b.n	527a <LPSPI_SlaveTransferHandleIRQ+0xfe>
    51a6:	6878      	ldr	r0, [r7, #4]
    51a8:	f004 f8e1 	bl	936e <LPSPI_ReadData>
    51ac:	60f8      	str	r0, [r7, #12]
    51ae:	683b      	ldr	r3, [r7, #0]
    51b0:	69db      	ldr	r3, [r3, #28]
    51b2:	1e5a      	subs	r2, r3, #1
    51b4:	683b      	ldr	r3, [r7, #0]
    51b6:	61da      	str	r2, [r3, #28]
    51b8:	683b      	ldr	r3, [r7, #0]
    51ba:	695b      	ldr	r3, [r3, #20]
    51bc:	683a      	ldr	r2, [r7, #0]
    51be:	7912      	ldrb	r2, [r2, #4]
    51c0:	b2d2      	uxtb	r2, r2
    51c2:	4293      	cmp	r3, r2
    51c4:	d204      	bcs.n	51d0 <LPSPI_SlaveTransferHandleIRQ+0x54>
    51c6:	683b      	ldr	r3, [r7, #0]
    51c8:	695b      	ldr	r3, [r3, #20]
    51ca:	b2da      	uxtb	r2, r3
    51cc:	683b      	ldr	r3, [r7, #0]
    51ce:	711a      	strb	r2, [r3, #4]
    51d0:	683b      	ldr	r3, [r7, #0]
    51d2:	68d8      	ldr	r0, [r3, #12]
    51d4:	683b      	ldr	r3, [r7, #0]
    51d6:	791b      	ldrb	r3, [r3, #4]
    51d8:	b2db      	uxtb	r3, r3
    51da:	461a      	mov	r2, r3
    51dc:	683b      	ldr	r3, [r7, #0]
    51de:	781b      	ldrb	r3, [r3, #0]
    51e0:	b2db      	uxtb	r3, r3
    51e2:	68f9      	ldr	r1, [r7, #12]
    51e4:	f000 f9d0 	bl	5588 <LPSPI_SeparateReadData>
    51e8:	683b      	ldr	r3, [r7, #0]
    51ea:	791b      	ldrb	r3, [r3, #4]
    51ec:	b2da      	uxtb	r2, r3
    51ee:	683b      	ldr	r3, [r7, #0]
    51f0:	68db      	ldr	r3, [r3, #12]
    51f2:	441a      	add	r2, r3
    51f4:	683b      	ldr	r3, [r7, #0]
    51f6:	60da      	str	r2, [r3, #12]
    51f8:	683b      	ldr	r3, [r7, #0]
    51fa:	791b      	ldrb	r3, [r3, #4]
    51fc:	b2da      	uxtb	r2, r3
    51fe:	683b      	ldr	r3, [r7, #0]
    5200:	695b      	ldr	r3, [r3, #20]
    5202:	1a9a      	subs	r2, r3, r2
    5204:	683b      	ldr	r3, [r7, #0]
    5206:	615a      	str	r2, [r3, #20]
    5208:	683b      	ldr	r3, [r7, #0]
    520a:	691b      	ldr	r3, [r3, #16]
    520c:	2b00      	cmp	r3, #0
    520e:	d030      	beq.n	5272 <LPSPI_SlaveTransferHandleIRQ+0xf6>
    5210:	683b      	ldr	r3, [r7, #0]
    5212:	689b      	ldr	r3, [r3, #8]
    5214:	2b00      	cmp	r3, #0
    5216:	d02c      	beq.n	5272 <LPSPI_SlaveTransferHandleIRQ+0xf6>
    5218:	683b      	ldr	r3, [r7, #0]
    521a:	691b      	ldr	r3, [r3, #16]
    521c:	683a      	ldr	r2, [r7, #0]
    521e:	78d2      	ldrb	r2, [r2, #3]
    5220:	b2d2      	uxtb	r2, r2
    5222:	4293      	cmp	r3, r2
    5224:	d204      	bcs.n	5230 <LPSPI_SlaveTransferHandleIRQ+0xb4>
    5226:	683b      	ldr	r3, [r7, #0]
    5228:	691b      	ldr	r3, [r3, #16]
    522a:	b2da      	uxtb	r2, r3
    522c:	683b      	ldr	r3, [r7, #0]
    522e:	70da      	strb	r2, [r3, #3]
    5230:	683b      	ldr	r3, [r7, #0]
    5232:	6898      	ldr	r0, [r3, #8]
    5234:	683b      	ldr	r3, [r7, #0]
    5236:	78db      	ldrb	r3, [r3, #3]
    5238:	b2db      	uxtb	r3, r3
    523a:	4619      	mov	r1, r3
    523c:	683b      	ldr	r3, [r7, #0]
    523e:	781b      	ldrb	r3, [r3, #0]
    5240:	b2db      	uxtb	r3, r3
    5242:	461a      	mov	r2, r3
    5244:	f000 f8c2 	bl	53cc <LPSPI_CombineWriteData>
    5248:	60b8      	str	r0, [r7, #8]
    524a:	683b      	ldr	r3, [r7, #0]
    524c:	78db      	ldrb	r3, [r3, #3]
    524e:	b2da      	uxtb	r2, r3
    5250:	683b      	ldr	r3, [r7, #0]
    5252:	689b      	ldr	r3, [r3, #8]
    5254:	441a      	add	r2, r3
    5256:	683b      	ldr	r3, [r7, #0]
    5258:	609a      	str	r2, [r3, #8]
    525a:	683b      	ldr	r3, [r7, #0]
    525c:	78db      	ldrb	r3, [r3, #3]
    525e:	b2da      	uxtb	r2, r3
    5260:	683b      	ldr	r3, [r7, #0]
    5262:	691b      	ldr	r3, [r3, #16]
    5264:	1a9a      	subs	r2, r3, r2
    5266:	683b      	ldr	r3, [r7, #0]
    5268:	611a      	str	r2, [r3, #16]
    526a:	68b9      	ldr	r1, [r7, #8]
    526c:	6878      	ldr	r0, [r7, #4]
    526e:	f004 f870 	bl	9352 <LPSPI_WriteData>
    5272:	683b      	ldr	r3, [r7, #0]
    5274:	695b      	ldr	r3, [r3, #20]
    5276:	2b00      	cmp	r3, #0
    5278:	d006      	beq.n	5288 <LPSPI_SlaveTransferHandleIRQ+0x10c>
    527a:	6878      	ldr	r0, [r7, #4]
    527c:	f003 ffd2 	bl	9224 <LPSPI_GetRxFifoCount>
    5280:	4603      	mov	r3, r0
    5282:	2b00      	cmp	r3, #0
    5284:	d18f      	bne.n	51a6 <LPSPI_SlaveTransferHandleIRQ+0x2a>
    5286:	e000      	b.n	528a <LPSPI_SlaveTransferHandleIRQ+0x10e>
    5288:	bf00      	nop
    528a:	683b      	ldr	r3, [r7, #0]
    528c:	69db      	ldr	r3, [r3, #28]
    528e:	683a      	ldr	r2, [r7, #0]
    5290:	7892      	ldrb	r2, [r2, #2]
    5292:	b2d2      	uxtb	r2, r2
    5294:	4293      	cmp	r3, r2
    5296:	d821      	bhi.n	52dc <LPSPI_SlaveTransferHandleIRQ+0x160>
    5298:	687b      	ldr	r3, [r7, #4]
    529a:	6d9b      	ldr	r3, [r3, #88]	; 0x58
    529c:	f423 2270 	bic.w	r2, r3, #983040	; 0xf0000
    52a0:	683b      	ldr	r3, [r7, #0]
    52a2:	69db      	ldr	r3, [r3, #28]
    52a4:	2b01      	cmp	r3, #1
    52a6:	d906      	bls.n	52b6 <LPSPI_SlaveTransferHandleIRQ+0x13a>
    52a8:	683b      	ldr	r3, [r7, #0]
    52aa:	69db      	ldr	r3, [r3, #28]
    52ac:	3b01      	subs	r3, #1
    52ae:	041b      	lsls	r3, r3, #16
    52b0:	f403 2370 	and.w	r3, r3, #983040	; 0xf0000
    52b4:	e000      	b.n	52b8 <LPSPI_SlaveTransferHandleIRQ+0x13c>
    52b6:	2300      	movs	r3, #0
    52b8:	431a      	orrs	r2, r3
    52ba:	687b      	ldr	r3, [r7, #4]
    52bc:	659a      	str	r2, [r3, #88]	; 0x58
    52be:	e00d      	b.n	52dc <LPSPI_SlaveTransferHandleIRQ+0x160>
    52c0:	683b      	ldr	r3, [r7, #0]
    52c2:	691b      	ldr	r3, [r3, #16]
    52c4:	2b00      	cmp	r3, #0
    52c6:	d008      	beq.n	52da <LPSPI_SlaveTransferHandleIRQ+0x15e>
    52c8:	683b      	ldr	r3, [r7, #0]
    52ca:	689b      	ldr	r3, [r3, #8]
    52cc:	2b00      	cmp	r3, #0
    52ce:	d004      	beq.n	52da <LPSPI_SlaveTransferHandleIRQ+0x15e>
    52d0:	6839      	ldr	r1, [r7, #0]
    52d2:	6878      	ldr	r0, [r7, #4]
    52d4:	f7ff feac 	bl	5030 <LPSPI_SlaveTransferFillUpTxFifo>
    52d8:	e000      	b.n	52dc <LPSPI_SlaveTransferHandleIRQ+0x160>
    52da:	bf00      	nop
    52dc:	683b      	ldr	r3, [r7, #0]
    52de:	691b      	ldr	r3, [r3, #16]
    52e0:	2b00      	cmp	r3, #0
    52e2:	d12d      	bne.n	5340 <LPSPI_SlaveTransferHandleIRQ+0x1c4>
    52e4:	683b      	ldr	r3, [r7, #0]
    52e6:	695b      	ldr	r3, [r3, #20]
    52e8:	2b00      	cmp	r3, #0
    52ea:	d129      	bne.n	5340 <LPSPI_SlaveTransferHandleIRQ+0x1c4>
    52ec:	683b      	ldr	r3, [r7, #0]
    52ee:	68db      	ldr	r3, [r3, #12]
    52f0:	2b00      	cmp	r3, #0
    52f2:	d121      	bne.n	5338 <LPSPI_SlaveTransferHandleIRQ+0x1bc>
    52f4:	6878      	ldr	r0, [r7, #4]
    52f6:	f003 ff6a 	bl	91ce <LPSPI_GetStatusFlags>
    52fa:	4603      	mov	r3, r0
    52fc:	f403 7300 	and.w	r3, r3, #512	; 0x200
    5300:	2b00      	cmp	r3, #0
    5302:	d00a      	beq.n	531a <LPSPI_SlaveTransferHandleIRQ+0x19e>
    5304:	6878      	ldr	r0, [r7, #4]
    5306:	f003 ff7f 	bl	9208 <LPSPI_GetTxFifoCount>
    530a:	4603      	mov	r3, r0
    530c:	2b00      	cmp	r3, #0
    530e:	d104      	bne.n	531a <LPSPI_SlaveTransferHandleIRQ+0x19e>
    5310:	6839      	ldr	r1, [r7, #0]
    5312:	6878      	ldr	r0, [r7, #4]
    5314:	f7ff fedc 	bl	50d0 <LPSPI_SlaveTransferComplete>
    5318:	e012      	b.n	5340 <LPSPI_SlaveTransferHandleIRQ+0x1c4>
    531a:	f44f 7100 	mov.w	r1, #512	; 0x200
    531e:	6878      	ldr	r0, [r7, #4]
    5320:	f003 ff8f 	bl	9242 <LPSPI_ClearStatusFlags>
    5324:	f44f 7100 	mov.w	r1, #512	; 0x200
    5328:	6878      	ldr	r0, [r7, #4]
    532a:	f003 ff98 	bl	925e <LPSPI_EnableInterrupts>
    532e:	2103      	movs	r1, #3
    5330:	6878      	ldr	r0, [r7, #4]
    5332:	f003 ffa5 	bl	9280 <LPSPI_DisableInterrupts>
    5336:	e003      	b.n	5340 <LPSPI_SlaveTransferHandleIRQ+0x1c4>
    5338:	6839      	ldr	r1, [r7, #0]
    533a:	6878      	ldr	r0, [r7, #4]
    533c:	f7ff fec8 	bl	50d0 <LPSPI_SlaveTransferComplete>
    5340:	6878      	ldr	r0, [r7, #4]
    5342:	f003 ff44 	bl	91ce <LPSPI_GetStatusFlags>
    5346:	4603      	mov	r3, r0
    5348:	f403 6300 	and.w	r3, r3, #2048	; 0x800
    534c:	2b00      	cmp	r3, #0
    534e:	d017      	beq.n	5380 <LPSPI_SlaveTransferHandleIRQ+0x204>
    5350:	687b      	ldr	r3, [r7, #4]
    5352:	699b      	ldr	r3, [r3, #24]
    5354:	f403 6300 	and.w	r3, r3, #2048	; 0x800
    5358:	2b00      	cmp	r3, #0
    535a:	d011      	beq.n	5380 <LPSPI_SlaveTransferHandleIRQ+0x204>
    535c:	f44f 6100 	mov.w	r1, #2048	; 0x800
    5360:	6878      	ldr	r0, [r7, #4]
    5362:	f003 ff6e 	bl	9242 <LPSPI_ClearStatusFlags>
    5366:	683b      	ldr	r3, [r7, #0]
    5368:	689b      	ldr	r3, [r3, #8]
    536a:	2b00      	cmp	r3, #0
    536c:	d003      	beq.n	5376 <LPSPI_SlaveTransferHandleIRQ+0x1fa>
    536e:	683b      	ldr	r3, [r7, #0]
    5370:	2202      	movs	r2, #2
    5372:	f883 2024 	strb.w	r2, [r3, #36]	; 0x24
    5376:	683b      	ldr	r3, [r7, #0]
    5378:	6a9b      	ldr	r3, [r3, #40]	; 0x28
    537a:	1c5a      	adds	r2, r3, #1
    537c:	683b      	ldr	r3, [r7, #0]
    537e:	629a      	str	r2, [r3, #40]	; 0x28
    5380:	6878      	ldr	r0, [r7, #4]
    5382:	f003 ff24 	bl	91ce <LPSPI_GetStatusFlags>
    5386:	4603      	mov	r3, r0
    5388:	f403 5380 	and.w	r3, r3, #4096	; 0x1000
    538c:	2b00      	cmp	r3, #0
    538e:	d017      	beq.n	53c0 <LPSPI_SlaveTransferHandleIRQ+0x244>
    5390:	687b      	ldr	r3, [r7, #4]
    5392:	699b      	ldr	r3, [r3, #24]
    5394:	f403 5380 	and.w	r3, r3, #4096	; 0x1000
    5398:	2b00      	cmp	r3, #0
    539a:	d011      	beq.n	53c0 <LPSPI_SlaveTransferHandleIRQ+0x244>
    539c:	f44f 5180 	mov.w	r1, #4096	; 0x1000
    53a0:	6878      	ldr	r0, [r7, #4]
    53a2:	f003 ff4e 	bl	9242 <LPSPI_ClearStatusFlags>
    53a6:	683b      	ldr	r3, [r7, #0]
    53a8:	689b      	ldr	r3, [r3, #8]
    53aa:	2b00      	cmp	r3, #0
    53ac:	d003      	beq.n	53b6 <LPSPI_SlaveTransferHandleIRQ+0x23a>
    53ae:	683b      	ldr	r3, [r7, #0]
    53b0:	2202      	movs	r2, #2
    53b2:	f883 2024 	strb.w	r2, [r3, #36]	; 0x24
    53b6:	683b      	ldr	r3, [r7, #0]
    53b8:	6a9b      	ldr	r3, [r3, #40]	; 0x28
    53ba:	1c5a      	adds	r2, r3, #1
    53bc:	683b      	ldr	r3, [r7, #0]
    53be:	629a      	str	r2, [r3, #40]	; 0x28
    53c0:	bf00      	nop
    53c2:	3710      	adds	r7, #16
    53c4:	46bd      	mov	sp, r7
    53c6:	bd80      	pop	{r7, pc}
    53c8:	0000be74 	.word	0x0000be74

000053cc <LPSPI_CombineWriteData>:
    53cc:	b580      	push	{r7, lr}
    53ce:	b086      	sub	sp, #24
    53d0:	af00      	add	r7, sp, #0
    53d2:	60f8      	str	r0, [r7, #12]
    53d4:	60b9      	str	r1, [r7, #8]
    53d6:	4613      	mov	r3, r2
    53d8:	71fb      	strb	r3, [r7, #7]
    53da:	68fb      	ldr	r3, [r7, #12]
    53dc:	2b00      	cmp	r3, #0
    53de:	d102      	bne.n	53e6 <LPSPI_CombineWriteData+0x1a>
    53e0:	4867      	ldr	r0, [pc, #412]	; (5580 <LPSPI_CombineWriteData+0x1b4>)
    53e2:	f002 fafb 	bl	79dc <__assertion_failed>
    53e6:	2300      	movs	r3, #0
    53e8:	617b      	str	r3, [r7, #20]
    53ea:	68bb      	ldr	r3, [r7, #8]
    53ec:	3b01      	subs	r3, #1
    53ee:	2b03      	cmp	r3, #3
    53f0:	f200 80be 	bhi.w	5570 <LPSPI_CombineWriteData+0x1a4>
    53f4:	a201      	add	r2, pc, #4	; (adr r2, 53fc <LPSPI_CombineWriteData+0x30>)
    53f6:	f852 f023 	ldr.w	pc, [r2, r3, lsl #2]
    53fa:	bf00      	nop
    53fc:	0000540d 	.word	0x0000540d
    5400:	0000541b 	.word	0x0000541b
    5404:	00005469 	.word	0x00005469
    5408:	000054db 	.word	0x000054db
    540c:	68fb      	ldr	r3, [r7, #12]
    540e:	781b      	ldrb	r3, [r3, #0]
    5410:	617b      	str	r3, [r7, #20]
    5412:	68fb      	ldr	r3, [r7, #12]
    5414:	3301      	adds	r3, #1
    5416:	60fb      	str	r3, [r7, #12]
    5418:	e0ad      	b.n	5576 <LPSPI_CombineWriteData+0x1aa>
    541a:	79fb      	ldrb	r3, [r7, #7]
    541c:	f083 0301 	eor.w	r3, r3, #1
    5420:	b2db      	uxtb	r3, r3
    5422:	2b00      	cmp	r3, #0
    5424:	d00f      	beq.n	5446 <LPSPI_CombineWriteData+0x7a>
    5426:	68fb      	ldr	r3, [r7, #12]
    5428:	781b      	ldrb	r3, [r3, #0]
    542a:	617b      	str	r3, [r7, #20]
    542c:	68fb      	ldr	r3, [r7, #12]
    542e:	3301      	adds	r3, #1
    5430:	60fb      	str	r3, [r7, #12]
    5432:	68fb      	ldr	r3, [r7, #12]
    5434:	781b      	ldrb	r3, [r3, #0]
    5436:	021b      	lsls	r3, r3, #8
    5438:	697a      	ldr	r2, [r7, #20]
    543a:	4313      	orrs	r3, r2
    543c:	617b      	str	r3, [r7, #20]
    543e:	68fb      	ldr	r3, [r7, #12]
    5440:	3301      	adds	r3, #1
    5442:	60fb      	str	r3, [r7, #12]
    5444:	e097      	b.n	5576 <LPSPI_CombineWriteData+0x1aa>
    5446:	68fb      	ldr	r3, [r7, #12]
    5448:	781b      	ldrb	r3, [r3, #0]
    544a:	021b      	lsls	r3, r3, #8
    544c:	617b      	str	r3, [r7, #20]
    544e:	68fb      	ldr	r3, [r7, #12]
    5450:	3301      	adds	r3, #1
    5452:	60fb      	str	r3, [r7, #12]
    5454:	68fb      	ldr	r3, [r7, #12]
    5456:	781b      	ldrb	r3, [r3, #0]
    5458:	461a      	mov	r2, r3
    545a:	697b      	ldr	r3, [r7, #20]
    545c:	4313      	orrs	r3, r2
    545e:	617b      	str	r3, [r7, #20]
    5460:	68fb      	ldr	r3, [r7, #12]
    5462:	3301      	adds	r3, #1
    5464:	60fb      	str	r3, [r7, #12]
    5466:	e086      	b.n	5576 <LPSPI_CombineWriteData+0x1aa>
    5468:	79fb      	ldrb	r3, [r7, #7]
    546a:	f083 0301 	eor.w	r3, r3, #1
    546e:	b2db      	uxtb	r3, r3
    5470:	2b00      	cmp	r3, #0
    5472:	d018      	beq.n	54a6 <LPSPI_CombineWriteData+0xda>
    5474:	68fb      	ldr	r3, [r7, #12]
    5476:	781b      	ldrb	r3, [r3, #0]
    5478:	617b      	str	r3, [r7, #20]
    547a:	68fb      	ldr	r3, [r7, #12]
    547c:	3301      	adds	r3, #1
    547e:	60fb      	str	r3, [r7, #12]
    5480:	68fb      	ldr	r3, [r7, #12]
    5482:	781b      	ldrb	r3, [r3, #0]
    5484:	021b      	lsls	r3, r3, #8
    5486:	697a      	ldr	r2, [r7, #20]
    5488:	4313      	orrs	r3, r2
    548a:	617b      	str	r3, [r7, #20]
    548c:	68fb      	ldr	r3, [r7, #12]
    548e:	3301      	adds	r3, #1
    5490:	60fb      	str	r3, [r7, #12]
    5492:	68fb      	ldr	r3, [r7, #12]
    5494:	781b      	ldrb	r3, [r3, #0]
    5496:	041b      	lsls	r3, r3, #16
    5498:	697a      	ldr	r2, [r7, #20]
    549a:	4313      	orrs	r3, r2
    549c:	617b      	str	r3, [r7, #20]
    549e:	68fb      	ldr	r3, [r7, #12]
    54a0:	3301      	adds	r3, #1
    54a2:	60fb      	str	r3, [r7, #12]
    54a4:	e067      	b.n	5576 <LPSPI_CombineWriteData+0x1aa>
    54a6:	68fb      	ldr	r3, [r7, #12]
    54a8:	781b      	ldrb	r3, [r3, #0]
    54aa:	041b      	lsls	r3, r3, #16
    54ac:	617b      	str	r3, [r7, #20]
    54ae:	68fb      	ldr	r3, [r7, #12]
    54b0:	3301      	adds	r3, #1
    54b2:	60fb      	str	r3, [r7, #12]
    54b4:	68fb      	ldr	r3, [r7, #12]
    54b6:	781b      	ldrb	r3, [r3, #0]
    54b8:	021b      	lsls	r3, r3, #8
    54ba:	697a      	ldr	r2, [r7, #20]
    54bc:	4313      	orrs	r3, r2
    54be:	617b      	str	r3, [r7, #20]
    54c0:	68fb      	ldr	r3, [r7, #12]
    54c2:	3301      	adds	r3, #1
    54c4:	60fb      	str	r3, [r7, #12]
    54c6:	68fb      	ldr	r3, [r7, #12]
    54c8:	781b      	ldrb	r3, [r3, #0]
    54ca:	461a      	mov	r2, r3
    54cc:	697b      	ldr	r3, [r7, #20]
    54ce:	4313      	orrs	r3, r2
    54d0:	617b      	str	r3, [r7, #20]
    54d2:	68fb      	ldr	r3, [r7, #12]
    54d4:	3301      	adds	r3, #1
    54d6:	60fb      	str	r3, [r7, #12]
    54d8:	e04d      	b.n	5576 <LPSPI_CombineWriteData+0x1aa>
    54da:	79fb      	ldrb	r3, [r7, #7]
    54dc:	f083 0301 	eor.w	r3, r3, #1
    54e0:	b2db      	uxtb	r3, r3
    54e2:	2b00      	cmp	r3, #0
    54e4:	d021      	beq.n	552a <LPSPI_CombineWriteData+0x15e>
    54e6:	68fb      	ldr	r3, [r7, #12]
    54e8:	781b      	ldrb	r3, [r3, #0]
    54ea:	617b      	str	r3, [r7, #20]
    54ec:	68fb      	ldr	r3, [r7, #12]
    54ee:	3301      	adds	r3, #1
    54f0:	60fb      	str	r3, [r7, #12]
    54f2:	68fb      	ldr	r3, [r7, #12]
    54f4:	781b      	ldrb	r3, [r3, #0]
    54f6:	021b      	lsls	r3, r3, #8
    54f8:	697a      	ldr	r2, [r7, #20]
    54fa:	4313      	orrs	r3, r2
    54fc:	617b      	str	r3, [r7, #20]
    54fe:	68fb      	ldr	r3, [r7, #12]
    5500:	3301      	adds	r3, #1
    5502:	60fb      	str	r3, [r7, #12]
    5504:	68fb      	ldr	r3, [r7, #12]
    5506:	781b      	ldrb	r3, [r3, #0]
    5508:	041b      	lsls	r3, r3, #16
    550a:	697a      	ldr	r2, [r7, #20]
    550c:	4313      	orrs	r3, r2
    550e:	617b      	str	r3, [r7, #20]
    5510:	68fb      	ldr	r3, [r7, #12]
    5512:	3301      	adds	r3, #1
    5514:	60fb      	str	r3, [r7, #12]
    5516:	68fb      	ldr	r3, [r7, #12]
    5518:	781b      	ldrb	r3, [r3, #0]
    551a:	061b      	lsls	r3, r3, #24
    551c:	697a      	ldr	r2, [r7, #20]
    551e:	4313      	orrs	r3, r2
    5520:	617b      	str	r3, [r7, #20]
    5522:	68fb      	ldr	r3, [r7, #12]
    5524:	3301      	adds	r3, #1
    5526:	60fb      	str	r3, [r7, #12]
    5528:	e025      	b.n	5576 <LPSPI_CombineWriteData+0x1aa>
    552a:	68fb      	ldr	r3, [r7, #12]
    552c:	781b      	ldrb	r3, [r3, #0]
    552e:	061b      	lsls	r3, r3, #24
    5530:	617b      	str	r3, [r7, #20]
    5532:	68fb      	ldr	r3, [r7, #12]
    5534:	3301      	adds	r3, #1
    5536:	60fb      	str	r3, [r7, #12]
    5538:	68fb      	ldr	r3, [r7, #12]
    553a:	781b      	ldrb	r3, [r3, #0]
    553c:	041b      	lsls	r3, r3, #16
    553e:	697a      	ldr	r2, [r7, #20]
    5540:	4313      	orrs	r3, r2
    5542:	617b      	str	r3, [r7, #20]
    5544:	68fb      	ldr	r3, [r7, #12]
    5546:	3301      	adds	r3, #1
    5548:	60fb      	str	r3, [r7, #12]
    554a:	68fb      	ldr	r3, [r7, #12]
    554c:	781b      	ldrb	r3, [r3, #0]
    554e:	021b      	lsls	r3, r3, #8
    5550:	697a      	ldr	r2, [r7, #20]
    5552:	4313      	orrs	r3, r2
    5554:	617b      	str	r3, [r7, #20]
    5556:	68fb      	ldr	r3, [r7, #12]
    5558:	3301      	adds	r3, #1
    555a:	60fb      	str	r3, [r7, #12]
    555c:	68fb      	ldr	r3, [r7, #12]
    555e:	781b      	ldrb	r3, [r3, #0]
    5560:	461a      	mov	r2, r3
    5562:	697b      	ldr	r3, [r7, #20]
    5564:	4313      	orrs	r3, r2
    5566:	617b      	str	r3, [r7, #20]
    5568:	68fb      	ldr	r3, [r7, #12]
    556a:	3301      	adds	r3, #1
    556c:	60fb      	str	r3, [r7, #12]
    556e:	e002      	b.n	5576 <LPSPI_CombineWriteData+0x1aa>
    5570:	4804      	ldr	r0, [pc, #16]	; (5584 <LPSPI_CombineWriteData+0x1b8>)
    5572:	f002 fa33 	bl	79dc <__assertion_failed>
    5576:	697b      	ldr	r3, [r7, #20]
    5578:	4618      	mov	r0, r3
    557a:	3718      	adds	r7, #24
    557c:	46bd      	mov	sp, r7
    557e:	bd80      	pop	{r7, pc}
    5580:	0000be9c 	.word	0x0000be9c
    5584:	0000bec4 	.word	0x0000bec4

00005588 <LPSPI_SeparateReadData>:
    5588:	b580      	push	{r7, lr}
    558a:	b084      	sub	sp, #16
    558c:	af00      	add	r7, sp, #0
    558e:	60f8      	str	r0, [r7, #12]
    5590:	60b9      	str	r1, [r7, #8]
    5592:	607a      	str	r2, [r7, #4]
    5594:	70fb      	strb	r3, [r7, #3]
    5596:	68fb      	ldr	r3, [r7, #12]
    5598:	2b00      	cmp	r3, #0
    559a:	d102      	bne.n	55a2 <LPSPI_SeparateReadData+0x1a>
    559c:	4862      	ldr	r0, [pc, #392]	; (5728 <LPSPI_SeparateReadData+0x1a0>)
    559e:	f002 fa1d 	bl	79dc <__assertion_failed>
    55a2:	687b      	ldr	r3, [r7, #4]
    55a4:	3b01      	subs	r3, #1
    55a6:	2b03      	cmp	r3, #3
    55a8:	f200 80b6 	bhi.w	5718 <LPSPI_SeparateReadData+0x190>
    55ac:	a201      	add	r2, pc, #4	; (adr r2, 55b4 <LPSPI_SeparateReadData+0x2c>)
    55ae:	f852 f023 	ldr.w	pc, [r2, r3, lsl #2]
    55b2:	bf00      	nop
    55b4:	000055c5 	.word	0x000055c5
    55b8:	000055d5 	.word	0x000055d5
    55bc:	00005621 	.word	0x00005621
    55c0:	0000568d 	.word	0x0000568d
    55c4:	68bb      	ldr	r3, [r7, #8]
    55c6:	b2da      	uxtb	r2, r3
    55c8:	68fb      	ldr	r3, [r7, #12]
    55ca:	701a      	strb	r2, [r3, #0]
    55cc:	68fb      	ldr	r3, [r7, #12]
    55ce:	3301      	adds	r3, #1
    55d0:	60fb      	str	r3, [r7, #12]
    55d2:	e0a4      	b.n	571e <LPSPI_SeparateReadData+0x196>
    55d4:	78fb      	ldrb	r3, [r7, #3]
    55d6:	f083 0301 	eor.w	r3, r3, #1
    55da:	b2db      	uxtb	r3, r3
    55dc:	2b00      	cmp	r3, #0
    55de:	d00f      	beq.n	5600 <LPSPI_SeparateReadData+0x78>
    55e0:	68bb      	ldr	r3, [r7, #8]
    55e2:	b2da      	uxtb	r2, r3
    55e4:	68fb      	ldr	r3, [r7, #12]
    55e6:	701a      	strb	r2, [r3, #0]
    55e8:	68fb      	ldr	r3, [r7, #12]
    55ea:	3301      	adds	r3, #1
    55ec:	60fb      	str	r3, [r7, #12]
    55ee:	68bb      	ldr	r3, [r7, #8]
    55f0:	0a1b      	lsrs	r3, r3, #8
    55f2:	b2da      	uxtb	r2, r3
    55f4:	68fb      	ldr	r3, [r7, #12]
    55f6:	701a      	strb	r2, [r3, #0]
    55f8:	68fb      	ldr	r3, [r7, #12]
    55fa:	3301      	adds	r3, #1
    55fc:	60fb      	str	r3, [r7, #12]
    55fe:	e08e      	b.n	571e <LPSPI_SeparateReadData+0x196>
    5600:	68bb      	ldr	r3, [r7, #8]
    5602:	0a1b      	lsrs	r3, r3, #8
    5604:	b2da      	uxtb	r2, r3
    5606:	68fb      	ldr	r3, [r7, #12]
    5608:	701a      	strb	r2, [r3, #0]
    560a:	68fb      	ldr	r3, [r7, #12]
    560c:	3301      	adds	r3, #1
    560e:	60fb      	str	r3, [r7, #12]
    5610:	68bb      	ldr	r3, [r7, #8]
    5612:	b2da      	uxtb	r2, r3
    5614:	68fb      	ldr	r3, [r7, #12]
    5616:	701a      	strb	r2, [r3, #0]
    5618:	68fb      	ldr	r3, [r7, #12]
    561a:	3301      	adds	r3, #1
    561c:	60fb      	str	r3, [r7, #12]
    561e:	e07e      	b.n	571e <LPSPI_SeparateReadData+0x196>
    5620:	78fb      	ldrb	r3, [r7, #3]
    5622:	f083 0301 	eor.w	r3, r3, #1
    5626:	b2db      	uxtb	r3, r3
    5628:	2b00      	cmp	r3, #0
    562a:	d017      	beq.n	565c <LPSPI_SeparateReadData+0xd4>
    562c:	68bb      	ldr	r3, [r7, #8]
    562e:	b2da      	uxtb	r2, r3
    5630:	68fb      	ldr	r3, [r7, #12]
    5632:	701a      	strb	r2, [r3, #0]
    5634:	68fb      	ldr	r3, [r7, #12]
    5636:	3301      	adds	r3, #1
    5638:	60fb      	str	r3, [r7, #12]
    563a:	68bb      	ldr	r3, [r7, #8]
    563c:	0a1b      	lsrs	r3, r3, #8
    563e:	b2da      	uxtb	r2, r3
    5640:	68fb      	ldr	r3, [r7, #12]
    5642:	701a      	strb	r2, [r3, #0]
    5644:	68fb      	ldr	r3, [r7, #12]
    5646:	3301      	adds	r3, #1
    5648:	60fb      	str	r3, [r7, #12]
    564a:	68bb      	ldr	r3, [r7, #8]
    564c:	0c1b      	lsrs	r3, r3, #16
    564e:	b2da      	uxtb	r2, r3
    5650:	68fb      	ldr	r3, [r7, #12]
    5652:	701a      	strb	r2, [r3, #0]
    5654:	68fb      	ldr	r3, [r7, #12]
    5656:	3301      	adds	r3, #1
    5658:	60fb      	str	r3, [r7, #12]
    565a:	e060      	b.n	571e <LPSPI_SeparateReadData+0x196>
    565c:	68bb      	ldr	r3, [r7, #8]
    565e:	0c1b      	lsrs	r3, r3, #16
    5660:	b2da      	uxtb	r2, r3
    5662:	68fb      	ldr	r3, [r7, #12]
    5664:	701a      	strb	r2, [r3, #0]
    5666:	68fb      	ldr	r3, [r7, #12]
    5668:	3301      	adds	r3, #1
    566a:	60fb      	str	r3, [r7, #12]
    566c:	68bb      	ldr	r3, [r7, #8]
    566e:	0a1b      	lsrs	r3, r3, #8
    5670:	b2da      	uxtb	r2, r3
    5672:	68fb      	ldr	r3, [r7, #12]
    5674:	701a      	strb	r2, [r3, #0]
    5676:	68fb      	ldr	r3, [r7, #12]
    5678:	3301      	adds	r3, #1
    567a:	60fb      	str	r3, [r7, #12]
    567c:	68bb      	ldr	r3, [r7, #8]
    567e:	b2da      	uxtb	r2, r3
    5680:	68fb      	ldr	r3, [r7, #12]
    5682:	701a      	strb	r2, [r3, #0]
    5684:	68fb      	ldr	r3, [r7, #12]
    5686:	3301      	adds	r3, #1
    5688:	60fb      	str	r3, [r7, #12]
    568a:	e048      	b.n	571e <LPSPI_SeparateReadData+0x196>
    568c:	78fb      	ldrb	r3, [r7, #3]
    568e:	f083 0301 	eor.w	r3, r3, #1
    5692:	b2db      	uxtb	r3, r3
    5694:	2b00      	cmp	r3, #0
    5696:	d01f      	beq.n	56d8 <LPSPI_SeparateReadData+0x150>
    5698:	68bb      	ldr	r3, [r7, #8]
    569a:	b2da      	uxtb	r2, r3
    569c:	68fb      	ldr	r3, [r7, #12]
    569e:	701a      	strb	r2, [r3, #0]
    56a0:	68fb      	ldr	r3, [r7, #12]
    56a2:	3301      	adds	r3, #1
    56a4:	60fb      	str	r3, [r7, #12]
    56a6:	68bb      	ldr	r3, [r7, #8]
    56a8:	0a1b      	lsrs	r3, r3, #8
    56aa:	b2da      	uxtb	r2, r3
    56ac:	68fb      	ldr	r3, [r7, #12]
    56ae:	701a      	strb	r2, [r3, #0]
    56b0:	68fb      	ldr	r3, [r7, #12]
    56b2:	3301      	adds	r3, #1
    56b4:	60fb      	str	r3, [r7, #12]
    56b6:	68bb      	ldr	r3, [r7, #8]
    56b8:	0c1b      	lsrs	r3, r3, #16
    56ba:	b2da      	uxtb	r2, r3
    56bc:	68fb      	ldr	r3, [r7, #12]
    56be:	701a      	strb	r2, [r3, #0]
    56c0:	68fb      	ldr	r3, [r7, #12]
    56c2:	3301      	adds	r3, #1
    56c4:	60fb      	str	r3, [r7, #12]
    56c6:	68bb      	ldr	r3, [r7, #8]
    56c8:	0e1b      	lsrs	r3, r3, #24
    56ca:	b2da      	uxtb	r2, r3
    56cc:	68fb      	ldr	r3, [r7, #12]
    56ce:	701a      	strb	r2, [r3, #0]
    56d0:	68fb      	ldr	r3, [r7, #12]
    56d2:	3301      	adds	r3, #1
    56d4:	60fb      	str	r3, [r7, #12]
    56d6:	e022      	b.n	571e <LPSPI_SeparateReadData+0x196>
    56d8:	68bb      	ldr	r3, [r7, #8]
    56da:	0e1b      	lsrs	r3, r3, #24
    56dc:	b2da      	uxtb	r2, r3
    56de:	68fb      	ldr	r3, [r7, #12]
    56e0:	701a      	strb	r2, [r3, #0]
    56e2:	68fb      	ldr	r3, [r7, #12]
    56e4:	3301      	adds	r3, #1
    56e6:	60fb      	str	r3, [r7, #12]
    56e8:	68bb      	ldr	r3, [r7, #8]
    56ea:	0c1b      	lsrs	r3, r3, #16
    56ec:	b2da      	uxtb	r2, r3
    56ee:	68fb      	ldr	r3, [r7, #12]
    56f0:	701a      	strb	r2, [r3, #0]
    56f2:	68fb      	ldr	r3, [r7, #12]
    56f4:	3301      	adds	r3, #1
    56f6:	60fb      	str	r3, [r7, #12]
    56f8:	68bb      	ldr	r3, [r7, #8]
    56fa:	0a1b      	lsrs	r3, r3, #8
    56fc:	b2da      	uxtb	r2, r3
    56fe:	68fb      	ldr	r3, [r7, #12]
    5700:	701a      	strb	r2, [r3, #0]
    5702:	68fb      	ldr	r3, [r7, #12]
    5704:	3301      	adds	r3, #1
    5706:	60fb      	str	r3, [r7, #12]
    5708:	68bb      	ldr	r3, [r7, #8]
    570a:	b2da      	uxtb	r2, r3
    570c:	68fb      	ldr	r3, [r7, #12]
    570e:	701a      	strb	r2, [r3, #0]
    5710:	68fb      	ldr	r3, [r7, #12]
    5712:	3301      	adds	r3, #1
    5714:	60fb      	str	r3, [r7, #12]
    5716:	e002      	b.n	571e <LPSPI_SeparateReadData+0x196>
    5718:	4804      	ldr	r0, [pc, #16]	; (572c <LPSPI_SeparateReadData+0x1a4>)
    571a:	f002 f95f 	bl	79dc <__assertion_failed>
    571e:	bf00      	nop
    5720:	3710      	adds	r7, #16
    5722:	46bd      	mov	sp, r7
    5724:	bd80      	pop	{r7, pc}
    5726:	bf00      	nop
    5728:	0000bee8 	.word	0x0000bee8
    572c:	0000bf10 	.word	0x0000bf10

00005730 <LPSPI_CommonIRQHandler>:
    5730:	b580      	push	{r7, lr}
    5732:	b082      	sub	sp, #8
    5734:	af00      	add	r7, sp, #0
    5736:	6078      	str	r0, [r7, #4]
    5738:	6039      	str	r1, [r7, #0]
    573a:	6878      	ldr	r0, [r7, #4]
    573c:	f003 fdc8 	bl	92d0 <LPSPI_IsMaster>
    5740:	4603      	mov	r3, r0
    5742:	2b00      	cmp	r3, #0
    5744:	d005      	beq.n	5752 <LPSPI_CommonIRQHandler+0x22>
    5746:	4b07      	ldr	r3, [pc, #28]	; (5764 <LPSPI_CommonIRQHandler+0x34>)
    5748:	681b      	ldr	r3, [r3, #0]
    574a:	6839      	ldr	r1, [r7, #0]
    574c:	6878      	ldr	r0, [r7, #4]
    574e:	4798      	blx	r3
    5750:	e004      	b.n	575c <LPSPI_CommonIRQHandler+0x2c>
    5752:	4b05      	ldr	r3, [pc, #20]	; (5768 <LPSPI_CommonIRQHandler+0x38>)
    5754:	681b      	ldr	r3, [r3, #0]
    5756:	6839      	ldr	r1, [r7, #0]
    5758:	6878      	ldr	r0, [r7, #4]
    575a:	4798      	blx	r3
    575c:	bf00      	nop
    575e:	3708      	adds	r7, #8
    5760:	46bd      	mov	sp, r7
    5762:	bd80      	pop	{r7, pc}
    5764:	20000984 	.word	0x20000984
    5768:	20000988 	.word	0x20000988

0000576c <LPSPI1_DriverIRQHandler>:
    576c:	b580      	push	{r7, lr}
    576e:	af00      	add	r7, sp, #0
    5770:	4b07      	ldr	r3, [pc, #28]	; (5790 <LPSPI1_DriverIRQHandler+0x24>)
    5772:	685b      	ldr	r3, [r3, #4]
    5774:	2b00      	cmp	r3, #0
    5776:	d102      	bne.n	577e <LPSPI1_DriverIRQHandler+0x12>
    5778:	4806      	ldr	r0, [pc, #24]	; (5794 <LPSPI1_DriverIRQHandler+0x28>)
    577a:	f002 f92f 	bl	79dc <__assertion_failed>
    577e:	4b04      	ldr	r3, [pc, #16]	; (5790 <LPSPI1_DriverIRQHandler+0x24>)
    5780:	685b      	ldr	r3, [r3, #4]
    5782:	4619      	mov	r1, r3
    5784:	4804      	ldr	r0, [pc, #16]	; (5798 <LPSPI1_DriverIRQHandler+0x2c>)
    5786:	f7ff ffd3 	bl	5730 <LPSPI_CommonIRQHandler>
    578a:	bf00      	nop
    578c:	bd80      	pop	{r7, pc}
    578e:	bf00      	nop
    5790:	20000970 	.word	0x20000970
    5794:	0000bf34 	.word	0x0000bf34
    5798:	40394000 	.word	0x40394000

0000579c <LPSPI2_DriverIRQHandler>:
    579c:	b580      	push	{r7, lr}
    579e:	af00      	add	r7, sp, #0
    57a0:	4b07      	ldr	r3, [pc, #28]	; (57c0 <LPSPI2_DriverIRQHandler+0x24>)
    57a2:	689b      	ldr	r3, [r3, #8]
    57a4:	2b00      	cmp	r3, #0
    57a6:	d102      	bne.n	57ae <LPSPI2_DriverIRQHandler+0x12>
    57a8:	4806      	ldr	r0, [pc, #24]	; (57c4 <LPSPI2_DriverIRQHandler+0x28>)
    57aa:	f002 f917 	bl	79dc <__assertion_failed>
    57ae:	4b04      	ldr	r3, [pc, #16]	; (57c0 <LPSPI2_DriverIRQHandler+0x24>)
    57b0:	689b      	ldr	r3, [r3, #8]
    57b2:	4619      	mov	r1, r3
    57b4:	4804      	ldr	r0, [pc, #16]	; (57c8 <LPSPI2_DriverIRQHandler+0x2c>)
    57b6:	f7ff ffbb 	bl	5730 <LPSPI_CommonIRQHandler>
    57ba:	bf00      	nop
    57bc:	bd80      	pop	{r7, pc}
    57be:	bf00      	nop
    57c0:	20000970 	.word	0x20000970
    57c4:	0000bf64 	.word	0x0000bf64
    57c8:	40398000 	.word	0x40398000

000057cc <LPSPI3_DriverIRQHandler>:
    57cc:	b580      	push	{r7, lr}
    57ce:	af00      	add	r7, sp, #0
    57d0:	4b07      	ldr	r3, [pc, #28]	; (57f0 <LPSPI3_DriverIRQHandler+0x24>)
    57d2:	68db      	ldr	r3, [r3, #12]
    57d4:	2b00      	cmp	r3, #0
    57d6:	d102      	bne.n	57de <LPSPI3_DriverIRQHandler+0x12>
    57d8:	4806      	ldr	r0, [pc, #24]	; (57f4 <LPSPI3_DriverIRQHandler+0x28>)
    57da:	f002 f8ff 	bl	79dc <__assertion_failed>
    57de:	4b04      	ldr	r3, [pc, #16]	; (57f0 <LPSPI3_DriverIRQHandler+0x24>)
    57e0:	68db      	ldr	r3, [r3, #12]
    57e2:	4619      	mov	r1, r3
    57e4:	4804      	ldr	r0, [pc, #16]	; (57f8 <LPSPI3_DriverIRQHandler+0x2c>)
    57e6:	f7ff ffa3 	bl	5730 <LPSPI_CommonIRQHandler>
    57ea:	bf00      	nop
    57ec:	bd80      	pop	{r7, pc}
    57ee:	bf00      	nop
    57f0:	20000970 	.word	0x20000970
    57f4:	0000bf94 	.word	0x0000bf94
    57f8:	4039c000 	.word	0x4039c000

000057fc <LPSPI4_DriverIRQHandler>:
    57fc:	b580      	push	{r7, lr}
    57fe:	af00      	add	r7, sp, #0
    5800:	4b07      	ldr	r3, [pc, #28]	; (5820 <LPSPI4_DriverIRQHandler+0x24>)
    5802:	691b      	ldr	r3, [r3, #16]
    5804:	2b00      	cmp	r3, #0
    5806:	d102      	bne.n	580e <LPSPI4_DriverIRQHandler+0x12>
    5808:	4806      	ldr	r0, [pc, #24]	; (5824 <LPSPI4_DriverIRQHandler+0x28>)
    580a:	f002 f8e7 	bl	79dc <__assertion_failed>
    580e:	4b04      	ldr	r3, [pc, #16]	; (5820 <LPSPI4_DriverIRQHandler+0x24>)
    5810:	691b      	ldr	r3, [r3, #16]
    5812:	4619      	mov	r1, r3
    5814:	4804      	ldr	r0, [pc, #16]	; (5828 <LPSPI4_DriverIRQHandler+0x2c>)
    5816:	f7ff ff8b 	bl	5730 <LPSPI_CommonIRQHandler>
    581a:	bf00      	nop
    581c:	bd80      	pop	{r7, pc}
    581e:	bf00      	nop
    5820:	20000970 	.word	0x20000970
    5824:	0000bfc4 	.word	0x0000bfc4
    5828:	403a0000 	.word	0x403a0000

0000582c <CLOCK_ControlGate>:
    582c:	b580      	push	{r7, lr}
    582e:	b086      	sub	sp, #24
    5830:	af00      	add	r7, sp, #0
    5832:	4603      	mov	r3, r0
    5834:	460a      	mov	r2, r1
    5836:	80fb      	strh	r3, [r7, #6]
    5838:	4613      	mov	r3, r2
    583a:	717b      	strb	r3, [r7, #5]
    583c:	f9b7 3006 	ldrsh.w	r3, [r7, #6]
    5840:	0a1b      	lsrs	r3, r3, #8
    5842:	617b      	str	r3, [r7, #20]
    5844:	88fb      	ldrh	r3, [r7, #6]
    5846:	f003 031f 	and.w	r3, r3, #31
    584a:	613b      	str	r3, [r7, #16]
    584c:	697b      	ldr	r3, [r7, #20]
    584e:	2b07      	cmp	r3, #7
    5850:	d902      	bls.n	5858 <CLOCK_ControlGate+0x2c>
    5852:	480d      	ldr	r0, [pc, #52]	; (5888 <CLOCK_ControlGate+0x5c>)
    5854:	f002 f8c2 	bl	79dc <__assertion_failed>
    5858:	697b      	ldr	r3, [r7, #20]
    585a:	009a      	lsls	r2, r3, #2
    585c:	4b0b      	ldr	r3, [pc, #44]	; (588c <CLOCK_ControlGate+0x60>)
    585e:	4413      	add	r3, r2
    5860:	60fb      	str	r3, [r7, #12]
    5862:	68fb      	ldr	r3, [r7, #12]
    5864:	681a      	ldr	r2, [r3, #0]
    5866:	2103      	movs	r1, #3
    5868:	693b      	ldr	r3, [r7, #16]
    586a:	fa01 f303 	lsl.w	r3, r1, r3
    586e:	43db      	mvns	r3, r3
    5870:	401a      	ands	r2, r3
    5872:	7979      	ldrb	r1, [r7, #5]
    5874:	693b      	ldr	r3, [r7, #16]
    5876:	fa01 f303 	lsl.w	r3, r1, r3
    587a:	431a      	orrs	r2, r3
    587c:	68fb      	ldr	r3, [r7, #12]
    587e:	601a      	str	r2, [r3, #0]
    5880:	bf00      	nop
    5882:	3718      	adds	r7, #24
    5884:	46bd      	mov	sp, r7
    5886:	bd80      	pop	{r7, pc}
    5888:	0000c028 	.word	0x0000c028
    588c:	400fc068 	.word	0x400fc068

00005890 <LPSPIx_GetVersion>:
    5890:	b480      	push	{r7}
    5892:	b083      	sub	sp, #12
    5894:	af00      	add	r7, sp, #0
    5896:	4b08      	ldr	r3, [pc, #32]	; (58b8 <LPSPIx_GetVersion+0x28>)
    5898:	681b      	ldr	r3, [r3, #0]
    589a:	607b      	str	r3, [r7, #4]
    589c:	2300      	movs	r3, #0
    589e:	88ba      	ldrh	r2, [r7, #4]
    58a0:	f362 030f 	bfi	r3, r2, #0, #16
    58a4:	88fa      	ldrh	r2, [r7, #6]
    58a6:	f362 431f 	bfi	r3, r2, #16, #16
    58aa:	4618      	mov	r0, r3
    58ac:	370c      	adds	r7, #12
    58ae:	46bd      	mov	sp, r7
    58b0:	f85d 7b04 	ldr.w	r7, [sp], #4
    58b4:	4770      	bx	lr
    58b6:	bf00      	nop
    58b8:	0000c060 	.word	0x0000c060

000058bc <LPSPI_InterruptPowerControl>:
    58bc:	b580      	push	{r7, lr}
    58be:	b082      	sub	sp, #8
    58c0:	af00      	add	r7, sp, #0
    58c2:	4603      	mov	r3, r0
    58c4:	6039      	str	r1, [r7, #0]
    58c6:	71fb      	strb	r3, [r7, #7]
    58c8:	79fb      	ldrb	r3, [r7, #7]
    58ca:	2b01      	cmp	r3, #1
    58cc:	d013      	beq.n	58f6 <LPSPI_InterruptPowerControl+0x3a>
    58ce:	2b02      	cmp	r3, #2
    58d0:	d014      	beq.n	58fc <LPSPI_InterruptPowerControl+0x40>
    58d2:	2b00      	cmp	r3, #0
    58d4:	d130      	bne.n	5938 <LPSPI_InterruptPowerControl+0x7c>
    58d6:	683b      	ldr	r3, [r7, #0]
    58d8:	7c1b      	ldrb	r3, [r3, #16]
    58da:	f003 0302 	and.w	r3, r3, #2
    58de:	2b00      	cmp	r3, #0
    58e0:	d02d      	beq.n	593e <LPSPI_InterruptPowerControl+0x82>
    58e2:	683b      	ldr	r3, [r7, #0]
    58e4:	681b      	ldr	r3, [r3, #0]
    58e6:	681b      	ldr	r3, [r3, #0]
    58e8:	4618      	mov	r0, r3
    58ea:	f7fe fdb3 	bl	4454 <LPSPI_Deinit>
    58ee:	683b      	ldr	r3, [r7, #0]
    58f0:	2201      	movs	r2, #1
    58f2:	741a      	strb	r2, [r3, #16]
    58f4:	e023      	b.n	593e <LPSPI_InterruptPowerControl+0x82>
    58f6:	f06f 0303 	mvn.w	r3, #3
    58fa:	e024      	b.n	5946 <LPSPI_InterruptPowerControl+0x8a>
    58fc:	683b      	ldr	r3, [r7, #0]
    58fe:	7c1b      	ldrb	r3, [r3, #16]
    5900:	2b00      	cmp	r3, #0
    5902:	d102      	bne.n	590a <LPSPI_InterruptPowerControl+0x4e>
    5904:	f04f 33ff 	mov.w	r3, #4294967295
    5908:	e01d      	b.n	5946 <LPSPI_InterruptPowerControl+0x8a>
    590a:	683b      	ldr	r3, [r7, #0]
    590c:	7c1b      	ldrb	r3, [r3, #16]
    590e:	f003 0302 	and.w	r3, r3, #2
    5912:	2b00      	cmp	r3, #0
    5914:	d115      	bne.n	5942 <LPSPI_InterruptPowerControl+0x86>
    5916:	683b      	ldr	r3, [r7, #0]
    5918:	681b      	ldr	r3, [r3, #0]
    591a:	685b      	ldr	r3, [r3, #4]
    591c:	4a0c      	ldr	r2, [pc, #48]	; (5950 <LPSPI_InterruptPowerControl+0x94>)
    591e:	f932 3013 	ldrsh.w	r3, [r2, r3, lsl #1]
    5922:	4618      	mov	r0, r3
    5924:	f003 fd6a 	bl	93fc <CLOCK_EnableClock>
    5928:	683b      	ldr	r3, [r7, #0]
    592a:	7c1b      	ldrb	r3, [r3, #16]
    592c:	f043 0302 	orr.w	r3, r3, #2
    5930:	b2da      	uxtb	r2, r3
    5932:	683b      	ldr	r3, [r7, #0]
    5934:	741a      	strb	r2, [r3, #16]
    5936:	e005      	b.n	5944 <LPSPI_InterruptPowerControl+0x88>
    5938:	f06f 0303 	mvn.w	r3, #3
    593c:	e003      	b.n	5946 <LPSPI_InterruptPowerControl+0x8a>
    593e:	bf00      	nop
    5940:	e000      	b.n	5944 <LPSPI_InterruptPowerControl+0x88>
    5942:	bf00      	nop
    5944:	2300      	movs	r3, #0
    5946:	4618      	mov	r0, r3
    5948:	3708      	adds	r7, #8
    594a:	46bd      	mov	sp, r7
    594c:	bd80      	pop	{r7, pc}
    594e:	bf00      	nop
    5950:	0000c054 	.word	0x0000c054

00005954 <LPSPI_InterruptControl>:
    5954:	b590      	push	{r4, r7, lr}
    5956:	b087      	sub	sp, #28
    5958:	af00      	add	r7, sp, #0
    595a:	60f8      	str	r0, [r7, #12]
    595c:	60b9      	str	r1, [r7, #8]
    595e:	607a      	str	r2, [r7, #4]
    5960:	687b      	ldr	r3, [r7, #4]
    5962:	7c1b      	ldrb	r3, [r3, #16]
    5964:	f003 0302 	and.w	r3, r3, #2
    5968:	2b00      	cmp	r3, #0
    596a:	d102      	bne.n	5972 <LPSPI_InterruptControl+0x1e>
    596c:	f04f 33ff 	mov.w	r3, #4294967295
    5970:	e11a      	b.n	5ba8 <LPSPI_InterruptControl+0x254>
    5972:	68fb      	ldr	r3, [r7, #12]
    5974:	b2db      	uxtb	r3, r3
    5976:	2b14      	cmp	r3, #20
    5978:	f200 810b 	bhi.w	5b92 <LPSPI_InterruptControl+0x23e>
    597c:	a201      	add	r2, pc, #4	; (adr r2, 5984 <LPSPI_InterruptControl+0x30>)
    597e:	f852 f023 	ldr.w	pc, [r2, r3, lsl #2]
    5982:	bf00      	nop
    5984:	000059d9 	.word	0x000059d9
    5988:	000059eb 	.word	0x000059eb
    598c:	00005a17 	.word	0x00005a17
    5990:	00005b41 	.word	0x00005b41
    5994:	00005b6d 	.word	0x00005b6d
    5998:	00005b93 	.word	0x00005b93
    599c:	00005b93 	.word	0x00005b93
    59a0:	00005b93 	.word	0x00005b93
    59a4:	00005b93 	.word	0x00005b93
    59a8:	00005b93 	.word	0x00005b93
    59ac:	00005b93 	.word	0x00005b93
    59b0:	00005b93 	.word	0x00005b93
    59b4:	00005b93 	.word	0x00005b93
    59b8:	00005b93 	.word	0x00005b93
    59bc:	00005b93 	.word	0x00005b93
    59c0:	00005b93 	.word	0x00005b93
    59c4:	00005a3d 	.word	0x00005a3d
    59c8:	00005aad 	.word	0x00005aad
    59cc:	00005b13 	.word	0x00005b13
    59d0:	00005ad1 	.word	0x00005ad1
    59d4:	00005ad7 	.word	0x00005ad7
    59d8:	687b      	ldr	r3, [r7, #4]
    59da:	681b      	ldr	r3, [r3, #0]
    59dc:	681b      	ldr	r3, [r3, #0]
    59de:	2100      	movs	r1, #0
    59e0:	4618      	mov	r0, r3
    59e2:	f003 fd1a 	bl	941a <LPSPI_Enable>
    59e6:	2300      	movs	r3, #0
    59e8:	e0de      	b.n	5ba8 <LPSPI_InterruptControl+0x254>
    59ea:	687b      	ldr	r3, [r7, #4]
    59ec:	681b      	ldr	r3, [r3, #0]
    59ee:	681b      	ldr	r3, [r3, #0]
    59f0:	2101      	movs	r1, #1
    59f2:	4618      	mov	r0, r3
    59f4:	f003 fd2d 	bl	9452 <LPSPI_SetMasterSlaveMode>
    59f8:	687b      	ldr	r3, [r7, #4]
    59fa:	681b      	ldr	r3, [r3, #0]
    59fc:	6818      	ldr	r0, [r3, #0]
    59fe:	687b      	ldr	r3, [r7, #4]
    5a00:	685b      	ldr	r3, [r3, #4]
    5a02:	4619      	mov	r1, r3
    5a04:	687b      	ldr	r3, [r7, #4]
    5a06:	689b      	ldr	r3, [r3, #8]
    5a08:	4a69      	ldr	r2, [pc, #420]	; (5bb0 <LPSPI_InterruptControl+0x25c>)
    5a0a:	f7fe fdeb 	bl	45e4 <LPSPI_MasterTransferCreateHandle>
    5a0e:	687b      	ldr	r3, [r7, #4]
    5a10:	68ba      	ldr	r2, [r7, #8]
    5a12:	60da      	str	r2, [r3, #12]
    5a14:	e0be      	b.n	5b94 <LPSPI_InterruptControl+0x240>
    5a16:	687b      	ldr	r3, [r7, #4]
    5a18:	681b      	ldr	r3, [r3, #0]
    5a1a:	681b      	ldr	r3, [r3, #0]
    5a1c:	2100      	movs	r1, #0
    5a1e:	4618      	mov	r0, r3
    5a20:	f003 fd17 	bl	9452 <LPSPI_SetMasterSlaveMode>
    5a24:	687b      	ldr	r3, [r7, #4]
    5a26:	681b      	ldr	r3, [r3, #0]
    5a28:	6818      	ldr	r0, [r3, #0]
    5a2a:	687b      	ldr	r3, [r7, #4]
    5a2c:	685b      	ldr	r3, [r3, #4]
    5a2e:	4619      	mov	r1, r3
    5a30:	687b      	ldr	r3, [r7, #4]
    5a32:	689b      	ldr	r3, [r3, #8]
    5a34:	4a5f      	ldr	r2, [pc, #380]	; (5bb4 <LPSPI_InterruptControl+0x260>)
    5a36:	f7ff f963 	bl	4d00 <LPSPI_SlaveTransferCreateHandle>
    5a3a:	e0ab      	b.n	5b94 <LPSPI_InterruptControl+0x240>
    5a3c:	2300      	movs	r3, #0
    5a3e:	617b      	str	r3, [r7, #20]
    5a40:	687b      	ldr	r3, [r7, #4]
    5a42:	681b      	ldr	r3, [r3, #0]
    5a44:	681b      	ldr	r3, [r3, #0]
    5a46:	2100      	movs	r1, #0
    5a48:	4618      	mov	r0, r3
    5a4a:	f003 fce6 	bl	941a <LPSPI_Enable>
    5a4e:	687b      	ldr	r3, [r7, #4]
    5a50:	681b      	ldr	r3, [r3, #0]
    5a52:	681b      	ldr	r3, [r3, #0]
    5a54:	4618      	mov	r0, r3
    5a56:	f003 fd12 	bl	947e <LPSPI_IsMaster>
    5a5a:	4603      	mov	r3, r0
    5a5c:	f083 0301 	eor.w	r3, r3, #1
    5a60:	b2db      	uxtb	r3, r3
    5a62:	2b00      	cmp	r3, #0
    5a64:	d002      	beq.n	5a6c <LPSPI_InterruptControl+0x118>
    5a66:	f06f 0303 	mvn.w	r3, #3
    5a6a:	e09d      	b.n	5ba8 <LPSPI_InterruptControl+0x254>
    5a6c:	687b      	ldr	r3, [r7, #4]
    5a6e:	681b      	ldr	r3, [r3, #0]
    5a70:	681c      	ldr	r4, [r3, #0]
    5a72:	687b      	ldr	r3, [r7, #4]
    5a74:	681b      	ldr	r3, [r3, #0]
    5a76:	689b      	ldr	r3, [r3, #8]
    5a78:	4798      	blx	r3
    5a7a:	4602      	mov	r2, r0
    5a7c:	f107 0314 	add.w	r3, r7, #20
    5a80:	68b9      	ldr	r1, [r7, #8]
    5a82:	4620      	mov	r0, r4
    5a84:	f7fe fcfe 	bl	4484 <LPSPI_MasterSetBaudRate>
    5a88:	4603      	mov	r3, r0
    5a8a:	2b00      	cmp	r3, #0
    5a8c:	d102      	bne.n	5a94 <LPSPI_InterruptControl+0x140>
    5a8e:	f04f 33ff 	mov.w	r3, #4294967295
    5a92:	e089      	b.n	5ba8 <LPSPI_InterruptControl+0x254>
    5a94:	687b      	ldr	r3, [r7, #4]
    5a96:	681b      	ldr	r3, [r3, #0]
    5a98:	681b      	ldr	r3, [r3, #0]
    5a9a:	2101      	movs	r1, #1
    5a9c:	4618      	mov	r0, r3
    5a9e:	f003 fcbc 	bl	941a <LPSPI_Enable>
    5aa2:	687b      	ldr	r3, [r7, #4]
    5aa4:	68ba      	ldr	r2, [r7, #8]
    5aa6:	60da      	str	r2, [r3, #12]
    5aa8:	2300      	movs	r3, #0
    5aaa:	e07d      	b.n	5ba8 <LPSPI_InterruptControl+0x254>
    5aac:	687b      	ldr	r3, [r7, #4]
    5aae:	681b      	ldr	r3, [r3, #0]
    5ab0:	681b      	ldr	r3, [r3, #0]
    5ab2:	4618      	mov	r0, r3
    5ab4:	f003 fce3 	bl	947e <LPSPI_IsMaster>
    5ab8:	4603      	mov	r3, r0
    5aba:	f083 0301 	eor.w	r3, r3, #1
    5abe:	b2db      	uxtb	r3, r3
    5ac0:	2b00      	cmp	r3, #0
    5ac2:	d002      	beq.n	5aca <LPSPI_InterruptControl+0x176>
    5ac4:	f06f 0303 	mvn.w	r3, #3
    5ac8:	e06e      	b.n	5ba8 <LPSPI_InterruptControl+0x254>
    5aca:	687b      	ldr	r3, [r7, #4]
    5acc:	68db      	ldr	r3, [r3, #12]
    5ace:	e06b      	b.n	5ba8 <LPSPI_InterruptControl+0x254>
    5ad0:	f06f 0303 	mvn.w	r3, #3
    5ad4:	e068      	b.n	5ba8 <LPSPI_InterruptControl+0x254>
    5ad6:	687b      	ldr	r3, [r7, #4]
    5ad8:	681b      	ldr	r3, [r3, #0]
    5ada:	681b      	ldr	r3, [r3, #0]
    5adc:	4618      	mov	r0, r3
    5ade:	f003 fcce 	bl	947e <LPSPI_IsMaster>
    5ae2:	4603      	mov	r3, r0
    5ae4:	2b00      	cmp	r3, #0
    5ae6:	d009      	beq.n	5afc <LPSPI_InterruptControl+0x1a8>
    5ae8:	687b      	ldr	r3, [r7, #4]
    5aea:	681b      	ldr	r3, [r3, #0]
    5aec:	681a      	ldr	r2, [r3, #0]
    5aee:	687b      	ldr	r3, [r7, #4]
    5af0:	685b      	ldr	r3, [r3, #4]
    5af2:	4619      	mov	r1, r3
    5af4:	4610      	mov	r0, r2
    5af6:	f7ff f80f 	bl	4b18 <LPSPI_MasterTransferAbort>
    5afa:	e008      	b.n	5b0e <LPSPI_InterruptControl+0x1ba>
    5afc:	687b      	ldr	r3, [r7, #4]
    5afe:	681b      	ldr	r3, [r3, #0]
    5b00:	681a      	ldr	r2, [r3, #0]
    5b02:	687b      	ldr	r3, [r7, #4]
    5b04:	685b      	ldr	r3, [r3, #4]
    5b06:	4619      	mov	r1, r3
    5b08:	4610      	mov	r0, r2
    5b0a:	f7ff fb15 	bl	5138 <LPSPI_SlaveTransferAbort>
    5b0e:	2300      	movs	r3, #0
    5b10:	e04a      	b.n	5ba8 <LPSPI_InterruptControl+0x254>
    5b12:	687b      	ldr	r3, [r7, #4]
    5b14:	681b      	ldr	r3, [r3, #0]
    5b16:	681b      	ldr	r3, [r3, #0]
    5b18:	4618      	mov	r0, r3
    5b1a:	f003 fcb0 	bl	947e <LPSPI_IsMaster>
    5b1e:	4603      	mov	r3, r0
    5b20:	2b00      	cmp	r3, #0
    5b22:	d00a      	beq.n	5b3a <LPSPI_InterruptControl+0x1e6>
    5b24:	687b      	ldr	r3, [r7, #4]
    5b26:	681b      	ldr	r3, [r3, #0]
    5b28:	681b      	ldr	r3, [r3, #0]
    5b2a:	68ba      	ldr	r2, [r7, #8]
    5b2c:	b2d2      	uxtb	r2, r2
    5b2e:	4611      	mov	r1, r2
    5b30:	4618      	mov	r0, r3
    5b32:	f7fe fb11 	bl	4158 <LPSPI_SetDummyData>
    5b36:	2300      	movs	r3, #0
    5b38:	e036      	b.n	5ba8 <LPSPI_InterruptControl+0x254>
    5b3a:	f06f 0303 	mvn.w	r3, #3
    5b3e:	e033      	b.n	5ba8 <LPSPI_InterruptControl+0x254>
    5b40:	687b      	ldr	r3, [r7, #4]
    5b42:	681b      	ldr	r3, [r3, #0]
    5b44:	681b      	ldr	r3, [r3, #0]
    5b46:	2101      	movs	r1, #1
    5b48:	4618      	mov	r0, r3
    5b4a:	f003 fc82 	bl	9452 <LPSPI_SetMasterSlaveMode>
    5b4e:	687b      	ldr	r3, [r7, #4]
    5b50:	681b      	ldr	r3, [r3, #0]
    5b52:	6818      	ldr	r0, [r3, #0]
    5b54:	687b      	ldr	r3, [r7, #4]
    5b56:	685b      	ldr	r3, [r3, #4]
    5b58:	4619      	mov	r1, r3
    5b5a:	687b      	ldr	r3, [r7, #4]
    5b5c:	689b      	ldr	r3, [r3, #8]
    5b5e:	4a14      	ldr	r2, [pc, #80]	; (5bb0 <LPSPI_InterruptControl+0x25c>)
    5b60:	f7fe fd40 	bl	45e4 <LPSPI_MasterTransferCreateHandle>
    5b64:	687b      	ldr	r3, [r7, #4]
    5b66:	68ba      	ldr	r2, [r7, #8]
    5b68:	60da      	str	r2, [r3, #12]
    5b6a:	e013      	b.n	5b94 <LPSPI_InterruptControl+0x240>
    5b6c:	687b      	ldr	r3, [r7, #4]
    5b6e:	681b      	ldr	r3, [r3, #0]
    5b70:	681b      	ldr	r3, [r3, #0]
    5b72:	2100      	movs	r1, #0
    5b74:	4618      	mov	r0, r3
    5b76:	f003 fc6c 	bl	9452 <LPSPI_SetMasterSlaveMode>
    5b7a:	687b      	ldr	r3, [r7, #4]
    5b7c:	681b      	ldr	r3, [r3, #0]
    5b7e:	6818      	ldr	r0, [r3, #0]
    5b80:	687b      	ldr	r3, [r7, #4]
    5b82:	685b      	ldr	r3, [r3, #4]
    5b84:	4619      	mov	r1, r3
    5b86:	687b      	ldr	r3, [r7, #4]
    5b88:	689b      	ldr	r3, [r3, #8]
    5b8a:	4a0a      	ldr	r2, [pc, #40]	; (5bb4 <LPSPI_InterruptControl+0x260>)
    5b8c:	f7ff f8b8 	bl	4d00 <LPSPI_SlaveTransferCreateHandle>
    5b90:	e000      	b.n	5b94 <LPSPI_InterruptControl+0x240>
    5b92:	bf00      	nop
    5b94:	687b      	ldr	r3, [r7, #4]
    5b96:	68d9      	ldr	r1, [r3, #12]
    5b98:	687b      	ldr	r3, [r7, #4]
    5b9a:	681a      	ldr	r2, [r3, #0]
    5b9c:	687b      	ldr	r3, [r7, #4]
    5b9e:	3310      	adds	r3, #16
    5ba0:	68f8      	ldr	r0, [r7, #12]
    5ba2:	f003 fc7f 	bl	94a4 <LPSPI_CommonControl>
    5ba6:	4603      	mov	r3, r0
    5ba8:	4618      	mov	r0, r3
    5baa:	371c      	adds	r7, #28
    5bac:	46bd      	mov	sp, r7
    5bae:	bd90      	pop	{r4, r7, pc}
    5bb0:	00009845 	.word	0x00009845
    5bb4:	0000988f 	.word	0x0000988f

00005bb8 <LPSPI4_InterruptInitialize>:
    5bb8:	b580      	push	{r7, lr}
    5bba:	b082      	sub	sp, #8
    5bbc:	af00      	add	r7, sp, #0
    5bbe:	6078      	str	r0, [r7, #4]
    5bc0:	f001 fe56 	bl	7870 <LPSPI4_InitPins>
    5bc4:	4904      	ldr	r1, [pc, #16]	; (5bd8 <LPSPI4_InterruptInitialize+0x20>)
    5bc6:	6878      	ldr	r0, [r7, #4]
    5bc8:	f003 fe85 	bl	98d6 <LPSPI_InterruptInitialize>
    5bcc:	4603      	mov	r3, r0
    5bce:	4618      	mov	r0, r3
    5bd0:	3708      	adds	r7, #8
    5bd2:	46bd      	mov	sp, r7
    5bd4:	bd80      	pop	{r7, pc}
    5bd6:	bf00      	nop
    5bd8:	20000060 	.word	0x20000060

00005bdc <LPSPI4_InterruptUninitialize>:
    5bdc:	b580      	push	{r7, lr}
    5bde:	af00      	add	r7, sp, #0
    5be0:	f001 feb2 	bl	7948 <LPSPI4_DeinitPins>
    5be4:	4802      	ldr	r0, [pc, #8]	; (5bf0 <LPSPI4_InterruptUninitialize+0x14>)
    5be6:	f003 fe8e 	bl	9906 <LPSPI_InterruptUninitialize>
    5bea:	4603      	mov	r3, r0
    5bec:	4618      	mov	r0, r3
    5bee:	bd80      	pop	{r7, pc}
    5bf0:	20000060 	.word	0x20000060

00005bf4 <LPSPI4_InterruptPowerControl>:
    5bf4:	b580      	push	{r7, lr}
    5bf6:	b082      	sub	sp, #8
    5bf8:	af00      	add	r7, sp, #0
    5bfa:	4603      	mov	r3, r0
    5bfc:	71fb      	strb	r3, [r7, #7]
    5bfe:	79fb      	ldrb	r3, [r7, #7]
    5c00:	4904      	ldr	r1, [pc, #16]	; (5c14 <LPSPI4_InterruptPowerControl+0x20>)
    5c02:	4618      	mov	r0, r3
    5c04:	f7ff fe5a 	bl	58bc <LPSPI_InterruptPowerControl>
    5c08:	4603      	mov	r3, r0
    5c0a:	4618      	mov	r0, r3
    5c0c:	3708      	adds	r7, #8
    5c0e:	46bd      	mov	sp, r7
    5c10:	bd80      	pop	{r7, pc}
    5c12:	bf00      	nop
    5c14:	20000060 	.word	0x20000060

00005c18 <LPSPI4_InterruptSend>:
    5c18:	b580      	push	{r7, lr}
    5c1a:	b082      	sub	sp, #8
    5c1c:	af00      	add	r7, sp, #0
    5c1e:	6078      	str	r0, [r7, #4]
    5c20:	6039      	str	r1, [r7, #0]
    5c22:	4a05      	ldr	r2, [pc, #20]	; (5c38 <LPSPI4_InterruptSend+0x20>)
    5c24:	6839      	ldr	r1, [r7, #0]
    5c26:	6878      	ldr	r0, [r7, #4]
    5c28:	f003 fe7b 	bl	9922 <LPSPI_InterruptSend>
    5c2c:	4603      	mov	r3, r0
    5c2e:	4618      	mov	r0, r3
    5c30:	3708      	adds	r7, #8
    5c32:	46bd      	mov	sp, r7
    5c34:	bd80      	pop	{r7, pc}
    5c36:	bf00      	nop
    5c38:	20000060 	.word	0x20000060

00005c3c <LPSPI4_InterruptReceive>:
    5c3c:	b580      	push	{r7, lr}
    5c3e:	b082      	sub	sp, #8
    5c40:	af00      	add	r7, sp, #0
    5c42:	6078      	str	r0, [r7, #4]
    5c44:	6039      	str	r1, [r7, #0]
    5c46:	4a05      	ldr	r2, [pc, #20]	; (5c5c <LPSPI4_InterruptReceive+0x20>)
    5c48:	6839      	ldr	r1, [r7, #0]
    5c4a:	6878      	ldr	r0, [r7, #4]
    5c4c:	f003 fecc 	bl	99e8 <LPSPI_InterruptReceive>
    5c50:	4603      	mov	r3, r0
    5c52:	4618      	mov	r0, r3
    5c54:	3708      	adds	r7, #8
    5c56:	46bd      	mov	sp, r7
    5c58:	bd80      	pop	{r7, pc}
    5c5a:	bf00      	nop
    5c5c:	20000060 	.word	0x20000060

00005c60 <LPSPI4_InterruptTransfer>:
    5c60:	b580      	push	{r7, lr}
    5c62:	b084      	sub	sp, #16
    5c64:	af00      	add	r7, sp, #0
    5c66:	60f8      	str	r0, [r7, #12]
    5c68:	60b9      	str	r1, [r7, #8]
    5c6a:	607a      	str	r2, [r7, #4]
    5c6c:	4b05      	ldr	r3, [pc, #20]	; (5c84 <LPSPI4_InterruptTransfer+0x24>)
    5c6e:	687a      	ldr	r2, [r7, #4]
    5c70:	68b9      	ldr	r1, [r7, #8]
    5c72:	68f8      	ldr	r0, [r7, #12]
    5c74:	f003 ff1b 	bl	9aae <LPSPI_InterruptTransfer>
    5c78:	4603      	mov	r3, r0
    5c7a:	4618      	mov	r0, r3
    5c7c:	3710      	adds	r7, #16
    5c7e:	46bd      	mov	sp, r7
    5c80:	bd80      	pop	{r7, pc}
    5c82:	bf00      	nop
    5c84:	20000060 	.word	0x20000060

00005c88 <LPSPI4_InterruptGetCount>:
    5c88:	b580      	push	{r7, lr}
    5c8a:	af00      	add	r7, sp, #0
    5c8c:	4802      	ldr	r0, [pc, #8]	; (5c98 <LPSPI4_InterruptGetCount+0x10>)
    5c8e:	f003 ff72 	bl	9b76 <LPSPI_InterruptGetCount>
    5c92:	4603      	mov	r3, r0
    5c94:	4618      	mov	r0, r3
    5c96:	bd80      	pop	{r7, pc}
    5c98:	20000060 	.word	0x20000060

00005c9c <LPSPI4_InterruptControl>:
    5c9c:	b580      	push	{r7, lr}
    5c9e:	b082      	sub	sp, #8
    5ca0:	af00      	add	r7, sp, #0
    5ca2:	6078      	str	r0, [r7, #4]
    5ca4:	6039      	str	r1, [r7, #0]
    5ca6:	4a05      	ldr	r2, [pc, #20]	; (5cbc <LPSPI4_InterruptControl+0x20>)
    5ca8:	6839      	ldr	r1, [r7, #0]
    5caa:	6878      	ldr	r0, [r7, #4]
    5cac:	f7ff fe52 	bl	5954 <LPSPI_InterruptControl>
    5cb0:	4603      	mov	r3, r0
    5cb2:	4618      	mov	r0, r3
    5cb4:	3708      	adds	r7, #8
    5cb6:	46bd      	mov	sp, r7
    5cb8:	bd80      	pop	{r7, pc}
    5cba:	bf00      	nop
    5cbc:	20000060 	.word	0x20000060

00005cc0 <LPSPI4_InterruptGetStatus>:
    5cc0:	b580      	push	{r7, lr}
    5cc2:	af00      	add	r7, sp, #0
    5cc4:	4802      	ldr	r0, [pc, #8]	; (5cd0 <LPSPI4_InterruptGetStatus+0x10>)
    5cc6:	f003 ff76 	bl	9bb6 <LPSPI_InterruptGetStatus>
    5cca:	4603      	mov	r3, r0
    5ccc:	4618      	mov	r0, r3
    5cce:	bd80      	pop	{r7, pc}
    5cd0:	20000060 	.word	0x20000060

00005cd4 <CLOCK_ControlGate>:
    5cd4:	b580      	push	{r7, lr}
    5cd6:	b086      	sub	sp, #24
    5cd8:	af00      	add	r7, sp, #0
    5cda:	4603      	mov	r3, r0
    5cdc:	460a      	mov	r2, r1
    5cde:	80fb      	strh	r3, [r7, #6]
    5ce0:	4613      	mov	r3, r2
    5ce2:	717b      	strb	r3, [r7, #5]
    5ce4:	f9b7 3006 	ldrsh.w	r3, [r7, #6]
    5ce8:	0a1b      	lsrs	r3, r3, #8
    5cea:	617b      	str	r3, [r7, #20]
    5cec:	88fb      	ldrh	r3, [r7, #6]
    5cee:	f003 031f 	and.w	r3, r3, #31
    5cf2:	613b      	str	r3, [r7, #16]
    5cf4:	697b      	ldr	r3, [r7, #20]
    5cf6:	2b07      	cmp	r3, #7
    5cf8:	d902      	bls.n	5d00 <CLOCK_ControlGate+0x2c>
    5cfa:	480d      	ldr	r0, [pc, #52]	; (5d30 <CLOCK_ControlGate+0x5c>)
    5cfc:	f001 fe6e 	bl	79dc <__assertion_failed>
    5d00:	697b      	ldr	r3, [r7, #20]
    5d02:	009a      	lsls	r2, r3, #2
    5d04:	4b0b      	ldr	r3, [pc, #44]	; (5d34 <CLOCK_ControlGate+0x60>)
    5d06:	4413      	add	r3, r2
    5d08:	60fb      	str	r3, [r7, #12]
    5d0a:	68fb      	ldr	r3, [r7, #12]
    5d0c:	681a      	ldr	r2, [r3, #0]
    5d0e:	2103      	movs	r1, #3
    5d10:	693b      	ldr	r3, [r7, #16]
    5d12:	fa01 f303 	lsl.w	r3, r1, r3
    5d16:	43db      	mvns	r3, r3
    5d18:	401a      	ands	r2, r3
    5d1a:	7979      	ldrb	r1, [r7, #5]
    5d1c:	693b      	ldr	r3, [r7, #16]
    5d1e:	fa01 f303 	lsl.w	r3, r1, r3
    5d22:	431a      	orrs	r2, r3
    5d24:	68fb      	ldr	r3, [r7, #12]
    5d26:	601a      	str	r2, [r3, #0]
    5d28:	bf00      	nop
    5d2a:	3718      	adds	r7, #24
    5d2c:	46bd      	mov	sp, r7
    5d2e:	bd80      	pop	{r7, pc}
    5d30:	0000c09c 	.word	0x0000c09c
    5d34:	400fc068 	.word	0x400fc068

00005d38 <LPUART_GetInstance>:
    5d38:	b580      	push	{r7, lr}
    5d3a:	b084      	sub	sp, #16
    5d3c:	af00      	add	r7, sp, #0
    5d3e:	6078      	str	r0, [r7, #4]
    5d40:	2300      	movs	r3, #0
    5d42:	60fb      	str	r3, [r7, #12]
    5d44:	e009      	b.n	5d5a <LPUART_GetInstance+0x22>
    5d46:	4a0d      	ldr	r2, [pc, #52]	; (5d7c <LPUART_GetInstance+0x44>)
    5d48:	68fb      	ldr	r3, [r7, #12]
    5d4a:	f852 3023 	ldr.w	r3, [r2, r3, lsl #2]
    5d4e:	687a      	ldr	r2, [r7, #4]
    5d50:	429a      	cmp	r2, r3
    5d52:	d006      	beq.n	5d62 <LPUART_GetInstance+0x2a>
    5d54:	68fb      	ldr	r3, [r7, #12]
    5d56:	3301      	adds	r3, #1
    5d58:	60fb      	str	r3, [r7, #12]
    5d5a:	68fb      	ldr	r3, [r7, #12]
    5d5c:	2b08      	cmp	r3, #8
    5d5e:	d9f2      	bls.n	5d46 <LPUART_GetInstance+0xe>
    5d60:	e000      	b.n	5d64 <LPUART_GetInstance+0x2c>
    5d62:	bf00      	nop
    5d64:	68fb      	ldr	r3, [r7, #12]
    5d66:	2b08      	cmp	r3, #8
    5d68:	d902      	bls.n	5d70 <LPUART_GetInstance+0x38>
    5d6a:	4805      	ldr	r0, [pc, #20]	; (5d80 <LPUART_GetInstance+0x48>)
    5d6c:	f001 fe36 	bl	79dc <__assertion_failed>
    5d70:	68fb      	ldr	r3, [r7, #12]
    5d72:	4618      	mov	r0, r3
    5d74:	3710      	adds	r7, #16
    5d76:	46bd      	mov	sp, r7
    5d78:	bd80      	pop	{r7, pc}
    5d7a:	bf00      	nop
    5d7c:	0000c750 	.word	0x0000c750
    5d80:	0000c0c8 	.word	0x0000c0c8

00005d84 <LPUART_Init>:
    5d84:	b580      	push	{r7, lr}
    5d86:	b08c      	sub	sp, #48	; 0x30
    5d88:	af00      	add	r7, sp, #0
    5d8a:	60f8      	str	r0, [r7, #12]
    5d8c:	60b9      	str	r1, [r7, #8]
    5d8e:	607a      	str	r2, [r7, #4]
    5d90:	68bb      	ldr	r3, [r7, #8]
    5d92:	2b00      	cmp	r3, #0
    5d94:	d102      	bne.n	5d9c <LPUART_Init+0x18>
    5d96:	489f      	ldr	r0, [pc, #636]	; (6014 <LPUART_Init+0x290>)
    5d98:	f001 fe20 	bl	79dc <__assertion_failed>
    5d9c:	68bb      	ldr	r3, [r7, #8]
    5d9e:	681b      	ldr	r3, [r3, #0]
    5da0:	2b00      	cmp	r3, #0
    5da2:	d102      	bne.n	5daa <LPUART_Init+0x26>
    5da4:	489c      	ldr	r0, [pc, #624]	; (6018 <LPUART_Init+0x294>)
    5da6:	f001 fe19 	bl	79dc <__assertion_failed>
    5daa:	68bb      	ldr	r3, [r7, #8]
    5dac:	7a1b      	ldrb	r3, [r3, #8]
    5dae:	2b04      	cmp	r3, #4
    5db0:	d902      	bls.n	5db8 <LPUART_Init+0x34>
    5db2:	489a      	ldr	r0, [pc, #616]	; (601c <LPUART_Init+0x298>)
    5db4:	f001 fe12 	bl	79dc <__assertion_failed>
    5db8:	68bb      	ldr	r3, [r7, #8]
    5dba:	7a5b      	ldrb	r3, [r3, #9]
    5dbc:	2b04      	cmp	r3, #4
    5dbe:	d902      	bls.n	5dc6 <LPUART_Init+0x42>
    5dc0:	4897      	ldr	r0, [pc, #604]	; (6020 <LPUART_Init+0x29c>)
    5dc2:	f001 fe0b 	bl	79dc <__assertion_failed>
    5dc6:	68bb      	ldr	r3, [r7, #8]
    5dc8:	681b      	ldr	r3, [r3, #0]
    5dca:	61bb      	str	r3, [r7, #24]
    5dcc:	2300      	movs	r3, #0
    5dce:	627b      	str	r3, [r7, #36]	; 0x24
    5dd0:	2300      	movs	r3, #0
    5dd2:	857b      	strh	r3, [r7, #42]	; 0x2a
    5dd4:	2304      	movs	r3, #4
    5dd6:	623b      	str	r3, [r7, #32]
    5dd8:	e044      	b.n	5e64 <LPUART_Init+0xe0>
    5dda:	68bb      	ldr	r3, [r7, #8]
    5ddc:	681b      	ldr	r3, [r3, #0]
    5dde:	6a3a      	ldr	r2, [r7, #32]
    5de0:	fb02 f303 	mul.w	r3, r2, r3
    5de4:	687a      	ldr	r2, [r7, #4]
    5de6:	fbb2 f3f3 	udiv	r3, r2, r3
    5dea:	853b      	strh	r3, [r7, #40]	; 0x28
    5dec:	8d3b      	ldrh	r3, [r7, #40]	; 0x28
    5dee:	2b00      	cmp	r3, #0
    5df0:	d101      	bne.n	5df6 <LPUART_Init+0x72>
    5df2:	2301      	movs	r3, #1
    5df4:	853b      	strh	r3, [r7, #40]	; 0x28
    5df6:	8d3b      	ldrh	r3, [r7, #40]	; 0x28
    5df8:	6a3a      	ldr	r2, [r7, #32]
    5dfa:	fb02 f303 	mul.w	r3, r2, r3
    5dfe:	687a      	ldr	r2, [r7, #4]
    5e00:	fbb2 f3f3 	udiv	r3, r2, r3
    5e04:	617b      	str	r3, [r7, #20]
    5e06:	68bb      	ldr	r3, [r7, #8]
    5e08:	681b      	ldr	r3, [r3, #0]
    5e0a:	697a      	ldr	r2, [r7, #20]
    5e0c:	1ad3      	subs	r3, r2, r3
    5e0e:	61fb      	str	r3, [r7, #28]
    5e10:	68bb      	ldr	r3, [r7, #8]
    5e12:	681a      	ldr	r2, [r3, #0]
    5e14:	8d3b      	ldrh	r3, [r7, #40]	; 0x28
    5e16:	3301      	adds	r3, #1
    5e18:	6a39      	ldr	r1, [r7, #32]
    5e1a:	fb01 f303 	mul.w	r3, r1, r3
    5e1e:	6879      	ldr	r1, [r7, #4]
    5e20:	fbb1 f3f3 	udiv	r3, r1, r3
    5e24:	1ad3      	subs	r3, r2, r3
    5e26:	69fa      	ldr	r2, [r7, #28]
    5e28:	429a      	cmp	r2, r3
    5e2a:	d90e      	bls.n	5e4a <LPUART_Init+0xc6>
    5e2c:	68bb      	ldr	r3, [r7, #8]
    5e2e:	681a      	ldr	r2, [r3, #0]
    5e30:	8d3b      	ldrh	r3, [r7, #40]	; 0x28
    5e32:	3301      	adds	r3, #1
    5e34:	6a39      	ldr	r1, [r7, #32]
    5e36:	fb01 f303 	mul.w	r3, r1, r3
    5e3a:	6879      	ldr	r1, [r7, #4]
    5e3c:	fbb1 f3f3 	udiv	r3, r1, r3
    5e40:	1ad3      	subs	r3, r2, r3
    5e42:	61fb      	str	r3, [r7, #28]
    5e44:	8d3b      	ldrh	r3, [r7, #40]	; 0x28
    5e46:	3301      	adds	r3, #1
    5e48:	853b      	strh	r3, [r7, #40]	; 0x28
    5e4a:	69fa      	ldr	r2, [r7, #28]
    5e4c:	69bb      	ldr	r3, [r7, #24]
    5e4e:	429a      	cmp	r2, r3
    5e50:	d805      	bhi.n	5e5e <LPUART_Init+0xda>
    5e52:	69fb      	ldr	r3, [r7, #28]
    5e54:	61bb      	str	r3, [r7, #24]
    5e56:	6a3b      	ldr	r3, [r7, #32]
    5e58:	627b      	str	r3, [r7, #36]	; 0x24
    5e5a:	8d3b      	ldrh	r3, [r7, #40]	; 0x28
    5e5c:	857b      	strh	r3, [r7, #42]	; 0x2a
    5e5e:	6a3b      	ldr	r3, [r7, #32]
    5e60:	3301      	adds	r3, #1
    5e62:	623b      	str	r3, [r7, #32]
    5e64:	6a3b      	ldr	r3, [r7, #32]
    5e66:	2b20      	cmp	r3, #32
    5e68:	d9b7      	bls.n	5dda <LPUART_Init+0x56>
    5e6a:	68bb      	ldr	r3, [r7, #8]
    5e6c:	681b      	ldr	r3, [r3, #0]
    5e6e:	4a6d      	ldr	r2, [pc, #436]	; (6024 <LPUART_Init+0x2a0>)
    5e70:	fba2 2303 	umull	r2, r3, r2, r3
    5e74:	095a      	lsrs	r2, r3, #5
    5e76:	4613      	mov	r3, r2
    5e78:	005b      	lsls	r3, r3, #1
    5e7a:	4413      	add	r3, r2
    5e7c:	69ba      	ldr	r2, [r7, #24]
    5e7e:	429a      	cmp	r2, r3
    5e80:	d902      	bls.n	5e88 <LPUART_Init+0x104>
    5e82:	f240 5321 	movw	r3, #1313	; 0x521
    5e86:	e0f8      	b.n	607a <LPUART_Init+0x2f6>
    5e88:	68f8      	ldr	r0, [r7, #12]
    5e8a:	f7ff ff55 	bl	5d38 <LPUART_GetInstance>
    5e8e:	6138      	str	r0, [r7, #16]
    5e90:	4a65      	ldr	r2, [pc, #404]	; (6028 <LPUART_Init+0x2a4>)
    5e92:	693b      	ldr	r3, [r7, #16]
    5e94:	f932 3013 	ldrsh.w	r3, [r2, r3, lsl #1]
    5e98:	4618      	mov	r0, r3
    5e9a:	f003 fee5 	bl	9c68 <CLOCK_EnableClock>
    5e9e:	68f8      	ldr	r0, [r7, #12]
    5ea0:	f003 fef1 	bl	9c86 <LPUART_SoftwareReset>
    5ea4:	68fb      	ldr	r3, [r7, #12]
    5ea6:	691b      	ldr	r3, [r3, #16]
    5ea8:	62fb      	str	r3, [r7, #44]	; 0x2c
    5eaa:	6a7b      	ldr	r3, [r7, #36]	; 0x24
    5eac:	2b03      	cmp	r3, #3
    5eae:	d906      	bls.n	5ebe <LPUART_Init+0x13a>
    5eb0:	6a7b      	ldr	r3, [r7, #36]	; 0x24
    5eb2:	2b07      	cmp	r3, #7
    5eb4:	d803      	bhi.n	5ebe <LPUART_Init+0x13a>
    5eb6:	6afb      	ldr	r3, [r7, #44]	; 0x2c
    5eb8:	f443 3300 	orr.w	r3, r3, #131072	; 0x20000
    5ebc:	62fb      	str	r3, [r7, #44]	; 0x2c
    5ebe:	6afb      	ldr	r3, [r7, #44]	; 0x2c
    5ec0:	f023 53f8 	bic.w	r3, r3, #520093696	; 0x1f000000
    5ec4:	62fb      	str	r3, [r7, #44]	; 0x2c
    5ec6:	6a7b      	ldr	r3, [r7, #36]	; 0x24
    5ec8:	3b01      	subs	r3, #1
    5eca:	061b      	lsls	r3, r3, #24
    5ecc:	f003 53f8 	and.w	r3, r3, #520093696	; 0x1f000000
    5ed0:	6afa      	ldr	r2, [r7, #44]	; 0x2c
    5ed2:	4313      	orrs	r3, r2
    5ed4:	62fb      	str	r3, [r7, #44]	; 0x2c
    5ed6:	6afa      	ldr	r2, [r7, #44]	; 0x2c
    5ed8:	4b54      	ldr	r3, [pc, #336]	; (602c <LPUART_Init+0x2a8>)
    5eda:	4013      	ands	r3, r2
    5edc:	62fb      	str	r3, [r7, #44]	; 0x2c
    5ede:	8d7b      	ldrh	r3, [r7, #42]	; 0x2a
    5ee0:	f3c3 020c 	ubfx	r2, r3, #0, #13
    5ee4:	6afb      	ldr	r3, [r7, #44]	; 0x2c
    5ee6:	431a      	orrs	r2, r3
    5ee8:	68fb      	ldr	r3, [r7, #12]
    5eea:	611a      	str	r2, [r3, #16]
    5eec:	68fb      	ldr	r3, [r7, #12]
    5eee:	691b      	ldr	r3, [r3, #16]
    5ef0:	f023 5200 	bic.w	r2, r3, #536870912	; 0x20000000
    5ef4:	68fb      	ldr	r3, [r7, #12]
    5ef6:	611a      	str	r2, [r3, #16]
    5ef8:	68fb      	ldr	r3, [r7, #12]
    5efa:	699a      	ldr	r2, [r3, #24]
    5efc:	4b4c      	ldr	r3, [pc, #304]	; (6030 <LPUART_Init+0x2ac>)
    5efe:	4013      	ands	r3, r2
    5f00:	62fb      	str	r3, [r7, #44]	; 0x2c
    5f02:	68bb      	ldr	r3, [r7, #8]
    5f04:	791b      	ldrb	r3, [r3, #4]
    5f06:	461a      	mov	r2, r3
    5f08:	68bb      	ldr	r3, [r7, #8]
    5f0a:	7bdb      	ldrb	r3, [r3, #15]
    5f0c:	021b      	lsls	r3, r3, #8
    5f0e:	f403 63e0 	and.w	r3, r3, #1792	; 0x700
    5f12:	431a      	orrs	r2, r3
    5f14:	68bb      	ldr	r3, [r7, #8]
    5f16:	7b9b      	ldrb	r3, [r3, #14]
    5f18:	009b      	lsls	r3, r3, #2
    5f1a:	f003 0304 	and.w	r3, r3, #4
    5f1e:	4313      	orrs	r3, r2
    5f20:	6afa      	ldr	r2, [r7, #44]	; 0x2c
    5f22:	4313      	orrs	r3, r2
    5f24:	62fb      	str	r3, [r7, #44]	; 0x2c
    5f26:	68bb      	ldr	r3, [r7, #8]
    5f28:	795b      	ldrb	r3, [r3, #5]
    5f2a:	2b01      	cmp	r3, #1
    5f2c:	d10d      	bne.n	5f4a <LPUART_Init+0x1c6>
    5f2e:	68bb      	ldr	r3, [r7, #8]
    5f30:	791b      	ldrb	r3, [r3, #4]
    5f32:	2b00      	cmp	r3, #0
    5f34:	d004      	beq.n	5f40 <LPUART_Init+0x1bc>
    5f36:	6afb      	ldr	r3, [r7, #44]	; 0x2c
    5f38:	f423 6300 	bic.w	r3, r3, #2048	; 0x800
    5f3c:	62fb      	str	r3, [r7, #44]	; 0x2c
    5f3e:	e00c      	b.n	5f5a <LPUART_Init+0x1d6>
    5f40:	6afb      	ldr	r3, [r7, #44]	; 0x2c
    5f42:	f443 6300 	orr.w	r3, r3, #2048	; 0x800
    5f46:	62fb      	str	r3, [r7, #44]	; 0x2c
    5f48:	e007      	b.n	5f5a <LPUART_Init+0x1d6>
    5f4a:	68bb      	ldr	r3, [r7, #8]
    5f4c:	791b      	ldrb	r3, [r3, #4]
    5f4e:	2b00      	cmp	r3, #0
    5f50:	d003      	beq.n	5f5a <LPUART_Init+0x1d6>
    5f52:	6afb      	ldr	r3, [r7, #44]	; 0x2c
    5f54:	f043 0310 	orr.w	r3, r3, #16
    5f58:	62fb      	str	r3, [r7, #44]	; 0x2c
    5f5a:	68fb      	ldr	r3, [r7, #12]
    5f5c:	6afa      	ldr	r2, [r7, #44]	; 0x2c
    5f5e:	619a      	str	r2, [r3, #24]
    5f60:	68fb      	ldr	r3, [r7, #12]
    5f62:	691b      	ldr	r3, [r3, #16]
    5f64:	f423 5300 	bic.w	r3, r3, #8192	; 0x2000
    5f68:	62fb      	str	r3, [r7, #44]	; 0x2c
    5f6a:	68bb      	ldr	r3, [r7, #8]
    5f6c:	79db      	ldrb	r3, [r3, #7]
    5f6e:	035b      	lsls	r3, r3, #13
    5f70:	f403 5200 	and.w	r2, r3, #8192	; 0x2000
    5f74:	6afb      	ldr	r3, [r7, #44]	; 0x2c
    5f76:	431a      	orrs	r2, r3
    5f78:	68fb      	ldr	r3, [r7, #12]
    5f7a:	611a      	str	r2, [r3, #16]
    5f7c:	68bb      	ldr	r3, [r7, #8]
    5f7e:	7a5b      	ldrb	r3, [r3, #9]
    5f80:	041b      	lsls	r3, r3, #16
    5f82:	68ba      	ldr	r2, [r7, #8]
    5f84:	7a12      	ldrb	r2, [r2, #8]
    5f86:	431a      	orrs	r2, r3
    5f88:	68fb      	ldr	r3, [r7, #12]
    5f8a:	62da      	str	r2, [r3, #44]	; 0x2c
    5f8c:	68fb      	ldr	r3, [r7, #12]
    5f8e:	6a9b      	ldr	r3, [r3, #40]	; 0x28
    5f90:	f043 0288 	orr.w	r2, r3, #136	; 0x88
    5f94:	68fb      	ldr	r3, [r7, #12]
    5f96:	629a      	str	r2, [r3, #40]	; 0x28
    5f98:	68fb      	ldr	r3, [r7, #12]
    5f9a:	6a9b      	ldr	r3, [r3, #40]	; 0x28
    5f9c:	f443 4240 	orr.w	r2, r3, #49152	; 0xc000
    5fa0:	68fb      	ldr	r3, [r7, #12]
    5fa2:	629a      	str	r2, [r3, #40]	; 0x28
    5fa4:	4b23      	ldr	r3, [pc, #140]	; (6034 <LPUART_Init+0x2b0>)
    5fa6:	62fb      	str	r3, [r7, #44]	; 0x2c
    5fa8:	6afb      	ldr	r3, [r7, #44]	; 0x2c
    5faa:	f043 4300 	orr.w	r3, r3, #2147483648	; 0x80000000
    5fae:	62fb      	str	r3, [r7, #44]	; 0x2c
    5fb0:	6afb      	ldr	r3, [r7, #44]	; 0x2c
    5fb2:	f443 4340 	orr.w	r3, r3, #49152	; 0xc000
    5fb6:	62fb      	str	r3, [r7, #44]	; 0x2c
    5fb8:	68fb      	ldr	r3, [r7, #12]
    5fba:	6a5a      	ldr	r2, [r3, #36]	; 0x24
    5fbc:	68bb      	ldr	r3, [r7, #8]
    5fbe:	7b5b      	ldrb	r3, [r3, #13]
    5fc0:	011b      	lsls	r3, r3, #4
    5fc2:	f003 0110 	and.w	r1, r3, #16
    5fc6:	68bb      	ldr	r3, [r7, #8]
    5fc8:	7b1b      	ldrb	r3, [r3, #12]
    5fca:	015b      	lsls	r3, r3, #5
    5fcc:	f003 0320 	and.w	r3, r3, #32
    5fd0:	430b      	orrs	r3, r1
    5fd2:	431a      	orrs	r2, r3
    5fd4:	68fb      	ldr	r3, [r7, #12]
    5fd6:	625a      	str	r2, [r3, #36]	; 0x24
    5fd8:	68bb      	ldr	r3, [r7, #8]
    5fda:	7a9b      	ldrb	r3, [r3, #10]
    5fdc:	2b00      	cmp	r3, #0
    5fde:	d005      	beq.n	5fec <LPUART_Init+0x268>
    5fe0:	68fb      	ldr	r3, [r7, #12]
    5fe2:	6a5b      	ldr	r3, [r3, #36]	; 0x24
    5fe4:	f043 0208 	orr.w	r2, r3, #8
    5fe8:	68fb      	ldr	r3, [r7, #12]
    5fea:	625a      	str	r2, [r3, #36]	; 0x24
    5fec:	68bb      	ldr	r3, [r7, #8]
    5fee:	7adb      	ldrb	r3, [r3, #11]
    5ff0:	2b00      	cmp	r3, #0
    5ff2:	d005      	beq.n	6000 <LPUART_Init+0x27c>
    5ff4:	68fb      	ldr	r3, [r7, #12]
    5ff6:	6a5b      	ldr	r3, [r3, #36]	; 0x24
    5ff8:	f043 0201 	orr.w	r2, r3, #1
    5ffc:	68fb      	ldr	r3, [r7, #12]
    5ffe:	625a      	str	r2, [r3, #36]	; 0x24
    6000:	68bb      	ldr	r3, [r7, #8]
    6002:	799b      	ldrb	r3, [r3, #6]
    6004:	2b00      	cmp	r3, #0
    6006:	d017      	beq.n	6038 <LPUART_Init+0x2b4>
    6008:	6afb      	ldr	r3, [r7, #44]	; 0x2c
    600a:	f043 5300 	orr.w	r3, r3, #536870912	; 0x20000000
    600e:	62fb      	str	r3, [r7, #44]	; 0x2c
    6010:	e016      	b.n	6040 <LPUART_Init+0x2bc>
    6012:	bf00      	nop
    6014:	0000c1c4 	.word	0x0000c1c4
    6018:	0000c1f4 	.word	0x0000c1f4
    601c:	0000c22c 	.word	0x0000c22c
    6020:	0000c294 	.word	0x0000c294
    6024:	51eb851f 	.word	0x51eb851f
    6028:	0000c774 	.word	0x0000c774
    602c:	ffffe000 	.word	0xffffe000
    6030:	fffff8e8 	.word	0xfffff8e8
    6034:	401f0000 	.word	0x401f0000
    6038:	6afb      	ldr	r3, [r7, #44]	; 0x2c
    603a:	f023 5300 	bic.w	r3, r3, #536870912	; 0x20000000
    603e:	62fb      	str	r3, [r7, #44]	; 0x2c
    6040:	68fb      	ldr	r3, [r7, #12]
    6042:	695a      	ldr	r2, [r3, #20]
    6044:	6afb      	ldr	r3, [r7, #44]	; 0x2c
    6046:	431a      	orrs	r2, r3
    6048:	68fb      	ldr	r3, [r7, #12]
    604a:	615a      	str	r2, [r3, #20]
    604c:	68fb      	ldr	r3, [r7, #12]
    604e:	699b      	ldr	r3, [r3, #24]
    6050:	62fb      	str	r3, [r7, #44]	; 0x2c
    6052:	68bb      	ldr	r3, [r7, #8]
    6054:	7c1b      	ldrb	r3, [r3, #16]
    6056:	2b00      	cmp	r3, #0
    6058:	d003      	beq.n	6062 <LPUART_Init+0x2de>
    605a:	6afb      	ldr	r3, [r7, #44]	; 0x2c
    605c:	f443 2300 	orr.w	r3, r3, #524288	; 0x80000
    6060:	62fb      	str	r3, [r7, #44]	; 0x2c
    6062:	68bb      	ldr	r3, [r7, #8]
    6064:	7c5b      	ldrb	r3, [r3, #17]
    6066:	2b00      	cmp	r3, #0
    6068:	d003      	beq.n	6072 <LPUART_Init+0x2ee>
    606a:	6afb      	ldr	r3, [r7, #44]	; 0x2c
    606c:	f443 2380 	orr.w	r3, r3, #262144	; 0x40000
    6070:	62fb      	str	r3, [r7, #44]	; 0x2c
    6072:	68fb      	ldr	r3, [r7, #12]
    6074:	6afa      	ldr	r2, [r7, #44]	; 0x2c
    6076:	619a      	str	r2, [r3, #24]
    6078:	2300      	movs	r3, #0
    607a:	4618      	mov	r0, r3
    607c:	3730      	adds	r7, #48	; 0x30
    607e:	46bd      	mov	sp, r7
    6080:	bd80      	pop	{r7, pc}
    6082:	bf00      	nop

00006084 <LPUART_GetDefaultConfig>:
    6084:	b580      	push	{r7, lr}
    6086:	b082      	sub	sp, #8
    6088:	af00      	add	r7, sp, #0
    608a:	6078      	str	r0, [r7, #4]
    608c:	687b      	ldr	r3, [r7, #4]
    608e:	2b00      	cmp	r3, #0
    6090:	d102      	bne.n	6098 <LPUART_GetDefaultConfig+0x14>
    6092:	481d      	ldr	r0, [pc, #116]	; (6108 <LPUART_GetDefaultConfig+0x84>)
    6094:	f001 fca2 	bl	79dc <__assertion_failed>
    6098:	2214      	movs	r2, #20
    609a:	2100      	movs	r1, #0
    609c:	6878      	ldr	r0, [r7, #4]
    609e:	f004 f81d 	bl	a0dc <memset>
    60a2:	687b      	ldr	r3, [r7, #4]
    60a4:	f44f 32e1 	mov.w	r2, #115200	; 0x1c200
    60a8:	601a      	str	r2, [r3, #0]
    60aa:	687b      	ldr	r3, [r7, #4]
    60ac:	2200      	movs	r2, #0
    60ae:	711a      	strb	r2, [r3, #4]
    60b0:	687b      	ldr	r3, [r7, #4]
    60b2:	2200      	movs	r2, #0
    60b4:	715a      	strb	r2, [r3, #5]
    60b6:	687b      	ldr	r3, [r7, #4]
    60b8:	2200      	movs	r2, #0
    60ba:	719a      	strb	r2, [r3, #6]
    60bc:	687b      	ldr	r3, [r7, #4]
    60be:	2200      	movs	r2, #0
    60c0:	71da      	strb	r2, [r3, #7]
    60c2:	687b      	ldr	r3, [r7, #4]
    60c4:	2200      	movs	r2, #0
    60c6:	721a      	strb	r2, [r3, #8]
    60c8:	687b      	ldr	r3, [r7, #4]
    60ca:	2200      	movs	r2, #0
    60cc:	725a      	strb	r2, [r3, #9]
    60ce:	687b      	ldr	r3, [r7, #4]
    60d0:	2200      	movs	r2, #0
    60d2:	729a      	strb	r2, [r3, #10]
    60d4:	687b      	ldr	r3, [r7, #4]
    60d6:	2200      	movs	r2, #0
    60d8:	72da      	strb	r2, [r3, #11]
    60da:	687b      	ldr	r3, [r7, #4]
    60dc:	2200      	movs	r2, #0
    60de:	735a      	strb	r2, [r3, #13]
    60e0:	687b      	ldr	r3, [r7, #4]
    60e2:	2200      	movs	r2, #0
    60e4:	731a      	strb	r2, [r3, #12]
    60e6:	687b      	ldr	r3, [r7, #4]
    60e8:	2200      	movs	r2, #0
    60ea:	739a      	strb	r2, [r3, #14]
    60ec:	687b      	ldr	r3, [r7, #4]
    60ee:	2200      	movs	r2, #0
    60f0:	73da      	strb	r2, [r3, #15]
    60f2:	687b      	ldr	r3, [r7, #4]
    60f4:	2200      	movs	r2, #0
    60f6:	741a      	strb	r2, [r3, #16]
    60f8:	687b      	ldr	r3, [r7, #4]
    60fa:	2200      	movs	r2, #0
    60fc:	745a      	strb	r2, [r3, #17]
    60fe:	bf00      	nop
    6100:	3708      	adds	r7, #8
    6102:	46bd      	mov	sp, r7
    6104:	bd80      	pop	{r7, pc}
    6106:	bf00      	nop
    6108:	0000c2fc 	.word	0x0000c2fc

0000610c <LPUART_WriteBlocking>:
    610c:	b580      	push	{r7, lr}
    610e:	b086      	sub	sp, #24
    6110:	af00      	add	r7, sp, #0
    6112:	60f8      	str	r0, [r7, #12]
    6114:	60b9      	str	r1, [r7, #8]
    6116:	607a      	str	r2, [r7, #4]
    6118:	68bb      	ldr	r3, [r7, #8]
    611a:	2b00      	cmp	r3, #0
    611c:	d102      	bne.n	6124 <LPUART_WriteBlocking+0x18>
    611e:	4810      	ldr	r0, [pc, #64]	; (6160 <LPUART_WriteBlocking+0x54>)
    6120:	f001 fc5c 	bl	79dc <__assertion_failed>
    6124:	68bb      	ldr	r3, [r7, #8]
    6126:	617b      	str	r3, [r7, #20]
    6128:	687b      	ldr	r3, [r7, #4]
    612a:	613b      	str	r3, [r7, #16]
    612c:	e011      	b.n	6152 <LPUART_WriteBlocking+0x46>
    612e:	bf00      	nop
    6130:	68fb      	ldr	r3, [r7, #12]
    6132:	695b      	ldr	r3, [r3, #20]
    6134:	f403 0300 	and.w	r3, r3, #8388608	; 0x800000
    6138:	2b00      	cmp	r3, #0
    613a:	d0f9      	beq.n	6130 <LPUART_WriteBlocking+0x24>
    613c:	697b      	ldr	r3, [r7, #20]
    613e:	781b      	ldrb	r3, [r3, #0]
    6140:	461a      	mov	r2, r3
    6142:	68fb      	ldr	r3, [r7, #12]
    6144:	61da      	str	r2, [r3, #28]
    6146:	697b      	ldr	r3, [r7, #20]
    6148:	3301      	adds	r3, #1
    614a:	617b      	str	r3, [r7, #20]
    614c:	693b      	ldr	r3, [r7, #16]
    614e:	3b01      	subs	r3, #1
    6150:	613b      	str	r3, [r7, #16]
    6152:	693b      	ldr	r3, [r7, #16]
    6154:	2b00      	cmp	r3, #0
    6156:	d1ea      	bne.n	612e <LPUART_WriteBlocking+0x22>
    6158:	bf00      	nop
    615a:	3718      	adds	r7, #24
    615c:	46bd      	mov	sp, r7
    615e:	bd80      	pop	{r7, pc}
    6160:	0000c35c 	.word	0x0000c35c

00006164 <LPUART1_DriverIRQHandler>:
    6164:	b580      	push	{r7, lr}
    6166:	af00      	add	r7, sp, #0
    6168:	4b04      	ldr	r3, [pc, #16]	; (617c <LPUART1_DriverIRQHandler+0x18>)
    616a:	681b      	ldr	r3, [r3, #0]
    616c:	4a04      	ldr	r2, [pc, #16]	; (6180 <LPUART1_DriverIRQHandler+0x1c>)
    616e:	6852      	ldr	r2, [r2, #4]
    6170:	4611      	mov	r1, r2
    6172:	4804      	ldr	r0, [pc, #16]	; (6184 <LPUART1_DriverIRQHandler+0x20>)
    6174:	4798      	blx	r3
    6176:	bf00      	nop
    6178:	bd80      	pop	{r7, pc}
    617a:	bf00      	nop
    617c:	200009ec 	.word	0x200009ec
    6180:	200009c8 	.word	0x200009c8
    6184:	40184000 	.word	0x40184000

00006188 <LPUART2_DriverIRQHandler>:
    6188:	b580      	push	{r7, lr}
    618a:	af00      	add	r7, sp, #0
    618c:	4b04      	ldr	r3, [pc, #16]	; (61a0 <LPUART2_DriverIRQHandler+0x18>)
    618e:	681b      	ldr	r3, [r3, #0]
    6190:	4a04      	ldr	r2, [pc, #16]	; (61a4 <LPUART2_DriverIRQHandler+0x1c>)
    6192:	6892      	ldr	r2, [r2, #8]
    6194:	4611      	mov	r1, r2
    6196:	4804      	ldr	r0, [pc, #16]	; (61a8 <LPUART2_DriverIRQHandler+0x20>)
    6198:	4798      	blx	r3
    619a:	bf00      	nop
    619c:	bd80      	pop	{r7, pc}
    619e:	bf00      	nop
    61a0:	200009ec 	.word	0x200009ec
    61a4:	200009c8 	.word	0x200009c8
    61a8:	40188000 	.word	0x40188000

000061ac <LPUART3_DriverIRQHandler>:
    61ac:	b580      	push	{r7, lr}
    61ae:	af00      	add	r7, sp, #0
    61b0:	4b04      	ldr	r3, [pc, #16]	; (61c4 <LPUART3_DriverIRQHandler+0x18>)
    61b2:	681b      	ldr	r3, [r3, #0]
    61b4:	4a04      	ldr	r2, [pc, #16]	; (61c8 <LPUART3_DriverIRQHandler+0x1c>)
    61b6:	68d2      	ldr	r2, [r2, #12]
    61b8:	4611      	mov	r1, r2
    61ba:	4804      	ldr	r0, [pc, #16]	; (61cc <LPUART3_DriverIRQHandler+0x20>)
    61bc:	4798      	blx	r3
    61be:	bf00      	nop
    61c0:	bd80      	pop	{r7, pc}
    61c2:	bf00      	nop
    61c4:	200009ec 	.word	0x200009ec
    61c8:	200009c8 	.word	0x200009c8
    61cc:	4018c000 	.word	0x4018c000

000061d0 <LPUART4_DriverIRQHandler>:
    61d0:	b580      	push	{r7, lr}
    61d2:	af00      	add	r7, sp, #0
    61d4:	4b04      	ldr	r3, [pc, #16]	; (61e8 <LPUART4_DriverIRQHandler+0x18>)
    61d6:	681b      	ldr	r3, [r3, #0]
    61d8:	4a04      	ldr	r2, [pc, #16]	; (61ec <LPUART4_DriverIRQHandler+0x1c>)
    61da:	6912      	ldr	r2, [r2, #16]
    61dc:	4611      	mov	r1, r2
    61de:	4804      	ldr	r0, [pc, #16]	; (61f0 <LPUART4_DriverIRQHandler+0x20>)
    61e0:	4798      	blx	r3
    61e2:	bf00      	nop
    61e4:	bd80      	pop	{r7, pc}
    61e6:	bf00      	nop
    61e8:	200009ec 	.word	0x200009ec
    61ec:	200009c8 	.word	0x200009c8
    61f0:	40190000 	.word	0x40190000

000061f4 <LPUART5_DriverIRQHandler>:
    61f4:	b580      	push	{r7, lr}
    61f6:	af00      	add	r7, sp, #0
    61f8:	4b04      	ldr	r3, [pc, #16]	; (620c <LPUART5_DriverIRQHandler+0x18>)
    61fa:	681b      	ldr	r3, [r3, #0]
    61fc:	4a04      	ldr	r2, [pc, #16]	; (6210 <LPUART5_DriverIRQHandler+0x1c>)
    61fe:	6952      	ldr	r2, [r2, #20]
    6200:	4611      	mov	r1, r2
    6202:	4804      	ldr	r0, [pc, #16]	; (6214 <LPUART5_DriverIRQHandler+0x20>)
    6204:	4798      	blx	r3
    6206:	bf00      	nop
    6208:	bd80      	pop	{r7, pc}
    620a:	bf00      	nop
    620c:	200009ec 	.word	0x200009ec
    6210:	200009c8 	.word	0x200009c8
    6214:	40194000 	.word	0x40194000

00006218 <LPUART6_DriverIRQHandler>:
    6218:	b580      	push	{r7, lr}
    621a:	af00      	add	r7, sp, #0
    621c:	4b04      	ldr	r3, [pc, #16]	; (6230 <LPUART6_DriverIRQHandler+0x18>)
    621e:	681b      	ldr	r3, [r3, #0]
    6220:	4a04      	ldr	r2, [pc, #16]	; (6234 <LPUART6_DriverIRQHandler+0x1c>)
    6222:	6992      	ldr	r2, [r2, #24]
    6224:	4611      	mov	r1, r2
    6226:	4804      	ldr	r0, [pc, #16]	; (6238 <LPUART6_DriverIRQHandler+0x20>)
    6228:	4798      	blx	r3
    622a:	bf00      	nop
    622c:	bd80      	pop	{r7, pc}
    622e:	bf00      	nop
    6230:	200009ec 	.word	0x200009ec
    6234:	200009c8 	.word	0x200009c8
    6238:	40198000 	.word	0x40198000

0000623c <LPUART7_DriverIRQHandler>:
    623c:	b580      	push	{r7, lr}
    623e:	af00      	add	r7, sp, #0
    6240:	4b04      	ldr	r3, [pc, #16]	; (6254 <LPUART7_DriverIRQHandler+0x18>)
    6242:	681b      	ldr	r3, [r3, #0]
    6244:	4a04      	ldr	r2, [pc, #16]	; (6258 <LPUART7_DriverIRQHandler+0x1c>)
    6246:	69d2      	ldr	r2, [r2, #28]
    6248:	4611      	mov	r1, r2
    624a:	4804      	ldr	r0, [pc, #16]	; (625c <LPUART7_DriverIRQHandler+0x20>)
    624c:	4798      	blx	r3
    624e:	bf00      	nop
    6250:	bd80      	pop	{r7, pc}
    6252:	bf00      	nop
    6254:	200009ec 	.word	0x200009ec
    6258:	200009c8 	.word	0x200009c8
    625c:	4019c000 	.word	0x4019c000

00006260 <LPUART8_DriverIRQHandler>:
    6260:	b580      	push	{r7, lr}
    6262:	af00      	add	r7, sp, #0
    6264:	4b04      	ldr	r3, [pc, #16]	; (6278 <LPUART8_DriverIRQHandler+0x18>)
    6266:	681b      	ldr	r3, [r3, #0]
    6268:	4a04      	ldr	r2, [pc, #16]	; (627c <LPUART8_DriverIRQHandler+0x1c>)
    626a:	6a12      	ldr	r2, [r2, #32]
    626c:	4611      	mov	r1, r2
    626e:	4804      	ldr	r0, [pc, #16]	; (6280 <LPUART8_DriverIRQHandler+0x20>)
    6270:	4798      	blx	r3
    6272:	bf00      	nop
    6274:	bd80      	pop	{r7, pc}
    6276:	bf00      	nop
    6278:	200009ec 	.word	0x200009ec
    627c:	200009c8 	.word	0x200009c8
    6280:	401a0000 	.word	0x401a0000

00006284 <CLOCK_ControlGate>:
    6284:	b580      	push	{r7, lr}
    6286:	b086      	sub	sp, #24
    6288:	af00      	add	r7, sp, #0
    628a:	4603      	mov	r3, r0
    628c:	460a      	mov	r2, r1
    628e:	80fb      	strh	r3, [r7, #6]
    6290:	4613      	mov	r3, r2
    6292:	717b      	strb	r3, [r7, #5]
    6294:	f9b7 3006 	ldrsh.w	r3, [r7, #6]
    6298:	0a1b      	lsrs	r3, r3, #8
    629a:	617b      	str	r3, [r7, #20]
    629c:	88fb      	ldrh	r3, [r7, #6]
    629e:	f003 031f 	and.w	r3, r3, #31
    62a2:	613b      	str	r3, [r7, #16]
    62a4:	697b      	ldr	r3, [r7, #20]
    62a6:	2b07      	cmp	r3, #7
    62a8:	d902      	bls.n	62b0 <CLOCK_ControlGate+0x2c>
    62aa:	480d      	ldr	r0, [pc, #52]	; (62e0 <CLOCK_ControlGate+0x5c>)
    62ac:	f001 fb96 	bl	79dc <__assertion_failed>
    62b0:	697b      	ldr	r3, [r7, #20]
    62b2:	009a      	lsls	r2, r3, #2
    62b4:	4b0b      	ldr	r3, [pc, #44]	; (62e4 <CLOCK_ControlGate+0x60>)
    62b6:	4413      	add	r3, r2
    62b8:	60fb      	str	r3, [r7, #12]
    62ba:	68fb      	ldr	r3, [r7, #12]
    62bc:	681a      	ldr	r2, [r3, #0]
    62be:	2103      	movs	r1, #3
    62c0:	693b      	ldr	r3, [r7, #16]
    62c2:	fa01 f303 	lsl.w	r3, r1, r3
    62c6:	43db      	mvns	r3, r3
    62c8:	401a      	ands	r2, r3
    62ca:	7979      	ldrb	r1, [r7, #5]
    62cc:	693b      	ldr	r3, [r7, #16]
    62ce:	fa01 f303 	lsl.w	r3, r1, r3
    62d2:	431a      	orrs	r2, r3
    62d4:	68fb      	ldr	r3, [r7, #12]
    62d6:	601a      	str	r2, [r3, #0]
    62d8:	bf00      	nop
    62da:	3718      	adds	r7, #24
    62dc:	46bd      	mov	sp, r7
    62de:	bd80      	pop	{r7, pc}
    62e0:	0000c788 	.word	0x0000c788
    62e4:	400fc068 	.word	0x400fc068

000062e8 <QTMR_GetInstance>:
    62e8:	b580      	push	{r7, lr}
    62ea:	b084      	sub	sp, #16
    62ec:	af00      	add	r7, sp, #0
    62ee:	6078      	str	r0, [r7, #4]
    62f0:	2300      	movs	r3, #0
    62f2:	60fb      	str	r3, [r7, #12]
    62f4:	e009      	b.n	630a <QTMR_GetInstance+0x22>
    62f6:	4a0d      	ldr	r2, [pc, #52]	; (632c <QTMR_GetInstance+0x44>)
    62f8:	68fb      	ldr	r3, [r7, #12]
    62fa:	f852 3023 	ldr.w	r3, [r2, r3, lsl #2]
    62fe:	687a      	ldr	r2, [r7, #4]
    6300:	429a      	cmp	r2, r3
    6302:	d006      	beq.n	6312 <QTMR_GetInstance+0x2a>
    6304:	68fb      	ldr	r3, [r7, #12]
    6306:	3301      	adds	r3, #1
    6308:	60fb      	str	r3, [r7, #12]
    630a:	68fb      	ldr	r3, [r7, #12]
    630c:	2b04      	cmp	r3, #4
    630e:	d9f2      	bls.n	62f6 <QTMR_GetInstance+0xe>
    6310:	e000      	b.n	6314 <QTMR_GetInstance+0x2c>
    6312:	bf00      	nop
    6314:	68fb      	ldr	r3, [r7, #12]
    6316:	2b04      	cmp	r3, #4
    6318:	d902      	bls.n	6320 <QTMR_GetInstance+0x38>
    631a:	4805      	ldr	r0, [pc, #20]	; (6330 <QTMR_GetInstance+0x48>)
    631c:	f001 fb5e 	bl	79dc <__assertion_failed>
    6320:	68fb      	ldr	r3, [r7, #12]
    6322:	4618      	mov	r0, r3
    6324:	3710      	adds	r7, #16
    6326:	46bd      	mov	sp, r7
    6328:	bd80      	pop	{r7, pc}
    632a:	bf00      	nop
    632c:	0000c83c 	.word	0x0000c83c
    6330:	0000c7b4 	.word	0x0000c7b4

00006334 <QTMR_Init>:
    6334:	b580      	push	{r7, lr}
    6336:	b084      	sub	sp, #16
    6338:	af00      	add	r7, sp, #0
    633a:	60f8      	str	r0, [r7, #12]
    633c:	460b      	mov	r3, r1
    633e:	607a      	str	r2, [r7, #4]
    6340:	72fb      	strb	r3, [r7, #11]
    6342:	687b      	ldr	r3, [r7, #4]
    6344:	2b00      	cmp	r3, #0
    6346:	d102      	bne.n	634e <QTMR_Init+0x1a>
    6348:	4839      	ldr	r0, [pc, #228]	; (6430 <QTMR_Init+0xfc>)
    634a:	f001 fb47 	bl	79dc <__assertion_failed>
    634e:	68f8      	ldr	r0, [r7, #12]
    6350:	f7ff ffca 	bl	62e8 <QTMR_GetInstance>
    6354:	4602      	mov	r2, r0
    6356:	4b37      	ldr	r3, [pc, #220]	; (6434 <QTMR_Init+0x100>)
    6358:	f933 3012 	ldrsh.w	r3, [r3, r2, lsl #1]
    635c:	4618      	mov	r0, r3
    635e:	f003 fca8 	bl	9cb2 <CLOCK_EnableClock>
    6362:	687b      	ldr	r3, [r7, #4]
    6364:	781b      	ldrb	r3, [r3, #0]
    6366:	b29b      	uxth	r3, r3
    6368:	025b      	lsls	r3, r3, #9
    636a:	b29b      	uxth	r3, r3
    636c:	f403 53f0 	and.w	r3, r3, #7680	; 0x1e00
    6370:	b299      	uxth	r1, r3
    6372:	687b      	ldr	r3, [r7, #4]
    6374:	785b      	ldrb	r3, [r3, #1]
    6376:	b29b      	uxth	r3, r3
    6378:	01db      	lsls	r3, r3, #7
    637a:	b29b      	uxth	r3, r3
    637c:	f403 73c0 	and.w	r3, r3, #384	; 0x180
    6380:	b29a      	uxth	r2, r3
    6382:	7afb      	ldrb	r3, [r7, #11]
    6384:	430a      	orrs	r2, r1
    6386:	b291      	uxth	r1, r2
    6388:	68fa      	ldr	r2, [r7, #12]
    638a:	015b      	lsls	r3, r3, #5
    638c:	4413      	add	r3, r2
    638e:	330c      	adds	r3, #12
    6390:	460a      	mov	r2, r1
    6392:	801a      	strh	r2, [r3, #0]
    6394:	687b      	ldr	r3, [r7, #4]
    6396:	78db      	ldrb	r3, [r3, #3]
    6398:	b29b      	uxth	r3, r3
    639a:	011b      	lsls	r3, r3, #4
    639c:	b29b      	uxth	r3, r3
    639e:	f003 0310 	and.w	r3, r3, #16
    63a2:	b299      	uxth	r1, r3
    63a4:	687b      	ldr	r3, [r7, #4]
    63a6:	789b      	ldrb	r3, [r3, #2]
    63a8:	b29b      	uxth	r3, r3
    63aa:	015b      	lsls	r3, r3, #5
    63ac:	b29b      	uxth	r3, r3
    63ae:	f003 0320 	and.w	r3, r3, #32
    63b2:	b29a      	uxth	r2, r3
    63b4:	7afb      	ldrb	r3, [r7, #11]
    63b6:	430a      	orrs	r2, r1
    63b8:	b291      	uxth	r1, r2
    63ba:	68fa      	ldr	r2, [r7, #12]
    63bc:	015b      	lsls	r3, r3, #5
    63be:	4413      	add	r3, r2
    63c0:	330e      	adds	r3, #14
    63c2:	460a      	mov	r2, r1
    63c4:	801a      	strh	r2, [r3, #0]
    63c6:	687b      	ldr	r3, [r7, #4]
    63c8:	799b      	ldrb	r3, [r3, #6]
    63ca:	b29a      	uxth	r2, r3
    63cc:	7afb      	ldrb	r3, [r7, #11]
    63ce:	0392      	lsls	r2, r2, #14
    63d0:	b291      	uxth	r1, r2
    63d2:	68fa      	ldr	r2, [r7, #12]
    63d4:	015b      	lsls	r3, r3, #5
    63d6:	4413      	add	r3, r2
    63d8:	3314      	adds	r3, #20
    63da:	460a      	mov	r2, r1
    63dc:	801a      	strh	r2, [r3, #0]
    63de:	7afb      	ldrb	r3, [r7, #11]
    63e0:	68fa      	ldr	r2, [r7, #12]
    63e2:	015b      	lsls	r3, r3, #5
    63e4:	4413      	add	r3, r2
    63e6:	3316      	adds	r3, #22
    63e8:	881b      	ldrh	r3, [r3, #0]
    63ea:	b29a      	uxth	r2, r3
    63ec:	7af9      	ldrb	r1, [r7, #11]
    63ee:	4b12      	ldr	r3, [pc, #72]	; (6438 <QTMR_Init+0x104>)
    63f0:	4013      	ands	r3, r2
    63f2:	b298      	uxth	r0, r3
    63f4:	68fa      	ldr	r2, [r7, #12]
    63f6:	014b      	lsls	r3, r1, #5
    63f8:	4413      	add	r3, r2
    63fa:	3316      	adds	r3, #22
    63fc:	4602      	mov	r2, r0
    63fe:	801a      	strh	r2, [r3, #0]
    6400:	687b      	ldr	r3, [r7, #4]
    6402:	791b      	ldrb	r3, [r3, #4]
    6404:	b29b      	uxth	r3, r3
    6406:	021b      	lsls	r3, r3, #8
    6408:	b29b      	uxth	r3, r3
    640a:	f403 63e0 	and.w	r3, r3, #1792	; 0x700
    640e:	b299      	uxth	r1, r3
    6410:	687b      	ldr	r3, [r7, #4]
    6412:	795b      	ldrb	r3, [r3, #5]
    6414:	b29a      	uxth	r2, r3
    6416:	7afb      	ldrb	r3, [r7, #11]
    6418:	430a      	orrs	r2, r1
    641a:	b291      	uxth	r1, r2
    641c:	68fa      	ldr	r2, [r7, #12]
    641e:	015b      	lsls	r3, r3, #5
    6420:	4413      	add	r3, r2
    6422:	3316      	adds	r3, #22
    6424:	460a      	mov	r2, r1
    6426:	801a      	strh	r2, [r3, #0]
    6428:	bf00      	nop
    642a:	3710      	adds	r7, #16
    642c:	46bd      	mov	sp, r7
    642e:	bd80      	pop	{r7, pc}
    6430:	0000c7f4 	.word	0x0000c7f4
    6434:	0000c850 	.word	0x0000c850
    6438:	fffff800 	.word	0xfffff800

0000643c <QTMR_GetDefaultConfig>:
    643c:	b580      	push	{r7, lr}
    643e:	b082      	sub	sp, #8
    6440:	af00      	add	r7, sp, #0
    6442:	6078      	str	r0, [r7, #4]
    6444:	687b      	ldr	r3, [r7, #4]
    6446:	2b00      	cmp	r3, #0
    6448:	d102      	bne.n	6450 <QTMR_GetDefaultConfig+0x14>
    644a:	4810      	ldr	r0, [pc, #64]	; (648c <QTMR_GetDefaultConfig+0x50>)
    644c:	f001 fac6 	bl	79dc <__assertion_failed>
    6450:	2207      	movs	r2, #7
    6452:	2100      	movs	r1, #0
    6454:	6878      	ldr	r0, [r7, #4]
    6456:	f003 fe41 	bl	a0dc <memset>
    645a:	687b      	ldr	r3, [r7, #4]
    645c:	2200      	movs	r2, #0
    645e:	719a      	strb	r2, [r3, #6]
    6460:	687b      	ldr	r3, [r7, #4]
    6462:	2200      	movs	r2, #0
    6464:	70da      	strb	r2, [r3, #3]
    6466:	687b      	ldr	r3, [r7, #4]
    6468:	2200      	movs	r2, #0
    646a:	709a      	strb	r2, [r3, #2]
    646c:	687b      	ldr	r3, [r7, #4]
    646e:	2200      	movs	r2, #0
    6470:	711a      	strb	r2, [r3, #4]
    6472:	687b      	ldr	r3, [r7, #4]
    6474:	2200      	movs	r2, #0
    6476:	715a      	strb	r2, [r3, #5]
    6478:	687b      	ldr	r3, [r7, #4]
    647a:	2209      	movs	r2, #9
    647c:	701a      	strb	r2, [r3, #0]
    647e:	687b      	ldr	r3, [r7, #4]
    6480:	2200      	movs	r2, #0
    6482:	705a      	strb	r2, [r3, #1]
    6484:	bf00      	nop
    6486:	3708      	adds	r7, #8
    6488:	46bd      	mov	sp, r7
    648a:	bd80      	pop	{r7, pc}
    648c:	0000c818 	.word	0x0000c818

00006490 <SCB_EnableICache>:
    6490:	b480      	push	{r7}
    6492:	af00      	add	r7, sp, #0
    6494:	f3bf 8f4f 	dsb	sy
    6498:	f3bf 8f6f 	isb	sy
    649c:	4b0b      	ldr	r3, [pc, #44]	; (64cc <SCB_EnableICache+0x3c>)
    649e:	2200      	movs	r2, #0
    64a0:	f8c3 2250 	str.w	r2, [r3, #592]	; 0x250
    64a4:	f3bf 8f4f 	dsb	sy
    64a8:	f3bf 8f6f 	isb	sy
    64ac:	4b07      	ldr	r3, [pc, #28]	; (64cc <SCB_EnableICache+0x3c>)
    64ae:	695b      	ldr	r3, [r3, #20]
    64b0:	4a06      	ldr	r2, [pc, #24]	; (64cc <SCB_EnableICache+0x3c>)
    64b2:	f443 3300 	orr.w	r3, r3, #131072	; 0x20000
    64b6:	6153      	str	r3, [r2, #20]
    64b8:	f3bf 8f4f 	dsb	sy
    64bc:	f3bf 8f6f 	isb	sy
    64c0:	bf00      	nop
    64c2:	46bd      	mov	sp, r7
    64c4:	f85d 7b04 	ldr.w	r7, [sp], #4
    64c8:	4770      	bx	lr
    64ca:	bf00      	nop
    64cc:	e000ed00 	.word	0xe000ed00

000064d0 <SCB_EnableDCache>:
    64d0:	b480      	push	{r7}
    64d2:	b085      	sub	sp, #20
    64d4:	af00      	add	r7, sp, #0
    64d6:	4b1d      	ldr	r3, [pc, #116]	; (654c <SCB_EnableDCache+0x7c>)
    64d8:	2200      	movs	r2, #0
    64da:	f8c3 2084 	str.w	r2, [r3, #132]	; 0x84
    64de:	f3bf 8f4f 	dsb	sy
    64e2:	4b1a      	ldr	r3, [pc, #104]	; (654c <SCB_EnableDCache+0x7c>)
    64e4:	f8d3 3080 	ldr.w	r3, [r3, #128]	; 0x80
    64e8:	607b      	str	r3, [r7, #4]
    64ea:	687b      	ldr	r3, [r7, #4]
    64ec:	0b5b      	lsrs	r3, r3, #13
    64ee:	f3c3 030e 	ubfx	r3, r3, #0, #15
    64f2:	60fb      	str	r3, [r7, #12]
    64f4:	687b      	ldr	r3, [r7, #4]
    64f6:	08db      	lsrs	r3, r3, #3
    64f8:	f3c3 0309 	ubfx	r3, r3, #0, #10
    64fc:	60bb      	str	r3, [r7, #8]
    64fe:	68fb      	ldr	r3, [r7, #12]
    6500:	015a      	lsls	r2, r3, #5
    6502:	f643 73e0 	movw	r3, #16352	; 0x3fe0
    6506:	4013      	ands	r3, r2
    6508:	68ba      	ldr	r2, [r7, #8]
    650a:	0792      	lsls	r2, r2, #30
    650c:	490f      	ldr	r1, [pc, #60]	; (654c <SCB_EnableDCache+0x7c>)
    650e:	4313      	orrs	r3, r2
    6510:	f8c1 3260 	str.w	r3, [r1, #608]	; 0x260
    6514:	68bb      	ldr	r3, [r7, #8]
    6516:	1e5a      	subs	r2, r3, #1
    6518:	60ba      	str	r2, [r7, #8]
    651a:	2b00      	cmp	r3, #0
    651c:	d1ef      	bne.n	64fe <SCB_EnableDCache+0x2e>
    651e:	68fb      	ldr	r3, [r7, #12]
    6520:	1e5a      	subs	r2, r3, #1
    6522:	60fa      	str	r2, [r7, #12]
    6524:	2b00      	cmp	r3, #0
    6526:	d1e5      	bne.n	64f4 <SCB_EnableDCache+0x24>
    6528:	f3bf 8f4f 	dsb	sy
    652c:	4b07      	ldr	r3, [pc, #28]	; (654c <SCB_EnableDCache+0x7c>)
    652e:	695b      	ldr	r3, [r3, #20]
    6530:	4a06      	ldr	r2, [pc, #24]	; (654c <SCB_EnableDCache+0x7c>)
    6532:	f443 3380 	orr.w	r3, r3, #65536	; 0x10000
    6536:	6153      	str	r3, [r2, #20]
    6538:	f3bf 8f4f 	dsb	sy
    653c:	f3bf 8f6f 	isb	sy
    6540:	bf00      	nop
    6542:	3714      	adds	r7, #20
    6544:	46bd      	mov	sp, r7
    6546:	f85d 7b04 	ldr.w	r7, [sp], #4
    654a:	4770      	bx	lr
    654c:	e000ed00 	.word	0xe000ed00

00006550 <SystemInit>:
    6550:	b580      	push	{r7, lr}
    6552:	af00      	add	r7, sp, #0
    6554:	4b34      	ldr	r3, [pc, #208]	; (6628 <SystemInit+0xd8>)
    6556:	f8d3 3088 	ldr.w	r3, [r3, #136]	; 0x88
    655a:	4a33      	ldr	r2, [pc, #204]	; (6628 <SystemInit+0xd8>)
    655c:	f443 0370 	orr.w	r3, r3, #15728640	; 0xf00000
    6560:	f8c2 3088 	str.w	r3, [r2, #136]	; 0x88
    6564:	4b30      	ldr	r3, [pc, #192]	; (6628 <SystemInit+0xd8>)
    6566:	4a31      	ldr	r2, [pc, #196]	; (662c <SystemInit+0xdc>)
    6568:	609a      	str	r2, [r3, #8]
    656a:	4b31      	ldr	r3, [pc, #196]	; (6630 <SystemInit+0xe0>)
    656c:	891b      	ldrh	r3, [r3, #8]
    656e:	b29b      	uxth	r3, r3
    6570:	4a2f      	ldr	r2, [pc, #188]	; (6630 <SystemInit+0xe0>)
    6572:	f023 0301 	bic.w	r3, r3, #1
    6576:	b29b      	uxth	r3, r3
    6578:	8113      	strh	r3, [r2, #8]
    657a:	4b2e      	ldr	r3, [pc, #184]	; (6634 <SystemInit+0xe4>)
    657c:	891b      	ldrh	r3, [r3, #8]
    657e:	b29b      	uxth	r3, r3
    6580:	4a2c      	ldr	r2, [pc, #176]	; (6634 <SystemInit+0xe4>)
    6582:	f023 0301 	bic.w	r3, r3, #1
    6586:	b29b      	uxth	r3, r3
    6588:	8113      	strh	r3, [r2, #8]
    658a:	4b29      	ldr	r3, [pc, #164]	; (6630 <SystemInit+0xe0>)
    658c:	881b      	ldrh	r3, [r3, #0]
    658e:	b29b      	uxth	r3, r3
    6590:	f003 0304 	and.w	r3, r3, #4
    6594:	2b00      	cmp	r3, #0
    6596:	d007      	beq.n	65a8 <SystemInit+0x58>
    6598:	4b25      	ldr	r3, [pc, #148]	; (6630 <SystemInit+0xe0>)
    659a:	881b      	ldrh	r3, [r3, #0]
    659c:	b29b      	uxth	r3, r3
    659e:	4a24      	ldr	r2, [pc, #144]	; (6630 <SystemInit+0xe0>)
    65a0:	f023 0304 	bic.w	r3, r3, #4
    65a4:	b29b      	uxth	r3, r3
    65a6:	8013      	strh	r3, [r2, #0]
    65a8:	4b22      	ldr	r3, [pc, #136]	; (6634 <SystemInit+0xe4>)
    65aa:	881b      	ldrh	r3, [r3, #0]
    65ac:	b29b      	uxth	r3, r3
    65ae:	f003 0304 	and.w	r3, r3, #4
    65b2:	2b00      	cmp	r3, #0
    65b4:	d007      	beq.n	65c6 <SystemInit+0x76>
    65b6:	4b1f      	ldr	r3, [pc, #124]	; (6634 <SystemInit+0xe4>)
    65b8:	881b      	ldrh	r3, [r3, #0]
    65ba:	b29b      	uxth	r3, r3
    65bc:	4a1d      	ldr	r2, [pc, #116]	; (6634 <SystemInit+0xe4>)
    65be:	f023 0304 	bic.w	r3, r3, #4
    65c2:	b29b      	uxth	r3, r3
    65c4:	8013      	strh	r3, [r2, #0]
    65c6:	4b1c      	ldr	r3, [pc, #112]	; (6638 <SystemInit+0xe8>)
    65c8:	4a1c      	ldr	r2, [pc, #112]	; (663c <SystemInit+0xec>)
    65ca:	605a      	str	r2, [r3, #4]
    65cc:	4b1a      	ldr	r3, [pc, #104]	; (6638 <SystemInit+0xe8>)
    65ce:	f64f 72ff 	movw	r2, #65535	; 0xffff
    65d2:	609a      	str	r2, [r3, #8]
    65d4:	4b18      	ldr	r3, [pc, #96]	; (6638 <SystemInit+0xe8>)
    65d6:	681b      	ldr	r3, [r3, #0]
    65d8:	f023 03a0 	bic.w	r3, r3, #160	; 0xa0
    65dc:	4a16      	ldr	r2, [pc, #88]	; (6638 <SystemInit+0xe8>)
    65de:	f043 0320 	orr.w	r3, r3, #32
    65e2:	6013      	str	r3, [r2, #0]
    65e4:	4b16      	ldr	r3, [pc, #88]	; (6640 <SystemInit+0xf0>)
    65e6:	681b      	ldr	r3, [r3, #0]
    65e8:	f003 0301 	and.w	r3, r3, #1
    65ec:	2b00      	cmp	r3, #0
    65ee:	d005      	beq.n	65fc <SystemInit+0xac>
    65f0:	4b13      	ldr	r3, [pc, #76]	; (6640 <SystemInit+0xf0>)
    65f2:	681b      	ldr	r3, [r3, #0]
    65f4:	4a12      	ldr	r2, [pc, #72]	; (6640 <SystemInit+0xf0>)
    65f6:	f023 0301 	bic.w	r3, r3, #1
    65fa:	6013      	str	r3, [r2, #0]
    65fc:	4b0a      	ldr	r3, [pc, #40]	; (6628 <SystemInit+0xd8>)
    65fe:	695b      	ldr	r3, [r3, #20]
    6600:	f403 3300 	and.w	r3, r3, #131072	; 0x20000
    6604:	f5b3 3f00 	cmp.w	r3, #131072	; 0x20000
    6608:	d001      	beq.n	660e <SystemInit+0xbe>
    660a:	f7ff ff41 	bl	6490 <SCB_EnableICache>
    660e:	4b06      	ldr	r3, [pc, #24]	; (6628 <SystemInit+0xd8>)
    6610:	695b      	ldr	r3, [r3, #20]
    6612:	f403 3380 	and.w	r3, r3, #65536	; 0x10000
    6616:	f5b3 3f80 	cmp.w	r3, #65536	; 0x10000
    661a:	d001      	beq.n	6620 <SystemInit+0xd0>
    661c:	f7ff ff58 	bl	64d0 <SCB_EnableDCache>
    6620:	f003 fc4b 	bl	9eba <SystemInitHook>
    6624:	bf00      	nop
    6626:	bd80      	pop	{r7, pc}
    6628:	e000ed00 	.word	0xe000ed00
    662c:	00000000 	.word	0x00000000
    6630:	400b8000 	.word	0x400b8000
    6634:	400d0000 	.word	0x400d0000
    6638:	400bc000 	.word	0x400bc000
    663c:	d928c520 	.word	0xd928c520
    6640:	e000e010 	.word	0xe000e010

00006644 <HAL_UartInit>:
    6644:	b580      	push	{r7, lr}
    6646:	b08a      	sub	sp, #40	; 0x28
    6648:	af00      	add	r7, sp, #0
    664a:	6078      	str	r0, [r7, #4]
    664c:	6039      	str	r1, [r7, #0]
    664e:	687b      	ldr	r3, [r7, #4]
    6650:	2b00      	cmp	r3, #0
    6652:	d102      	bne.n	665a <HAL_UartInit+0x16>
    6654:	4836      	ldr	r0, [pc, #216]	; (6730 <HAL_UartInit+0xec>)
    6656:	f001 f9c1 	bl	79dc <__assertion_failed>
    665a:	683b      	ldr	r3, [r7, #0]
    665c:	2b00      	cmp	r3, #0
    665e:	d102      	bne.n	6666 <HAL_UartInit+0x22>
    6660:	4834      	ldr	r0, [pc, #208]	; (6734 <HAL_UartInit+0xf0>)
    6662:	f001 f9bb 	bl	79dc <__assertion_failed>
    6666:	683b      	ldr	r3, [r7, #0]
    6668:	7b1b      	ldrb	r3, [r3, #12]
    666a:	2b08      	cmp	r3, #8
    666c:	d902      	bls.n	6674 <HAL_UartInit+0x30>
    666e:	4832      	ldr	r0, [pc, #200]	; (6738 <HAL_UartInit+0xf4>)
    6670:	f001 f9b4 	bl	79dc <__assertion_failed>
    6674:	683b      	ldr	r3, [r7, #0]
    6676:	7b1b      	ldrb	r3, [r3, #12]
    6678:	461a      	mov	r2, r3
    667a:	4b30      	ldr	r3, [pc, #192]	; (673c <HAL_UartInit+0xf8>)
    667c:	f853 3022 	ldr.w	r3, [r3, r2, lsl #2]
    6680:	2b00      	cmp	r3, #0
    6682:	d102      	bne.n	668a <HAL_UartInit+0x46>
    6684:	482e      	ldr	r0, [pc, #184]	; (6740 <HAL_UartInit+0xfc>)
    6686:	f001 f9a9 	bl	79dc <__assertion_failed>
    668a:	f107 030c 	add.w	r3, r7, #12
    668e:	4618      	mov	r0, r3
    6690:	f7ff fcf8 	bl	6084 <LPUART_GetDefaultConfig>
    6694:	683b      	ldr	r3, [r7, #0]
    6696:	685b      	ldr	r3, [r3, #4]
    6698:	60fb      	str	r3, [r7, #12]
    669a:	683b      	ldr	r3, [r7, #0]
    669c:	7a1b      	ldrb	r3, [r3, #8]
    669e:	2b01      	cmp	r3, #1
    66a0:	d102      	bne.n	66a8 <HAL_UartInit+0x64>
    66a2:	2302      	movs	r3, #2
    66a4:	743b      	strb	r3, [r7, #16]
    66a6:	e008      	b.n	66ba <HAL_UartInit+0x76>
    66a8:	683b      	ldr	r3, [r7, #0]
    66aa:	7a1b      	ldrb	r3, [r3, #8]
    66ac:	2b02      	cmp	r3, #2
    66ae:	d102      	bne.n	66b6 <HAL_UartInit+0x72>
    66b0:	2303      	movs	r3, #3
    66b2:	743b      	strb	r3, [r7, #16]
    66b4:	e001      	b.n	66ba <HAL_UartInit+0x76>
    66b6:	2300      	movs	r3, #0
    66b8:	743b      	strb	r3, [r7, #16]
    66ba:	683b      	ldr	r3, [r7, #0]
    66bc:	7a5b      	ldrb	r3, [r3, #9]
    66be:	2b01      	cmp	r3, #1
    66c0:	d102      	bne.n	66c8 <HAL_UartInit+0x84>
    66c2:	2301      	movs	r3, #1
    66c4:	74fb      	strb	r3, [r7, #19]
    66c6:	e001      	b.n	66cc <HAL_UartInit+0x88>
    66c8:	2300      	movs	r3, #0
    66ca:	74fb      	strb	r3, [r7, #19]
    66cc:	683b      	ldr	r3, [r7, #0]
    66ce:	7a9b      	ldrb	r3, [r3, #10]
    66d0:	2b00      	cmp	r3, #0
    66d2:	bf14      	ite	ne
    66d4:	2301      	movne	r3, #1
    66d6:	2300      	moveq	r3, #0
    66d8:	b2db      	uxtb	r3, r3
    66da:	777b      	strb	r3, [r7, #29]
    66dc:	683b      	ldr	r3, [r7, #0]
    66de:	7adb      	ldrb	r3, [r3, #11]
    66e0:	2b00      	cmp	r3, #0
    66e2:	bf14      	ite	ne
    66e4:	2301      	movne	r3, #1
    66e6:	2300      	moveq	r3, #0
    66e8:	b2db      	uxtb	r3, r3
    66ea:	773b      	strb	r3, [r7, #28]
    66ec:	683b      	ldr	r3, [r7, #0]
    66ee:	7b1b      	ldrb	r3, [r3, #12]
    66f0:	461a      	mov	r2, r3
    66f2:	4b12      	ldr	r3, [pc, #72]	; (673c <HAL_UartInit+0xf8>)
    66f4:	f853 0022 	ldr.w	r0, [r3, r2, lsl #2]
    66f8:	683b      	ldr	r3, [r7, #0]
    66fa:	681a      	ldr	r2, [r3, #0]
    66fc:	f107 030c 	add.w	r3, r7, #12
    6700:	4619      	mov	r1, r3
    6702:	f7ff fb3f 	bl	5d84 <LPUART_Init>
    6706:	6278      	str	r0, [r7, #36]	; 0x24
    6708:	6a7b      	ldr	r3, [r7, #36]	; 0x24
    670a:	2b00      	cmp	r3, #0
    670c:	d004      	beq.n	6718 <HAL_UartInit+0xd4>
    670e:	6a78      	ldr	r0, [r7, #36]	; 0x24
    6710:	f003 fbda 	bl	9ec8 <HAL_UartGetStatus>
    6714:	4603      	mov	r3, r0
    6716:	e006      	b.n	6726 <HAL_UartInit+0xe2>
    6718:	687b      	ldr	r3, [r7, #4]
    671a:	623b      	str	r3, [r7, #32]
    671c:	683b      	ldr	r3, [r7, #0]
    671e:	7b1a      	ldrb	r2, [r3, #12]
    6720:	6a3b      	ldr	r3, [r7, #32]
    6722:	701a      	strb	r2, [r3, #0]
    6724:	2300      	movs	r3, #0
    6726:	4618      	mov	r0, r3
    6728:	3728      	adds	r7, #40	; 0x28
    672a:	46bd      	mov	sp, r7
    672c:	bd80      	pop	{r7, pc}
    672e:	bf00      	nop
    6730:	0000c880 	.word	0x0000c880
    6734:	0000c8b0 	.word	0x0000c8b0
    6738:	0000c8e0 	.word	0x0000c8e0
    673c:	0000c85c 	.word	0x0000c85c
    6740:	0000c954 	.word	0x0000c954

00006744 <HAL_UartSendBlocking>:
    6744:	b580      	push	{r7, lr}
    6746:	b086      	sub	sp, #24
    6748:	af00      	add	r7, sp, #0
    674a:	60f8      	str	r0, [r7, #12]
    674c:	60b9      	str	r1, [r7, #8]
    674e:	607a      	str	r2, [r7, #4]
    6750:	68fb      	ldr	r3, [r7, #12]
    6752:	2b00      	cmp	r3, #0
    6754:	d102      	bne.n	675c <HAL_UartSendBlocking+0x18>
    6756:	4810      	ldr	r0, [pc, #64]	; (6798 <HAL_UartSendBlocking+0x54>)
    6758:	f001 f940 	bl	79dc <__assertion_failed>
    675c:	68bb      	ldr	r3, [r7, #8]
    675e:	2b00      	cmp	r3, #0
    6760:	d102      	bne.n	6768 <HAL_UartSendBlocking+0x24>
    6762:	480e      	ldr	r0, [pc, #56]	; (679c <HAL_UartSendBlocking+0x58>)
    6764:	f001 f93a 	bl	79dc <__assertion_failed>
    6768:	687b      	ldr	r3, [r7, #4]
    676a:	2b00      	cmp	r3, #0
    676c:	d102      	bne.n	6774 <HAL_UartSendBlocking+0x30>
    676e:	480c      	ldr	r0, [pc, #48]	; (67a0 <HAL_UartSendBlocking+0x5c>)
    6770:	f001 f934 	bl	79dc <__assertion_failed>
    6774:	68fb      	ldr	r3, [r7, #12]
    6776:	617b      	str	r3, [r7, #20]
    6778:	697b      	ldr	r3, [r7, #20]
    677a:	781b      	ldrb	r3, [r3, #0]
    677c:	461a      	mov	r2, r3
    677e:	4b09      	ldr	r3, [pc, #36]	; (67a4 <HAL_UartSendBlocking+0x60>)
    6780:	f853 3022 	ldr.w	r3, [r3, r2, lsl #2]
    6784:	687a      	ldr	r2, [r7, #4]
    6786:	68b9      	ldr	r1, [r7, #8]
    6788:	4618      	mov	r0, r3
    678a:	f7ff fcbf 	bl	610c <LPUART_WriteBlocking>
    678e:	2300      	movs	r3, #0
    6790:	4618      	mov	r0, r3
    6792:	3718      	adds	r7, #24
    6794:	46bd      	mov	sp, r7
    6796:	bd80      	pop	{r7, pc}
    6798:	0000ca64 	.word	0x0000ca64
    679c:	0000ca94 	.word	0x0000ca94
    67a0:	0000cac4 	.word	0x0000cac4
    67a4:	0000c85c 	.word	0x0000c85c

000067a8 <SerialManager_Write>:
    67a8:	b580      	push	{r7, lr}
    67aa:	b086      	sub	sp, #24
    67ac:	af00      	add	r7, sp, #0
    67ae:	60f8      	str	r0, [r7, #12]
    67b0:	60b9      	str	r1, [r7, #8]
    67b2:	607a      	str	r2, [r7, #4]
    67b4:	68fb      	ldr	r3, [r7, #12]
    67b6:	2b00      	cmp	r3, #0
    67b8:	d102      	bne.n	67c0 <SerialManager_Write+0x18>
    67ba:	4812      	ldr	r0, [pc, #72]	; (6804 <SerialManager_Write+0x5c>)
    67bc:	f001 f90e 	bl	79dc <__assertion_failed>
    67c0:	68bb      	ldr	r3, [r7, #8]
    67c2:	2b00      	cmp	r3, #0
    67c4:	d102      	bne.n	67cc <SerialManager_Write+0x24>
    67c6:	4810      	ldr	r0, [pc, #64]	; (6808 <SerialManager_Write+0x60>)
    67c8:	f001 f908 	bl	79dc <__assertion_failed>
    67cc:	687b      	ldr	r3, [r7, #4]
    67ce:	2b00      	cmp	r3, #0
    67d0:	d102      	bne.n	67d8 <SerialManager_Write+0x30>
    67d2:	480e      	ldr	r0, [pc, #56]	; (680c <SerialManager_Write+0x64>)
    67d4:	f001 f902 	bl	79dc <__assertion_failed>
    67d8:	68fb      	ldr	r3, [r7, #12]
    67da:	617b      	str	r3, [r7, #20]
    67dc:	697b      	ldr	r3, [r7, #20]
    67de:	681b      	ldr	r3, [r3, #0]
    67e0:	613b      	str	r3, [r7, #16]
    67e2:	693b      	ldr	r3, [r7, #16]
    67e4:	2b00      	cmp	r3, #0
    67e6:	d102      	bne.n	67ee <SerialManager_Write+0x46>
    67e8:	4809      	ldr	r0, [pc, #36]	; (6810 <SerialManager_Write+0x68>)
    67ea:	f001 f8f7 	bl	79dc <__assertion_failed>
    67ee:	687b      	ldr	r3, [r7, #4]
    67f0:	68ba      	ldr	r2, [r7, #8]
    67f2:	6979      	ldr	r1, [r7, #20]
    67f4:	6938      	ldr	r0, [r7, #16]
    67f6:	f003 fb78 	bl	9eea <SerialManager_StartWriting>
    67fa:	4603      	mov	r3, r0
    67fc:	4618      	mov	r0, r3
    67fe:	3718      	adds	r7, #24
    6800:	46bd      	mov	sp, r7
    6802:	bd80      	pop	{r7, pc}
    6804:	0000caf4 	.word	0x0000caf4
    6808:	0000cb34 	.word	0x0000cb34
    680c:	0000cb70 	.word	0x0000cb70
    6810:	0000cbac 	.word	0x0000cbac

00006814 <SerialManager_Init>:
    6814:	b580      	push	{r7, lr}
    6816:	b084      	sub	sp, #16
    6818:	af00      	add	r7, sp, #0
    681a:	6078      	str	r0, [r7, #4]
    681c:	6039      	str	r1, [r7, #0]
    681e:	f243 5321 	movw	r3, #13601	; 0x3521
    6822:	81fb      	strh	r3, [r7, #14]
    6824:	683b      	ldr	r3, [r7, #0]
    6826:	2b00      	cmp	r3, #0
    6828:	d102      	bne.n	6830 <SerialManager_Init+0x1c>
    682a:	4815      	ldr	r0, [pc, #84]	; (6880 <SerialManager_Init+0x6c>)
    682c:	f001 f8d6 	bl	79dc <__assertion_failed>
    6830:	687b      	ldr	r3, [r7, #4]
    6832:	2b00      	cmp	r3, #0
    6834:	d102      	bne.n	683c <SerialManager_Init+0x28>
    6836:	4813      	ldr	r0, [pc, #76]	; (6884 <SerialManager_Init+0x70>)
    6838:	f001 f8d0 	bl	79dc <__assertion_failed>
    683c:	687b      	ldr	r3, [r7, #4]
    683e:	60bb      	str	r3, [r7, #8]
    6840:	2210      	movs	r2, #16
    6842:	2100      	movs	r1, #0
    6844:	68b8      	ldr	r0, [r7, #8]
    6846:	f003 fc49 	bl	a0dc <memset>
    684a:	683b      	ldr	r3, [r7, #0]
    684c:	7a1a      	ldrb	r2, [r3, #8]
    684e:	68bb      	ldr	r3, [r7, #8]
    6850:	731a      	strb	r2, [r3, #12]
    6852:	683b      	ldr	r3, [r7, #0]
    6854:	7a1b      	ldrb	r3, [r3, #8]
    6856:	2b01      	cmp	r3, #1
    6858:	d10b      	bne.n	6872 <SerialManager_Init+0x5e>
    685a:	68bb      	ldr	r3, [r7, #8]
    685c:	f103 0208 	add.w	r2, r3, #8
    6860:	683b      	ldr	r3, [r7, #0]
    6862:	68db      	ldr	r3, [r3, #12]
    6864:	4619      	mov	r1, r3
    6866:	4610      	mov	r0, r2
    6868:	f000 f86a 	bl	6940 <Serial_UartInit>
    686c:	4603      	mov	r3, r0
    686e:	81fb      	strh	r3, [r7, #14]
    6870:	e000      	b.n	6874 <SerialManager_Init+0x60>
    6872:	bf00      	nop
    6874:	89fb      	ldrh	r3, [r7, #14]
    6876:	4618      	mov	r0, r3
    6878:	3710      	adds	r7, #16
    687a:	46bd      	mov	sp, r7
    687c:	bd80      	pop	{r7, pc}
    687e:	bf00      	nop
    6880:	0000ccdc 	.word	0x0000ccdc
    6884:	0000cd18 	.word	0x0000cd18

00006888 <SerialManager_OpenWriteHandle>:
    6888:	b580      	push	{r7, lr}
    688a:	b084      	sub	sp, #16
    688c:	af00      	add	r7, sp, #0
    688e:	6078      	str	r0, [r7, #4]
    6890:	6039      	str	r1, [r7, #0]
    6892:	687b      	ldr	r3, [r7, #4]
    6894:	2b00      	cmp	r3, #0
    6896:	d102      	bne.n	689e <SerialManager_OpenWriteHandle+0x16>
    6898:	480f      	ldr	r0, [pc, #60]	; (68d8 <SerialManager_OpenWriteHandle+0x50>)
    689a:	f001 f89f 	bl	79dc <__assertion_failed>
    689e:	683b      	ldr	r3, [r7, #0]
    68a0:	2b00      	cmp	r3, #0
    68a2:	d102      	bne.n	68aa <SerialManager_OpenWriteHandle+0x22>
    68a4:	480d      	ldr	r0, [pc, #52]	; (68dc <SerialManager_OpenWriteHandle+0x54>)
    68a6:	f001 f899 	bl	79dc <__assertion_failed>
    68aa:	687b      	ldr	r3, [r7, #4]
    68ac:	60fb      	str	r3, [r7, #12]
    68ae:	683b      	ldr	r3, [r7, #0]
    68b0:	60bb      	str	r3, [r7, #8]
    68b2:	2204      	movs	r2, #4
    68b4:	2100      	movs	r1, #0
    68b6:	6838      	ldr	r0, [r7, #0]
    68b8:	f003 fc10 	bl	a0dc <memset>
    68bc:	68fb      	ldr	r3, [r7, #12]
    68be:	685b      	ldr	r3, [r3, #4]
    68c0:	1c5a      	adds	r2, r3, #1
    68c2:	68fb      	ldr	r3, [r7, #12]
    68c4:	605a      	str	r2, [r3, #4]
    68c6:	68bb      	ldr	r3, [r7, #8]
    68c8:	68fa      	ldr	r2, [r7, #12]
    68ca:	601a      	str	r2, [r3, #0]
    68cc:	2300      	movs	r3, #0
    68ce:	4618      	mov	r0, r3
    68d0:	3710      	adds	r7, #16
    68d2:	46bd      	mov	sp, r7
    68d4:	bd80      	pop	{r7, pc}
    68d6:	bf00      	nop
    68d8:	0000cd98 	.word	0x0000cd98
    68dc:	0000cdd8 	.word	0x0000cdd8

000068e0 <SerialManager_OpenReadHandle>:
    68e0:	b580      	push	{r7, lr}
    68e2:	b084      	sub	sp, #16
    68e4:	af00      	add	r7, sp, #0
    68e6:	6078      	str	r0, [r7, #4]
    68e8:	6039      	str	r1, [r7, #0]
    68ea:	687b      	ldr	r3, [r7, #4]
    68ec:	2b00      	cmp	r3, #0
    68ee:	d102      	bne.n	68f6 <SerialManager_OpenReadHandle+0x16>
    68f0:	4811      	ldr	r0, [pc, #68]	; (6938 <SerialManager_OpenReadHandle+0x58>)
    68f2:	f001 f873 	bl	79dc <__assertion_failed>
    68f6:	683b      	ldr	r3, [r7, #0]
    68f8:	2b00      	cmp	r3, #0
    68fa:	d102      	bne.n	6902 <SerialManager_OpenReadHandle+0x22>
    68fc:	480f      	ldr	r0, [pc, #60]	; (693c <SerialManager_OpenReadHandle+0x5c>)
    68fe:	f001 f86d 	bl	79dc <__assertion_failed>
    6902:	687b      	ldr	r3, [r7, #4]
    6904:	60fb      	str	r3, [r7, #12]
    6906:	683b      	ldr	r3, [r7, #0]
    6908:	60bb      	str	r3, [r7, #8]
    690a:	68fb      	ldr	r3, [r7, #12]
    690c:	681b      	ldr	r3, [r3, #0]
    690e:	2b00      	cmp	r3, #0
    6910:	d002      	beq.n	6918 <SerialManager_OpenReadHandle+0x38>
    6912:	f243 5322 	movw	r3, #13602	; 0x3522
    6916:	e00b      	b.n	6930 <SerialManager_OpenReadHandle+0x50>
    6918:	2204      	movs	r2, #4
    691a:	2100      	movs	r1, #0
    691c:	6838      	ldr	r0, [r7, #0]
    691e:	f003 fbdd 	bl	a0dc <memset>
    6922:	68fb      	ldr	r3, [r7, #12]
    6924:	68ba      	ldr	r2, [r7, #8]
    6926:	601a      	str	r2, [r3, #0]
    6928:	68bb      	ldr	r3, [r7, #8]
    692a:	68fa      	ldr	r2, [r7, #12]
    692c:	601a      	str	r2, [r3, #0]
    692e:	2300      	movs	r3, #0
    6930:	4618      	mov	r0, r3
    6932:	3710      	adds	r7, #16
    6934:	46bd      	mov	sp, r7
    6936:	bd80      	pop	{r7, pc}
    6938:	0000ce94 	.word	0x0000ce94
    693c:	0000ced8 	.word	0x0000ced8

00006940 <Serial_UartInit>:
    6940:	b580      	push	{r7, lr}
    6942:	b088      	sub	sp, #32
    6944:	af00      	add	r7, sp, #0
    6946:	6078      	str	r0, [r7, #4]
    6948:	6039      	str	r1, [r7, #0]
    694a:	683b      	ldr	r3, [r7, #0]
    694c:	2b00      	cmp	r3, #0
    694e:	d102      	bne.n	6956 <Serial_UartInit+0x16>
    6950:	4819      	ldr	r0, [pc, #100]	; (69b8 <Serial_UartInit+0x78>)
    6952:	f001 f843 	bl	79dc <__assertion_failed>
    6956:	687b      	ldr	r3, [r7, #4]
    6958:	2b00      	cmp	r3, #0
    695a:	d102      	bne.n	6962 <Serial_UartInit+0x22>
    695c:	4817      	ldr	r0, [pc, #92]	; (69bc <Serial_UartInit+0x7c>)
    695e:	f001 f83d 	bl	79dc <__assertion_failed>
    6962:	683b      	ldr	r3, [r7, #0]
    6964:	61fb      	str	r3, [r7, #28]
    6966:	687b      	ldr	r3, [r7, #4]
    6968:	61bb      	str	r3, [r7, #24]
    696a:	69fb      	ldr	r3, [r7, #28]
    696c:	685b      	ldr	r3, [r3, #4]
    696e:	60fb      	str	r3, [r7, #12]
    6970:	69fb      	ldr	r3, [r7, #28]
    6972:	7a1b      	ldrb	r3, [r3, #8]
    6974:	743b      	strb	r3, [r7, #16]
    6976:	69fb      	ldr	r3, [r7, #28]
    6978:	7a5b      	ldrb	r3, [r3, #9]
    697a:	747b      	strb	r3, [r7, #17]
    697c:	69fb      	ldr	r3, [r7, #28]
    697e:	7adb      	ldrb	r3, [r3, #11]
    6980:	74bb      	strb	r3, [r7, #18]
    6982:	69fb      	ldr	r3, [r7, #28]
    6984:	7b1b      	ldrb	r3, [r3, #12]
    6986:	74fb      	strb	r3, [r7, #19]
    6988:	69fb      	ldr	r3, [r7, #28]
    698a:	681b      	ldr	r3, [r3, #0]
    698c:	60bb      	str	r3, [r7, #8]
    698e:	69fb      	ldr	r3, [r7, #28]
    6990:	7a9b      	ldrb	r3, [r3, #10]
    6992:	753b      	strb	r3, [r7, #20]
    6994:	69bb      	ldr	r3, [r7, #24]
    6996:	f107 0208 	add.w	r2, r7, #8
    699a:	4611      	mov	r1, r2
    699c:	4618      	mov	r0, r3
    699e:	f7ff fe51 	bl	6644 <HAL_UartInit>
    69a2:	4603      	mov	r3, r0
    69a4:	2b00      	cmp	r3, #0
    69a6:	d002      	beq.n	69ae <Serial_UartInit+0x6e>
    69a8:	f243 5321 	movw	r3, #13601	; 0x3521
    69ac:	e000      	b.n	69b0 <Serial_UartInit+0x70>
    69ae:	2300      	movs	r3, #0
    69b0:	4618      	mov	r0, r3
    69b2:	3720      	adds	r7, #32
    69b4:	46bd      	mov	sp, r7
    69b6:	bd80      	pop	{r7, pc}
    69b8:	0000d01c 	.word	0x0000d01c
    69bc:	0000d060 	.word	0x0000d060

000069c0 <Serial_UartWrite>:
    69c0:	b580      	push	{r7, lr}
    69c2:	b086      	sub	sp, #24
    69c4:	af00      	add	r7, sp, #0
    69c6:	60f8      	str	r0, [r7, #12]
    69c8:	60b9      	str	r1, [r7, #8]
    69ca:	607a      	str	r2, [r7, #4]
    69cc:	68fb      	ldr	r3, [r7, #12]
    69ce:	2b00      	cmp	r3, #0
    69d0:	d102      	bne.n	69d8 <Serial_UartWrite+0x18>
    69d2:	480e      	ldr	r0, [pc, #56]	; (6a0c <Serial_UartWrite+0x4c>)
    69d4:	f001 f802 	bl	79dc <__assertion_failed>
    69d8:	68bb      	ldr	r3, [r7, #8]
    69da:	2b00      	cmp	r3, #0
    69dc:	d102      	bne.n	69e4 <Serial_UartWrite+0x24>
    69de:	480c      	ldr	r0, [pc, #48]	; (6a10 <Serial_UartWrite+0x50>)
    69e0:	f000 fffc 	bl	79dc <__assertion_failed>
    69e4:	687b      	ldr	r3, [r7, #4]
    69e6:	2b00      	cmp	r3, #0
    69e8:	d102      	bne.n	69f0 <Serial_UartWrite+0x30>
    69ea:	480a      	ldr	r0, [pc, #40]	; (6a14 <Serial_UartWrite+0x54>)
    69ec:	f000 fff6 	bl	79dc <__assertion_failed>
    69f0:	68fb      	ldr	r3, [r7, #12]
    69f2:	617b      	str	r3, [r7, #20]
    69f4:	697b      	ldr	r3, [r7, #20]
    69f6:	687a      	ldr	r2, [r7, #4]
    69f8:	68b9      	ldr	r1, [r7, #8]
    69fa:	4618      	mov	r0, r3
    69fc:	f7ff fea2 	bl	6744 <HAL_UartSendBlocking>
    6a00:	4603      	mov	r3, r0
    6a02:	4618      	mov	r0, r3
    6a04:	3718      	adds	r7, #24
    6a06:	46bd      	mov	sp, r7
    6a08:	bd80      	pop	{r7, pc}
    6a0a:	bf00      	nop
    6a0c:	0000d0e8 	.word	0x0000d0e8
    6a10:	0000d12c 	.word	0x0000d12c
    6a14:	0000d168 	.word	0x0000d168

00006a18 <ARM_MPU_Enable>:
    6a18:	b480      	push	{r7}
    6a1a:	b083      	sub	sp, #12
    6a1c:	af00      	add	r7, sp, #0
    6a1e:	6078      	str	r0, [r7, #4]
    6a20:	f3bf 8f4f 	dsb	sy
    6a24:	f3bf 8f6f 	isb	sy
    6a28:	4a08      	ldr	r2, [pc, #32]	; (6a4c <ARM_MPU_Enable+0x34>)
    6a2a:	687b      	ldr	r3, [r7, #4]
    6a2c:	f043 0301 	orr.w	r3, r3, #1
    6a30:	6053      	str	r3, [r2, #4]
    6a32:	4b07      	ldr	r3, [pc, #28]	; (6a50 <ARM_MPU_Enable+0x38>)
    6a34:	6a5b      	ldr	r3, [r3, #36]	; 0x24
    6a36:	4a06      	ldr	r2, [pc, #24]	; (6a50 <ARM_MPU_Enable+0x38>)
    6a38:	f443 3380 	orr.w	r3, r3, #65536	; 0x10000
    6a3c:	6253      	str	r3, [r2, #36]	; 0x24
    6a3e:	bf00      	nop
    6a40:	370c      	adds	r7, #12
    6a42:	46bd      	mov	sp, r7
    6a44:	f85d 7b04 	ldr.w	r7, [sp], #4
    6a48:	4770      	bx	lr
    6a4a:	bf00      	nop
    6a4c:	e000ed90 	.word	0xe000ed90
    6a50:	e000ed00 	.word	0xe000ed00

00006a54 <ARM_MPU_Disable>:
    6a54:	b480      	push	{r7}
    6a56:	af00      	add	r7, sp, #0
    6a58:	f3bf 8f4f 	dsb	sy
    6a5c:	f3bf 8f6f 	isb	sy
    6a60:	4b08      	ldr	r3, [pc, #32]	; (6a84 <ARM_MPU_Disable+0x30>)
    6a62:	6a5b      	ldr	r3, [r3, #36]	; 0x24
    6a64:	4a07      	ldr	r2, [pc, #28]	; (6a84 <ARM_MPU_Disable+0x30>)
    6a66:	f423 3380 	bic.w	r3, r3, #65536	; 0x10000
    6a6a:	6253      	str	r3, [r2, #36]	; 0x24
    6a6c:	4b06      	ldr	r3, [pc, #24]	; (6a88 <ARM_MPU_Disable+0x34>)
    6a6e:	685b      	ldr	r3, [r3, #4]
    6a70:	4a05      	ldr	r2, [pc, #20]	; (6a88 <ARM_MPU_Disable+0x34>)
    6a72:	f023 0301 	bic.w	r3, r3, #1
    6a76:	6053      	str	r3, [r2, #4]
    6a78:	bf00      	nop
    6a7a:	46bd      	mov	sp, r7
    6a7c:	f85d 7b04 	ldr.w	r7, [sp], #4
    6a80:	4770      	bx	lr
    6a82:	bf00      	nop
    6a84:	e000ed00 	.word	0xe000ed00
    6a88:	e000ed90 	.word	0xe000ed90

00006a8c <SCB_EnableICache>:
    6a8c:	b480      	push	{r7}
    6a8e:	af00      	add	r7, sp, #0
    6a90:	f3bf 8f4f 	dsb	sy
    6a94:	f3bf 8f6f 	isb	sy
    6a98:	4b0b      	ldr	r3, [pc, #44]	; (6ac8 <SCB_EnableICache+0x3c>)
    6a9a:	2200      	movs	r2, #0
    6a9c:	f8c3 2250 	str.w	r2, [r3, #592]	; 0x250
    6aa0:	f3bf 8f4f 	dsb	sy
    6aa4:	f3bf 8f6f 	isb	sy
    6aa8:	4b07      	ldr	r3, [pc, #28]	; (6ac8 <SCB_EnableICache+0x3c>)
    6aaa:	695b      	ldr	r3, [r3, #20]
    6aac:	4a06      	ldr	r2, [pc, #24]	; (6ac8 <SCB_EnableICache+0x3c>)
    6aae:	f443 3300 	orr.w	r3, r3, #131072	; 0x20000
    6ab2:	6153      	str	r3, [r2, #20]
    6ab4:	f3bf 8f4f 	dsb	sy
    6ab8:	f3bf 8f6f 	isb	sy
    6abc:	bf00      	nop
    6abe:	46bd      	mov	sp, r7
    6ac0:	f85d 7b04 	ldr.w	r7, [sp], #4
    6ac4:	4770      	bx	lr
    6ac6:	bf00      	nop
    6ac8:	e000ed00 	.word	0xe000ed00

00006acc <SCB_DisableICache>:
    6acc:	b480      	push	{r7}
    6ace:	af00      	add	r7, sp, #0
    6ad0:	f3bf 8f4f 	dsb	sy
    6ad4:	f3bf 8f6f 	isb	sy
    6ad8:	4b09      	ldr	r3, [pc, #36]	; (6b00 <SCB_DisableICache+0x34>)
    6ada:	695b      	ldr	r3, [r3, #20]
    6adc:	4a08      	ldr	r2, [pc, #32]	; (6b00 <SCB_DisableICache+0x34>)
    6ade:	f423 3300 	bic.w	r3, r3, #131072	; 0x20000
    6ae2:	6153      	str	r3, [r2, #20]
    6ae4:	4b06      	ldr	r3, [pc, #24]	; (6b00 <SCB_DisableICache+0x34>)
    6ae6:	2200      	movs	r2, #0
    6ae8:	f8c3 2250 	str.w	r2, [r3, #592]	; 0x250
    6aec:	f3bf 8f4f 	dsb	sy
    6af0:	f3bf 8f6f 	isb	sy
    6af4:	bf00      	nop
    6af6:	46bd      	mov	sp, r7
    6af8:	f85d 7b04 	ldr.w	r7, [sp], #4
    6afc:	4770      	bx	lr
    6afe:	bf00      	nop
    6b00:	e000ed00 	.word	0xe000ed00

00006b04 <SCB_EnableDCache>:
    6b04:	b480      	push	{r7}
    6b06:	b085      	sub	sp, #20
    6b08:	af00      	add	r7, sp, #0
    6b0a:	4b1d      	ldr	r3, [pc, #116]	; (6b80 <SCB_EnableDCache+0x7c>)
    6b0c:	2200      	movs	r2, #0
    6b0e:	f8c3 2084 	str.w	r2, [r3, #132]	; 0x84
    6b12:	f3bf 8f4f 	dsb	sy
    6b16:	4b1a      	ldr	r3, [pc, #104]	; (6b80 <SCB_EnableDCache+0x7c>)
    6b18:	f8d3 3080 	ldr.w	r3, [r3, #128]	; 0x80
    6b1c:	607b      	str	r3, [r7, #4]
    6b1e:	687b      	ldr	r3, [r7, #4]
    6b20:	0b5b      	lsrs	r3, r3, #13
    6b22:	f3c3 030e 	ubfx	r3, r3, #0, #15
    6b26:	60fb      	str	r3, [r7, #12]
    6b28:	687b      	ldr	r3, [r7, #4]
    6b2a:	08db      	lsrs	r3, r3, #3
    6b2c:	f3c3 0309 	ubfx	r3, r3, #0, #10
    6b30:	60bb      	str	r3, [r7, #8]
    6b32:	68fb      	ldr	r3, [r7, #12]
    6b34:	015a      	lsls	r2, r3, #5
    6b36:	f643 73e0 	movw	r3, #16352	; 0x3fe0
    6b3a:	4013      	ands	r3, r2
    6b3c:	68ba      	ldr	r2, [r7, #8]
    6b3e:	0792      	lsls	r2, r2, #30
    6b40:	490f      	ldr	r1, [pc, #60]	; (6b80 <SCB_EnableDCache+0x7c>)
    6b42:	4313      	orrs	r3, r2
    6b44:	f8c1 3260 	str.w	r3, [r1, #608]	; 0x260
    6b48:	68bb      	ldr	r3, [r7, #8]
    6b4a:	1e5a      	subs	r2, r3, #1
    6b4c:	60ba      	str	r2, [r7, #8]
    6b4e:	2b00      	cmp	r3, #0
    6b50:	d1ef      	bne.n	6b32 <SCB_EnableDCache+0x2e>
    6b52:	68fb      	ldr	r3, [r7, #12]
    6b54:	1e5a      	subs	r2, r3, #1
    6b56:	60fa      	str	r2, [r7, #12]
    6b58:	2b00      	cmp	r3, #0
    6b5a:	d1e5      	bne.n	6b28 <SCB_EnableDCache+0x24>
    6b5c:	f3bf 8f4f 	dsb	sy
    6b60:	4b07      	ldr	r3, [pc, #28]	; (6b80 <SCB_EnableDCache+0x7c>)
    6b62:	695b      	ldr	r3, [r3, #20]
    6b64:	4a06      	ldr	r2, [pc, #24]	; (6b80 <SCB_EnableDCache+0x7c>)
    6b66:	f443 3380 	orr.w	r3, r3, #65536	; 0x10000
    6b6a:	6153      	str	r3, [r2, #20]
    6b6c:	f3bf 8f4f 	dsb	sy
    6b70:	f3bf 8f6f 	isb	sy
    6b74:	bf00      	nop
    6b76:	3714      	adds	r7, #20
    6b78:	46bd      	mov	sp, r7
    6b7a:	f85d 7b04 	ldr.w	r7, [sp], #4
    6b7e:	4770      	bx	lr
    6b80:	e000ed00 	.word	0xe000ed00

00006b84 <SCB_DisableDCache>:
    6b84:	b4f0      	push	{r4, r5, r6, r7}
    6b86:	af00      	add	r7, sp, #0
    6b88:	4b17      	ldr	r3, [pc, #92]	; (6be8 <SCB_DisableDCache+0x64>)
    6b8a:	2200      	movs	r2, #0
    6b8c:	f8c3 2084 	str.w	r2, [r3, #132]	; 0x84
    6b90:	f3bf 8f4f 	dsb	sy
    6b94:	4b14      	ldr	r3, [pc, #80]	; (6be8 <SCB_DisableDCache+0x64>)
    6b96:	695b      	ldr	r3, [r3, #20]
    6b98:	4a13      	ldr	r2, [pc, #76]	; (6be8 <SCB_DisableDCache+0x64>)
    6b9a:	f423 3380 	bic.w	r3, r3, #65536	; 0x10000
    6b9e:	6153      	str	r3, [r2, #20]
    6ba0:	f3bf 8f4f 	dsb	sy
    6ba4:	4b10      	ldr	r3, [pc, #64]	; (6be8 <SCB_DisableDCache+0x64>)
    6ba6:	f8d3 6080 	ldr.w	r6, [r3, #128]	; 0x80
    6baa:	0b73      	lsrs	r3, r6, #13
    6bac:	f3c3 040e 	ubfx	r4, r3, #0, #15
    6bb0:	08f3      	lsrs	r3, r6, #3
    6bb2:	f3c3 0509 	ubfx	r5, r3, #0, #10
    6bb6:	0162      	lsls	r2, r4, #5
    6bb8:	f643 73e0 	movw	r3, #16352	; 0x3fe0
    6bbc:	4013      	ands	r3, r2
    6bbe:	07aa      	lsls	r2, r5, #30
    6bc0:	4909      	ldr	r1, [pc, #36]	; (6be8 <SCB_DisableDCache+0x64>)
    6bc2:	4313      	orrs	r3, r2
    6bc4:	f8c1 3274 	str.w	r3, [r1, #628]	; 0x274
    6bc8:	462b      	mov	r3, r5
    6bca:	1e5d      	subs	r5, r3, #1
    6bcc:	2b00      	cmp	r3, #0
    6bce:	d1f2      	bne.n	6bb6 <SCB_DisableDCache+0x32>
    6bd0:	4623      	mov	r3, r4
    6bd2:	1e5c      	subs	r4, r3, #1
    6bd4:	2b00      	cmp	r3, #0
    6bd6:	d1eb      	bne.n	6bb0 <SCB_DisableDCache+0x2c>
    6bd8:	f3bf 8f4f 	dsb	sy
    6bdc:	f3bf 8f6f 	isb	sy
    6be0:	bf00      	nop
    6be2:	46bd      	mov	sp, r7
    6be4:	bcf0      	pop	{r4, r5, r6, r7}
    6be6:	4770      	bx	lr
    6be8:	e000ed00 	.word	0xe000ed00

00006bec <CLOCK_GetMux>:
    6bec:	b480      	push	{r7}
    6bee:	b083      	sub	sp, #12
    6bf0:	af00      	add	r7, sp, #0
    6bf2:	6078      	str	r0, [r7, #4]
    6bf4:	687b      	ldr	r3, [r7, #4]
    6bf6:	b2da      	uxtb	r2, r3
    6bf8:	4b0c      	ldr	r3, [pc, #48]	; (6c2c <CLOCK_GetMux+0x40>)
    6bfa:	4413      	add	r3, r2
    6bfc:	681a      	ldr	r2, [r3, #0]
    6bfe:	687b      	ldr	r3, [r7, #4]
    6c00:	135b      	asrs	r3, r3, #13
    6c02:	f3c3 010c 	ubfx	r1, r3, #0, #13
    6c06:	687b      	ldr	r3, [r7, #4]
    6c08:	121b      	asrs	r3, r3, #8
    6c0a:	f003 031f 	and.w	r3, r3, #31
    6c0e:	fa01 f303 	lsl.w	r3, r1, r3
    6c12:	401a      	ands	r2, r3
    6c14:	687b      	ldr	r3, [r7, #4]
    6c16:	121b      	asrs	r3, r3, #8
    6c18:	f003 031f 	and.w	r3, r3, #31
    6c1c:	fa22 f303 	lsr.w	r3, r2, r3
    6c20:	4618      	mov	r0, r3
    6c22:	370c      	adds	r7, #12
    6c24:	46bd      	mov	sp, r7
    6c26:	f85d 7b04 	ldr.w	r7, [sp], #4
    6c2a:	4770      	bx	lr
    6c2c:	400fc000 	.word	0x400fc000

00006c30 <CLOCK_GetDiv>:
    6c30:	b480      	push	{r7}
    6c32:	b083      	sub	sp, #12
    6c34:	af00      	add	r7, sp, #0
    6c36:	6078      	str	r0, [r7, #4]
    6c38:	687b      	ldr	r3, [r7, #4]
    6c3a:	b2da      	uxtb	r2, r3
    6c3c:	4b0c      	ldr	r3, [pc, #48]	; (6c70 <CLOCK_GetDiv+0x40>)
    6c3e:	4413      	add	r3, r2
    6c40:	681a      	ldr	r2, [r3, #0]
    6c42:	687b      	ldr	r3, [r7, #4]
    6c44:	135b      	asrs	r3, r3, #13
    6c46:	f3c3 010c 	ubfx	r1, r3, #0, #13
    6c4a:	687b      	ldr	r3, [r7, #4]
    6c4c:	121b      	asrs	r3, r3, #8
    6c4e:	f003 031f 	and.w	r3, r3, #31
    6c52:	fa01 f303 	lsl.w	r3, r1, r3
    6c56:	401a      	ands	r2, r3
    6c58:	687b      	ldr	r3, [r7, #4]
    6c5a:	121b      	asrs	r3, r3, #8
    6c5c:	f003 031f 	and.w	r3, r3, #31
    6c60:	fa22 f303 	lsr.w	r3, r2, r3
    6c64:	4618      	mov	r0, r3
    6c66:	370c      	adds	r7, #12
    6c68:	46bd      	mov	sp, r7
    6c6a:	f85d 7b04 	ldr.w	r7, [sp], #4
    6c6e:	4770      	bx	lr
    6c70:	400fc000 	.word	0x400fc000

00006c74 <CLOCK_GetOscFreq>:
    6c74:	b480      	push	{r7}
    6c76:	af00      	add	r7, sp, #0
    6c78:	4b07      	ldr	r3, [pc, #28]	; (6c98 <CLOCK_GetOscFreq+0x24>)
    6c7a:	f8d3 3270 	ldr.w	r3, [r3, #624]	; 0x270
    6c7e:	f003 0310 	and.w	r3, r3, #16
    6c82:	2b00      	cmp	r3, #0
    6c84:	d102      	bne.n	6c8c <CLOCK_GetOscFreq+0x18>
    6c86:	4b05      	ldr	r3, [pc, #20]	; (6c9c <CLOCK_GetOscFreq+0x28>)
    6c88:	681b      	ldr	r3, [r3, #0]
    6c8a:	e000      	b.n	6c8e <CLOCK_GetOscFreq+0x1a>
    6c8c:	4b04      	ldr	r3, [pc, #16]	; (6ca0 <CLOCK_GetOscFreq+0x2c>)
    6c8e:	4618      	mov	r0, r3
    6c90:	46bd      	mov	sp, r7
    6c92:	f85d 7b04 	ldr.w	r7, [sp], #4
    6c96:	4770      	bx	lr
    6c98:	400d8000 	.word	0x400d8000
    6c9c:	200008e8 	.word	0x200008e8
    6ca0:	016e3600 	.word	0x016e3600

00006ca4 <BOARD_DebugConsoleSrcFreq>:
    6ca4:	b590      	push	{r4, r7, lr}
    6ca6:	b083      	sub	sp, #12
    6ca8:	af00      	add	r7, sp, #0
    6caa:	4813      	ldr	r0, [pc, #76]	; (6cf8 <BOARD_DebugConsoleSrcFreq+0x54>)
    6cac:	f7ff ff9e 	bl	6bec <CLOCK_GetMux>
    6cb0:	4603      	mov	r3, r0
    6cb2:	2b00      	cmp	r3, #0
    6cb4:	d110      	bne.n	6cd8 <BOARD_DebugConsoleSrcFreq+0x34>
    6cb6:	4811      	ldr	r0, [pc, #68]	; (6cfc <BOARD_DebugConsoleSrcFreq+0x58>)
    6cb8:	f7fc fade 	bl	3278 <CLOCK_GetPllFreq>
    6cbc:	4602      	mov	r2, r0
    6cbe:	4b10      	ldr	r3, [pc, #64]	; (6d00 <BOARD_DebugConsoleSrcFreq+0x5c>)
    6cc0:	fba3 2302 	umull	r2, r3, r3, r2
    6cc4:	089c      	lsrs	r4, r3, #2
    6cc6:	480f      	ldr	r0, [pc, #60]	; (6d04 <BOARD_DebugConsoleSrcFreq+0x60>)
    6cc8:	f7ff ffb2 	bl	6c30 <CLOCK_GetDiv>
    6ccc:	4603      	mov	r3, r0
    6cce:	3301      	adds	r3, #1
    6cd0:	fbb4 f3f3 	udiv	r3, r4, r3
    6cd4:	607b      	str	r3, [r7, #4]
    6cd6:	e00a      	b.n	6cee <BOARD_DebugConsoleSrcFreq+0x4a>
    6cd8:	f7ff ffcc 	bl	6c74 <CLOCK_GetOscFreq>
    6cdc:	4604      	mov	r4, r0
    6cde:	4809      	ldr	r0, [pc, #36]	; (6d04 <BOARD_DebugConsoleSrcFreq+0x60>)
    6ce0:	f7ff ffa6 	bl	6c30 <CLOCK_GetDiv>
    6ce4:	4603      	mov	r3, r0
    6ce6:	3301      	adds	r3, #1
    6ce8:	fbb4 f3f3 	udiv	r3, r4, r3
    6cec:	607b      	str	r3, [r7, #4]
    6cee:	687b      	ldr	r3, [r7, #4]
    6cf0:	4618      	mov	r0, r3
    6cf2:	370c      	adds	r7, #12
    6cf4:	46bd      	mov	sp, r7
    6cf6:	bd90      	pop	{r4, r7, pc}
    6cf8:	80002624 	.word	0x80002624
    6cfc:	0010000d 	.word	0x0010000d
    6d00:	aaaaaaab 	.word	0xaaaaaaab
    6d04:	8007e024 	.word	0x8007e024

00006d08 <BOARD_ConfigMPU>:
    6d08:	b580      	push	{r7, lr}
    6d0a:	af00      	add	r7, sp, #0
    6d0c:	4b2c      	ldr	r3, [pc, #176]	; (6dc0 <BOARD_ConfigMPU+0xb8>)
    6d0e:	695b      	ldr	r3, [r3, #20]
    6d10:	f403 3300 	and.w	r3, r3, #131072	; 0x20000
    6d14:	f5b3 3f00 	cmp.w	r3, #131072	; 0x20000
    6d18:	d101      	bne.n	6d1e <BOARD_ConfigMPU+0x16>
    6d1a:	f7ff fed7 	bl	6acc <SCB_DisableICache>
    6d1e:	4b28      	ldr	r3, [pc, #160]	; (6dc0 <BOARD_ConfigMPU+0xb8>)
    6d20:	695b      	ldr	r3, [r3, #20]
    6d22:	f403 3380 	and.w	r3, r3, #65536	; 0x10000
    6d26:	f5b3 3f80 	cmp.w	r3, #65536	; 0x10000
    6d2a:	d101      	bne.n	6d30 <BOARD_ConfigMPU+0x28>
    6d2c:	f7ff ff2a 	bl	6b84 <SCB_DisableDCache>
    6d30:	f7ff fe90 	bl	6a54 <ARM_MPU_Disable>
    6d34:	4b23      	ldr	r3, [pc, #140]	; (6dc4 <BOARD_ConfigMPU+0xbc>)
    6d36:	4a24      	ldr	r2, [pc, #144]	; (6dc8 <BOARD_ConfigMPU+0xc0>)
    6d38:	60da      	str	r2, [r3, #12]
    6d3a:	4b22      	ldr	r3, [pc, #136]	; (6dc4 <BOARD_ConfigMPU+0xbc>)
    6d3c:	4a23      	ldr	r2, [pc, #140]	; (6dcc <BOARD_ConfigMPU+0xc4>)
    6d3e:	611a      	str	r2, [r3, #16]
    6d40:	4b20      	ldr	r3, [pc, #128]	; (6dc4 <BOARD_ConfigMPU+0xbc>)
    6d42:	4a23      	ldr	r2, [pc, #140]	; (6dd0 <BOARD_ConfigMPU+0xc8>)
    6d44:	60da      	str	r2, [r3, #12]
    6d46:	4b1f      	ldr	r3, [pc, #124]	; (6dc4 <BOARD_ConfigMPU+0xbc>)
    6d48:	4a22      	ldr	r2, [pc, #136]	; (6dd4 <BOARD_ConfigMPU+0xcc>)
    6d4a:	611a      	str	r2, [r3, #16]
    6d4c:	4b1d      	ldr	r3, [pc, #116]	; (6dc4 <BOARD_ConfigMPU+0xbc>)
    6d4e:	4a22      	ldr	r2, [pc, #136]	; (6dd8 <BOARD_ConfigMPU+0xd0>)
    6d50:	60da      	str	r2, [r3, #12]
    6d52:	4b1c      	ldr	r3, [pc, #112]	; (6dc4 <BOARD_ConfigMPU+0xbc>)
    6d54:	4a21      	ldr	r2, [pc, #132]	; (6ddc <BOARD_ConfigMPU+0xd4>)
    6d56:	611a      	str	r2, [r3, #16]
    6d58:	4b1a      	ldr	r3, [pc, #104]	; (6dc4 <BOARD_ConfigMPU+0xbc>)
    6d5a:	2213      	movs	r2, #19
    6d5c:	60da      	str	r2, [r3, #12]
    6d5e:	4b19      	ldr	r3, [pc, #100]	; (6dc4 <BOARD_ConfigMPU+0xbc>)
    6d60:	4a1c      	ldr	r2, [pc, #112]	; (6dd4 <BOARD_ConfigMPU+0xcc>)
    6d62:	611a      	str	r2, [r3, #16]
    6d64:	4b17      	ldr	r3, [pc, #92]	; (6dc4 <BOARD_ConfigMPU+0xbc>)
    6d66:	2214      	movs	r2, #20
    6d68:	60da      	str	r2, [r3, #12]
    6d6a:	4b16      	ldr	r3, [pc, #88]	; (6dc4 <BOARD_ConfigMPU+0xbc>)
    6d6c:	4a1c      	ldr	r2, [pc, #112]	; (6de0 <BOARD_ConfigMPU+0xd8>)
    6d6e:	611a      	str	r2, [r3, #16]
    6d70:	4b14      	ldr	r3, [pc, #80]	; (6dc4 <BOARD_ConfigMPU+0xbc>)
    6d72:	4a1c      	ldr	r2, [pc, #112]	; (6de4 <BOARD_ConfigMPU+0xdc>)
    6d74:	60da      	str	r2, [r3, #12]
    6d76:	4b13      	ldr	r3, [pc, #76]	; (6dc4 <BOARD_ConfigMPU+0xbc>)
    6d78:	4a19      	ldr	r2, [pc, #100]	; (6de0 <BOARD_ConfigMPU+0xd8>)
    6d7a:	611a      	str	r2, [r3, #16]
    6d7c:	4b11      	ldr	r3, [pc, #68]	; (6dc4 <BOARD_ConfigMPU+0xbc>)
    6d7e:	4a1a      	ldr	r2, [pc, #104]	; (6de8 <BOARD_ConfigMPU+0xe0>)
    6d80:	60da      	str	r2, [r3, #12]
    6d82:	4b10      	ldr	r3, [pc, #64]	; (6dc4 <BOARD_ConfigMPU+0xbc>)
    6d84:	4a19      	ldr	r2, [pc, #100]	; (6dec <BOARD_ConfigMPU+0xe4>)
    6d86:	611a      	str	r2, [r3, #16]
    6d88:	4b0e      	ldr	r3, [pc, #56]	; (6dc4 <BOARD_ConfigMPU+0xbc>)
    6d8a:	4a19      	ldr	r2, [pc, #100]	; (6df0 <BOARD_ConfigMPU+0xe8>)
    6d8c:	60da      	str	r2, [r3, #12]
    6d8e:	4b0d      	ldr	r3, [pc, #52]	; (6dc4 <BOARD_ConfigMPU+0xbc>)
    6d90:	4a18      	ldr	r2, [pc, #96]	; (6df4 <BOARD_ConfigMPU+0xec>)
    6d92:	611a      	str	r2, [r3, #16]
    6d94:	4b0b      	ldr	r3, [pc, #44]	; (6dc4 <BOARD_ConfigMPU+0xbc>)
    6d96:	4a18      	ldr	r2, [pc, #96]	; (6df8 <BOARD_ConfigMPU+0xf0>)
    6d98:	60da      	str	r2, [r3, #12]
    6d9a:	4b0a      	ldr	r3, [pc, #40]	; (6dc4 <BOARD_ConfigMPU+0xbc>)
    6d9c:	4a17      	ldr	r2, [pc, #92]	; (6dfc <BOARD_ConfigMPU+0xf4>)
    6d9e:	611a      	str	r2, [r3, #16]
    6da0:	4b08      	ldr	r3, [pc, #32]	; (6dc4 <BOARD_ConfigMPU+0xbc>)
    6da2:	4a17      	ldr	r2, [pc, #92]	; (6e00 <BOARD_ConfigMPU+0xf8>)
    6da4:	60da      	str	r2, [r3, #12]
    6da6:	4b07      	ldr	r3, [pc, #28]	; (6dc4 <BOARD_ConfigMPU+0xbc>)
    6da8:	4a16      	ldr	r2, [pc, #88]	; (6e04 <BOARD_ConfigMPU+0xfc>)
    6daa:	611a      	str	r2, [r3, #16]
    6dac:	2004      	movs	r0, #4
    6dae:	f7ff fe33 	bl	6a18 <ARM_MPU_Enable>
    6db2:	f7ff fea7 	bl	6b04 <SCB_EnableDCache>
    6db6:	f7ff fe69 	bl	6a8c <SCB_EnableICache>
    6dba:	bf00      	nop
    6dbc:	bd80      	pop	{r7, pc}
    6dbe:	bf00      	nop
    6dc0:	e000ed00 	.word	0xe000ed00
    6dc4:	e000ed90 	.word	0xe000ed90
    6dc8:	c0000010 	.word	0xc0000010
    6dcc:	03100039 	.word	0x03100039
    6dd0:	80000011 	.word	0x80000011
    6dd4:	0310003b 	.word	0x0310003b
    6dd8:	60000012 	.word	0x60000012
    6ddc:	0603002d 	.word	0x0603002d
    6de0:	03030021 	.word	0x03030021
    6de4:	20000015 	.word	0x20000015
    6de8:	20200016 	.word	0x20200016
    6dec:	03030025 	.word	0x03030025
    6df0:	20280017 	.word	0x20280017
    6df4:	03030023 	.word	0x03030023
    6df8:	80000018 	.word	0x80000018
    6dfc:	03030031 	.word	0x03030031
    6e00:	81e00019 	.word	0x81e00019
    6e04:	03080029 	.word	0x03080029

00006e08 <CLOCK_SetMux>:
    6e08:	b580      	push	{r7, lr}
    6e0a:	b084      	sub	sp, #16
    6e0c:	af00      	add	r7, sp, #0
    6e0e:	6078      	str	r0, [r7, #4]
    6e10:	6039      	str	r1, [r7, #0]
    6e12:	687b      	ldr	r3, [r7, #4]
    6e14:	0e9b      	lsrs	r3, r3, #26
    6e16:	60fb      	str	r3, [r7, #12]
    6e18:	687b      	ldr	r3, [r7, #4]
    6e1a:	b2da      	uxtb	r2, r3
    6e1c:	4b1f      	ldr	r3, [pc, #124]	; (6e9c <CLOCK_SetMux+0x94>)
    6e1e:	4413      	add	r3, r2
    6e20:	681a      	ldr	r2, [r3, #0]
    6e22:	687b      	ldr	r3, [r7, #4]
    6e24:	135b      	asrs	r3, r3, #13
    6e26:	f3c3 010c 	ubfx	r1, r3, #0, #13
    6e2a:	687b      	ldr	r3, [r7, #4]
    6e2c:	121b      	asrs	r3, r3, #8
    6e2e:	f003 031f 	and.w	r3, r3, #31
    6e32:	fa01 f303 	lsl.w	r3, r1, r3
    6e36:	43db      	mvns	r3, r3
    6e38:	ea02 0103 	and.w	r1, r2, r3
    6e3c:	687b      	ldr	r3, [r7, #4]
    6e3e:	121b      	asrs	r3, r3, #8
    6e40:	f003 031f 	and.w	r3, r3, #31
    6e44:	683a      	ldr	r2, [r7, #0]
    6e46:	409a      	lsls	r2, r3
    6e48:	687b      	ldr	r3, [r7, #4]
    6e4a:	135b      	asrs	r3, r3, #13
    6e4c:	f3c3 000c 	ubfx	r0, r3, #0, #13
    6e50:	687b      	ldr	r3, [r7, #4]
    6e52:	121b      	asrs	r3, r3, #8
    6e54:	f003 031f 	and.w	r3, r3, #31
    6e58:	fa00 f303 	lsl.w	r3, r0, r3
    6e5c:	401a      	ands	r2, r3
    6e5e:	687b      	ldr	r3, [r7, #4]
    6e60:	b2d8      	uxtb	r0, r3
    6e62:	4b0e      	ldr	r3, [pc, #56]	; (6e9c <CLOCK_SetMux+0x94>)
    6e64:	4403      	add	r3, r0
    6e66:	4618      	mov	r0, r3
    6e68:	ea41 0302 	orr.w	r3, r1, r2
    6e6c:	6003      	str	r3, [r0, #0]
    6e6e:	68fb      	ldr	r3, [r7, #12]
    6e70:	2b20      	cmp	r3, #32
    6e72:	d902      	bls.n	6e7a <CLOCK_SetMux+0x72>
    6e74:	480a      	ldr	r0, [pc, #40]	; (6ea0 <CLOCK_SetMux+0x98>)
    6e76:	f000 fdb1 	bl	79dc <__assertion_failed>
    6e7a:	68fb      	ldr	r3, [r7, #12]
    6e7c:	2b20      	cmp	r3, #32
    6e7e:	d009      	beq.n	6e94 <CLOCK_SetMux+0x8c>
    6e80:	bf00      	nop
    6e82:	4b06      	ldr	r3, [pc, #24]	; (6e9c <CLOCK_SetMux+0x94>)
    6e84:	6c9a      	ldr	r2, [r3, #72]	; 0x48
    6e86:	68fb      	ldr	r3, [r7, #12]
    6e88:	fa22 f303 	lsr.w	r3, r2, r3
    6e8c:	f003 0301 	and.w	r3, r3, #1
    6e90:	2b00      	cmp	r3, #0
    6e92:	d1f6      	bne.n	6e82 <CLOCK_SetMux+0x7a>
    6e94:	bf00      	nop
    6e96:	3710      	adds	r7, #16
    6e98:	46bd      	mov	sp, r7
    6e9a:	bd80      	pop	{r7, pc}
    6e9c:	400fc000 	.word	0x400fc000
    6ea0:	0000d260 	.word	0x0000d260

00006ea4 <CLOCK_SetDiv>:
    6ea4:	b580      	push	{r7, lr}
    6ea6:	b084      	sub	sp, #16
    6ea8:	af00      	add	r7, sp, #0
    6eaa:	6078      	str	r0, [r7, #4]
    6eac:	6039      	str	r1, [r7, #0]
    6eae:	687b      	ldr	r3, [r7, #4]
    6eb0:	0e9b      	lsrs	r3, r3, #26
    6eb2:	60fb      	str	r3, [r7, #12]
    6eb4:	687b      	ldr	r3, [r7, #4]
    6eb6:	b2da      	uxtb	r2, r3
    6eb8:	4b1f      	ldr	r3, [pc, #124]	; (6f38 <CLOCK_SetDiv+0x94>)
    6eba:	4413      	add	r3, r2
    6ebc:	681a      	ldr	r2, [r3, #0]
    6ebe:	687b      	ldr	r3, [r7, #4]
    6ec0:	135b      	asrs	r3, r3, #13
    6ec2:	f3c3 010c 	ubfx	r1, r3, #0, #13
    6ec6:	687b      	ldr	r3, [r7, #4]
    6ec8:	121b      	asrs	r3, r3, #8
    6eca:	f003 031f 	and.w	r3, r3, #31
    6ece:	fa01 f303 	lsl.w	r3, r1, r3
    6ed2:	43db      	mvns	r3, r3
    6ed4:	ea02 0103 	and.w	r1, r2, r3
    6ed8:	687b      	ldr	r3, [r7, #4]
    6eda:	121b      	asrs	r3, r3, #8
    6edc:	f003 031f 	and.w	r3, r3, #31
    6ee0:	683a      	ldr	r2, [r7, #0]
    6ee2:	409a      	lsls	r2, r3
    6ee4:	687b      	ldr	r3, [r7, #4]
    6ee6:	135b      	asrs	r3, r3, #13
    6ee8:	f3c3 000c 	ubfx	r0, r3, #0, #13
    6eec:	687b      	ldr	r3, [r7, #4]
    6eee:	121b      	asrs	r3, r3, #8
    6ef0:	f003 031f 	and.w	r3, r3, #31
    6ef4:	fa00 f303 	lsl.w	r3, r0, r3
    6ef8:	401a      	ands	r2, r3
    6efa:	687b      	ldr	r3, [r7, #4]
    6efc:	b2d8      	uxtb	r0, r3
    6efe:	4b0e      	ldr	r3, [pc, #56]	; (6f38 <CLOCK_SetDiv+0x94>)
    6f00:	4403      	add	r3, r0
    6f02:	4618      	mov	r0, r3
    6f04:	ea41 0302 	orr.w	r3, r1, r2
    6f08:	6003      	str	r3, [r0, #0]
    6f0a:	68fb      	ldr	r3, [r7, #12]
    6f0c:	2b20      	cmp	r3, #32
    6f0e:	d902      	bls.n	6f16 <CLOCK_SetDiv+0x72>
    6f10:	480a      	ldr	r0, [pc, #40]	; (6f3c <CLOCK_SetDiv+0x98>)
    6f12:	f000 fd63 	bl	79dc <__assertion_failed>
    6f16:	68fb      	ldr	r3, [r7, #12]
    6f18:	2b20      	cmp	r3, #32
    6f1a:	d009      	beq.n	6f30 <CLOCK_SetDiv+0x8c>
    6f1c:	bf00      	nop
    6f1e:	4b06      	ldr	r3, [pc, #24]	; (6f38 <CLOCK_SetDiv+0x94>)
    6f20:	6c9a      	ldr	r2, [r3, #72]	; 0x48
    6f22:	68fb      	ldr	r3, [r7, #12]
    6f24:	fa22 f303 	lsr.w	r3, r2, r3
    6f28:	f003 0301 	and.w	r3, r3, #1
    6f2c:	2b00      	cmp	r3, #0
    6f2e:	d1f6      	bne.n	6f1e <CLOCK_SetDiv+0x7a>
    6f30:	bf00      	nop
    6f32:	3710      	adds	r7, #16
    6f34:	46bd      	mov	sp, r7
    6f36:	bd80      	pop	{r7, pc}
    6f38:	400fc000 	.word	0x400fc000
    6f3c:	0000d29c 	.word	0x0000d29c

00006f40 <CLOCK_ControlGate>:
    6f40:	b580      	push	{r7, lr}
    6f42:	b086      	sub	sp, #24
    6f44:	af00      	add	r7, sp, #0
    6f46:	4603      	mov	r3, r0
    6f48:	460a      	mov	r2, r1
    6f4a:	80fb      	strh	r3, [r7, #6]
    6f4c:	4613      	mov	r3, r2
    6f4e:	717b      	strb	r3, [r7, #5]
    6f50:	f9b7 3006 	ldrsh.w	r3, [r7, #6]
    6f54:	0a1b      	lsrs	r3, r3, #8
    6f56:	617b      	str	r3, [r7, #20]
    6f58:	88fb      	ldrh	r3, [r7, #6]
    6f5a:	f003 031f 	and.w	r3, r3, #31
    6f5e:	613b      	str	r3, [r7, #16]
    6f60:	697b      	ldr	r3, [r7, #20]
    6f62:	2b07      	cmp	r3, #7
    6f64:	d902      	bls.n	6f6c <CLOCK_ControlGate+0x2c>
    6f66:	480d      	ldr	r0, [pc, #52]	; (6f9c <CLOCK_ControlGate+0x5c>)
    6f68:	f000 fd38 	bl	79dc <__assertion_failed>
    6f6c:	697b      	ldr	r3, [r7, #20]
    6f6e:	009a      	lsls	r2, r3, #2
    6f70:	4b0b      	ldr	r3, [pc, #44]	; (6fa0 <CLOCK_ControlGate+0x60>)
    6f72:	4413      	add	r3, r2
    6f74:	60fb      	str	r3, [r7, #12]
    6f76:	68fb      	ldr	r3, [r7, #12]
    6f78:	681a      	ldr	r2, [r3, #0]
    6f7a:	2103      	movs	r1, #3
    6f7c:	693b      	ldr	r3, [r7, #16]
    6f7e:	fa01 f303 	lsl.w	r3, r1, r3
    6f82:	43db      	mvns	r3, r3
    6f84:	401a      	ands	r2, r3
    6f86:	7979      	ldrb	r1, [r7, #5]
    6f88:	693b      	ldr	r3, [r7, #16]
    6f8a:	fa01 f303 	lsl.w	r3, r1, r3
    6f8e:	431a      	orrs	r2, r3
    6f90:	68fb      	ldr	r3, [r7, #12]
    6f92:	601a      	str	r2, [r3, #0]
    6f94:	bf00      	nop
    6f96:	3718      	adds	r7, #24
    6f98:	46bd      	mov	sp, r7
    6f9a:	bd80      	pop	{r7, pc}
    6f9c:	0000d2d8 	.word	0x0000d2d8
    6fa0:	400fc068 	.word	0x400fc068

00006fa4 <CLOCK_SetXtalFreq>:
    6fa4:	b480      	push	{r7}
    6fa6:	b083      	sub	sp, #12
    6fa8:	af00      	add	r7, sp, #0
    6faa:	6078      	str	r0, [r7, #4]
    6fac:	4a04      	ldr	r2, [pc, #16]	; (6fc0 <CLOCK_SetXtalFreq+0x1c>)
    6fae:	687b      	ldr	r3, [r7, #4]
    6fb0:	6013      	str	r3, [r2, #0]
    6fb2:	bf00      	nop
    6fb4:	370c      	adds	r7, #12
    6fb6:	46bd      	mov	sp, r7
    6fb8:	f85d 7b04 	ldr.w	r7, [sp], #4
    6fbc:	4770      	bx	lr
    6fbe:	bf00      	nop
    6fc0:	200008e8 	.word	0x200008e8

00006fc4 <CLOCK_SetRtcXtalFreq>:
    6fc4:	b480      	push	{r7}
    6fc6:	b083      	sub	sp, #12
    6fc8:	af00      	add	r7, sp, #0
    6fca:	6078      	str	r0, [r7, #4]
    6fcc:	4a04      	ldr	r2, [pc, #16]	; (6fe0 <CLOCK_SetRtcXtalFreq+0x1c>)
    6fce:	687b      	ldr	r3, [r7, #4]
    6fd0:	6013      	str	r3, [r2, #0]
    6fd2:	bf00      	nop
    6fd4:	370c      	adds	r7, #12
    6fd6:	46bd      	mov	sp, r7
    6fd8:	f85d 7b04 	ldr.w	r7, [sp], #4
    6fdc:	4770      	bx	lr
    6fde:	bf00      	nop
    6fe0:	200008ec 	.word	0x200008ec

00006fe4 <IOMUXC_EnableMode>:
    6fe4:	b480      	push	{r7}
    6fe6:	b085      	sub	sp, #20
    6fe8:	af00      	add	r7, sp, #0
    6fea:	60f8      	str	r0, [r7, #12]
    6fec:	60b9      	str	r1, [r7, #8]
    6fee:	4613      	mov	r3, r2
    6ff0:	71fb      	strb	r3, [r7, #7]
    6ff2:	68ba      	ldr	r2, [r7, #8]
    6ff4:	4b0c      	ldr	r3, [pc, #48]	; (7028 <IOMUXC_EnableMode+0x44>)
    6ff6:	4013      	ands	r3, r2
    6ff8:	60bb      	str	r3, [r7, #8]
    6ffa:	79fb      	ldrb	r3, [r7, #7]
    6ffc:	2b00      	cmp	r3, #0
    6ffe:	d006      	beq.n	700e <IOMUXC_EnableMode+0x2a>
    7000:	68fb      	ldr	r3, [r7, #12]
    7002:	685a      	ldr	r2, [r3, #4]
    7004:	68bb      	ldr	r3, [r7, #8]
    7006:	431a      	orrs	r2, r3
    7008:	68fb      	ldr	r3, [r7, #12]
    700a:	605a      	str	r2, [r3, #4]
    700c:	e006      	b.n	701c <IOMUXC_EnableMode+0x38>
    700e:	68fb      	ldr	r3, [r7, #12]
    7010:	685a      	ldr	r2, [r3, #4]
    7012:	68bb      	ldr	r3, [r7, #8]
    7014:	43db      	mvns	r3, r3
    7016:	401a      	ands	r2, r3
    7018:	68fb      	ldr	r3, [r7, #12]
    701a:	605a      	str	r2, [r3, #4]
    701c:	bf00      	nop
    701e:	3714      	adds	r7, #20
    7020:	46bd      	mov	sp, r7
    7022:	f85d 7b04 	ldr.w	r7, [sp], #4
    7026:	4770      	bx	lr
    7028:	fffff000 	.word	0xfffff000

0000702c <IOMUXC_MQSConfig>:
    702c:	b480      	push	{r7}
    702e:	b085      	sub	sp, #20
    7030:	af00      	add	r7, sp, #0
    7032:	6078      	str	r0, [r7, #4]
    7034:	460b      	mov	r3, r1
    7036:	70fb      	strb	r3, [r7, #3]
    7038:	4613      	mov	r3, r2
    703a:	70bb      	strb	r3, [r7, #2]
    703c:	687b      	ldr	r3, [r7, #4]
    703e:	689a      	ldr	r2, [r3, #8]
    7040:	4b0a      	ldr	r3, [pc, #40]	; (706c <IOMUXC_MQSConfig+0x40>)
    7042:	4013      	ands	r3, r2
    7044:	60fb      	str	r3, [r7, #12]
    7046:	78fb      	ldrb	r3, [r7, #3]
    7048:	069b      	lsls	r3, r3, #26
    704a:	f003 6280 	and.w	r2, r3, #67108864	; 0x4000000
    704e:	68fb      	ldr	r3, [r7, #12]
    7050:	431a      	orrs	r2, r3
    7052:	78bb      	ldrb	r3, [r7, #2]
    7054:	041b      	lsls	r3, r3, #16
    7056:	f403 037f 	and.w	r3, r3, #16711680	; 0xff0000
    705a:	431a      	orrs	r2, r3
    705c:	687b      	ldr	r3, [r7, #4]
    705e:	609a      	str	r2, [r3, #8]
    7060:	bf00      	nop
    7062:	3714      	adds	r7, #20
    7064:	46bd      	mov	sp, r7
    7066:	f85d 7b04 	ldr.w	r7, [sp], #4
    706a:	4770      	bx	lr
    706c:	fb00ffff 	.word	0xfb00ffff

00007070 <BOARD_BootClockRUN>:
    7070:	b580      	push	{r7, lr}
    7072:	af00      	add	r7, sp, #0
    7074:	f44f 4000 	mov.w	r0, #32768	; 0x8000
    7078:	f7ff ffa4 	bl	6fc4 <CLOCK_SetRtcXtalFreq>
    707c:	4bdc      	ldr	r3, [pc, #880]	; (73f0 <BOARD_BootClockRUN+0x380>)
    707e:	f8d3 32c0 	ldr.w	r3, [r3, #704]	; 0x2c0
    7082:	4adb      	ldr	r2, [pc, #876]	; (73f0 <BOARD_BootClockRUN+0x380>)
    7084:	f443 3380 	orr.w	r3, r3, #65536	; 0x10000
    7088:	f8c2 32c0 	str.w	r3, [r2, #704]	; 0x2c0
    708c:	4bd8      	ldr	r3, [pc, #864]	; (73f0 <BOARD_BootClockRUN+0x380>)
    708e:	f8d3 32c0 	ldr.w	r3, [r3, #704]	; 0x2c0
    7092:	4ad7      	ldr	r2, [pc, #860]	; (73f0 <BOARD_BootClockRUN+0x380>)
    7094:	f423 3300 	bic.w	r3, r3, #131072	; 0x20000
    7098:	f8c2 32c0 	str.w	r3, [r2, #704]	; 0x2c0
    709c:	48d5      	ldr	r0, [pc, #852]	; (73f4 <BOARD_BootClockRUN+0x384>)
    709e:	f7ff ff81 	bl	6fa4 <CLOCK_SetXtalFreq>
    70a2:	2000      	movs	r0, #0
    70a4:	f7fb fe98 	bl	2dd8 <CLOCK_InitExternalClk>
    70a8:	f7fb fee6 	bl	2e78 <CLOCK_InitRcOsc24M>
    70ac:	2001      	movs	r0, #1
    70ae:	f7fb fec9 	bl	2e44 <CLOCK_SwitchOsc>
    70b2:	4bd1      	ldr	r3, [pc, #836]	; (73f8 <BOARD_BootClockRUN+0x388>)
    70b4:	681b      	ldr	r3, [r3, #0]
    70b6:	f023 03ff 	bic.w	r3, r3, #255	; 0xff
    70ba:	4acf      	ldr	r2, [pc, #828]	; (73f8 <BOARD_BootClockRUN+0x388>)
    70bc:	f043 037f 	orr.w	r3, r3, #127	; 0x7f
    70c0:	6013      	str	r3, [r2, #0]
    70c2:	2101      	movs	r1, #1
    70c4:	48cd      	ldr	r0, [pc, #820]	; (73fc <BOARD_BootClockRUN+0x38c>)
    70c6:	f7ff fe9f 	bl	6e08 <CLOCK_SetMux>
    70ca:	2101      	movs	r1, #1
    70cc:	48cc      	ldr	r0, [pc, #816]	; (7400 <BOARD_BootClockRUN+0x390>)
    70ce:	f7ff fe9b 	bl	6e08 <CLOCK_SetMux>
    70d2:	4bcc      	ldr	r3, [pc, #816]	; (7404 <BOARD_BootClockRUN+0x394>)
    70d4:	68db      	ldr	r3, [r3, #12]
    70d6:	f023 031f 	bic.w	r3, r3, #31
    70da:	4aca      	ldr	r2, [pc, #808]	; (7404 <BOARD_BootClockRUN+0x394>)
    70dc:	f043 0313 	orr.w	r3, r3, #19
    70e0:	60d3      	str	r3, [r2, #12]
    70e2:	bf00      	nop
    70e4:	4bc7      	ldr	r3, [pc, #796]	; (7404 <BOARD_BootClockRUN+0x394>)
    70e6:	681b      	ldr	r3, [r3, #0]
    70e8:	f003 4300 	and.w	r3, r3, #2147483648	; 0x80000000
    70ec:	f1b3 4f00 	cmp.w	r3, #2147483648	; 0x80000000
    70f0:	d1f8      	bne.n	70e4 <BOARD_BootClockRUN+0x74>
    70f2:	2100      	movs	r1, #0
    70f4:	48c4      	ldr	r0, [pc, #784]	; (7408 <BOARD_BootClockRUN+0x398>)
    70f6:	f7ff fed5 	bl	6ea4 <CLOCK_SetDiv>
    70fa:	f44f 7088 	mov.w	r0, #272	; 0x110
    70fe:	f002 ff3a 	bl	9f76 <CLOCK_DisableClock>
    7102:	f44f 7084 	mov.w	r0, #264	; 0x108
    7106:	f002 ff36 	bl	9f76 <CLOCK_DisableClock>
    710a:	f240 2016 	movw	r0, #534	; 0x216
    710e:	f002 ff32 	bl	9f76 <CLOCK_DisableClock>
    7112:	f44f 7006 	mov.w	r0, #536	; 0x218
    7116:	f002 ff2e 	bl	9f76 <CLOCK_DisableClock>
    711a:	f240 200e 	movw	r0, #526	; 0x20e
    711e:	f002 ff2a 	bl	9f76 <CLOCK_DisableClock>
    7122:	2103      	movs	r1, #3
    7124:	48b9      	ldr	r0, [pc, #740]	; (740c <BOARD_BootClockRUN+0x39c>)
    7126:	f7ff febd 	bl	6ea4 <CLOCK_SetDiv>
    712a:	2101      	movs	r1, #1
    712c:	48b8      	ldr	r0, [pc, #736]	; (7410 <BOARD_BootClockRUN+0x3a0>)
    712e:	f7ff feb9 	bl	6ea4 <CLOCK_SetDiv>
    7132:	2100      	movs	r1, #0
    7134:	48b7      	ldr	r0, [pc, #732]	; (7414 <BOARD_BootClockRUN+0x3a4>)
    7136:	f7ff feb5 	bl	6ea4 <CLOCK_SetDiv>
    713a:	f44f 708a 	mov.w	r0, #276	; 0x114
    713e:	f002 ff1a 	bl	9f76 <CLOCK_DisableClock>
    7142:	f44f 708b 	mov.w	r0, #278	; 0x116
    7146:	f002 ff16 	bl	9f76 <CLOCK_DisableClock>
    714a:	2018      	movs	r0, #24
    714c:	f002 ff13 	bl	9f76 <CLOCK_DisableClock>
    7150:	201a      	movs	r0, #26
    7152:	f002 ff10 	bl	9f76 <CLOCK_DisableClock>
    7156:	f44f 7086 	mov.w	r0, #268	; 0x10c
    715a:	f002 ff0c 	bl	9f76 <CLOCK_DisableClock>
    715e:	2101      	movs	r1, #1
    7160:	48ad      	ldr	r0, [pc, #692]	; (7418 <BOARD_BootClockRUN+0x3a8>)
    7162:	f7ff fe9f 	bl	6ea4 <CLOCK_SetDiv>
    7166:	f240 6002 	movw	r0, #1538	; 0x602
    716a:	f002 ff04 	bl	9f76 <CLOCK_DisableClock>
    716e:	2101      	movs	r1, #1
    7170:	48aa      	ldr	r0, [pc, #680]	; (741c <BOARD_BootClockRUN+0x3ac>)
    7172:	f7ff fe97 	bl	6ea4 <CLOCK_SetDiv>
    7176:	2100      	movs	r1, #0
    7178:	48a9      	ldr	r0, [pc, #676]	; (7420 <BOARD_BootClockRUN+0x3b0>)
    717a:	f7ff fe45 	bl	6e08 <CLOCK_SetMux>
    717e:	f240 6004 	movw	r0, #1540	; 0x604
    7182:	f002 fef8 	bl	9f76 <CLOCK_DisableClock>
    7186:	2101      	movs	r1, #1
    7188:	48a6      	ldr	r0, [pc, #664]	; (7424 <BOARD_BootClockRUN+0x3b4>)
    718a:	f7ff fe8b 	bl	6ea4 <CLOCK_SetDiv>
    718e:	2100      	movs	r1, #0
    7190:	48a5      	ldr	r0, [pc, #660]	; (7428 <BOARD_BootClockRUN+0x3b8>)
    7192:	f7ff fe39 	bl	6e08 <CLOCK_SetMux>
    7196:	f44f 7041 	mov.w	r0, #772	; 0x304
    719a:	f002 feec 	bl	9f76 <CLOCK_DisableClock>
    719e:	2107      	movs	r1, #7
    71a0:	f24f 0014 	movw	r0, #61460	; 0xf014
    71a4:	f7ff fe7e 	bl	6ea4 <CLOCK_SetDiv>
    71a8:	2100      	movs	r1, #0
    71aa:	48a0      	ldr	r0, [pc, #640]	; (742c <BOARD_BootClockRUN+0x3bc>)
    71ac:	f7ff fe2c 	bl	6e08 <CLOCK_SetMux>
    71b0:	2100      	movs	r1, #0
    71b2:	489f      	ldr	r0, [pc, #636]	; (7430 <BOARD_BootClockRUN+0x3c0>)
    71b4:	f7ff fe28 	bl	6e08 <CLOCK_SetMux>
    71b8:	f240 7002 	movw	r0, #1794	; 0x702
    71bc:	f002 fedb 	bl	9f76 <CLOCK_DisableClock>
    71c0:	2101      	movs	r1, #1
    71c2:	489c      	ldr	r0, [pc, #624]	; (7434 <BOARD_BootClockRUN+0x3c4>)
    71c4:	f7ff fe6e 	bl	6ea4 <CLOCK_SetDiv>
    71c8:	2101      	movs	r1, #1
    71ca:	489b      	ldr	r0, [pc, #620]	; (7438 <BOARD_BootClockRUN+0x3c8>)
    71cc:	f7ff fe1c 	bl	6e08 <CLOCK_SetMux>
    71d0:	f240 2002 	movw	r0, #514	; 0x202
    71d4:	f002 fecf 	bl	9f76 <CLOCK_DisableClock>
    71d8:	2101      	movs	r1, #1
    71da:	4898      	ldr	r0, [pc, #608]	; (743c <BOARD_BootClockRUN+0x3cc>)
    71dc:	f7ff fe62 	bl	6ea4 <CLOCK_SetDiv>
    71e0:	2100      	movs	r1, #0
    71e2:	4897      	ldr	r0, [pc, #604]	; (7440 <BOARD_BootClockRUN+0x3d0>)
    71e4:	f7ff fe10 	bl	6e08 <CLOCK_SetMux>
    71e8:	f44f 7080 	mov.w	r0, #256	; 0x100
    71ec:	f002 fec3 	bl	9f76 <CLOCK_DisableClock>
    71f0:	f44f 7081 	mov.w	r0, #258	; 0x102
    71f4:	f002 febf 	bl	9f76 <CLOCK_DisableClock>
    71f8:	f44f 7082 	mov.w	r0, #260	; 0x104
    71fc:	f002 febb 	bl	9f76 <CLOCK_DisableClock>
    7200:	f44f 7083 	mov.w	r0, #262	; 0x106
    7204:	f002 feb7 	bl	9f76 <CLOCK_DisableClock>
    7208:	2102      	movs	r1, #2
    720a:	488e      	ldr	r0, [pc, #568]	; (7444 <BOARD_BootClockRUN+0x3d4>)
    720c:	f7ff fe4a 	bl	6ea4 <CLOCK_SetDiv>
    7210:	2102      	movs	r1, #2
    7212:	488d      	ldr	r0, [pc, #564]	; (7448 <BOARD_BootClockRUN+0x3d8>)
    7214:	f7ff fdf8 	bl	6e08 <CLOCK_SetMux>
    7218:	2016      	movs	r0, #22
    721a:	f002 feac 	bl	9f76 <CLOCK_DisableClock>
    721e:	2102      	movs	r1, #2
    7220:	488a      	ldr	r0, [pc, #552]	; (744c <BOARD_BootClockRUN+0x3dc>)
    7222:	f7ff fe3f 	bl	6ea4 <CLOCK_SetDiv>
    7226:	2102      	movs	r1, #2
    7228:	4889      	ldr	r0, [pc, #548]	; (7450 <BOARD_BootClockRUN+0x3e0>)
    722a:	f7ff fded 	bl	6e08 <CLOCK_SetMux>
    722e:	f240 5012 	movw	r0, #1298	; 0x512
    7232:	f002 fea0 	bl	9f76 <CLOCK_DisableClock>
    7236:	2103      	movs	r1, #3
    7238:	4886      	ldr	r0, [pc, #536]	; (7454 <BOARD_BootClockRUN+0x3e4>)
    723a:	f7ff fe33 	bl	6ea4 <CLOCK_SetDiv>
    723e:	2101      	movs	r1, #1
    7240:	4885      	ldr	r0, [pc, #532]	; (7458 <BOARD_BootClockRUN+0x3e8>)
    7242:	f7ff fe2f 	bl	6ea4 <CLOCK_SetDiv>
    7246:	2100      	movs	r1, #0
    7248:	4884      	ldr	r0, [pc, #528]	; (745c <BOARD_BootClockRUN+0x3ec>)
    724a:	f7ff fddd 	bl	6e08 <CLOCK_SetMux>
    724e:	f240 5014 	movw	r0, #1300	; 0x514
    7252:	f002 fe90 	bl	9f76 <CLOCK_DisableClock>
    7256:	2103      	movs	r1, #3
    7258:	4881      	ldr	r0, [pc, #516]	; (7460 <BOARD_BootClockRUN+0x3f0>)
    725a:	f7ff fe23 	bl	6ea4 <CLOCK_SetDiv>
    725e:	2101      	movs	r1, #1
    7260:	4880      	ldr	r0, [pc, #512]	; (7464 <BOARD_BootClockRUN+0x3f4>)
    7262:	f7ff fe1f 	bl	6ea4 <CLOCK_SetDiv>
    7266:	2100      	movs	r1, #0
    7268:	487f      	ldr	r0, [pc, #508]	; (7468 <BOARD_BootClockRUN+0x3f8>)
    726a:	f7ff fdcd 	bl	6e08 <CLOCK_SetMux>
    726e:	f240 5016 	movw	r0, #1302	; 0x516
    7272:	f002 fe80 	bl	9f76 <CLOCK_DisableClock>
    7276:	2103      	movs	r1, #3
    7278:	487c      	ldr	r0, [pc, #496]	; (746c <BOARD_BootClockRUN+0x3fc>)
    727a:	f7ff fe13 	bl	6ea4 <CLOCK_SetDiv>
    727e:	2101      	movs	r1, #1
    7280:	487b      	ldr	r0, [pc, #492]	; (7470 <BOARD_BootClockRUN+0x400>)
    7282:	f7ff fe0f 	bl	6ea4 <CLOCK_SetDiv>
    7286:	2100      	movs	r1, #0
    7288:	487a      	ldr	r0, [pc, #488]	; (7474 <BOARD_BootClockRUN+0x404>)
    728a:	f7ff fdbd 	bl	6e08 <CLOCK_SetMux>
    728e:	f240 2006 	movw	r0, #518	; 0x206
    7292:	f002 fe70 	bl	9f76 <CLOCK_DisableClock>
    7296:	f44f 7002 	mov.w	r0, #520	; 0x208
    729a:	f002 fe6c 	bl	9f76 <CLOCK_DisableClock>
    729e:	f240 200a 	movw	r0, #522	; 0x20a
    72a2:	f002 fe68 	bl	9f76 <CLOCK_DisableClock>
    72a6:	2100      	movs	r1, #0
    72a8:	4873      	ldr	r0, [pc, #460]	; (7478 <BOARD_BootClockRUN+0x408>)
    72aa:	f7ff fdfb 	bl	6ea4 <CLOCK_SetDiv>
    72ae:	2100      	movs	r1, #0
    72b0:	4872      	ldr	r0, [pc, #456]	; (747c <BOARD_BootClockRUN+0x40c>)
    72b2:	f7ff fda9 	bl	6e08 <CLOCK_SetMux>
    72b6:	200e      	movs	r0, #14
    72b8:	f002 fe5d 	bl	9f76 <CLOCK_DisableClock>
    72bc:	2012      	movs	r0, #18
    72be:	f002 fe5a 	bl	9f76 <CLOCK_DisableClock>
    72c2:	f240 7006 	movw	r0, #1798	; 0x706
    72c6:	f002 fe56 	bl	9f76 <CLOCK_DisableClock>
    72ca:	2010      	movs	r0, #16
    72cc:	f002 fe53 	bl	9f76 <CLOCK_DisableClock>
    72d0:	2014      	movs	r0, #20
    72d2:	f002 fe50 	bl	9f76 <CLOCK_DisableClock>
    72d6:	f44f 60e1 	mov.w	r0, #1800	; 0x708
    72da:	f002 fe4c 	bl	9f76 <CLOCK_DisableClock>
    72de:	2101      	movs	r1, #1
    72e0:	4867      	ldr	r0, [pc, #412]	; (7480 <BOARD_BootClockRUN+0x410>)
    72e2:	f7ff fddf 	bl	6ea4 <CLOCK_SetDiv>
    72e6:	2102      	movs	r1, #2
    72e8:	4866      	ldr	r0, [pc, #408]	; (7484 <BOARD_BootClockRUN+0x414>)
    72ea:	f7ff fd8d 	bl	6e08 <CLOCK_SetMux>
    72ee:	f44f 60a3 	mov.w	r0, #1304	; 0x518
    72f2:	f002 fe40 	bl	9f76 <CLOCK_DisableClock>
    72f6:	201c      	movs	r0, #28
    72f8:	f002 fe3d 	bl	9f76 <CLOCK_DisableClock>
    72fc:	200c      	movs	r0, #12
    72fe:	f002 fe3a 	bl	9f76 <CLOCK_DisableClock>
    7302:	f44f 708c 	mov.w	r0, #280	; 0x118
    7306:	f002 fe36 	bl	9f76 <CLOCK_DisableClock>
    730a:	f240 3002 	movw	r0, #770	; 0x302
    730e:	f002 fe32 	bl	9f76 <CLOCK_DisableClock>
    7312:	f240 3006 	movw	r0, #774	; 0x306
    7316:	f002 fe2e 	bl	9f76 <CLOCK_DisableClock>
    731a:	f240 501a 	movw	r0, #1306	; 0x51a
    731e:	f002 fe2a 	bl	9f76 <CLOCK_DisableClock>
    7322:	f240 600e 	movw	r0, #1550	; 0x60e
    7326:	f002 fe26 	bl	9f76 <CLOCK_DisableClock>
    732a:	2100      	movs	r1, #0
    732c:	4856      	ldr	r0, [pc, #344]	; (7488 <BOARD_BootClockRUN+0x418>)
    732e:	f7ff fdb9 	bl	6ea4 <CLOCK_SetDiv>
    7332:	2100      	movs	r1, #0
    7334:	4855      	ldr	r0, [pc, #340]	; (748c <BOARD_BootClockRUN+0x41c>)
    7336:	f7ff fd67 	bl	6e08 <CLOCK_SetMux>
    733a:	f240 300a 	movw	r0, #778	; 0x30a
    733e:	f002 fe1a 	bl	9f76 <CLOCK_DisableClock>
    7342:	2101      	movs	r1, #1
    7344:	4852      	ldr	r0, [pc, #328]	; (7490 <BOARD_BootClockRUN+0x420>)
    7346:	f7ff fdad 	bl	6ea4 <CLOCK_SetDiv>
    734a:	2103      	movs	r1, #3
    734c:	4851      	ldr	r0, [pc, #324]	; (7494 <BOARD_BootClockRUN+0x424>)
    734e:	f7ff fda9 	bl	6ea4 <CLOCK_SetDiv>
    7352:	2105      	movs	r1, #5
    7354:	4850      	ldr	r0, [pc, #320]	; (7498 <BOARD_BootClockRUN+0x428>)
    7356:	f7ff fd57 	bl	6e08 <CLOCK_SetMux>
    735a:	f240 500e 	movw	r0, #1294	; 0x50e
    735e:	f002 fe0a 	bl	9f76 <CLOCK_DisableClock>
    7362:	2101      	movs	r1, #1
    7364:	484d      	ldr	r0, [pc, #308]	; (749c <BOARD_BootClockRUN+0x42c>)
    7366:	f7ff fd9d 	bl	6ea4 <CLOCK_SetDiv>
    736a:	2107      	movs	r1, #7
    736c:	484c      	ldr	r0, [pc, #304]	; (74a0 <BOARD_BootClockRUN+0x430>)
    736e:	f7ff fd99 	bl	6ea4 <CLOCK_SetDiv>
    7372:	2103      	movs	r1, #3
    7374:	484b      	ldr	r0, [pc, #300]	; (74a4 <BOARD_BootClockRUN+0x434>)
    7376:	f7ff fd47 	bl	6e08 <CLOCK_SetMux>
    737a:	f240 5002 	movw	r0, #1282	; 0x502
    737e:	f002 fdfa 	bl	9f76 <CLOCK_DisableClock>
    7382:	2101      	movs	r1, #1
    7384:	4848      	ldr	r0, [pc, #288]	; (74a8 <BOARD_BootClockRUN+0x438>)
    7386:	f7ff fd8d 	bl	6ea4 <CLOCK_SetDiv>
    738a:	2107      	movs	r1, #7
    738c:	4847      	ldr	r0, [pc, #284]	; (74ac <BOARD_BootClockRUN+0x43c>)
    738e:	f7ff fd89 	bl	6ea4 <CLOCK_SetDiv>
    7392:	2103      	movs	r1, #3
    7394:	4846      	ldr	r0, [pc, #280]	; (74b0 <BOARD_BootClockRUN+0x440>)
    7396:	f7ff fd37 	bl	6e08 <CLOCK_SetMux>
    739a:	f44f 7040 	mov.w	r0, #768	; 0x300
    739e:	f002 fdea 	bl	9f76 <CLOCK_DisableClock>
    73a2:	2101      	movs	r1, #1
    73a4:	4843      	ldr	r0, [pc, #268]	; (74b4 <BOARD_BootClockRUN+0x444>)
    73a6:	f7ff fd7d 	bl	6ea4 <CLOCK_SetDiv>
    73aa:	2107      	movs	r1, #7
    73ac:	4842      	ldr	r0, [pc, #264]	; (74b8 <BOARD_BootClockRUN+0x448>)
    73ae:	f7ff fd79 	bl	6ea4 <CLOCK_SetDiv>
    73b2:	2103      	movs	r1, #3
    73b4:	4841      	ldr	r0, [pc, #260]	; (74bc <BOARD_BootClockRUN+0x44c>)
    73b6:	f7ff fd27 	bl	6e08 <CLOCK_SetMux>
    73ba:	2100      	movs	r1, #0
    73bc:	4840      	ldr	r0, [pc, #256]	; (74c0 <BOARD_BootClockRUN+0x450>)
    73be:	f7ff fd23 	bl	6e08 <CLOCK_SetMux>
    73c2:	4840      	ldr	r0, [pc, #256]	; (74c4 <BOARD_BootClockRUN+0x454>)
    73c4:	f7fb fea0 	bl	3108 <CLOCK_InitArmPll>
    73c8:	483f      	ldr	r0, [pc, #252]	; (74c8 <BOARD_BootClockRUN+0x458>)
    73ca:	f7fb fed1 	bl	3170 <CLOCK_InitSysPll>
    73ce:	211b      	movs	r1, #27
    73d0:	2000      	movs	r0, #0
    73d2:	f7fc f8ef 	bl	35b4 <CLOCK_InitSysPfd>
    73d6:	2110      	movs	r1, #16
    73d8:	2001      	movs	r0, #1
    73da:	f7fc f8eb 	bl	35b4 <CLOCK_InitSysPfd>
    73de:	211b      	movs	r1, #27
    73e0:	2002      	movs	r0, #2
    73e2:	f7fc f8e7 	bl	35b4 <CLOCK_InitSysPfd>
    73e6:	2110      	movs	r1, #16
    73e8:	2003      	movs	r0, #3
    73ea:	f7fc f8e3 	bl	35b4 <CLOCK_InitSysPfd>
    73ee:	e06d      	b.n	74cc <BOARD_BootClockRUN+0x45c>
    73f0:	400d8000 	.word	0x400d8000
    73f4:	016e3600 	.word	0x016e3600
    73f8:	400fc000 	.word	0x400fc000
    73fc:	80006c18 	.word	0x80006c18
    7400:	14003914 	.word	0x14003914
    7404:	40080000 	.word	0x40080000
    7408:	0400ea14 	.word	0x0400ea14
    740c:	80006814 	.word	0x80006814
    7410:	4000e010 	.word	0x4000e010
    7414:	8000fb14 	.word	0x8000fb14
    7418:	8007e01c 	.word	0x8007e01c
    741c:	8000eb24 	.word	0x8000eb24
    7420:	8000301c 	.word	0x8000301c
    7424:	8000f024 	.word	0x8000f024
    7428:	8000311c 	.word	0x8000311c
    742c:	80002714 	.word	0x80002714
    7430:	80002614 	.word	0x80002614
    7434:	8000fd18 	.word	0x8000fd18
    7438:	80006818 	.word	0x80006818
    743c:	8000eb3c 	.word	0x8000eb3c
    7440:	8000693c 	.word	0x8000693c
    7444:	8000fa18 	.word	0x8000fa18
    7448:	80006418 	.word	0x80006418
    744c:	80007924 	.word	0x80007924
    7450:	80006e18 	.word	0x80006e18
    7454:	8000e628 	.word	0x8000e628
    7458:	8007e028 	.word	0x8007e028
    745c:	80006a1c 	.word	0x80006a1c
    7460:	8000e62c 	.word	0x8000e62c
    7464:	8007e02c 	.word	0x8007e02c
    7468:	80006c1c 	.word	0x80006c1c
    746c:	8000f628 	.word	0x8000f628
    7470:	8007f028 	.word	0x8007f028
    7474:	80006e1c 	.word	0x80006e1c
    7478:	8007f338 	.word	0x8007f338
    747c:	80003238 	.word	0x80003238
    7480:	8007e220 	.word	0x8007e220
    7484:	80006820 	.word	0x80006820
    7488:	8007e024 	.word	0x8007e024
    748c:	80002624 	.word	0x80002624
    7490:	8000ec38 	.word	0x8000ec38
    7494:	8000f718 	.word	0x8000f718
    7498:	8000ef38 	.word	0x8000ef38
    749c:	8000f930 	.word	0x8000f930
    74a0:	8000f630 	.word	0x8000f630
    74a4:	80007430 	.word	0x80007430
    74a8:	8000ec30 	.word	0x8000ec30
    74ac:	8000e930 	.word	0x8000e930
    74b0:	80006730 	.word	0x80006730
    74b4:	8000e928 	.word	0x8000e928
    74b8:	8000f928 	.word	0x8000f928
    74bc:	80007320 	.word	0x80007320
    74c0:	8000200c 	.word	0x8000200c
    74c4:	0000d304 	.word	0x0000d304
    74c8:	0000d30c 	.word	0x0000d30c
    74cc:	2201      	movs	r2, #1
    74ce:	497d      	ldr	r1, [pc, #500]	; (76c4 <BOARD_BootClockRUN+0x654>)
    74d0:	487d      	ldr	r0, [pc, #500]	; (76c8 <BOARD_BootClockRUN+0x658>)
    74d2:	f002 fd5f 	bl	9f94 <CLOCK_SetPllBypass>
    74d6:	f7fb fea5 	bl	3224 <CLOCK_DeinitAudioPll>
    74da:	2201      	movs	r2, #1
    74dc:	497b      	ldr	r1, [pc, #492]	; (76cc <BOARD_BootClockRUN+0x65c>)
    74de:	487a      	ldr	r0, [pc, #488]	; (76c8 <BOARD_BootClockRUN+0x658>)
    74e0:	f002 fd58 	bl	9f94 <CLOCK_SetPllBypass>
    74e4:	4b78      	ldr	r3, [pc, #480]	; (76c8 <BOARD_BootClockRUN+0x658>)
    74e6:	f8d3 3170 	ldr.w	r3, [r3, #368]	; 0x170
    74ea:	4a77      	ldr	r2, [pc, #476]	; (76c8 <BOARD_BootClockRUN+0x658>)
    74ec:	f423 4300 	bic.w	r3, r3, #32768	; 0x8000
    74f0:	f8c2 3170 	str.w	r3, [r2, #368]	; 0x170
    74f4:	4b74      	ldr	r3, [pc, #464]	; (76c8 <BOARD_BootClockRUN+0x658>)
    74f6:	f8d3 3170 	ldr.w	r3, [r3, #368]	; 0x170
    74fa:	4a73      	ldr	r2, [pc, #460]	; (76c8 <BOARD_BootClockRUN+0x658>)
    74fc:	f423 0300 	bic.w	r3, r3, #8388608	; 0x800000
    7500:	f8c2 3170 	str.w	r3, [r2, #368]	; 0x170
    7504:	4b70      	ldr	r3, [pc, #448]	; (76c8 <BOARD_BootClockRUN+0x658>)
    7506:	6f1b      	ldr	r3, [r3, #112]	; 0x70
    7508:	4a6f      	ldr	r2, [pc, #444]	; (76c8 <BOARD_BootClockRUN+0x658>)
    750a:	f443 5300 	orr.w	r3, r3, #8192	; 0x2000
    750e:	6713      	str	r3, [r2, #112]	; 0x70
    7510:	f7fb fe96 	bl	3240 <CLOCK_DeinitVideoPll>
    7514:	4b6c      	ldr	r3, [pc, #432]	; (76c8 <BOARD_BootClockRUN+0x658>)
    7516:	f8d3 30a0 	ldr.w	r3, [r3, #160]	; 0xa0
    751a:	4a6b      	ldr	r2, [pc, #428]	; (76c8 <BOARD_BootClockRUN+0x658>)
    751c:	f443 3380 	orr.w	r3, r3, #65536	; 0x10000
    7520:	f8c2 30a0 	str.w	r3, [r2, #160]	; 0xa0
    7524:	4b68      	ldr	r3, [pc, #416]	; (76c8 <BOARD_BootClockRUN+0x658>)
    7526:	f8d3 3170 	ldr.w	r3, [r3, #368]	; 0x170
    752a:	4a67      	ldr	r2, [pc, #412]	; (76c8 <BOARD_BootClockRUN+0x658>)
    752c:	f023 4340 	bic.w	r3, r3, #3221225472	; 0xc0000000
    7530:	f8c2 3170 	str.w	r3, [r2, #368]	; 0x170
    7534:	4b64      	ldr	r3, [pc, #400]	; (76c8 <BOARD_BootClockRUN+0x658>)
    7536:	f8d3 30a0 	ldr.w	r3, [r3, #160]	; 0xa0
    753a:	4a63      	ldr	r2, [pc, #396]	; (76c8 <BOARD_BootClockRUN+0x658>)
    753c:	f443 5300 	orr.w	r3, r3, #8192	; 0x2000
    7540:	f8c2 30a0 	str.w	r3, [r2, #160]	; 0xa0
    7544:	f7fb fe8a 	bl	325c <CLOCK_DeinitEnetPll>
    7548:	2201      	movs	r2, #1
    754a:	4961      	ldr	r1, [pc, #388]	; (76d0 <BOARD_BootClockRUN+0x660>)
    754c:	485e      	ldr	r0, [pc, #376]	; (76c8 <BOARD_BootClockRUN+0x658>)
    754e:	f002 fd21 	bl	9f94 <CLOCK_SetPllBypass>
    7552:	4b5d      	ldr	r3, [pc, #372]	; (76c8 <BOARD_BootClockRUN+0x658>)
    7554:	f8d3 30e0 	ldr.w	r3, [r3, #224]	; 0xe0
    7558:	f023 0303 	bic.w	r3, r3, #3
    755c:	4a5a      	ldr	r2, [pc, #360]	; (76c8 <BOARD_BootClockRUN+0x658>)
    755e:	f043 0301 	orr.w	r3, r3, #1
    7562:	f8c2 30e0 	str.w	r3, [r2, #224]	; 0xe0
    7566:	4b58      	ldr	r3, [pc, #352]	; (76c8 <BOARD_BootClockRUN+0x658>)
    7568:	f8d3 30e0 	ldr.w	r3, [r3, #224]	; 0xe0
    756c:	4a56      	ldr	r2, [pc, #344]	; (76c8 <BOARD_BootClockRUN+0x658>)
    756e:	f443 5300 	orr.w	r3, r3, #8192	; 0x2000
    7572:	f8c2 30e0 	str.w	r3, [r2, #224]	; 0xe0
    7576:	4b54      	ldr	r3, [pc, #336]	; (76c8 <BOARD_BootClockRUN+0x658>)
    7578:	f8d3 30e0 	ldr.w	r3, [r3, #224]	; 0xe0
    757c:	4a52      	ldr	r2, [pc, #328]	; (76c8 <BOARD_BootClockRUN+0x658>)
    757e:	f023 030c 	bic.w	r3, r3, #12
    7582:	f8c2 30e0 	str.w	r3, [r2, #224]	; 0xe0
    7586:	4b50      	ldr	r3, [pc, #320]	; (76c8 <BOARD_BootClockRUN+0x658>)
    7588:	f8d3 30e0 	ldr.w	r3, [r3, #224]	; 0xe0
    758c:	4a4e      	ldr	r2, [pc, #312]	; (76c8 <BOARD_BootClockRUN+0x658>)
    758e:	f443 1380 	orr.w	r3, r3, #1048576	; 0x100000
    7592:	f8c2 30e0 	str.w	r3, [r2, #224]	; 0xe0
    7596:	4b4c      	ldr	r3, [pc, #304]	; (76c8 <BOARD_BootClockRUN+0x658>)
    7598:	f8d3 30e0 	ldr.w	r3, [r3, #224]	; 0xe0
    759c:	4a4a      	ldr	r2, [pc, #296]	; (76c8 <BOARD_BootClockRUN+0x658>)
    759e:	f443 1300 	orr.w	r3, r3, #2097152	; 0x200000
    75a2:	f8c2 30e0 	str.w	r3, [r2, #224]	; 0xe0
    75a6:	f7fb fe31 	bl	320c <CLOCK_DeinitUsb2Pll>
    75aa:	2201      	movs	r2, #1
    75ac:	4949      	ldr	r1, [pc, #292]	; (76d4 <BOARD_BootClockRUN+0x664>)
    75ae:	4846      	ldr	r0, [pc, #280]	; (76c8 <BOARD_BootClockRUN+0x658>)
    75b0:	f002 fcf0 	bl	9f94 <CLOCK_SetPllBypass>
    75b4:	4b44      	ldr	r3, [pc, #272]	; (76c8 <BOARD_BootClockRUN+0x658>)
    75b6:	6a1b      	ldr	r3, [r3, #32]
    75b8:	4a43      	ldr	r2, [pc, #268]	; (76c8 <BOARD_BootClockRUN+0x658>)
    75ba:	f443 5300 	orr.w	r3, r3, #8192	; 0x2000
    75be:	6213      	str	r3, [r2, #32]
    75c0:	2103      	movs	r1, #3
    75c2:	4845      	ldr	r0, [pc, #276]	; (76d8 <BOARD_BootClockRUN+0x668>)
    75c4:	f7ff fc20 	bl	6e08 <CLOCK_SetMux>
    75c8:	2100      	movs	r1, #0
    75ca:	4844      	ldr	r0, [pc, #272]	; (76dc <BOARD_BootClockRUN+0x66c>)
    75cc:	f7ff fc1c 	bl	6e08 <CLOCK_SetMux>
    75d0:	2100      	movs	r1, #0
    75d2:	4843      	ldr	r0, [pc, #268]	; (76e0 <BOARD_BootClockRUN+0x670>)
    75d4:	f7ff fc18 	bl	6e08 <CLOCK_SetMux>
    75d8:	2100      	movs	r1, #0
    75da:	4842      	ldr	r0, [pc, #264]	; (76e4 <BOARD_BootClockRUN+0x674>)
    75dc:	f7ff fc14 	bl	6e08 <CLOCK_SetMux>
    75e0:	4b39      	ldr	r3, [pc, #228]	; (76c8 <BOARD_BootClockRUN+0x658>)
    75e2:	f8d3 3160 	ldr.w	r3, [r3, #352]	; 0x160
    75e6:	4a38      	ldr	r2, [pc, #224]	; (76c8 <BOARD_BootClockRUN+0x658>)
    75e8:	f023 031f 	bic.w	r3, r3, #31
    75ec:	f8c2 3160 	str.w	r3, [r2, #352]	; 0x160
    75f0:	4b3d      	ldr	r3, [pc, #244]	; (76e8 <BOARD_BootClockRUN+0x678>)
    75f2:	6e1b      	ldr	r3, [r3, #96]	; 0x60
    75f4:	4a3c      	ldr	r2, [pc, #240]	; (76e8 <BOARD_BootClockRUN+0x678>)
    75f6:	f023 0370 	bic.w	r3, r3, #112	; 0x70
    75fa:	6613      	str	r3, [r2, #96]	; 0x60
    75fc:	4b3a      	ldr	r3, [pc, #232]	; (76e8 <BOARD_BootClockRUN+0x678>)
    75fe:	6e1b      	ldr	r3, [r3, #96]	; 0x60
    7600:	f023 030f 	bic.w	r3, r3, #15
    7604:	4a38      	ldr	r2, [pc, #224]	; (76e8 <BOARD_BootClockRUN+0x678>)
    7606:	f043 0301 	orr.w	r3, r3, #1
    760a:	6613      	str	r3, [r2, #96]	; 0x60
    760c:	4b36      	ldr	r3, [pc, #216]	; (76e8 <BOARD_BootClockRUN+0x678>)
    760e:	6e1b      	ldr	r3, [r3, #96]	; 0x60
    7610:	4a35      	ldr	r2, [pc, #212]	; (76e8 <BOARD_BootClockRUN+0x678>)
    7612:	f423 0360 	bic.w	r3, r3, #14680064	; 0xe00000
    7616:	6613      	str	r3, [r2, #96]	; 0x60
    7618:	4b33      	ldr	r3, [pc, #204]	; (76e8 <BOARD_BootClockRUN+0x678>)
    761a:	6e1b      	ldr	r3, [r3, #96]	; 0x60
    761c:	f423 13f8 	bic.w	r3, r3, #2031616	; 0x1f0000
    7620:	4a31      	ldr	r2, [pc, #196]	; (76e8 <BOARD_BootClockRUN+0x678>)
    7622:	f443 1390 	orr.w	r3, r3, #1179648	; 0x120000
    7626:	6613      	str	r3, [r2, #96]	; 0x60
    7628:	4b2f      	ldr	r3, [pc, #188]	; (76e8 <BOARD_BootClockRUN+0x678>)
    762a:	6e1b      	ldr	r3, [r3, #96]	; 0x60
    762c:	4a2e      	ldr	r2, [pc, #184]	; (76e8 <BOARD_BootClockRUN+0x678>)
    762e:	f423 7380 	bic.w	r3, r3, #256	; 0x100
    7632:	6613      	str	r3, [r2, #96]	; 0x60
    7634:	4b2c      	ldr	r3, [pc, #176]	; (76e8 <BOARD_BootClockRUN+0x678>)
    7636:	6e1b      	ldr	r3, [r3, #96]	; 0x60
    7638:	4a2b      	ldr	r2, [pc, #172]	; (76e8 <BOARD_BootClockRUN+0x678>)
    763a:	f023 0380 	bic.w	r3, r3, #128	; 0x80
    763e:	6613      	str	r3, [r2, #96]	; 0x60
    7640:	4b29      	ldr	r3, [pc, #164]	; (76e8 <BOARD_BootClockRUN+0x678>)
    7642:	6e1b      	ldr	r3, [r3, #96]	; 0x60
    7644:	4a28      	ldr	r2, [pc, #160]	; (76e8 <BOARD_BootClockRUN+0x678>)
    7646:	f023 7380 	bic.w	r3, r3, #16777216	; 0x1000000
    764a:	6613      	str	r3, [r2, #96]	; 0x60
    764c:	2200      	movs	r2, #0
    764e:	2100      	movs	r1, #0
    7650:	4826      	ldr	r0, [pc, #152]	; (76ec <BOARD_BootClockRUN+0x67c>)
    7652:	f002 fcc6 	bl	9fe2 <IOMUXC_SetSaiMClkClockSource>
    7656:	2200      	movs	r2, #0
    7658:	2103      	movs	r1, #3
    765a:	4824      	ldr	r0, [pc, #144]	; (76ec <BOARD_BootClockRUN+0x67c>)
    765c:	f002 fcc1 	bl	9fe2 <IOMUXC_SetSaiMClkClockSource>
    7660:	2200      	movs	r2, #0
    7662:	2106      	movs	r1, #6
    7664:	4821      	ldr	r0, [pc, #132]	; (76ec <BOARD_BootClockRUN+0x67c>)
    7666:	f002 fcbc 	bl	9fe2 <IOMUXC_SetSaiMClkClockSource>
    766a:	2200      	movs	r2, #0
    766c:	2108      	movs	r1, #8
    766e:	481f      	ldr	r0, [pc, #124]	; (76ec <BOARD_BootClockRUN+0x67c>)
    7670:	f002 fcb7 	bl	9fe2 <IOMUXC_SetSaiMClkClockSource>
    7674:	2200      	movs	r2, #0
    7676:	210a      	movs	r1, #10
    7678:	481c      	ldr	r0, [pc, #112]	; (76ec <BOARD_BootClockRUN+0x67c>)
    767a:	f002 fcb2 	bl	9fe2 <IOMUXC_SetSaiMClkClockSource>
    767e:	2200      	movs	r2, #0
    7680:	2100      	movs	r1, #0
    7682:	481a      	ldr	r0, [pc, #104]	; (76ec <BOARD_BootClockRUN+0x67c>)
    7684:	f7ff fcd2 	bl	702c <IOMUXC_MQSConfig>
    7688:	2200      	movs	r2, #0
    768a:	f44f 5100 	mov.w	r1, #8192	; 0x2000
    768e:	4817      	ldr	r0, [pc, #92]	; (76ec <BOARD_BootClockRUN+0x67c>)
    7690:	f7ff fca8 	bl	6fe4 <IOMUXC_EnableMode>
    7694:	2200      	movs	r2, #0
    7696:	f44f 4180 	mov.w	r1, #16384	; 0x4000
    769a:	4814      	ldr	r0, [pc, #80]	; (76ec <BOARD_BootClockRUN+0x67c>)
    769c:	f7ff fca2 	bl	6fe4 <IOMUXC_EnableMode>
    76a0:	4b12      	ldr	r3, [pc, #72]	; (76ec <BOARD_BootClockRUN+0x67c>)
    76a2:	695b      	ldr	r3, [r3, #20]
    76a4:	4a11      	ldr	r2, [pc, #68]	; (76ec <BOARD_BootClockRUN+0x67c>)
    76a6:	f023 5380 	bic.w	r3, r3, #268435456	; 0x10000000
    76aa:	6153      	str	r3, [r2, #20]
    76ac:	4b0f      	ldr	r3, [pc, #60]	; (76ec <BOARD_BootClockRUN+0x67c>)
    76ae:	695b      	ldr	r3, [r3, #20]
    76b0:	4a0e      	ldr	r2, [pc, #56]	; (76ec <BOARD_BootClockRUN+0x67c>)
    76b2:	f023 5300 	bic.w	r3, r3, #536870912	; 0x20000000
    76b6:	6153      	str	r3, [r2, #20]
    76b8:	4b0d      	ldr	r3, [pc, #52]	; (76f0 <BOARD_BootClockRUN+0x680>)
    76ba:	4a0e      	ldr	r2, [pc, #56]	; (76f4 <BOARD_BootClockRUN+0x684>)
    76bc:	601a      	str	r2, [r3, #0]
    76be:	bf00      	nop
    76c0:	bd80      	pop	{r7, pc}
    76c2:	bf00      	nop
    76c4:	0030000d 	.word	0x0030000d
    76c8:	400d8000 	.word	0x400d8000
    76cc:	0070000d 	.word	0x0070000d
    76d0:	00e0000d 	.word	0x00e0000d
    76d4:	0020000d 	.word	0x0020000d
    76d8:	80007218 	.word	0x80007218
    76dc:	14003914 	.word	0x14003914
    76e0:	80006c18 	.word	0x80006c18
    76e4:	8000261c 	.word	0x8000261c
    76e8:	400fc000 	.word	0x400fc000
    76ec:	400ac000 	.word	0x400ac000
    76f0:	20000074 	.word	0x20000074
    76f4:	23c34600 	.word	0x23c34600

000076f8 <CLOCK_ControlGate>:
    76f8:	b580      	push	{r7, lr}
    76fa:	b086      	sub	sp, #24
    76fc:	af00      	add	r7, sp, #0
    76fe:	4603      	mov	r3, r0
    7700:	460a      	mov	r2, r1
    7702:	80fb      	strh	r3, [r7, #6]
    7704:	4613      	mov	r3, r2
    7706:	717b      	strb	r3, [r7, #5]
    7708:	f9b7 3006 	ldrsh.w	r3, [r7, #6]
    770c:	0a1b      	lsrs	r3, r3, #8
    770e:	617b      	str	r3, [r7, #20]
    7710:	88fb      	ldrh	r3, [r7, #6]
    7712:	f003 031f 	and.w	r3, r3, #31
    7716:	613b      	str	r3, [r7, #16]
    7718:	697b      	ldr	r3, [r7, #20]
    771a:	2b07      	cmp	r3, #7
    771c:	d902      	bls.n	7724 <CLOCK_ControlGate+0x2c>
    771e:	480d      	ldr	r0, [pc, #52]	; (7754 <CLOCK_ControlGate+0x5c>)
    7720:	f000 f95c 	bl	79dc <__assertion_failed>
    7724:	697b      	ldr	r3, [r7, #20]
    7726:	009a      	lsls	r2, r3, #2
    7728:	4b0b      	ldr	r3, [pc, #44]	; (7758 <CLOCK_ControlGate+0x60>)
    772a:	4413      	add	r3, r2
    772c:	60fb      	str	r3, [r7, #12]
    772e:	68fb      	ldr	r3, [r7, #12]
    7730:	681a      	ldr	r2, [r3, #0]
    7732:	2103      	movs	r1, #3
    7734:	693b      	ldr	r3, [r7, #16]
    7736:	fa01 f303 	lsl.w	r3, r1, r3
    773a:	43db      	mvns	r3, r3
    773c:	401a      	ands	r2, r3
    773e:	7979      	ldrb	r1, [r7, #5]
    7740:	693b      	ldr	r3, [r7, #16]
    7742:	fa01 f303 	lsl.w	r3, r1, r3
    7746:	431a      	orrs	r2, r3
    7748:	68fb      	ldr	r3, [r7, #12]
    774a:	601a      	str	r2, [r3, #0]
    774c:	bf00      	nop
    774e:	3718      	adds	r7, #24
    7750:	46bd      	mov	sp, r7
    7752:	bd80      	pop	{r7, pc}
    7754:	0000d320 	.word	0x0000d320
    7758:	400fc068 	.word	0x400fc068

0000775c <BOARD_InitPins>:
    775c:	b580      	push	{r7, lr}
    775e:	b084      	sub	sp, #16
    7760:	af02      	add	r7, sp, #8
    7762:	f240 4002 	movw	r0, #1026	; 0x402
    7766:	f002 fc72 	bl	a04e <CLOCK_EnableClock>
    776a:	4a36      	ldr	r2, [pc, #216]	; (7844 <BOARD_InitPins+0xe8>)
    776c:	1d3b      	adds	r3, r7, #4
    776e:	6812      	ldr	r2, [r2, #0]
    7770:	4611      	mov	r1, r2
    7772:	8019      	strh	r1, [r3, #0]
    7774:	3302      	adds	r3, #2
    7776:	0c12      	lsrs	r2, r2, #16
    7778:	701a      	strb	r2, [r3, #0]
    777a:	1d3b      	adds	r3, r7, #4
    777c:	461a      	mov	r2, r3
    777e:	2100      	movs	r1, #0
    7780:	4831      	ldr	r0, [pc, #196]	; (7848 <BOARD_InitPins+0xec>)
    7782:	f7fc fb77 	bl	3e74 <GPIO_PinInit>
    7786:	2301      	movs	r3, #1
    7788:	703b      	strb	r3, [r7, #0]
    778a:	2300      	movs	r3, #0
    778c:	707b      	strb	r3, [r7, #1]
    778e:	2300      	movs	r3, #0
    7790:	70bb      	strb	r3, [r7, #2]
    7792:	463b      	mov	r3, r7
    7794:	461a      	mov	r2, r3
    7796:	210b      	movs	r1, #11
    7798:	482b      	ldr	r0, [pc, #172]	; (7848 <BOARD_InitPins+0xec>)
    779a:	f7fc fb6b 	bl	3e74 <GPIO_PinInit>
    779e:	2300      	movs	r3, #0
    77a0:	9301      	str	r3, [sp, #4]
    77a2:	4b2a      	ldr	r3, [pc, #168]	; (784c <BOARD_InitPins+0xf0>)
    77a4:	9300      	str	r3, [sp, #0]
    77a6:	2300      	movs	r3, #0
    77a8:	2200      	movs	r2, #0
    77aa:	2102      	movs	r1, #2
    77ac:	4828      	ldr	r0, [pc, #160]	; (7850 <BOARD_InitPins+0xf4>)
    77ae:	f002 fc5d 	bl	a06c <IOMUXC_SetPinMux>
    77b2:	2300      	movs	r3, #0
    77b4:	9301      	str	r3, [sp, #4]
    77b6:	4b27      	ldr	r3, [pc, #156]	; (7854 <BOARD_InitPins+0xf8>)
    77b8:	9300      	str	r3, [sp, #0]
    77ba:	2300      	movs	r3, #0
    77bc:	2200      	movs	r2, #0
    77be:	2102      	movs	r1, #2
    77c0:	4825      	ldr	r0, [pc, #148]	; (7858 <BOARD_InitPins+0xfc>)
    77c2:	f002 fc53 	bl	a06c <IOMUXC_SetPinMux>
    77c6:	2300      	movs	r3, #0
    77c8:	9301      	str	r3, [sp, #4]
    77ca:	4b24      	ldr	r3, [pc, #144]	; (785c <BOARD_InitPins+0x100>)
    77cc:	9300      	str	r3, [sp, #0]
    77ce:	2300      	movs	r3, #0
    77d0:	2200      	movs	r2, #0
    77d2:	2105      	movs	r1, #5
    77d4:	4822      	ldr	r0, [pc, #136]	; (7860 <BOARD_InitPins+0x104>)
    77d6:	f002 fc49 	bl	a06c <IOMUXC_SetPinMux>
    77da:	2300      	movs	r3, #0
    77dc:	9301      	str	r3, [sp, #4]
    77de:	4b21      	ldr	r3, [pc, #132]	; (7864 <BOARD_InitPins+0x108>)
    77e0:	9300      	str	r3, [sp, #0]
    77e2:	2300      	movs	r3, #0
    77e4:	2200      	movs	r2, #0
    77e6:	2105      	movs	r1, #5
    77e8:	481f      	ldr	r0, [pc, #124]	; (7868 <BOARD_InitPins+0x10c>)
    77ea:	f002 fc3f 	bl	a06c <IOMUXC_SetPinMux>
    77ee:	4b1f      	ldr	r3, [pc, #124]	; (786c <BOARD_InitPins+0x110>)
    77f0:	6edb      	ldr	r3, [r3, #108]	; 0x6c
    77f2:	4b1e      	ldr	r3, [pc, #120]	; (786c <BOARD_InitPins+0x110>)
    77f4:	2200      	movs	r2, #0
    77f6:	66da      	str	r2, [r3, #108]	; 0x6c
    77f8:	f241 03b0 	movw	r3, #4272	; 0x10b0
    77fc:	9301      	str	r3, [sp, #4]
    77fe:	4b13      	ldr	r3, [pc, #76]	; (784c <BOARD_InitPins+0xf0>)
    7800:	9300      	str	r3, [sp, #0]
    7802:	2300      	movs	r3, #0
    7804:	2200      	movs	r2, #0
    7806:	2102      	movs	r1, #2
    7808:	4811      	ldr	r0, [pc, #68]	; (7850 <BOARD_InitPins+0xf4>)
    780a:	f002 fc4c 	bl	a0a6 <IOMUXC_SetPinConfig>
    780e:	f241 03b0 	movw	r3, #4272	; 0x10b0
    7812:	9301      	str	r3, [sp, #4]
    7814:	4b0f      	ldr	r3, [pc, #60]	; (7854 <BOARD_InitPins+0xf8>)
    7816:	9300      	str	r3, [sp, #0]
    7818:	2300      	movs	r3, #0
    781a:	2200      	movs	r2, #0
    781c:	2102      	movs	r1, #2
    781e:	480e      	ldr	r0, [pc, #56]	; (7858 <BOARD_InitPins+0xfc>)
    7820:	f002 fc41 	bl	a0a6 <IOMUXC_SetPinConfig>
    7824:	f24d 03b0 	movw	r3, #53424	; 0xd0b0
    7828:	9301      	str	r3, [sp, #4]
    782a:	4b0c      	ldr	r3, [pc, #48]	; (785c <BOARD_InitPins+0x100>)
    782c:	9300      	str	r3, [sp, #0]
    782e:	2300      	movs	r3, #0
    7830:	2200      	movs	r2, #0
    7832:	2105      	movs	r1, #5
    7834:	480a      	ldr	r0, [pc, #40]	; (7860 <BOARD_InitPins+0x104>)
    7836:	f002 fc36 	bl	a0a6 <IOMUXC_SetPinConfig>
    783a:	bf00      	nop
    783c:	3708      	adds	r7, #8
    783e:	46bd      	mov	sp, r7
    7840:	bd80      	pop	{r7, pc}
    7842:	bf00      	nop
    7844:	0000d34c 	.word	0x0000d34c
    7848:	401bc000 	.word	0x401bc000
    784c:	401f82dc 	.word	0x401f82dc
    7850:	401f80ec 	.word	0x401f80ec
    7854:	401f82e0 	.word	0x401f82e0
    7858:	401f80f0 	.word	0x401f80f0
    785c:	401f832c 	.word	0x401f832c
    7860:	401f813c 	.word	0x401f813c
    7864:	401f8358 	.word	0x401f8358
    7868:	401f8168 	.word	0x401f8168
    786c:	400ac000 	.word	0x400ac000

00007870 <LPSPI4_InitPins>:
    7870:	b580      	push	{r7, lr}
    7872:	b082      	sub	sp, #8
    7874:	af02      	add	r7, sp, #8
    7876:	f240 4002 	movw	r0, #1026	; 0x402
    787a:	f002 fbe8 	bl	a04e <CLOCK_EnableClock>
    787e:	2300      	movs	r3, #0
    7880:	9301      	str	r3, [sp, #4]
    7882:	4b25      	ldr	r3, [pc, #148]	; (7918 <LPSPI4_InitPins+0xa8>)
    7884:	9300      	str	r3, [sp, #0]
    7886:	2300      	movs	r3, #0
    7888:	4a24      	ldr	r2, [pc, #144]	; (791c <LPSPI4_InitPins+0xac>)
    788a:	2103      	movs	r1, #3
    788c:	4824      	ldr	r0, [pc, #144]	; (7920 <LPSPI4_InitPins+0xb0>)
    788e:	f002 fbed 	bl	a06c <IOMUXC_SetPinMux>
    7892:	2300      	movs	r3, #0
    7894:	9301      	str	r3, [sp, #4]
    7896:	4b23      	ldr	r3, [pc, #140]	; (7924 <LPSPI4_InitPins+0xb4>)
    7898:	9300      	str	r3, [sp, #0]
    789a:	2300      	movs	r3, #0
    789c:	4a22      	ldr	r2, [pc, #136]	; (7928 <LPSPI4_InitPins+0xb8>)
    789e:	2103      	movs	r1, #3
    78a0:	4822      	ldr	r0, [pc, #136]	; (792c <LPSPI4_InitPins+0xbc>)
    78a2:	f002 fbe3 	bl	a06c <IOMUXC_SetPinMux>
    78a6:	2300      	movs	r3, #0
    78a8:	9301      	str	r3, [sp, #4]
    78aa:	4b21      	ldr	r3, [pc, #132]	; (7930 <LPSPI4_InitPins+0xc0>)
    78ac:	9300      	str	r3, [sp, #0]
    78ae:	2300      	movs	r3, #0
    78b0:	4a20      	ldr	r2, [pc, #128]	; (7934 <LPSPI4_InitPins+0xc4>)
    78b2:	2103      	movs	r1, #3
    78b4:	4820      	ldr	r0, [pc, #128]	; (7938 <LPSPI4_InitPins+0xc8>)
    78b6:	f002 fbd9 	bl	a06c <IOMUXC_SetPinMux>
    78ba:	2300      	movs	r3, #0
    78bc:	9301      	str	r3, [sp, #4]
    78be:	4b1f      	ldr	r3, [pc, #124]	; (793c <LPSPI4_InitPins+0xcc>)
    78c0:	9300      	str	r3, [sp, #0]
    78c2:	2301      	movs	r3, #1
    78c4:	4a1e      	ldr	r2, [pc, #120]	; (7940 <LPSPI4_InitPins+0xd0>)
    78c6:	2101      	movs	r1, #1
    78c8:	481e      	ldr	r0, [pc, #120]	; (7944 <LPSPI4_InitPins+0xd4>)
    78ca:	f002 fbcf 	bl	a06c <IOMUXC_SetPinMux>
    78ce:	f24f 03b0 	movw	r3, #61616	; 0xf0b0
    78d2:	9301      	str	r3, [sp, #4]
    78d4:	4b10      	ldr	r3, [pc, #64]	; (7918 <LPSPI4_InitPins+0xa8>)
    78d6:	9300      	str	r3, [sp, #0]
    78d8:	2300      	movs	r3, #0
    78da:	4a10      	ldr	r2, [pc, #64]	; (791c <LPSPI4_InitPins+0xac>)
    78dc:	2103      	movs	r1, #3
    78de:	4810      	ldr	r0, [pc, #64]	; (7920 <LPSPI4_InitPins+0xb0>)
    78e0:	f002 fbe1 	bl	a0a6 <IOMUXC_SetPinConfig>
    78e4:	f24f 03b0 	movw	r3, #61616	; 0xf0b0
    78e8:	9301      	str	r3, [sp, #4]
    78ea:	4b0e      	ldr	r3, [pc, #56]	; (7924 <LPSPI4_InitPins+0xb4>)
    78ec:	9300      	str	r3, [sp, #0]
    78ee:	2300      	movs	r3, #0
    78f0:	4a0d      	ldr	r2, [pc, #52]	; (7928 <LPSPI4_InitPins+0xb8>)
    78f2:	2103      	movs	r1, #3
    78f4:	480d      	ldr	r0, [pc, #52]	; (792c <LPSPI4_InitPins+0xbc>)
    78f6:	f002 fbd6 	bl	a0a6 <IOMUXC_SetPinConfig>
    78fa:	f24f 03b0 	movw	r3, #61616	; 0xf0b0
    78fe:	9301      	str	r3, [sp, #4]
    7900:	4b0b      	ldr	r3, [pc, #44]	; (7930 <LPSPI4_InitPins+0xc0>)
    7902:	9300      	str	r3, [sp, #0]
    7904:	2300      	movs	r3, #0
    7906:	4a0b      	ldr	r2, [pc, #44]	; (7934 <LPSPI4_InitPins+0xc4>)
    7908:	2103      	movs	r1, #3
    790a:	480b      	ldr	r0, [pc, #44]	; (7938 <LPSPI4_InitPins+0xc8>)
    790c:	f002 fbcb 	bl	a0a6 <IOMUXC_SetPinConfig>
    7910:	bf00      	nop
    7912:	46bd      	mov	sp, r7
    7914:	bd80      	pop	{r7, pc}
    7916:	bf00      	nop
    7918:	401f8330 	.word	0x401f8330
    791c:	401f8524 	.word	0x401f8524
    7920:	401f8140 	.word	0x401f8140
    7924:	401f8334 	.word	0x401f8334
    7928:	401f8528 	.word	0x401f8528
    792c:	401f8144 	.word	0x401f8144
    7930:	401f8338 	.word	0x401f8338
    7934:	401f8520 	.word	0x401f8520
    7938:	401f8148 	.word	0x401f8148
    793c:	401f837c 	.word	0x401f837c
    7940:	401f851c 	.word	0x401f851c
    7944:	401f818c 	.word	0x401f818c

00007948 <LPSPI4_DeinitPins>:
    7948:	b580      	push	{r7, lr}
    794a:	b082      	sub	sp, #8
    794c:	af02      	add	r7, sp, #8
    794e:	f240 4002 	movw	r0, #1026	; 0x402
    7952:	f002 fb7c 	bl	a04e <CLOCK_EnableClock>
    7956:	2300      	movs	r3, #0
    7958:	9301      	str	r3, [sp, #4]
    795a:	4b17      	ldr	r3, [pc, #92]	; (79b8 <LPSPI4_DeinitPins+0x70>)
    795c:	9300      	str	r3, [sp, #0]
    795e:	2300      	movs	r3, #0
    7960:	2200      	movs	r2, #0
    7962:	2105      	movs	r1, #5
    7964:	4815      	ldr	r0, [pc, #84]	; (79bc <LPSPI4_DeinitPins+0x74>)
    7966:	f002 fb81 	bl	a06c <IOMUXC_SetPinMux>
    796a:	2300      	movs	r3, #0
    796c:	9301      	str	r3, [sp, #4]
    796e:	4b14      	ldr	r3, [pc, #80]	; (79c0 <LPSPI4_DeinitPins+0x78>)
    7970:	9300      	str	r3, [sp, #0]
    7972:	2300      	movs	r3, #0
    7974:	2200      	movs	r2, #0
    7976:	2105      	movs	r1, #5
    7978:	4812      	ldr	r0, [pc, #72]	; (79c4 <LPSPI4_DeinitPins+0x7c>)
    797a:	f002 fb77 	bl	a06c <IOMUXC_SetPinMux>
    797e:	2300      	movs	r3, #0
    7980:	9301      	str	r3, [sp, #4]
    7982:	4b11      	ldr	r3, [pc, #68]	; (79c8 <LPSPI4_DeinitPins+0x80>)
    7984:	9300      	str	r3, [sp, #0]
    7986:	2300      	movs	r3, #0
    7988:	2200      	movs	r2, #0
    798a:	2105      	movs	r1, #5
    798c:	480f      	ldr	r0, [pc, #60]	; (79cc <LPSPI4_DeinitPins+0x84>)
    798e:	f002 fb6d 	bl	a06c <IOMUXC_SetPinMux>
    7992:	2300      	movs	r3, #0
    7994:	9301      	str	r3, [sp, #4]
    7996:	4b0e      	ldr	r3, [pc, #56]	; (79d0 <LPSPI4_DeinitPins+0x88>)
    7998:	9300      	str	r3, [sp, #0]
    799a:	2300      	movs	r3, #0
    799c:	2200      	movs	r2, #0
    799e:	2105      	movs	r1, #5
    79a0:	480c      	ldr	r0, [pc, #48]	; (79d4 <LPSPI4_DeinitPins+0x8c>)
    79a2:	f002 fb63 	bl	a06c <IOMUXC_SetPinMux>
    79a6:	4b0c      	ldr	r3, [pc, #48]	; (79d8 <LPSPI4_DeinitPins+0x90>)
    79a8:	6f1b      	ldr	r3, [r3, #112]	; 0x70
    79aa:	4b0b      	ldr	r3, [pc, #44]	; (79d8 <LPSPI4_DeinitPins+0x90>)
    79ac:	2200      	movs	r2, #0
    79ae:	671a      	str	r2, [r3, #112]	; 0x70
    79b0:	bf00      	nop
    79b2:	46bd      	mov	sp, r7
    79b4:	bd80      	pop	{r7, pc}
    79b6:	bf00      	nop
    79b8:	401f83ac 	.word	0x401f83ac
    79bc:	401f81bc 	.word	0x401f81bc
    79c0:	401f83b0 	.word	0x401f83b0
    79c4:	401f81c0 	.word	0x401f81c0
    79c8:	401f83b4 	.word	0x401f83b4
    79cc:	401f81c4 	.word	0x401f81c4
    79d0:	401f83b8 	.word	0x401f83b8
    79d4:	401f81c8 	.word	0x401f81c8
    79d8:	400ac000 	.word	0x400ac000

000079dc <__assertion_failed>:
    79dc:	b510      	push	{r4, lr}
    79de:	4604      	mov	r4, r0
    79e0:	490e      	ldr	r1, [pc, #56]	; (7a1c <__assertion_failed+0x40>)
    79e2:	480f      	ldr	r0, [pc, #60]	; (7a20 <__assertion_failed+0x44>)
    79e4:	f002 fc7d 	bl	a2e2 <fputs>
    79e8:	490c      	ldr	r1, [pc, #48]	; (7a1c <__assertion_failed+0x40>)
    79ea:	4620      	mov	r0, r4
    79ec:	f002 fc79 	bl	a2e2 <fputs>
    79f0:	490c      	ldr	r1, [pc, #48]	; (7a24 <__assertion_failed+0x48>)
    79f2:	f8d1 3080 	ldr.w	r3, [r1, #128]	; 0x80
    79f6:	3b01      	subs	r3, #1
    79f8:	2b00      	cmp	r3, #0
    79fa:	f8c1 3080 	str.w	r3, [r1, #128]	; 0x80
    79fe:	db08      	blt.n	7a12 <__assertion_failed+0x36>
    7a00:	6f8b      	ldr	r3, [r1, #120]	; 0x78
    7a02:	1c5a      	adds	r2, r3, #1
    7a04:	678a      	str	r2, [r1, #120]	; 0x78
    7a06:	220a      	movs	r2, #10
    7a08:	701a      	strb	r2, [r3, #0]
    7a0a:	e8bd 4010 	ldmia.w	sp!, {r4, lr}
    7a0e:	f002 bb64 	b.w	a0da <__sys_appexit>
    7a12:	3178      	adds	r1, #120	; 0x78
    7a14:	200a      	movs	r0, #10
    7a16:	f002 fb83 	bl	a120 <__flsbuf>
    7a1a:	e7f6      	b.n	7a0a <__assertion_failed+0x2e>
    7a1c:	20000a68 	.word	0x20000a68
    7a20:	0000d354 	.word	0x0000d354
    7a24:	200009f0 	.word	0x200009f0

00007a28 <_Cwritebuf>:
    7a28:	e92d 41f0 	stmdb	sp!, {r4, r5, r6, r7, r8, lr}
    7a2c:	68d5      	ldr	r5, [r2, #12]
    7a2e:	4680      	mov	r8, r0
    7a30:	460e      	mov	r6, r1
    7a32:	4614      	mov	r4, r2
    7a34:	02eb      	lsls	r3, r5, #11
    7a36:	6957      	ldr	r7, [r2, #20]
    7a38:	d505      	bpl.n	7a46 <_Cwritebuf+0x1e>
    7a3a:	f045 0510 	orr.w	r5, r5, #16
    7a3e:	4638      	mov	r0, r7
    7a40:	f002 fdec 	bl	a61c <__sys_flen>
    7a44:	61a0      	str	r0, [r4, #24]
    7a46:	4b12      	ldr	r3, [pc, #72]	; (7a90 <_Cwritebuf+0x68>)
    7a48:	402b      	ands	r3, r5
    7a4a:	b18b      	cbz	r3, 7a70 <_Cwritebuf+0x48>
    7a4c:	69a1      	ldr	r1, [r4, #24]
    7a4e:	4638      	mov	r0, r7
    7a50:	f002 fded 	bl	a62e <__sys_seek>
    7a54:	2800      	cmp	r0, #0
    7a56:	da06      	bge.n	7a66 <_Cwritebuf+0x3e>
    7a58:	68e3      	ldr	r3, [r4, #12]
    7a5a:	f04f 30ff 	mov.w	r0, #4294967295
    7a5e:	f043 0380 	orr.w	r3, r3, #128	; 0x80
    7a62:	60e3      	str	r3, [r4, #12]
    7a64:	e011      	b.n	7a8a <_Cwritebuf+0x62>
    7a66:	f425 3500 	bic.w	r5, r5, #131072	; 0x20000
    7a6a:	f025 0510 	bic.w	r5, r5, #16
    7a6e:	60e5      	str	r5, [r4, #12]
    7a70:	4632      	mov	r2, r6
    7a72:	4641      	mov	r1, r8
    7a74:	4638      	mov	r0, r7
    7a76:	f002 fde0 	bl	a63a <__sys_write>
    7a7a:	f020 4300 	bic.w	r3, r0, #2147483648	; 0x80000000
    7a7e:	1af6      	subs	r6, r6, r3
    7a80:	69a3      	ldr	r3, [r4, #24]
    7a82:	441e      	add	r6, r3
    7a84:	61a6      	str	r6, [r4, #24]
    7a86:	2800      	cmp	r0, #0
    7a88:	d1e6      	bne.n	7a58 <_Cwritebuf+0x30>
    7a8a:	e8bd 81f0 	ldmia.w	sp!, {r4, r5, r6, r7, r8, pc}
    7a8e:	bf00      	nop
    7a90:	00020010 	.word	0x00020010

00007a94 <malloc>:
    7a94:	b5f8      	push	{r3, r4, r5, r6, r7, lr}
    7a96:	4f30      	ldr	r7, [pc, #192]	; (7b58 <malloc+0xc4>)
    7a98:	683c      	ldr	r4, [r7, #0]
    7a9a:	2800      	cmp	r0, #0
    7a9c:	d151      	bne.n	7b42 <malloc+0xae>
    7a9e:	2000      	movs	r0, #0
    7aa0:	bdf8      	pop	{r3, r4, r5, r6, r7, pc}
    7aa2:	6823      	ldr	r3, [r4, #0]
    7aa4:	f1b3 5f80 	cmp.w	r3, #268435456	; 0x10000000
    7aa8:	d139      	bne.n	7b1e <malloc+0x8a>
    7aaa:	e9d4 3201 	ldrd	r3, r2, [r4, #4]
    7aae:	b152      	cbz	r2, 7ac6 <malloc+0x32>
    7ab0:	6811      	ldr	r1, [r2, #0]
    7ab2:	f1b1 5f80 	cmp.w	r1, #268435456	; 0x10000000
    7ab6:	d106      	bne.n	7ac6 <malloc+0x32>
    7ab8:	6851      	ldr	r1, [r2, #4]
    7aba:	3303      	adds	r3, #3
    7abc:	440b      	add	r3, r1
    7abe:	6063      	str	r3, [r4, #4]
    7ac0:	6893      	ldr	r3, [r2, #8]
    7ac2:	60a3      	str	r3, [r4, #8]
    7ac4:	e7f1      	b.n	7aaa <malloc+0x16>
    7ac6:	42ab      	cmp	r3, r5
    7ac8:	db07      	blt.n	7ada <malloc+0x46>
    7aca:	4573      	cmp	r3, lr
    7acc:	dc05      	bgt.n	7ada <malloc+0x46>
    7ace:	4620      	mov	r0, r4
    7ad0:	f04f 5300 	mov.w	r3, #536870912	; 0x20000000
    7ad4:	f840 3b0c 	str.w	r3, [r0], #12
    7ad8:	e7e2      	b.n	7aa0 <malloc+0xc>
    7ada:	4563      	cmp	r3, ip
    7adc:	d911      	bls.n	7b02 <malloc+0x6e>
    7ade:	4620      	mov	r0, r4
    7ae0:	f04f 5100 	mov.w	r1, #536870912	; 0x20000000
    7ae4:	6065      	str	r5, [r4, #4]
    7ae6:	1b5b      	subs	r3, r3, r5
    7ae8:	f840 1b0c 	str.w	r1, [r0], #12
    7aec:	eb00 0185 	add.w	r1, r0, r5, lsl #2
    7af0:	3b03      	subs	r3, #3
    7af2:	60a1      	str	r1, [r4, #8]
    7af4:	f04f 5480 	mov.w	r4, #268435456	; 0x10000000
    7af8:	f840 4025 	str.w	r4, [r0, r5, lsl #2]
    7afc:	e9c1 3201 	strd	r3, r2, [r1, #4]
    7b00:	e7ce      	b.n	7aa0 <malloc+0xc>
    7b02:	b962      	cbnz	r2, 7b1e <malloc+0x8a>
    7b04:	eba0 0083 	sub.w	r0, r0, r3, lsl #2
    7b08:	f000 f938 	bl	7d7c <_sbrk>
    7b0c:	3001      	adds	r0, #1
    7b0e:	d0c6      	beq.n	7a9e <malloc+0xa>
    7b10:	f04f 5300 	mov.w	r3, #536870912	; 0x20000000
    7b14:	f104 000c 	add.w	r0, r4, #12
    7b18:	e9c4 3500 	strd	r3, r5, [r4]
    7b1c:	e7c0      	b.n	7aa0 <malloc+0xc>
    7b1e:	4626      	mov	r6, r4
    7b20:	68a4      	ldr	r4, [r4, #8]
    7b22:	2c00      	cmp	r4, #0
    7b24:	d1bd      	bne.n	7aa2 <malloc+0xe>
    7b26:	300c      	adds	r0, #12
    7b28:	f000 f928 	bl	7d7c <_sbrk>
    7b2c:	1c43      	adds	r3, r0, #1
    7b2e:	d0b6      	beq.n	7a9e <malloc+0xa>
    7b30:	f04f 5300 	mov.w	r3, #536870912	; 0x20000000
    7b34:	6084      	str	r4, [r0, #8]
    7b36:	e9c0 3500 	strd	r3, r5, [r0]
    7b3a:	b956      	cbnz	r6, 7b52 <malloc+0xbe>
    7b3c:	6038      	str	r0, [r7, #0]
    7b3e:	300c      	adds	r0, #12
    7b40:	e7ae      	b.n	7aa0 <malloc+0xc>
    7b42:	1cc3      	adds	r3, r0, #3
    7b44:	2600      	movs	r6, #0
    7b46:	089d      	lsrs	r5, r3, #2
    7b48:	f105 0c0a 	add.w	ip, r5, #10
    7b4c:	f105 0e03 	add.w	lr, r5, #3
    7b50:	e7e7      	b.n	7b22 <malloc+0x8e>
    7b52:	60b0      	str	r0, [r6, #8]
    7b54:	e7f3      	b.n	7b3e <malloc+0xaa>
    7b56:	bf00      	nop
    7b58:	20000aa8 	.word	0x20000aa8

00007b5c <_Csys_alloc>:
    7b5c:	b510      	push	{r4, lr}
    7b5e:	f7ff ff99 	bl	7a94 <malloc>
    7b62:	4604      	mov	r4, r0
    7b64:	b928      	cbnz	r0, 7b72 <_Csys_alloc+0x16>
    7b66:	2217      	movs	r2, #23
    7b68:	4903      	ldr	r1, [pc, #12]	; (7b78 <_Csys_alloc+0x1c>)
    7b6a:	f002 fd66 	bl	a63a <__sys_write>
    7b6e:	f002 fab4 	bl	a0da <__sys_appexit>
    7b72:	4620      	mov	r0, r4
    7b74:	bd10      	pop	{r4, pc}
    7b76:	bf00      	nop
    7b78:	0000d369 	.word	0x0000d369

00007b7c <fseek>:
    7b7c:	e92d 43f8 	stmdb	sp!, {r3, r4, r5, r6, r7, r8, r9, lr}
    7b80:	68c6      	ldr	r6, [r0, #12]
    7b82:	4604      	mov	r4, r0
    7b84:	4b3c      	ldr	r3, [pc, #240]	; (7c78 <fseek+0xfc>)
    7b86:	460d      	mov	r5, r1
    7b88:	4690      	mov	r8, r2
    7b8a:	4033      	ands	r3, r6
    7b8c:	b91b      	cbnz	r3, 7b96 <fseek+0x1a>
    7b8e:	2702      	movs	r7, #2
    7b90:	4638      	mov	r0, r7
    7b92:	e8bd 83f8 	ldmia.w	sp!, {r3, r4, r5, r6, r7, r8, r9, pc}
    7b96:	f8d0 9014 	ldr.w	r9, [r0, #20]
    7b9a:	4648      	mov	r0, r9
    7b9c:	f002 fd41 	bl	a622 <__sys_istty>
    7ba0:	4607      	mov	r7, r0
    7ba2:	2800      	cmp	r0, #0
    7ba4:	d1f3      	bne.n	7b8e <fseek+0x12>
    7ba6:	f1b8 0f01 	cmp.w	r8, #1
    7baa:	d02c      	beq.n	7c06 <fseek+0x8a>
    7bac:	f1b8 0f02 	cmp.w	r8, #2
    7bb0:	d02e      	beq.n	7c10 <fseek+0x94>
    7bb2:	f1b8 0f00 	cmp.w	r8, #0
    7bb6:	d1ea      	bne.n	7b8e <fseek+0x12>
    7bb8:	2d00      	cmp	r5, #0
    7bba:	dbe8      	blt.n	7b8e <fseek+0x12>
    7bbc:	04b0      	lsls	r0, r6, #18
    7bbe:	d504      	bpl.n	7bca <fseek+0x4e>
    7bc0:	6823      	ldr	r3, [r4, #0]
    7bc2:	6ae2      	ldr	r2, [r4, #44]	; 0x2c
    7bc4:	429a      	cmp	r2, r3
    7bc6:	bf38      	it	cc
    7bc8:	62e3      	strcc	r3, [r4, #44]	; 0x2c
    7bca:	69a1      	ldr	r1, [r4, #24]
    7bcc:	42a9      	cmp	r1, r5
    7bce:	dc0e      	bgt.n	7bee <fseek+0x72>
    7bd0:	6823      	ldr	r3, [r4, #0]
    7bd2:	6ae2      	ldr	r2, [r4, #44]	; 0x2c
    7bd4:	4293      	cmp	r3, r2
    7bd6:	bf38      	it	cc
    7bd8:	4613      	movcc	r3, r2
    7bda:	6922      	ldr	r2, [r4, #16]
    7bdc:	1858      	adds	r0, r3, r1
    7bde:	1a80      	subs	r0, r0, r2
    7be0:	42a8      	cmp	r0, r5
    7be2:	db04      	blt.n	7bee <fseek+0x72>
    7be4:	6b20      	ldr	r0, [r4, #48]	; 0x30
    7be6:	eb01 0c00 	add.w	ip, r1, r0
    7bea:	45ac      	cmp	ip, r5
    7bec:	dc34      	bgt.n	7c58 <fseek+0xdc>
    7bee:	2300      	movs	r3, #0
    7bf0:	f046 0620 	orr.w	r6, r6, #32
    7bf4:	62a5      	str	r5, [r4, #40]	; 0x28
    7bf6:	e9c4 3301 	strd	r3, r3, [r4, #4]
    7bfa:	f426 2603 	bic.w	r6, r6, #536576	; 0x83000
    7bfe:	f026 0640 	bic.w	r6, r6, #64	; 0x40
    7c02:	60e6      	str	r6, [r4, #12]
    7c04:	e7c4      	b.n	7b90 <fseek+0x14>
    7c06:	4620      	mov	r0, r4
    7c08:	f000 f838 	bl	7c7c <ftell>
    7c0c:	4405      	add	r5, r0
    7c0e:	e7d3      	b.n	7bb8 <fseek+0x3c>
    7c10:	4648      	mov	r0, r9
    7c12:	f002 fd03 	bl	a61c <__sys_flen>
    7c16:	f1b0 0c00 	subs.w	ip, r0, #0
    7c1a:	68e2      	ldr	r2, [r4, #12]
    7c1c:	da04      	bge.n	7c28 <fseek+0xac>
    7c1e:	f042 0280 	orr.w	r2, r2, #128	; 0x80
    7c22:	2701      	movs	r7, #1
    7c24:	60e2      	str	r2, [r4, #12]
    7c26:	e7b3      	b.n	7b90 <fseek+0x14>
    7c28:	6ae3      	ldr	r3, [r4, #44]	; 0x2c
    7c2a:	4618      	mov	r0, r3
    7c2c:	69a3      	ldr	r3, [r4, #24]
    7c2e:	4619      	mov	r1, r3
    7c30:	6823      	ldr	r3, [r4, #0]
    7c32:	4283      	cmp	r3, r0
    7c34:	bf2c      	ite	cs
    7c36:	18c9      	addcs	r1, r1, r3
    7c38:	1809      	addcc	r1, r1, r0
    7c3a:	0692      	lsls	r2, r2, #26
    7c3c:	460b      	mov	r3, r1
    7c3e:	6921      	ldr	r1, [r4, #16]
    7c40:	eba3 0301 	sub.w	r3, r3, r1
    7c44:	d503      	bpl.n	7c4e <fseek+0xd2>
    7c46:	6aa2      	ldr	r2, [r4, #40]	; 0x28
    7c48:	4293      	cmp	r3, r2
    7c4a:	bfb8      	it	lt
    7c4c:	4613      	movlt	r3, r2
    7c4e:	4563      	cmp	r3, ip
    7c50:	bfac      	ite	ge
    7c52:	18ed      	addge	r5, r5, r3
    7c54:	4465      	addlt	r5, ip
    7c56:	e7af      	b.n	7bb8 <fseek+0x3c>
    7c58:	1a6d      	subs	r5, r5, r1
    7c5a:	07b1      	lsls	r1, r6, #30
    7c5c:	bf44      	itt	mi
    7c5e:	1a28      	submi	r0, r5, r0
    7c60:	60a0      	strmi	r0, [r4, #8]
    7c62:	07f1      	lsls	r1, r6, #31
    7c64:	f026 0620 	bic.w	r6, r6, #32
    7c68:	bf44      	itt	mi
    7c6a:	1a9b      	submi	r3, r3, r2
    7c6c:	1aeb      	submi	r3, r5, r3
    7c6e:	4415      	add	r5, r2
    7c70:	bf48      	it	mi
    7c72:	6063      	strmi	r3, [r4, #4]
    7c74:	6025      	str	r5, [r4, #0]
    7c76:	e7c0      	b.n	7bfa <fseek+0x7e>
    7c78:	00100003 	.word	0x00100003

00007c7c <ftell>:
    7c7c:	68c3      	ldr	r3, [r0, #12]
    7c7e:	079a      	lsls	r2, r3, #30
    7c80:	d105      	bne.n	7c8e <ftell+0x12>
    7c82:	4b0f      	ldr	r3, [pc, #60]	; (7cc0 <ftell+0x44>)
    7c84:	2221      	movs	r2, #33	; 0x21
    7c86:	f04f 30ff 	mov.w	r0, #4294967295
    7c8a:	601a      	str	r2, [r3, #0]
    7c8c:	4770      	bx	lr
    7c8e:	f003 0220 	and.w	r2, r3, #32
    7c92:	031b      	lsls	r3, r3, #12
    7c94:	d50a      	bpl.n	7cac <ftell+0x30>
    7c96:	b112      	cbz	r2, 7c9e <ftell+0x22>
    7c98:	6a80      	ldr	r0, [r0, #40]	; 0x28
    7c9a:	3801      	subs	r0, #1
    7c9c:	4770      	bx	lr
    7c9e:	6803      	ldr	r3, [r0, #0]
    7ca0:	6982      	ldr	r2, [r0, #24]
    7ca2:	6900      	ldr	r0, [r0, #16]
    7ca4:	4413      	add	r3, r2
    7ca6:	1a1b      	subs	r3, r3, r0
    7ca8:	1e58      	subs	r0, r3, #1
    7caa:	4770      	bx	lr
    7cac:	b10a      	cbz	r2, 7cb2 <ftell+0x36>
    7cae:	6a80      	ldr	r0, [r0, #40]	; 0x28
    7cb0:	4770      	bx	lr
    7cb2:	6803      	ldr	r3, [r0, #0]
    7cb4:	6982      	ldr	r2, [r0, #24]
    7cb6:	6900      	ldr	r0, [r0, #16]
    7cb8:	4413      	add	r3, r2
    7cba:	1a18      	subs	r0, r3, r0
    7cbc:	4770      	bx	lr
    7cbe:	bf00      	nop
    7cc0:	20000aac 	.word	0x20000aac

00007cc4 <_initio>:
    7cc4:	b510      	push	{r4, lr}
    7cc6:	4a17      	ldr	r2, [pc, #92]	; (7d24 <_initio+0x60>)
    7cc8:	2000      	movs	r0, #0
    7cca:	4917      	ldr	r1, [pc, #92]	; (7d28 <_initio+0x64>)
    7ccc:	f002 fb45 	bl	a35a <_fdopen>
    7cd0:	f44f 7380 	mov.w	r3, #256	; 0x100
    7cd4:	f44f 6280 	mov.w	r2, #1024	; 0x400
    7cd8:	2100      	movs	r1, #0
    7cda:	4812      	ldr	r0, [pc, #72]	; (7d24 <_initio+0x60>)
    7cdc:	f000 f82e 	bl	7d3c <setvbuf>
    7ce0:	4a12      	ldr	r2, [pc, #72]	; (7d2c <_initio+0x68>)
    7ce2:	4913      	ldr	r1, [pc, #76]	; (7d30 <_initio+0x6c>)
    7ce4:	2001      	movs	r0, #1
    7ce6:	f002 fb38 	bl	a35a <_fdopen>
    7cea:	f44f 7380 	mov.w	r3, #256	; 0x100
    7cee:	f44f 6280 	mov.w	r2, #1024	; 0x400
    7cf2:	2100      	movs	r1, #0
    7cf4:	480d      	ldr	r0, [pc, #52]	; (7d2c <_initio+0x68>)
    7cf6:	f000 f821 	bl	7d3c <setvbuf>
    7cfa:	4b0e      	ldr	r3, [pc, #56]	; (7d34 <_initio+0x70>)
    7cfc:	681b      	ldr	r3, [r3, #0]
    7cfe:	2b02      	cmp	r3, #2
    7d00:	dd0e      	ble.n	7d20 <_initio+0x5c>
    7d02:	4a0d      	ldr	r2, [pc, #52]	; (7d38 <_initio+0x74>)
    7d04:	2002      	movs	r0, #2
    7d06:	490a      	ldr	r1, [pc, #40]	; (7d30 <_initio+0x6c>)
    7d08:	f002 fb27 	bl	a35a <_fdopen>
    7d0c:	f44f 7380 	mov.w	r3, #256	; 0x100
    7d10:	f44f 6280 	mov.w	r2, #1024	; 0x400
    7d14:	2100      	movs	r1, #0
    7d16:	4808      	ldr	r0, [pc, #32]	; (7d38 <_initio+0x74>)
    7d18:	e8bd 4010 	ldmia.w	sp!, {r4, lr}
    7d1c:	f000 b80e 	b.w	7d3c <setvbuf>
    7d20:	bd10      	pop	{r4, pc}
    7d22:	bf00      	nop
    7d24:	200009f0 	.word	0x200009f0
    7d28:	0000d381 	.word	0x0000d381
    7d2c:	20000a2c 	.word	0x20000a2c
    7d30:	0000d383 	.word	0x0000d383
    7d34:	0000d350 	.word	0x0000d350
    7d38:	20000a68 	.word	0x20000a68

00007d3c <setvbuf>:
    7d3c:	b570      	push	{r4, r5, r6, lr}
    7d3e:	68c4      	ldr	r4, [r0, #12]
    7d40:	07a5      	lsls	r5, r4, #30
    7d42:	d008      	beq.n	7d56 <setvbuf+0x1a>
    7d44:	f5b2 7f00 	cmp.w	r2, #512	; 0x200
    7d48:	d011      	beq.n	7d6e <setvbuf+0x32>
    7d4a:	f5b2 6f80 	cmp.w	r2, #1024	; 0x400
    7d4e:	d004      	beq.n	7d5a <setvbuf+0x1e>
    7d50:	f5b2 7f80 	cmp.w	r2, #256	; 0x100
    7d54:	d00b      	beq.n	7d6e <setvbuf+0x32>
    7d56:	2001      	movs	r0, #1
    7d58:	e008      	b.n	7d6c <setvbuf+0x30>
    7d5a:	f100 0124 	add.w	r1, r0, #36	; 0x24
    7d5e:	2301      	movs	r3, #1
    7d60:	4314      	orrs	r4, r2
    7d62:	6101      	str	r1, [r0, #16]
    7d64:	6001      	str	r1, [r0, #0]
    7d66:	61c3      	str	r3, [r0, #28]
    7d68:	60c4      	str	r4, [r0, #12]
    7d6a:	2000      	movs	r0, #0
    7d6c:	bd70      	pop	{r4, r5, r6, pc}
    7d6e:	1e5e      	subs	r6, r3, #1
    7d70:	4d01      	ldr	r5, [pc, #4]	; (7d78 <setvbuf+0x3c>)
    7d72:	42ae      	cmp	r6, r5
    7d74:	d9f4      	bls.n	7d60 <setvbuf+0x24>
    7d76:	e7ee      	b.n	7d56 <setvbuf+0x1a>
    7d78:	00fffffe 	.word	0x00fffffe

00007d7c <_sbrk>:
    7d7c:	b570      	push	{r4, r5, r6, lr}
    7d7e:	4d0b      	ldr	r5, [pc, #44]	; (7dac <_sbrk+0x30>)
    7d80:	682b      	ldr	r3, [r5, #0]
    7d82:	b90b      	cbnz	r3, 7d88 <_sbrk+0xc>
    7d84:	4b0a      	ldr	r3, [pc, #40]	; (7db0 <_sbrk+0x34>)
    7d86:	602b      	str	r3, [r5, #0]
    7d88:	1cc4      	adds	r4, r0, #3
    7d8a:	682e      	ldr	r6, [r5, #0]
    7d8c:	f024 0403 	bic.w	r4, r4, #3
    7d90:	4434      	add	r4, r6
    7d92:	4620      	mov	r0, r4
    7d94:	f000 f832 	bl	7dfc <__check_heap_overflow>
    7d98:	b910      	cbnz	r0, 7da0 <_sbrk+0x24>
    7d9a:	602c      	str	r4, [r5, #0]
    7d9c:	4630      	mov	r0, r6
    7d9e:	bd70      	pop	{r4, r5, r6, pc}
    7da0:	4b04      	ldr	r3, [pc, #16]	; (7db4 <_sbrk+0x38>)
    7da2:	220c      	movs	r2, #12
    7da4:	f04f 36ff 	mov.w	r6, #4294967295
    7da8:	601a      	str	r2, [r3, #0]
    7daa:	e7f7      	b.n	7d9c <_sbrk+0x20>
    7dac:	20000aa4 	.word	0x20000aa4
    7db0:	20000abc 	.word	0x20000abc
    7db4:	20000aac 	.word	0x20000aac

00007db8 <fflush>:
    7db8:	b5f7      	push	{r0, r1, r2, r4, r5, r6, r7, lr}
    7dba:	4604      	mov	r4, r0
    7dbc:	b198      	cbz	r0, 7de6 <fflush+0x2e>
    7dbe:	b003      	add	sp, #12
    7dc0:	e8bd 40f0 	ldmia.w	sp!, {r4, r5, r6, r7, lr}
    7dc4:	f002 bb33 	b.w	a42e <_do_fflush>
    7dc8:	fb07 6004 	mla	r0, r7, r4, r6
    7dcc:	3401      	adds	r4, #1
    7dce:	f002 fb2e 	bl	a42e <_do_fflush>
    7dd2:	2800      	cmp	r0, #0
    7dd4:	bf18      	it	ne
    7dd6:	f04f 35ff 	movne.w	r5, #4294967295
    7dda:	9b01      	ldr	r3, [sp, #4]
    7ddc:	42a3      	cmp	r3, r4
    7dde:	dcf3      	bgt.n	7dc8 <fflush+0x10>
    7de0:	4628      	mov	r0, r5
    7de2:	b003      	add	sp, #12
    7de4:	bdf0      	pop	{r4, r5, r6, r7, pc}
    7de6:	4b03      	ldr	r3, [pc, #12]	; (7df4 <fflush+0x3c>)
    7de8:	4605      	mov	r5, r0
    7dea:	273c      	movs	r7, #60	; 0x3c
    7dec:	4e02      	ldr	r6, [pc, #8]	; (7df8 <fflush+0x40>)
    7dee:	681b      	ldr	r3, [r3, #0]
    7df0:	9301      	str	r3, [sp, #4]
    7df2:	e7f2      	b.n	7dda <fflush+0x22>
    7df4:	0000d350 	.word	0x0000d350
    7df8:	200009f0 	.word	0x200009f0

00007dfc <__check_heap_overflow>:
    7dfc:	4b04      	ldr	r3, [pc, #16]	; (7e10 <__check_heap_overflow+0x14>)
    7dfe:	b123      	cbz	r3, 7e0a <__check_heap_overflow+0xe>
    7e00:	4298      	cmp	r0, r3
    7e02:	bf34      	ite	cc
    7e04:	2000      	movcc	r0, #0
    7e06:	2001      	movcs	r0, #1
    7e08:	4770      	bx	lr
    7e0a:	4618      	mov	r0, r3
    7e0c:	4770      	bx	lr
    7e0e:	bf00      	nop
    7e10:	20001abc 	.word	0x20001abc

00007e14 <DbgConsole_PrintCallback>:
    7e14:	b580      	push	{r7, lr}
    7e16:	b086      	sub	sp, #24
    7e18:	af00      	add	r7, sp, #0
    7e1a:	60f8      	str	r0, [r7, #12]
    7e1c:	60b9      	str	r1, [r7, #8]
    7e1e:	603b      	str	r3, [r7, #0]
    7e20:	4613      	mov	r3, r2
    7e22:	71fb      	strb	r3, [r7, #7]
    7e24:	2300      	movs	r3, #0
    7e26:	617b      	str	r3, [r7, #20]
    7e28:	2300      	movs	r3, #0
    7e2a:	617b      	str	r3, [r7, #20]
    7e2c:	e01c      	b.n	7e68 <DbgConsole_PrintCallback+0x54>
    7e2e:	68bb      	ldr	r3, [r7, #8]
    7e30:	681b      	ldr	r3, [r3, #0]
    7e32:	3301      	adds	r3, #1
    7e34:	2b7f      	cmp	r3, #127	; 0x7f
    7e36:	d908      	bls.n	7e4a <DbgConsole_PrintCallback+0x36>
    7e38:	68bb      	ldr	r3, [r7, #8]
    7e3a:	681b      	ldr	r3, [r3, #0]
    7e3c:	4619      	mov	r1, r3
    7e3e:	68f8      	ldr	r0, [r7, #12]
    7e40:	f7f8 fba4 	bl	58c <DbgConsole_SendDataReliable>
    7e44:	68bb      	ldr	r3, [r7, #8]
    7e46:	2200      	movs	r2, #0
    7e48:	601a      	str	r2, [r3, #0]
    7e4a:	68bb      	ldr	r3, [r7, #8]
    7e4c:	681b      	ldr	r3, [r3, #0]
    7e4e:	461a      	mov	r2, r3
    7e50:	68fb      	ldr	r3, [r7, #12]
    7e52:	4413      	add	r3, r2
    7e54:	79fa      	ldrb	r2, [r7, #7]
    7e56:	701a      	strb	r2, [r3, #0]
    7e58:	68bb      	ldr	r3, [r7, #8]
    7e5a:	681b      	ldr	r3, [r3, #0]
    7e5c:	1c5a      	adds	r2, r3, #1
    7e5e:	68bb      	ldr	r3, [r7, #8]
    7e60:	601a      	str	r2, [r3, #0]
    7e62:	697b      	ldr	r3, [r7, #20]
    7e64:	3301      	adds	r3, #1
    7e66:	617b      	str	r3, [r7, #20]
    7e68:	697a      	ldr	r2, [r7, #20]
    7e6a:	683b      	ldr	r3, [r7, #0]
    7e6c:	429a      	cmp	r2, r3
    7e6e:	dbde      	blt.n	7e2e <DbgConsole_PrintCallback+0x1a>
    7e70:	bf00      	nop
    7e72:	3718      	adds	r7, #24
    7e74:	46bd      	mov	sp, r7
    7e76:	bd80      	pop	{r7, pc}

00007e78 <ConvertRadixNumToString>:
    7e78:	b480      	push	{r7}
    7e7a:	b08d      	sub	sp, #52	; 0x34
    7e7c:	af00      	add	r7, sp, #0
    7e7e:	60f8      	str	r0, [r7, #12]
    7e80:	60b9      	str	r1, [r7, #8]
    7e82:	607a      	str	r2, [r7, #4]
    7e84:	603b      	str	r3, [r7, #0]
    7e86:	2300      	movs	r3, #0
    7e88:	61fb      	str	r3, [r7, #28]
    7e8a:	68fb      	ldr	r3, [r7, #12]
    7e8c:	61bb      	str	r3, [r7, #24]
    7e8e:	69bb      	ldr	r3, [r7, #24]
    7e90:	1c5a      	adds	r2, r3, #1
    7e92:	61ba      	str	r2, [r7, #24]
    7e94:	2200      	movs	r2, #0
    7e96:	701a      	strb	r2, [r3, #0]
    7e98:	687b      	ldr	r3, [r7, #4]
    7e9a:	2b00      	cmp	r3, #0
    7e9c:	d035      	beq.n	7f0a <ConvertRadixNumToString+0x92>
    7e9e:	68bb      	ldr	r3, [r7, #8]
    7ea0:	681b      	ldr	r3, [r3, #0]
    7ea2:	62fb      	str	r3, [r7, #44]	; 0x2c
    7ea4:	6afb      	ldr	r3, [r7, #44]	; 0x2c
    7ea6:	2b00      	cmp	r3, #0
    7ea8:	d12b      	bne.n	7f02 <ConvertRadixNumToString+0x8a>
    7eaa:	69bb      	ldr	r3, [r7, #24]
    7eac:	2230      	movs	r2, #48	; 0x30
    7eae:	701a      	strb	r2, [r3, #0]
    7eb0:	69fb      	ldr	r3, [r7, #28]
    7eb2:	3301      	adds	r3, #1
    7eb4:	61fb      	str	r3, [r7, #28]
    7eb6:	69fb      	ldr	r3, [r7, #28]
    7eb8:	e062      	b.n	7f80 <ConvertRadixNumToString+0x108>
    7eba:	6afa      	ldr	r2, [r7, #44]	; 0x2c
    7ebc:	683b      	ldr	r3, [r7, #0]
    7ebe:	fb92 f3f3 	sdiv	r3, r2, r3
    7ec2:	617b      	str	r3, [r7, #20]
    7ec4:	697b      	ldr	r3, [r7, #20]
    7ec6:	683a      	ldr	r2, [r7, #0]
    7ec8:	fb02 f303 	mul.w	r3, r2, r3
    7ecc:	6afa      	ldr	r2, [r7, #44]	; 0x2c
    7ece:	1ad3      	subs	r3, r2, r3
    7ed0:	62bb      	str	r3, [r7, #40]	; 0x28
    7ed2:	6abb      	ldr	r3, [r7, #40]	; 0x28
    7ed4:	2b00      	cmp	r3, #0
    7ed6:	da06      	bge.n	7ee6 <ConvertRadixNumToString+0x6e>
    7ed8:	6abb      	ldr	r3, [r7, #40]	; 0x28
    7eda:	623b      	str	r3, [r7, #32]
    7edc:	6a3b      	ldr	r3, [r7, #32]
    7ede:	f1c3 0330 	rsb	r3, r3, #48	; 0x30
    7ee2:	62bb      	str	r3, [r7, #40]	; 0x28
    7ee4:	e002      	b.n	7eec <ConvertRadixNumToString+0x74>
    7ee6:	6abb      	ldr	r3, [r7, #40]	; 0x28
    7ee8:	3330      	adds	r3, #48	; 0x30
    7eea:	62bb      	str	r3, [r7, #40]	; 0x28
    7eec:	697b      	ldr	r3, [r7, #20]
    7eee:	62fb      	str	r3, [r7, #44]	; 0x2c
    7ef0:	69bb      	ldr	r3, [r7, #24]
    7ef2:	1c5a      	adds	r2, r3, #1
    7ef4:	61ba      	str	r2, [r7, #24]
    7ef6:	6aba      	ldr	r2, [r7, #40]	; 0x28
    7ef8:	b2d2      	uxtb	r2, r2
    7efa:	701a      	strb	r2, [r3, #0]
    7efc:	69fb      	ldr	r3, [r7, #28]
    7efe:	3301      	adds	r3, #1
    7f00:	61fb      	str	r3, [r7, #28]
    7f02:	6afb      	ldr	r3, [r7, #44]	; 0x2c
    7f04:	2b00      	cmp	r3, #0
    7f06:	d1d8      	bne.n	7eba <ConvertRadixNumToString+0x42>
    7f08:	e039      	b.n	7f7e <ConvertRadixNumToString+0x106>
    7f0a:	68bb      	ldr	r3, [r7, #8]
    7f0c:	681b      	ldr	r3, [r3, #0]
    7f0e:	627b      	str	r3, [r7, #36]	; 0x24
    7f10:	6a7b      	ldr	r3, [r7, #36]	; 0x24
    7f12:	2b00      	cmp	r3, #0
    7f14:	d130      	bne.n	7f78 <ConvertRadixNumToString+0x100>
    7f16:	69bb      	ldr	r3, [r7, #24]
    7f18:	2230      	movs	r2, #48	; 0x30
    7f1a:	701a      	strb	r2, [r3, #0]
    7f1c:	69fb      	ldr	r3, [r7, #28]
    7f1e:	3301      	adds	r3, #1
    7f20:	61fb      	str	r3, [r7, #28]
    7f22:	69fb      	ldr	r3, [r7, #28]
    7f24:	e02c      	b.n	7f80 <ConvertRadixNumToString+0x108>
    7f26:	683b      	ldr	r3, [r7, #0]
    7f28:	6a7a      	ldr	r2, [r7, #36]	; 0x24
    7f2a:	fbb2 f3f3 	udiv	r3, r2, r3
    7f2e:	613b      	str	r3, [r7, #16]
    7f30:	683b      	ldr	r3, [r7, #0]
    7f32:	693a      	ldr	r2, [r7, #16]
    7f34:	fb02 f303 	mul.w	r3, r2, r3
    7f38:	6a7a      	ldr	r2, [r7, #36]	; 0x24
    7f3a:	1ad3      	subs	r3, r2, r3
    7f3c:	623b      	str	r3, [r7, #32]
    7f3e:	6a3b      	ldr	r3, [r7, #32]
    7f40:	2b09      	cmp	r3, #9
    7f42:	d803      	bhi.n	7f4c <ConvertRadixNumToString+0xd4>
    7f44:	6a3b      	ldr	r3, [r7, #32]
    7f46:	3330      	adds	r3, #48	; 0x30
    7f48:	623b      	str	r3, [r7, #32]
    7f4a:	e00a      	b.n	7f62 <ConvertRadixNumToString+0xea>
    7f4c:	f897 3038 	ldrb.w	r3, [r7, #56]	; 0x38
    7f50:	2b00      	cmp	r3, #0
    7f52:	d001      	beq.n	7f58 <ConvertRadixNumToString+0xe0>
    7f54:	2241      	movs	r2, #65	; 0x41
    7f56:	e000      	b.n	7f5a <ConvertRadixNumToString+0xe2>
    7f58:	2261      	movs	r2, #97	; 0x61
    7f5a:	6a3b      	ldr	r3, [r7, #32]
    7f5c:	4413      	add	r3, r2
    7f5e:	3b0a      	subs	r3, #10
    7f60:	623b      	str	r3, [r7, #32]
    7f62:	693b      	ldr	r3, [r7, #16]
    7f64:	627b      	str	r3, [r7, #36]	; 0x24
    7f66:	69bb      	ldr	r3, [r7, #24]
    7f68:	1c5a      	adds	r2, r3, #1
    7f6a:	61ba      	str	r2, [r7, #24]
    7f6c:	6a3a      	ldr	r2, [r7, #32]
    7f6e:	b2d2      	uxtb	r2, r2
    7f70:	701a      	strb	r2, [r3, #0]
    7f72:	69fb      	ldr	r3, [r7, #28]
    7f74:	3301      	adds	r3, #1
    7f76:	61fb      	str	r3, [r7, #28]
    7f78:	6a7b      	ldr	r3, [r7, #36]	; 0x24
    7f7a:	2b00      	cmp	r3, #0
    7f7c:	d1d3      	bne.n	7f26 <ConvertRadixNumToString+0xae>
    7f7e:	69fb      	ldr	r3, [r7, #28]
    7f80:	4618      	mov	r0, r3
    7f82:	3734      	adds	r7, #52	; 0x34
    7f84:	46bd      	mov	sp, r7
    7f86:	f85d 7b04 	ldr.w	r7, [sp], #4
    7f8a:	4770      	bx	lr

00007f8c <StrFormatPrintf>:
    7f8c:	b590      	push	{r4, r7, lr}
    7f8e:	b09d      	sub	sp, #116	; 0x74
    7f90:	af02      	add	r7, sp, #8
    7f92:	60f8      	str	r0, [r7, #12]
    7f94:	60b9      	str	r1, [r7, #8]
    7f96:	607a      	str	r2, [r7, #4]
    7f98:	603b      	str	r3, [r7, #0]
    7f9a:	2300      	movs	r3, #0
    7f9c:	663b      	str	r3, [r7, #96]	; 0x60
    7f9e:	2300      	movs	r3, #0
    7fa0:	65fb      	str	r3, [r7, #92]	; 0x5c
    7fa2:	2300      	movs	r3, #0
    7fa4:	61bb      	str	r3, [r7, #24]
    7fa6:	2300      	movs	r3, #0
    7fa8:	f887 304a 	strb.w	r3, [r7, #74]	; 0x4a
    7fac:	2300      	movs	r3, #0
    7fae:	613b      	str	r3, [r7, #16]
    7fb0:	68fb      	ldr	r3, [r7, #12]
    7fb2:	667b      	str	r3, [r7, #100]	; 0x64
    7fb4:	e164      	b.n	8280 <StrFormatPrintf+0x2f4>
    7fb6:	6c7b      	ldr	r3, [r7, #68]	; 0x44
    7fb8:	2b25      	cmp	r3, #37	; 0x25
    7fba:	d008      	beq.n	7fce <StrFormatPrintf+0x42>
    7fbc:	6c7b      	ldr	r3, [r7, #68]	; 0x44
    7fbe:	b2da      	uxtb	r2, r3
    7fc0:	f107 0118 	add.w	r1, r7, #24
    7fc4:	683c      	ldr	r4, [r7, #0]
    7fc6:	2301      	movs	r3, #1
    7fc8:	6878      	ldr	r0, [r7, #4]
    7fca:	47a0      	blx	r4
    7fcc:	e155      	b.n	827a <StrFormatPrintf+0x2ee>
    7fce:	2301      	movs	r3, #1
    7fd0:	f887 304b 	strb.w	r3, [r7, #75]	; 0x4b
    7fd4:	2300      	movs	r3, #0
    7fd6:	657b      	str	r3, [r7, #84]	; 0x54
    7fd8:	2300      	movs	r3, #0
    7fda:	65bb      	str	r3, [r7, #88]	; 0x58
    7fdc:	e01b      	b.n	8016 <StrFormatPrintf+0x8a>
    7fde:	6e7b      	ldr	r3, [r7, #100]	; 0x64
    7fe0:	3301      	adds	r3, #1
    7fe2:	667b      	str	r3, [r7, #100]	; 0x64
    7fe4:	6e7b      	ldr	r3, [r7, #100]	; 0x64
    7fe6:	781b      	ldrb	r3, [r3, #0]
    7fe8:	647b      	str	r3, [r7, #68]	; 0x44
    7fea:	6c7b      	ldr	r3, [r7, #68]	; 0x44
    7fec:	2b2f      	cmp	r3, #47	; 0x2f
    7fee:	dd0d      	ble.n	800c <StrFormatPrintf+0x80>
    7ff0:	6c7b      	ldr	r3, [r7, #68]	; 0x44
    7ff2:	2b39      	cmp	r3, #57	; 0x39
    7ff4:	dc0a      	bgt.n	800c <StrFormatPrintf+0x80>
    7ff6:	6d7a      	ldr	r2, [r7, #84]	; 0x54
    7ff8:	4613      	mov	r3, r2
    7ffa:	009b      	lsls	r3, r3, #2
    7ffc:	4413      	add	r3, r2
    7ffe:	005b      	lsls	r3, r3, #1
    8000:	461a      	mov	r2, r3
    8002:	6c7b      	ldr	r3, [r7, #68]	; 0x44
    8004:	4413      	add	r3, r2
    8006:	3b30      	subs	r3, #48	; 0x30
    8008:	657b      	str	r3, [r7, #84]	; 0x54
    800a:	e004      	b.n	8016 <StrFormatPrintf+0x8a>
    800c:	6e7b      	ldr	r3, [r7, #100]	; 0x64
    800e:	3b01      	subs	r3, #1
    8010:	667b      	str	r3, [r7, #100]	; 0x64
    8012:	2301      	movs	r3, #1
    8014:	65bb      	str	r3, [r7, #88]	; 0x58
    8016:	6dbb      	ldr	r3, [r7, #88]	; 0x58
    8018:	2b00      	cmp	r3, #0
    801a:	d0e0      	beq.n	7fde <StrFormatPrintf+0x52>
    801c:	2306      	movs	r3, #6
    801e:	653b      	str	r3, [r7, #80]	; 0x50
    8020:	6e7b      	ldr	r3, [r7, #100]	; 0x64
    8022:	3301      	adds	r3, #1
    8024:	667b      	str	r3, [r7, #100]	; 0x64
    8026:	6e7b      	ldr	r3, [r7, #100]	; 0x64
    8028:	781b      	ldrb	r3, [r3, #0]
    802a:	2b2e      	cmp	r3, #46	; 0x2e
    802c:	d124      	bne.n	8078 <StrFormatPrintf+0xec>
    802e:	2300      	movs	r3, #0
    8030:	653b      	str	r3, [r7, #80]	; 0x50
    8032:	2300      	movs	r3, #0
    8034:	65bb      	str	r3, [r7, #88]	; 0x58
    8036:	e01b      	b.n	8070 <StrFormatPrintf+0xe4>
    8038:	6e7b      	ldr	r3, [r7, #100]	; 0x64
    803a:	3301      	adds	r3, #1
    803c:	667b      	str	r3, [r7, #100]	; 0x64
    803e:	6e7b      	ldr	r3, [r7, #100]	; 0x64
    8040:	781b      	ldrb	r3, [r3, #0]
    8042:	647b      	str	r3, [r7, #68]	; 0x44
    8044:	6c7b      	ldr	r3, [r7, #68]	; 0x44
    8046:	2b2f      	cmp	r3, #47	; 0x2f
    8048:	dd0d      	ble.n	8066 <StrFormatPrintf+0xda>
    804a:	6c7b      	ldr	r3, [r7, #68]	; 0x44
    804c:	2b39      	cmp	r3, #57	; 0x39
    804e:	dc0a      	bgt.n	8066 <StrFormatPrintf+0xda>
    8050:	6d3a      	ldr	r2, [r7, #80]	; 0x50
    8052:	4613      	mov	r3, r2
    8054:	009b      	lsls	r3, r3, #2
    8056:	4413      	add	r3, r2
    8058:	005b      	lsls	r3, r3, #1
    805a:	461a      	mov	r2, r3
    805c:	6c7b      	ldr	r3, [r7, #68]	; 0x44
    805e:	4413      	add	r3, r2
    8060:	3b30      	subs	r3, #48	; 0x30
    8062:	653b      	str	r3, [r7, #80]	; 0x50
    8064:	e004      	b.n	8070 <StrFormatPrintf+0xe4>
    8066:	6e7b      	ldr	r3, [r7, #100]	; 0x64
    8068:	3b01      	subs	r3, #1
    806a:	667b      	str	r3, [r7, #100]	; 0x64
    806c:	2301      	movs	r3, #1
    806e:	65bb      	str	r3, [r7, #88]	; 0x58
    8070:	6dbb      	ldr	r3, [r7, #88]	; 0x58
    8072:	2b00      	cmp	r3, #0
    8074:	d0e0      	beq.n	8038 <StrFormatPrintf+0xac>
    8076:	e002      	b.n	807e <StrFormatPrintf+0xf2>
    8078:	6e7b      	ldr	r3, [r7, #100]	; 0x64
    807a:	3b01      	subs	r3, #1
    807c:	667b      	str	r3, [r7, #100]	; 0x64
    807e:	6e7b      	ldr	r3, [r7, #100]	; 0x64
    8080:	3301      	adds	r3, #1
    8082:	667b      	str	r3, [r7, #100]	; 0x64
    8084:	6e7b      	ldr	r3, [r7, #100]	; 0x64
    8086:	781b      	ldrb	r3, [r3, #0]
    8088:	647b      	str	r3, [r7, #68]	; 0x44
    808a:	6c7b      	ldr	r3, [r7, #68]	; 0x44
    808c:	2b64      	cmp	r3, #100	; 0x64
    808e:	d01b      	beq.n	80c8 <StrFormatPrintf+0x13c>
    8090:	6c7b      	ldr	r3, [r7, #68]	; 0x44
    8092:	2b69      	cmp	r3, #105	; 0x69
    8094:	d018      	beq.n	80c8 <StrFormatPrintf+0x13c>
    8096:	6c7b      	ldr	r3, [r7, #68]	; 0x44
    8098:	2b66      	cmp	r3, #102	; 0x66
    809a:	d015      	beq.n	80c8 <StrFormatPrintf+0x13c>
    809c:	6c7b      	ldr	r3, [r7, #68]	; 0x44
    809e:	2b46      	cmp	r3, #70	; 0x46
    80a0:	d012      	beq.n	80c8 <StrFormatPrintf+0x13c>
    80a2:	6c7b      	ldr	r3, [r7, #68]	; 0x44
    80a4:	2b78      	cmp	r3, #120	; 0x78
    80a6:	d00f      	beq.n	80c8 <StrFormatPrintf+0x13c>
    80a8:	6c7b      	ldr	r3, [r7, #68]	; 0x44
    80aa:	2b58      	cmp	r3, #88	; 0x58
    80ac:	d00c      	beq.n	80c8 <StrFormatPrintf+0x13c>
    80ae:	6c7b      	ldr	r3, [r7, #68]	; 0x44
    80b0:	2b6f      	cmp	r3, #111	; 0x6f
    80b2:	d009      	beq.n	80c8 <StrFormatPrintf+0x13c>
    80b4:	6c7b      	ldr	r3, [r7, #68]	; 0x44
    80b6:	2b62      	cmp	r3, #98	; 0x62
    80b8:	d006      	beq.n	80c8 <StrFormatPrintf+0x13c>
    80ba:	6c7b      	ldr	r3, [r7, #68]	; 0x44
    80bc:	2b70      	cmp	r3, #112	; 0x70
    80be:	d003      	beq.n	80c8 <StrFormatPrintf+0x13c>
    80c0:	6c7b      	ldr	r3, [r7, #68]	; 0x44
    80c2:	2b75      	cmp	r3, #117	; 0x75
    80c4:	f040 8096 	bne.w	81f4 <StrFormatPrintf+0x268>
    80c8:	6c7b      	ldr	r3, [r7, #68]	; 0x44
    80ca:	2b64      	cmp	r3, #100	; 0x64
    80cc:	d002      	beq.n	80d4 <StrFormatPrintf+0x148>
    80ce:	6c7b      	ldr	r3, [r7, #68]	; 0x44
    80d0:	2b69      	cmp	r3, #105	; 0x69
    80d2:	d115      	bne.n	8100 <StrFormatPrintf+0x174>
    80d4:	68bb      	ldr	r3, [r7, #8]
    80d6:	1d1a      	adds	r2, r3, #4
    80d8:	60ba      	str	r2, [r7, #8]
    80da:	681b      	ldr	r3, [r3, #0]
    80dc:	617b      	str	r3, [r7, #20]
    80de:	f107 0114 	add.w	r1, r7, #20
    80e2:	f107 001c 	add.w	r0, r7, #28
    80e6:	f897 304b 	ldrb.w	r3, [r7, #75]	; 0x4b
    80ea:	9300      	str	r3, [sp, #0]
    80ec:	230a      	movs	r3, #10
    80ee:	2201      	movs	r2, #1
    80f0:	f7ff fec2 	bl	7e78 <ConvertRadixNumToString>
    80f4:	65f8      	str	r0, [r7, #92]	; 0x5c
    80f6:	f107 021c 	add.w	r2, r7, #28
    80fa:	6dfb      	ldr	r3, [r7, #92]	; 0x5c
    80fc:	4413      	add	r3, r2
    80fe:	663b      	str	r3, [r7, #96]	; 0x60
    8100:	6c7b      	ldr	r3, [r7, #68]	; 0x44
    8102:	2b58      	cmp	r3, #88	; 0x58
    8104:	d002      	beq.n	810c <StrFormatPrintf+0x180>
    8106:	6c7b      	ldr	r3, [r7, #68]	; 0x44
    8108:	2b78      	cmp	r3, #120	; 0x78
    810a:	d11b      	bne.n	8144 <StrFormatPrintf+0x1b8>
    810c:	6c7b      	ldr	r3, [r7, #68]	; 0x44
    810e:	2b78      	cmp	r3, #120	; 0x78
    8110:	d102      	bne.n	8118 <StrFormatPrintf+0x18c>
    8112:	2300      	movs	r3, #0
    8114:	f887 304b 	strb.w	r3, [r7, #75]	; 0x4b
    8118:	68bb      	ldr	r3, [r7, #8]
    811a:	1d1a      	adds	r2, r3, #4
    811c:	60ba      	str	r2, [r7, #8]
    811e:	681b      	ldr	r3, [r3, #0]
    8120:	613b      	str	r3, [r7, #16]
    8122:	f107 0110 	add.w	r1, r7, #16
    8126:	f107 001c 	add.w	r0, r7, #28
    812a:	f897 304b 	ldrb.w	r3, [r7, #75]	; 0x4b
    812e:	9300      	str	r3, [sp, #0]
    8130:	2310      	movs	r3, #16
    8132:	2200      	movs	r2, #0
    8134:	f7ff fea0 	bl	7e78 <ConvertRadixNumToString>
    8138:	65f8      	str	r0, [r7, #92]	; 0x5c
    813a:	f107 021c 	add.w	r2, r7, #28
    813e:	6dfb      	ldr	r3, [r7, #92]	; 0x5c
    8140:	4413      	add	r3, r2
    8142:	663b      	str	r3, [r7, #96]	; 0x60
    8144:	6c7b      	ldr	r3, [r7, #68]	; 0x44
    8146:	2b6f      	cmp	r3, #111	; 0x6f
    8148:	d008      	beq.n	815c <StrFormatPrintf+0x1d0>
    814a:	6c7b      	ldr	r3, [r7, #68]	; 0x44
    814c:	2b62      	cmp	r3, #98	; 0x62
    814e:	d005      	beq.n	815c <StrFormatPrintf+0x1d0>
    8150:	6c7b      	ldr	r3, [r7, #68]	; 0x44
    8152:	2b70      	cmp	r3, #112	; 0x70
    8154:	d002      	beq.n	815c <StrFormatPrintf+0x1d0>
    8156:	6c7b      	ldr	r3, [r7, #68]	; 0x44
    8158:	2b75      	cmp	r3, #117	; 0x75
    815a:	d12f      	bne.n	81bc <StrFormatPrintf+0x230>
    815c:	68bb      	ldr	r3, [r7, #8]
    815e:	1d1a      	adds	r2, r3, #4
    8160:	60ba      	str	r2, [r7, #8]
    8162:	681b      	ldr	r3, [r3, #0]
    8164:	613b      	str	r3, [r7, #16]
    8166:	6c7b      	ldr	r3, [r7, #68]	; 0x44
    8168:	2b6f      	cmp	r3, #111	; 0x6f
    816a:	d103      	bne.n	8174 <StrFormatPrintf+0x1e8>
    816c:	2308      	movs	r3, #8
    816e:	f887 304a 	strb.w	r3, [r7, #74]	; 0x4a
    8172:	e010      	b.n	8196 <StrFormatPrintf+0x20a>
    8174:	6c7b      	ldr	r3, [r7, #68]	; 0x44
    8176:	2b62      	cmp	r3, #98	; 0x62
    8178:	d103      	bne.n	8182 <StrFormatPrintf+0x1f6>
    817a:	2302      	movs	r3, #2
    817c:	f887 304a 	strb.w	r3, [r7, #74]	; 0x4a
    8180:	e009      	b.n	8196 <StrFormatPrintf+0x20a>
    8182:	6c7b      	ldr	r3, [r7, #68]	; 0x44
    8184:	2b70      	cmp	r3, #112	; 0x70
    8186:	d103      	bne.n	8190 <StrFormatPrintf+0x204>
    8188:	2310      	movs	r3, #16
    818a:	f887 304a 	strb.w	r3, [r7, #74]	; 0x4a
    818e:	e002      	b.n	8196 <StrFormatPrintf+0x20a>
    8190:	230a      	movs	r3, #10
    8192:	f887 304a 	strb.w	r3, [r7, #74]	; 0x4a
    8196:	f897 204a 	ldrb.w	r2, [r7, #74]	; 0x4a
    819a:	f107 0110 	add.w	r1, r7, #16
    819e:	f107 001c 	add.w	r0, r7, #28
    81a2:	f897 304b 	ldrb.w	r3, [r7, #75]	; 0x4b
    81a6:	9300      	str	r3, [sp, #0]
    81a8:	4613      	mov	r3, r2
    81aa:	2200      	movs	r2, #0
    81ac:	f7ff fe64 	bl	7e78 <ConvertRadixNumToString>
    81b0:	65f8      	str	r0, [r7, #92]	; 0x5c
    81b2:	f107 021c 	add.w	r2, r7, #28
    81b6:	6dfb      	ldr	r3, [r7, #92]	; 0x5c
    81b8:	4413      	add	r3, r2
    81ba:	663b      	str	r3, [r7, #96]	; 0x60
    81bc:	6dfb      	ldr	r3, [r7, #92]	; 0x5c
    81be:	6d7a      	ldr	r2, [r7, #84]	; 0x54
    81c0:	1ad3      	subs	r3, r2, r3
    81c2:	f107 0118 	add.w	r1, r7, #24
    81c6:	683c      	ldr	r4, [r7, #0]
    81c8:	2220      	movs	r2, #32
    81ca:	6878      	ldr	r0, [r7, #4]
    81cc:	47a0      	blx	r4
    81ce:	6e3b      	ldr	r3, [r7, #96]	; 0x60
    81d0:	2b00      	cmp	r3, #0
    81d2:	d052      	beq.n	827a <StrFormatPrintf+0x2ee>
    81d4:	e009      	b.n	81ea <StrFormatPrintf+0x25e>
    81d6:	6e3b      	ldr	r3, [r7, #96]	; 0x60
    81d8:	1e5a      	subs	r2, r3, #1
    81da:	663a      	str	r2, [r7, #96]	; 0x60
    81dc:	781a      	ldrb	r2, [r3, #0]
    81de:	f107 0118 	add.w	r1, r7, #24
    81e2:	683c      	ldr	r4, [r7, #0]
    81e4:	2301      	movs	r3, #1
    81e6:	6878      	ldr	r0, [r7, #4]
    81e8:	47a0      	blx	r4
    81ea:	6e3b      	ldr	r3, [r7, #96]	; 0x60
    81ec:	781b      	ldrb	r3, [r3, #0]
    81ee:	2b00      	cmp	r3, #0
    81f0:	d1f1      	bne.n	81d6 <StrFormatPrintf+0x24a>
    81f2:	e042      	b.n	827a <StrFormatPrintf+0x2ee>
    81f4:	6c7b      	ldr	r3, [r7, #68]	; 0x44
    81f6:	2b63      	cmp	r3, #99	; 0x63
    81f8:	d10e      	bne.n	8218 <StrFormatPrintf+0x28c>
    81fa:	68bb      	ldr	r3, [r7, #8]
    81fc:	1d1a      	adds	r2, r3, #4
    81fe:	60ba      	str	r2, [r7, #8]
    8200:	681b      	ldr	r3, [r3, #0]
    8202:	b2db      	uxtb	r3, r3
    8204:	643b      	str	r3, [r7, #64]	; 0x40
    8206:	6c3b      	ldr	r3, [r7, #64]	; 0x40
    8208:	b2da      	uxtb	r2, r3
    820a:	f107 0118 	add.w	r1, r7, #24
    820e:	683c      	ldr	r4, [r7, #0]
    8210:	2301      	movs	r3, #1
    8212:	6878      	ldr	r0, [r7, #4]
    8214:	47a0      	blx	r4
    8216:	e030      	b.n	827a <StrFormatPrintf+0x2ee>
    8218:	6c7b      	ldr	r3, [r7, #68]	; 0x44
    821a:	2b73      	cmp	r3, #115	; 0x73
    821c:	d125      	bne.n	826a <StrFormatPrintf+0x2de>
    821e:	68bb      	ldr	r3, [r7, #8]
    8220:	1d1a      	adds	r2, r3, #4
    8222:	60ba      	str	r2, [r7, #8]
    8224:	681b      	ldr	r3, [r3, #0]
    8226:	64fb      	str	r3, [r7, #76]	; 0x4c
    8228:	6cfb      	ldr	r3, [r7, #76]	; 0x4c
    822a:	2b00      	cmp	r3, #0
    822c:	d025      	beq.n	827a <StrFormatPrintf+0x2ee>
    822e:	6cf8      	ldr	r0, [r7, #76]	; 0x4c
    8230:	f002 f86d 	bl	a30e <strlen>
    8234:	4603      	mov	r3, r0
    8236:	65fb      	str	r3, [r7, #92]	; 0x5c
    8238:	6dfb      	ldr	r3, [r7, #92]	; 0x5c
    823a:	6d7a      	ldr	r2, [r7, #84]	; 0x54
    823c:	1ad3      	subs	r3, r2, r3
    823e:	f107 0118 	add.w	r1, r7, #24
    8242:	683c      	ldr	r4, [r7, #0]
    8244:	2220      	movs	r2, #32
    8246:	6878      	ldr	r0, [r7, #4]
    8248:	47a0      	blx	r4
    824a:	e009      	b.n	8260 <StrFormatPrintf+0x2d4>
    824c:	6cfb      	ldr	r3, [r7, #76]	; 0x4c
    824e:	1c5a      	adds	r2, r3, #1
    8250:	64fa      	str	r2, [r7, #76]	; 0x4c
    8252:	781a      	ldrb	r2, [r3, #0]
    8254:	f107 0118 	add.w	r1, r7, #24
    8258:	683c      	ldr	r4, [r7, #0]
    825a:	2301      	movs	r3, #1
    825c:	6878      	ldr	r0, [r7, #4]
    825e:	47a0      	blx	r4
    8260:	6cfb      	ldr	r3, [r7, #76]	; 0x4c
    8262:	781b      	ldrb	r3, [r3, #0]
    8264:	2b00      	cmp	r3, #0
    8266:	d1f1      	bne.n	824c <StrFormatPrintf+0x2c0>
    8268:	e007      	b.n	827a <StrFormatPrintf+0x2ee>
    826a:	6c7b      	ldr	r3, [r7, #68]	; 0x44
    826c:	b2da      	uxtb	r2, r3
    826e:	f107 0118 	add.w	r1, r7, #24
    8272:	683c      	ldr	r4, [r7, #0]
    8274:	2301      	movs	r3, #1
    8276:	6878      	ldr	r0, [r7, #4]
    8278:	47a0      	blx	r4
    827a:	6e7b      	ldr	r3, [r7, #100]	; 0x64
    827c:	3301      	adds	r3, #1
    827e:	667b      	str	r3, [r7, #100]	; 0x64
    8280:	6e7b      	ldr	r3, [r7, #100]	; 0x64
    8282:	781b      	ldrb	r3, [r3, #0]
    8284:	647b      	str	r3, [r7, #68]	; 0x44
    8286:	6c7b      	ldr	r3, [r7, #68]	; 0x44
    8288:	2b00      	cmp	r3, #0
    828a:	f47f ae94 	bne.w	7fb6 <StrFormatPrintf+0x2a>
    828e:	69bb      	ldr	r3, [r7, #24]
    8290:	4618      	mov	r0, r3
    8292:	376c      	adds	r7, #108	; 0x6c
    8294:	46bd      	mov	sp, r7
    8296:	bd90      	pop	{r4, r7, pc}

00008298 <DMA0_DMA16_IRQHandler>:
    8298:	b508      	push	{r3, lr}
    829a:	f7fb fb53 	bl	3944 <DMA0_DMA16_DriverIRQHandler>
    829e:	bd08      	pop	{r3, pc}

000082a0 <DMA1_DMA17_IRQHandler>:
    82a0:	b508      	push	{r3, lr}
    82a2:	f7fb fb73 	bl	398c <DMA1_DMA17_DriverIRQHandler>
    82a6:	bd08      	pop	{r3, pc}

000082a8 <DMA2_DMA18_IRQHandler>:
    82a8:	b508      	push	{r3, lr}
    82aa:	f7fb fb93 	bl	39d4 <DMA2_DMA18_DriverIRQHandler>
    82ae:	bd08      	pop	{r3, pc}

000082b0 <DMA3_DMA19_IRQHandler>:
    82b0:	b508      	push	{r3, lr}
    82b2:	f7fb fbb3 	bl	3a1c <DMA3_DMA19_DriverIRQHandler>
    82b6:	bd08      	pop	{r3, pc}

000082b8 <DMA4_DMA20_IRQHandler>:
    82b8:	b508      	push	{r3, lr}
    82ba:	f7fb fbd3 	bl	3a64 <DMA4_DMA20_DriverIRQHandler>
    82be:	bd08      	pop	{r3, pc}

000082c0 <DMA5_DMA21_IRQHandler>:
    82c0:	b508      	push	{r3, lr}
    82c2:	f7fb fbf3 	bl	3aac <DMA5_DMA21_DriverIRQHandler>
    82c6:	bd08      	pop	{r3, pc}

000082c8 <DMA6_DMA22_IRQHandler>:
    82c8:	b508      	push	{r3, lr}
    82ca:	f7fb fc13 	bl	3af4 <DMA6_DMA22_DriverIRQHandler>
    82ce:	bd08      	pop	{r3, pc}

000082d0 <DMA7_DMA23_IRQHandler>:
    82d0:	b508      	push	{r3, lr}
    82d2:	f7fb fc33 	bl	3b3c <DMA7_DMA23_DriverIRQHandler>
    82d6:	bd08      	pop	{r3, pc}

000082d8 <DMA8_DMA24_IRQHandler>:
    82d8:	b508      	push	{r3, lr}
    82da:	f7fb fc53 	bl	3b84 <DMA8_DMA24_DriverIRQHandler>
    82de:	bd08      	pop	{r3, pc}

000082e0 <DMA9_DMA25_IRQHandler>:
    82e0:	b508      	push	{r3, lr}
    82e2:	f7fb fc73 	bl	3bcc <DMA9_DMA25_DriverIRQHandler>
    82e6:	bd08      	pop	{r3, pc}

000082e8 <DMA10_DMA26_IRQHandler>:
    82e8:	b508      	push	{r3, lr}
    82ea:	f7fb fc93 	bl	3c14 <DMA10_DMA26_DriverIRQHandler>
    82ee:	bd08      	pop	{r3, pc}

000082f0 <DMA11_DMA27_IRQHandler>:
    82f0:	b508      	push	{r3, lr}
    82f2:	f7fb fcb3 	bl	3c5c <DMA11_DMA27_DriverIRQHandler>
    82f6:	bd08      	pop	{r3, pc}

000082f8 <DMA12_DMA28_IRQHandler>:
    82f8:	b508      	push	{r3, lr}
    82fa:	f7fb fcd3 	bl	3ca4 <DMA12_DMA28_DriverIRQHandler>
    82fe:	bd08      	pop	{r3, pc}

00008300 <DMA13_DMA29_IRQHandler>:
    8300:	b508      	push	{r3, lr}
    8302:	f7fb fcf3 	bl	3cec <DMA13_DMA29_DriverIRQHandler>
    8306:	bd08      	pop	{r3, pc}

00008308 <DMA14_DMA30_IRQHandler>:
    8308:	b508      	push	{r3, lr}
    830a:	f7fb fd13 	bl	3d34 <DMA14_DMA30_DriverIRQHandler>
    830e:	bd08      	pop	{r3, pc}

00008310 <DMA15_DMA31_IRQHandler>:
    8310:	b508      	push	{r3, lr}
    8312:	f7fb fd33 	bl	3d7c <DMA15_DMA31_DriverIRQHandler>
    8316:	bd08      	pop	{r3, pc}

00008318 <DMA_ERROR_IRQHandler>:
    8318:	b508      	push	{r3, lr}
    831a:	f7f8 f82e 	bl	37a <ACMP1_DriverIRQHandler>
    831e:	bd08      	pop	{r3, pc}

00008320 <CTI0_ERROR_IRQHandler>:
    8320:	b508      	push	{r3, lr}
    8322:	f7f8 f82a 	bl	37a <ACMP1_DriverIRQHandler>
    8326:	bd08      	pop	{r3, pc}

00008328 <CTI1_ERROR_IRQHandler>:
    8328:	b508      	push	{r3, lr}
    832a:	f7f8 f826 	bl	37a <ACMP1_DriverIRQHandler>
    832e:	bd08      	pop	{r3, pc}

00008330 <CORE_IRQHandler>:
    8330:	b508      	push	{r3, lr}
    8332:	f7f8 f822 	bl	37a <ACMP1_DriverIRQHandler>
    8336:	bd08      	pop	{r3, pc}

00008338 <LPUART1_IRQHandler>:
    8338:	b508      	push	{r3, lr}
    833a:	f7fd ff13 	bl	6164 <LPUART1_DriverIRQHandler>
    833e:	bd08      	pop	{r3, pc}

00008340 <LPUART2_IRQHandler>:
    8340:	b508      	push	{r3, lr}
    8342:	f7fd ff21 	bl	6188 <LPUART2_DriverIRQHandler>
    8346:	bd08      	pop	{r3, pc}

00008348 <LPUART3_IRQHandler>:
    8348:	b508      	push	{r3, lr}
    834a:	f7fd ff2f 	bl	61ac <LPUART3_DriverIRQHandler>
    834e:	bd08      	pop	{r3, pc}

00008350 <LPUART4_IRQHandler>:
    8350:	b508      	push	{r3, lr}
    8352:	f7fd ff3d 	bl	61d0 <LPUART4_DriverIRQHandler>
    8356:	bd08      	pop	{r3, pc}

00008358 <LPUART5_IRQHandler>:
    8358:	b508      	push	{r3, lr}
    835a:	f7fd ff4b 	bl	61f4 <LPUART5_DriverIRQHandler>
    835e:	bd08      	pop	{r3, pc}

00008360 <LPUART6_IRQHandler>:
    8360:	b508      	push	{r3, lr}
    8362:	f7fd ff59 	bl	6218 <LPUART6_DriverIRQHandler>
    8366:	bd08      	pop	{r3, pc}

00008368 <LPUART7_IRQHandler>:
    8368:	b508      	push	{r3, lr}
    836a:	f7fd ff67 	bl	623c <LPUART7_DriverIRQHandler>
    836e:	bd08      	pop	{r3, pc}

00008370 <LPUART8_IRQHandler>:
    8370:	b508      	push	{r3, lr}
    8372:	f7fd ff75 	bl	6260 <LPUART8_DriverIRQHandler>
    8376:	bd08      	pop	{r3, pc}

00008378 <LPI2C1_IRQHandler>:
    8378:	b508      	push	{r3, lr}
    837a:	f7f7 fffe 	bl	37a <ACMP1_DriverIRQHandler>
    837e:	bd08      	pop	{r3, pc}

00008380 <LPI2C2_IRQHandler>:
    8380:	b508      	push	{r3, lr}
    8382:	f7f7 fffa 	bl	37a <ACMP1_DriverIRQHandler>
    8386:	bd08      	pop	{r3, pc}

00008388 <LPI2C3_IRQHandler>:
    8388:	b508      	push	{r3, lr}
    838a:	f7f7 fff6 	bl	37a <ACMP1_DriverIRQHandler>
    838e:	bd08      	pop	{r3, pc}

00008390 <LPI2C4_IRQHandler>:
    8390:	b508      	push	{r3, lr}
    8392:	f7f7 fff2 	bl	37a <ACMP1_DriverIRQHandler>
    8396:	bd08      	pop	{r3, pc}

00008398 <LPSPI1_IRQHandler>:
    8398:	b508      	push	{r3, lr}
    839a:	f7fd f9e7 	bl	576c <LPSPI1_DriverIRQHandler>
    839e:	bd08      	pop	{r3, pc}

000083a0 <LPSPI2_IRQHandler>:
    83a0:	b508      	push	{r3, lr}
    83a2:	f7fd f9fb 	bl	579c <LPSPI2_DriverIRQHandler>
    83a6:	bd08      	pop	{r3, pc}

000083a8 <LPSPI3_IRQHandler>:
    83a8:	b508      	push	{r3, lr}
    83aa:	f7fd fa0f 	bl	57cc <LPSPI3_DriverIRQHandler>
    83ae:	bd08      	pop	{r3, pc}

000083b0 <LPSPI4_IRQHandler>:
    83b0:	b508      	push	{r3, lr}
    83b2:	f7fd fa23 	bl	57fc <LPSPI4_DriverIRQHandler>
    83b6:	bd08      	pop	{r3, pc}

000083b8 <CAN1_IRQHandler>:
    83b8:	b508      	push	{r3, lr}
    83ba:	f7f7 ffde 	bl	37a <ACMP1_DriverIRQHandler>
    83be:	bd08      	pop	{r3, pc}

000083c0 <CAN2_IRQHandler>:
    83c0:	b508      	push	{r3, lr}
    83c2:	f7f7 ffda 	bl	37a <ACMP1_DriverIRQHandler>
    83c6:	bd08      	pop	{r3, pc}

000083c8 <FLEXRAM_IRQHandler>:
    83c8:	b508      	push	{r3, lr}
    83ca:	f7f7 ffd6 	bl	37a <ACMP1_DriverIRQHandler>
    83ce:	bd08      	pop	{r3, pc}

000083d0 <KPP_IRQHandler>:
    83d0:	b508      	push	{r3, lr}
    83d2:	f7f7 ffd2 	bl	37a <ACMP1_DriverIRQHandler>
    83d6:	bd08      	pop	{r3, pc}

000083d8 <TSC_DIG_IRQHandler>:
    83d8:	b508      	push	{r3, lr}
    83da:	f7f7 ffce 	bl	37a <ACMP1_DriverIRQHandler>
    83de:	bd08      	pop	{r3, pc}

000083e0 <GPR_IRQ_IRQHandler>:
    83e0:	b508      	push	{r3, lr}
    83e2:	f7f7 ffca 	bl	37a <ACMP1_DriverIRQHandler>
    83e6:	bd08      	pop	{r3, pc}

000083e8 <LCDIF_IRQHandler>:
    83e8:	b508      	push	{r3, lr}
    83ea:	f7f7 ffc6 	bl	37a <ACMP1_DriverIRQHandler>
    83ee:	bd08      	pop	{r3, pc}

000083f0 <CSI_IRQHandler>:
    83f0:	b508      	push	{r3, lr}
    83f2:	f7f7 ffc2 	bl	37a <ACMP1_DriverIRQHandler>
    83f6:	bd08      	pop	{r3, pc}

000083f8 <PXP_IRQHandler>:
    83f8:	b508      	push	{r3, lr}
    83fa:	f7f7 ffbe 	bl	37a <ACMP1_DriverIRQHandler>
    83fe:	bd08      	pop	{r3, pc}

00008400 <WDOG2_IRQHandler>:
    8400:	b508      	push	{r3, lr}
    8402:	f7f7 ffba 	bl	37a <ACMP1_DriverIRQHandler>
    8406:	bd08      	pop	{r3, pc}

00008408 <SNVS_HP_WRAPPER_IRQHandler>:
    8408:	b508      	push	{r3, lr}
    840a:	f7f7 ffb6 	bl	37a <ACMP1_DriverIRQHandler>
    840e:	bd08      	pop	{r3, pc}

00008410 <SNVS_HP_WRAPPER_TZ_IRQHandler>:
    8410:	b508      	push	{r3, lr}
    8412:	f7f7 ffb2 	bl	37a <ACMP1_DriverIRQHandler>
    8416:	bd08      	pop	{r3, pc}

00008418 <SNVS_LP_WRAPPER_IRQHandler>:
    8418:	b508      	push	{r3, lr}
    841a:	f7f7 ffae 	bl	37a <ACMP1_DriverIRQHandler>
    841e:	bd08      	pop	{r3, pc}

00008420 <CSU_IRQHandler>:
    8420:	b508      	push	{r3, lr}
    8422:	f7f7 ffaa 	bl	37a <ACMP1_DriverIRQHandler>
    8426:	bd08      	pop	{r3, pc}

00008428 <DCP_IRQHandler>:
    8428:	b508      	push	{r3, lr}
    842a:	f7f7 ffa6 	bl	37a <ACMP1_DriverIRQHandler>
    842e:	bd08      	pop	{r3, pc}

00008430 <DCP_VMI_IRQHandler>:
    8430:	b508      	push	{r3, lr}
    8432:	f7f7 ffa2 	bl	37a <ACMP1_DriverIRQHandler>
    8436:	bd08      	pop	{r3, pc}

00008438 <Reserved68_IRQHandler>:
    8438:	b508      	push	{r3, lr}
    843a:	f7f7 ff9e 	bl	37a <ACMP1_DriverIRQHandler>
    843e:	bd08      	pop	{r3, pc}

00008440 <TRNG_IRQHandler>:
    8440:	b508      	push	{r3, lr}
    8442:	f7f7 ff9a 	bl	37a <ACMP1_DriverIRQHandler>
    8446:	bd08      	pop	{r3, pc}

00008448 <SJC_IRQHandler>:
    8448:	b508      	push	{r3, lr}
    844a:	f7f7 ff96 	bl	37a <ACMP1_DriverIRQHandler>
    844e:	bd08      	pop	{r3, pc}

00008450 <BEE_IRQHandler>:
    8450:	b508      	push	{r3, lr}
    8452:	f7f7 ff92 	bl	37a <ACMP1_DriverIRQHandler>
    8456:	bd08      	pop	{r3, pc}

00008458 <SAI1_IRQHandler>:
    8458:	b508      	push	{r3, lr}
    845a:	f7f7 ff8e 	bl	37a <ACMP1_DriverIRQHandler>
    845e:	bd08      	pop	{r3, pc}

00008460 <SAI2_IRQHandler>:
    8460:	b508      	push	{r3, lr}
    8462:	f7f7 ff8a 	bl	37a <ACMP1_DriverIRQHandler>
    8466:	bd08      	pop	{r3, pc}

00008468 <SAI3_RX_IRQHandler>:
    8468:	b508      	push	{r3, lr}
    846a:	f7f7 ff86 	bl	37a <ACMP1_DriverIRQHandler>
    846e:	bd08      	pop	{r3, pc}

00008470 <SAI3_TX_IRQHandler>:
    8470:	b508      	push	{r3, lr}
    8472:	f7f7 ff82 	bl	37a <ACMP1_DriverIRQHandler>
    8476:	bd08      	pop	{r3, pc}

00008478 <SPDIF_IRQHandler>:
    8478:	b508      	push	{r3, lr}
    847a:	f7f7 ff7e 	bl	37a <ACMP1_DriverIRQHandler>
    847e:	bd08      	pop	{r3, pc}

00008480 <PMU_EVENT_IRQHandler>:
    8480:	b508      	push	{r3, lr}
    8482:	f7f7 ff7a 	bl	37a <ACMP1_DriverIRQHandler>
    8486:	bd08      	pop	{r3, pc}

00008488 <Reserved78_IRQHandler>:
    8488:	b508      	push	{r3, lr}
    848a:	f7f7 ff76 	bl	37a <ACMP1_DriverIRQHandler>
    848e:	bd08      	pop	{r3, pc}

00008490 <TEMP_LOW_HIGH_IRQHandler>:
    8490:	b508      	push	{r3, lr}
    8492:	f7f7 ff72 	bl	37a <ACMP1_DriverIRQHandler>
    8496:	bd08      	pop	{r3, pc}

00008498 <TEMP_PANIC_IRQHandler>:
    8498:	b508      	push	{r3, lr}
    849a:	f7f7 ff6e 	bl	37a <ACMP1_DriverIRQHandler>
    849e:	bd08      	pop	{r3, pc}

000084a0 <USB_PHY1_IRQHandler>:
    84a0:	b508      	push	{r3, lr}
    84a2:	f7f7 ff6a 	bl	37a <ACMP1_DriverIRQHandler>
    84a6:	bd08      	pop	{r3, pc}

000084a8 <USB_PHY2_IRQHandler>:
    84a8:	b508      	push	{r3, lr}
    84aa:	f7f7 ff66 	bl	37a <ACMP1_DriverIRQHandler>
    84ae:	bd08      	pop	{r3, pc}

000084b0 <ADC1_IRQHandler>:
    84b0:	b508      	push	{r3, lr}
    84b2:	f7f7 ff62 	bl	37a <ACMP1_DriverIRQHandler>
    84b6:	bd08      	pop	{r3, pc}

000084b8 <ADC2_IRQHandler>:
    84b8:	b508      	push	{r3, lr}
    84ba:	f7f7 ff5e 	bl	37a <ACMP1_DriverIRQHandler>
    84be:	bd08      	pop	{r3, pc}

000084c0 <DCDC_IRQHandler>:
    84c0:	b508      	push	{r3, lr}
    84c2:	f7f7 ff5a 	bl	37a <ACMP1_DriverIRQHandler>
    84c6:	bd08      	pop	{r3, pc}

000084c8 <Reserved86_IRQHandler>:
    84c8:	b508      	push	{r3, lr}
    84ca:	f7f7 ff56 	bl	37a <ACMP1_DriverIRQHandler>
    84ce:	bd08      	pop	{r3, pc}

000084d0 <Reserved87_IRQHandler>:
    84d0:	b508      	push	{r3, lr}
    84d2:	f7f7 ff52 	bl	37a <ACMP1_DriverIRQHandler>
    84d6:	bd08      	pop	{r3, pc}

000084d8 <GPIO1_INT0_IRQHandler>:
    84d8:	b508      	push	{r3, lr}
    84da:	f7f7 ff4e 	bl	37a <ACMP1_DriverIRQHandler>
    84de:	bd08      	pop	{r3, pc}

000084e0 <GPIO1_INT1_IRQHandler>:
    84e0:	b508      	push	{r3, lr}
    84e2:	f7f7 ff4a 	bl	37a <ACMP1_DriverIRQHandler>
    84e6:	bd08      	pop	{r3, pc}

000084e8 <GPIO1_INT2_IRQHandler>:
    84e8:	b508      	push	{r3, lr}
    84ea:	f7f7 ff46 	bl	37a <ACMP1_DriverIRQHandler>
    84ee:	bd08      	pop	{r3, pc}

000084f0 <GPIO1_INT3_IRQHandler>:
    84f0:	b508      	push	{r3, lr}
    84f2:	f7f7 ff42 	bl	37a <ACMP1_DriverIRQHandler>
    84f6:	bd08      	pop	{r3, pc}

000084f8 <GPIO1_INT4_IRQHandler>:
    84f8:	b508      	push	{r3, lr}
    84fa:	f7f7 ff3e 	bl	37a <ACMP1_DriverIRQHandler>
    84fe:	bd08      	pop	{r3, pc}

00008500 <GPIO1_INT5_IRQHandler>:
    8500:	b508      	push	{r3, lr}
    8502:	f7f7 ff3a 	bl	37a <ACMP1_DriverIRQHandler>
    8506:	bd08      	pop	{r3, pc}

00008508 <GPIO1_INT6_IRQHandler>:
    8508:	b508      	push	{r3, lr}
    850a:	f7f7 ff36 	bl	37a <ACMP1_DriverIRQHandler>
    850e:	bd08      	pop	{r3, pc}

00008510 <GPIO1_INT7_IRQHandler>:
    8510:	b508      	push	{r3, lr}
    8512:	f7f7 ff32 	bl	37a <ACMP1_DriverIRQHandler>
    8516:	bd08      	pop	{r3, pc}

00008518 <GPIO1_Combined_0_15_IRQHandler>:
    8518:	b508      	push	{r3, lr}
    851a:	f7f7 ff2e 	bl	37a <ACMP1_DriverIRQHandler>
    851e:	bd08      	pop	{r3, pc}

00008520 <GPIO1_Combined_16_31_IRQHandler>:
    8520:	b508      	push	{r3, lr}
    8522:	f7f7 ff2a 	bl	37a <ACMP1_DriverIRQHandler>
    8526:	bd08      	pop	{r3, pc}

00008528 <GPIO2_Combined_0_15_IRQHandler>:
    8528:	b508      	push	{r3, lr}
    852a:	f7f7 ff26 	bl	37a <ACMP1_DriverIRQHandler>
    852e:	bd08      	pop	{r3, pc}

00008530 <GPIO2_Combined_16_31_IRQHandler>:
    8530:	b508      	push	{r3, lr}
    8532:	f7f7 ff22 	bl	37a <ACMP1_DriverIRQHandler>
    8536:	bd08      	pop	{r3, pc}

00008538 <GPIO3_Combined_0_15_IRQHandler>:
    8538:	b508      	push	{r3, lr}
    853a:	f7f7 ff1e 	bl	37a <ACMP1_DriverIRQHandler>
    853e:	bd08      	pop	{r3, pc}

00008540 <GPIO3_Combined_16_31_IRQHandler>:
    8540:	b508      	push	{r3, lr}
    8542:	f7f7 ff1a 	bl	37a <ACMP1_DriverIRQHandler>
    8546:	bd08      	pop	{r3, pc}

00008548 <GPIO4_Combined_0_15_IRQHandler>:
    8548:	b508      	push	{r3, lr}
    854a:	f7f7 ff16 	bl	37a <ACMP1_DriverIRQHandler>
    854e:	bd08      	pop	{r3, pc}

00008550 <GPIO4_Combined_16_31_IRQHandler>:
    8550:	b508      	push	{r3, lr}
    8552:	f7f7 ff12 	bl	37a <ACMP1_DriverIRQHandler>
    8556:	bd08      	pop	{r3, pc}

00008558 <GPIO5_Combined_0_15_IRQHandler>:
    8558:	b508      	push	{r3, lr}
    855a:	f7f7 ff0e 	bl	37a <ACMP1_DriverIRQHandler>
    855e:	bd08      	pop	{r3, pc}

00008560 <GPIO5_Combined_16_31_IRQHandler>:
    8560:	b508      	push	{r3, lr}
    8562:	f7f7 ff0a 	bl	37a <ACMP1_DriverIRQHandler>
    8566:	bd08      	pop	{r3, pc}

00008568 <FLEXIO1_IRQHandler>:
    8568:	b508      	push	{r3, lr}
    856a:	f7f7 ff06 	bl	37a <ACMP1_DriverIRQHandler>
    856e:	bd08      	pop	{r3, pc}

00008570 <FLEXIO2_IRQHandler>:
    8570:	b508      	push	{r3, lr}
    8572:	f7f7 ff02 	bl	37a <ACMP1_DriverIRQHandler>
    8576:	bd08      	pop	{r3, pc}

00008578 <WDOG1_IRQHandler>:
    8578:	b508      	push	{r3, lr}
    857a:	f7f7 fefe 	bl	37a <ACMP1_DriverIRQHandler>
    857e:	bd08      	pop	{r3, pc}

00008580 <RTWDOG_IRQHandler>:
    8580:	b508      	push	{r3, lr}
    8582:	f7f7 fefa 	bl	37a <ACMP1_DriverIRQHandler>
    8586:	bd08      	pop	{r3, pc}

00008588 <EWM_IRQHandler>:
    8588:	b508      	push	{r3, lr}
    858a:	f7f7 fef6 	bl	37a <ACMP1_DriverIRQHandler>
    858e:	bd08      	pop	{r3, pc}

00008590 <CCM_1_IRQHandler>:
    8590:	b508      	push	{r3, lr}
    8592:	f7f7 fef2 	bl	37a <ACMP1_DriverIRQHandler>
    8596:	bd08      	pop	{r3, pc}

00008598 <CCM_2_IRQHandler>:
    8598:	b508      	push	{r3, lr}
    859a:	f7f7 feee 	bl	37a <ACMP1_DriverIRQHandler>
    859e:	bd08      	pop	{r3, pc}

000085a0 <GPC_IRQHandler>:
    85a0:	b508      	push	{r3, lr}
    85a2:	f7f7 feea 	bl	37a <ACMP1_DriverIRQHandler>
    85a6:	bd08      	pop	{r3, pc}

000085a8 <SRC_IRQHandler>:
    85a8:	b508      	push	{r3, lr}
    85aa:	f7f7 fee6 	bl	37a <ACMP1_DriverIRQHandler>
    85ae:	bd08      	pop	{r3, pc}

000085b0 <Reserved115_IRQHandler>:
    85b0:	b508      	push	{r3, lr}
    85b2:	f7f7 fee2 	bl	37a <ACMP1_DriverIRQHandler>
    85b6:	bd08      	pop	{r3, pc}

000085b8 <GPT1_IRQHandler>:
    85b8:	b508      	push	{r3, lr}
    85ba:	f7f7 fede 	bl	37a <ACMP1_DriverIRQHandler>
    85be:	bd08      	pop	{r3, pc}

000085c0 <GPT2_IRQHandler>:
    85c0:	b508      	push	{r3, lr}
    85c2:	f7f7 feda 	bl	37a <ACMP1_DriverIRQHandler>
    85c6:	bd08      	pop	{r3, pc}

000085c8 <PWM1_0_IRQHandler>:
    85c8:	b508      	push	{r3, lr}
    85ca:	f7f7 fed6 	bl	37a <ACMP1_DriverIRQHandler>
    85ce:	bd08      	pop	{r3, pc}

000085d0 <PWM1_1_IRQHandler>:
    85d0:	b508      	push	{r3, lr}
    85d2:	f7f7 fed2 	bl	37a <ACMP1_DriverIRQHandler>
    85d6:	bd08      	pop	{r3, pc}

000085d8 <PWM1_2_IRQHandler>:
    85d8:	b508      	push	{r3, lr}
    85da:	f7f7 fece 	bl	37a <ACMP1_DriverIRQHandler>
    85de:	bd08      	pop	{r3, pc}

000085e0 <PWM1_3_IRQHandler>:
    85e0:	b508      	push	{r3, lr}
    85e2:	f7f7 feca 	bl	37a <ACMP1_DriverIRQHandler>
    85e6:	bd08      	pop	{r3, pc}

000085e8 <PWM1_FAULT_IRQHandler>:
    85e8:	b508      	push	{r3, lr}
    85ea:	f7f7 fec6 	bl	37a <ACMP1_DriverIRQHandler>
    85ee:	bd08      	pop	{r3, pc}

000085f0 <FLEXSPI2_IRQHandler>:
    85f0:	b508      	push	{r3, lr}
    85f2:	f7f7 fec2 	bl	37a <ACMP1_DriverIRQHandler>
    85f6:	bd08      	pop	{r3, pc}

000085f8 <FLEXSPI_IRQHandler>:
    85f8:	b508      	push	{r3, lr}
    85fa:	f7f7 febe 	bl	37a <ACMP1_DriverIRQHandler>
    85fe:	bd08      	pop	{r3, pc}

00008600 <SEMC_IRQHandler>:
    8600:	b508      	push	{r3, lr}
    8602:	f7f7 feba 	bl	37a <ACMP1_DriverIRQHandler>
    8606:	bd08      	pop	{r3, pc}

00008608 <USDHC1_IRQHandler>:
    8608:	b508      	push	{r3, lr}
    860a:	f7f7 feb6 	bl	37a <ACMP1_DriverIRQHandler>
    860e:	bd08      	pop	{r3, pc}

00008610 <USDHC2_IRQHandler>:
    8610:	b508      	push	{r3, lr}
    8612:	f7f7 feb2 	bl	37a <ACMP1_DriverIRQHandler>
    8616:	bd08      	pop	{r3, pc}

00008618 <USB_OTG2_IRQHandler>:
    8618:	b508      	push	{r3, lr}
    861a:	f7f7 feae 	bl	37a <ACMP1_DriverIRQHandler>
    861e:	bd08      	pop	{r3, pc}

00008620 <USB_OTG1_IRQHandler>:
    8620:	b508      	push	{r3, lr}
    8622:	f7f7 feaa 	bl	37a <ACMP1_DriverIRQHandler>
    8626:	bd08      	pop	{r3, pc}

00008628 <ENET_IRQHandler>:
    8628:	b508      	push	{r3, lr}
    862a:	f7f7 fea6 	bl	37a <ACMP1_DriverIRQHandler>
    862e:	bd08      	pop	{r3, pc}

00008630 <ENET_1588_Timer_IRQHandler>:
    8630:	b508      	push	{r3, lr}
    8632:	f7f7 fea2 	bl	37a <ACMP1_DriverIRQHandler>
    8636:	bd08      	pop	{r3, pc}

00008638 <XBAR1_IRQ_0_1_IRQHandler>:
    8638:	b508      	push	{r3, lr}
    863a:	f7f7 fe9e 	bl	37a <ACMP1_DriverIRQHandler>
    863e:	bd08      	pop	{r3, pc}

00008640 <XBAR1_IRQ_2_3_IRQHandler>:
    8640:	b508      	push	{r3, lr}
    8642:	f7f7 fe9a 	bl	37a <ACMP1_DriverIRQHandler>
    8646:	bd08      	pop	{r3, pc}

00008648 <ADC_ETC_IRQ0_IRQHandler>:
    8648:	b508      	push	{r3, lr}
    864a:	f7f7 fe96 	bl	37a <ACMP1_DriverIRQHandler>
    864e:	bd08      	pop	{r3, pc}

00008650 <ADC_ETC_IRQ1_IRQHandler>:
    8650:	b508      	push	{r3, lr}
    8652:	f7f7 fe92 	bl	37a <ACMP1_DriverIRQHandler>
    8656:	bd08      	pop	{r3, pc}

00008658 <ADC_ETC_IRQ2_IRQHandler>:
    8658:	b508      	push	{r3, lr}
    865a:	f7f7 fe8e 	bl	37a <ACMP1_DriverIRQHandler>
    865e:	bd08      	pop	{r3, pc}

00008660 <ADC_ETC_ERROR_IRQ_IRQHandler>:
    8660:	b508      	push	{r3, lr}
    8662:	f7f7 fe8a 	bl	37a <ACMP1_DriverIRQHandler>
    8666:	bd08      	pop	{r3, pc}

00008668 <PIT_IRQHandler>:
    8668:	b508      	push	{r3, lr}
    866a:	f7f7 fe86 	bl	37a <ACMP1_DriverIRQHandler>
    866e:	bd08      	pop	{r3, pc}

00008670 <ACMP1_IRQHandler>:
    8670:	b508      	push	{r3, lr}
    8672:	f7f7 fe82 	bl	37a <ACMP1_DriverIRQHandler>
    8676:	bd08      	pop	{r3, pc}

00008678 <ACMP2_IRQHandler>:
    8678:	b508      	push	{r3, lr}
    867a:	f7f7 fe7e 	bl	37a <ACMP1_DriverIRQHandler>
    867e:	bd08      	pop	{r3, pc}

00008680 <ACMP3_IRQHandler>:
    8680:	b508      	push	{r3, lr}
    8682:	f7f7 fe7a 	bl	37a <ACMP1_DriverIRQHandler>
    8686:	bd08      	pop	{r3, pc}

00008688 <ACMP4_IRQHandler>:
    8688:	b508      	push	{r3, lr}
    868a:	f7f7 fe76 	bl	37a <ACMP1_DriverIRQHandler>
    868e:	bd08      	pop	{r3, pc}

00008690 <Reserved143_IRQHandler>:
    8690:	b508      	push	{r3, lr}
    8692:	f7f7 fe72 	bl	37a <ACMP1_DriverIRQHandler>
    8696:	bd08      	pop	{r3, pc}

00008698 <Reserved144_IRQHandler>:
    8698:	b508      	push	{r3, lr}
    869a:	f7f7 fe6e 	bl	37a <ACMP1_DriverIRQHandler>
    869e:	bd08      	pop	{r3, pc}

000086a0 <ENC1_IRQHandler>:
    86a0:	b508      	push	{r3, lr}
    86a2:	f7f7 fe6a 	bl	37a <ACMP1_DriverIRQHandler>
    86a6:	bd08      	pop	{r3, pc}

000086a8 <ENC2_IRQHandler>:
    86a8:	b508      	push	{r3, lr}
    86aa:	f7f7 fe66 	bl	37a <ACMP1_DriverIRQHandler>
    86ae:	bd08      	pop	{r3, pc}

000086b0 <ENC3_IRQHandler>:
    86b0:	b508      	push	{r3, lr}
    86b2:	f7f7 fe62 	bl	37a <ACMP1_DriverIRQHandler>
    86b6:	bd08      	pop	{r3, pc}

000086b8 <ENC4_IRQHandler>:
    86b8:	b508      	push	{r3, lr}
    86ba:	f7f7 fe5e 	bl	37a <ACMP1_DriverIRQHandler>
    86be:	bd08      	pop	{r3, pc}

000086c0 <TMR1_IRQHandler>:
    86c0:	b508      	push	{r3, lr}
    86c2:	f7f7 fe5a 	bl	37a <ACMP1_DriverIRQHandler>
    86c6:	bd08      	pop	{r3, pc}

000086c8 <TMR2_IRQHandler>:
    86c8:	b508      	push	{r3, lr}
    86ca:	f7f7 fe56 	bl	37a <ACMP1_DriverIRQHandler>
    86ce:	bd08      	pop	{r3, pc}

000086d0 <TMR4_IRQHandler>:
    86d0:	b508      	push	{r3, lr}
    86d2:	f7f7 fe52 	bl	37a <ACMP1_DriverIRQHandler>
    86d6:	bd08      	pop	{r3, pc}

000086d8 <PWM2_0_IRQHandler>:
    86d8:	b508      	push	{r3, lr}
    86da:	f7f7 fe4e 	bl	37a <ACMP1_DriverIRQHandler>
    86de:	bd08      	pop	{r3, pc}

000086e0 <PWM2_1_IRQHandler>:
    86e0:	b508      	push	{r3, lr}
    86e2:	f7f7 fe4a 	bl	37a <ACMP1_DriverIRQHandler>
    86e6:	bd08      	pop	{r3, pc}

000086e8 <PWM2_2_IRQHandler>:
    86e8:	b508      	push	{r3, lr}
    86ea:	f7f7 fe46 	bl	37a <ACMP1_DriverIRQHandler>
    86ee:	bd08      	pop	{r3, pc}

000086f0 <PWM2_3_IRQHandler>:
    86f0:	b508      	push	{r3, lr}
    86f2:	f7f7 fe42 	bl	37a <ACMP1_DriverIRQHandler>
    86f6:	bd08      	pop	{r3, pc}

000086f8 <PWM2_FAULT_IRQHandler>:
    86f8:	b508      	push	{r3, lr}
    86fa:	f7f7 fe3e 	bl	37a <ACMP1_DriverIRQHandler>
    86fe:	bd08      	pop	{r3, pc}

00008700 <PWM3_0_IRQHandler>:
    8700:	b508      	push	{r3, lr}
    8702:	f7f7 fe3a 	bl	37a <ACMP1_DriverIRQHandler>
    8706:	bd08      	pop	{r3, pc}

00008708 <PWM3_1_IRQHandler>:
    8708:	b508      	push	{r3, lr}
    870a:	f7f7 fe36 	bl	37a <ACMP1_DriverIRQHandler>
    870e:	bd08      	pop	{r3, pc}

00008710 <PWM3_2_IRQHandler>:
    8710:	b508      	push	{r3, lr}
    8712:	f7f7 fe32 	bl	37a <ACMP1_DriverIRQHandler>
    8716:	bd08      	pop	{r3, pc}

00008718 <PWM3_3_IRQHandler>:
    8718:	b508      	push	{r3, lr}
    871a:	f7f7 fe2e 	bl	37a <ACMP1_DriverIRQHandler>
    871e:	bd08      	pop	{r3, pc}

00008720 <PWM3_FAULT_IRQHandler>:
    8720:	b508      	push	{r3, lr}
    8722:	f7f7 fe2a 	bl	37a <ACMP1_DriverIRQHandler>
    8726:	bd08      	pop	{r3, pc}

00008728 <PWM4_0_IRQHandler>:
    8728:	b508      	push	{r3, lr}
    872a:	f7f7 fe26 	bl	37a <ACMP1_DriverIRQHandler>
    872e:	bd08      	pop	{r3, pc}

00008730 <PWM4_1_IRQHandler>:
    8730:	b508      	push	{r3, lr}
    8732:	f7f7 fe22 	bl	37a <ACMP1_DriverIRQHandler>
    8736:	bd08      	pop	{r3, pc}

00008738 <PWM4_2_IRQHandler>:
    8738:	b508      	push	{r3, lr}
    873a:	f7f7 fe1e 	bl	37a <ACMP1_DriverIRQHandler>
    873e:	bd08      	pop	{r3, pc}

00008740 <PWM4_3_IRQHandler>:
    8740:	b508      	push	{r3, lr}
    8742:	f7f7 fe1a 	bl	37a <ACMP1_DriverIRQHandler>
    8746:	bd08      	pop	{r3, pc}

00008748 <PWM4_FAULT_IRQHandler>:
    8748:	b508      	push	{r3, lr}
    874a:	f7f7 fe16 	bl	37a <ACMP1_DriverIRQHandler>
    874e:	bd08      	pop	{r3, pc}

00008750 <ENET2_IRQHandler>:
    8750:	b508      	push	{r3, lr}
    8752:	f7f7 fe12 	bl	37a <ACMP1_DriverIRQHandler>
    8756:	bd08      	pop	{r3, pc}

00008758 <ENET2_1588_Timer_IRQHandler>:
    8758:	b508      	push	{r3, lr}
    875a:	f7f7 fe0e 	bl	37a <ACMP1_DriverIRQHandler>
    875e:	bd08      	pop	{r3, pc}

00008760 <CAN3_IRQHandler>:
    8760:	b508      	push	{r3, lr}
    8762:	f7f7 fe0a 	bl	37a <ACMP1_DriverIRQHandler>
    8766:	bd08      	pop	{r3, pc}

00008768 <Reserved171_IRQHandler>:
    8768:	b508      	push	{r3, lr}
    876a:	f7f7 fe06 	bl	37a <ACMP1_DriverIRQHandler>
    876e:	bd08      	pop	{r3, pc}

00008770 <FLEXIO3_IRQHandler>:
    8770:	b508      	push	{r3, lr}
    8772:	f7f7 fe02 	bl	37a <ACMP1_DriverIRQHandler>
    8776:	bd08      	pop	{r3, pc}

00008778 <GPIO6_7_8_9_IRQHandler>:
    8778:	b508      	push	{r3, lr}
    877a:	f7f7 fdfe 	bl	37a <ACMP1_DriverIRQHandler>
    877e:	bd08      	pop	{r3, pc}

00008780 <NibbleToHex>:
    8780:	b480      	push	{r7}
    8782:	b083      	sub	sp, #12
    8784:	af00      	add	r7, sp, #0
    8786:	4603      	mov	r3, r0
    8788:	71fb      	strb	r3, [r7, #7]
    878a:	79fb      	ldrb	r3, [r7, #7]
    878c:	f003 030f 	and.w	r3, r3, #15
    8790:	71fb      	strb	r3, [r7, #7]
    8792:	79fb      	ldrb	r3, [r7, #7]
    8794:	2b09      	cmp	r3, #9
    8796:	d803      	bhi.n	87a0 <NibbleToHex+0x20>
    8798:	79fb      	ldrb	r3, [r7, #7]
    879a:	3330      	adds	r3, #48	; 0x30
    879c:	b2db      	uxtb	r3, r3
    879e:	e002      	b.n	87a6 <NibbleToHex+0x26>
    87a0:	79fb      	ldrb	r3, [r7, #7]
    87a2:	3337      	adds	r3, #55	; 0x37
    87a4:	b2db      	uxtb	r3, r3
    87a6:	4618      	mov	r0, r3
    87a8:	370c      	adds	r7, #12
    87aa:	46bd      	mov	sp, r7
    87ac:	f85d 7b04 	ldr.w	r7, [sp], #4
    87b0:	4770      	bx	lr

000087b2 <getSn_TX_FSR>:
    87b2:	b590      	push	{r4, r7, lr}
    87b4:	b085      	sub	sp, #20
    87b6:	af00      	add	r7, sp, #0
    87b8:	4603      	mov	r3, r0
    87ba:	71fb      	strb	r3, [r7, #7]
    87bc:	2300      	movs	r3, #0
    87be:	81fb      	strh	r3, [r7, #14]
    87c0:	2300      	movs	r3, #0
    87c2:	81bb      	strh	r3, [r7, #12]
    87c4:	79fb      	ldrb	r3, [r7, #7]
    87c6:	3304      	adds	r3, #4
    87c8:	021b      	lsls	r3, r3, #8
    87ca:	3320      	adds	r3, #32
    87cc:	4618      	mov	r0, r3
    87ce:	f7f9 fa79 	bl	1cc4 <WIZCHIP_READ>
    87d2:	4603      	mov	r3, r0
    87d4:	81bb      	strh	r3, [r7, #12]
    87d6:	89bb      	ldrh	r3, [r7, #12]
    87d8:	021b      	lsls	r3, r3, #8
    87da:	b29c      	uxth	r4, r3
    87dc:	79fb      	ldrb	r3, [r7, #7]
    87de:	3304      	adds	r3, #4
    87e0:	021b      	lsls	r3, r3, #8
    87e2:	3321      	adds	r3, #33	; 0x21
    87e4:	4618      	mov	r0, r3
    87e6:	f7f9 fa6d 	bl	1cc4 <WIZCHIP_READ>
    87ea:	4603      	mov	r3, r0
    87ec:	b29b      	uxth	r3, r3
    87ee:	4423      	add	r3, r4
    87f0:	81bb      	strh	r3, [r7, #12]
    87f2:	89bb      	ldrh	r3, [r7, #12]
    87f4:	2b00      	cmp	r3, #0
    87f6:	d016      	beq.n	8826 <getSn_TX_FSR+0x74>
    87f8:	79fb      	ldrb	r3, [r7, #7]
    87fa:	3304      	adds	r3, #4
    87fc:	021b      	lsls	r3, r3, #8
    87fe:	3320      	adds	r3, #32
    8800:	4618      	mov	r0, r3
    8802:	f7f9 fa5f 	bl	1cc4 <WIZCHIP_READ>
    8806:	4603      	mov	r3, r0
    8808:	81fb      	strh	r3, [r7, #14]
    880a:	89fb      	ldrh	r3, [r7, #14]
    880c:	021b      	lsls	r3, r3, #8
    880e:	b29c      	uxth	r4, r3
    8810:	79fb      	ldrb	r3, [r7, #7]
    8812:	3304      	adds	r3, #4
    8814:	021b      	lsls	r3, r3, #8
    8816:	3321      	adds	r3, #33	; 0x21
    8818:	4618      	mov	r0, r3
    881a:	f7f9 fa53 	bl	1cc4 <WIZCHIP_READ>
    881e:	4603      	mov	r3, r0
    8820:	b29b      	uxth	r3, r3
    8822:	4423      	add	r3, r4
    8824:	81fb      	strh	r3, [r7, #14]
    8826:	89fa      	ldrh	r2, [r7, #14]
    8828:	89bb      	ldrh	r3, [r7, #12]
    882a:	429a      	cmp	r2, r3
    882c:	d1ca      	bne.n	87c4 <getSn_TX_FSR+0x12>
    882e:	89fb      	ldrh	r3, [r7, #14]
    8830:	4618      	mov	r0, r3
    8832:	3714      	adds	r7, #20
    8834:	46bd      	mov	sp, r7
    8836:	bd90      	pop	{r4, r7, pc}

00008838 <getSn_RX_RSR>:
    8838:	b590      	push	{r4, r7, lr}
    883a:	b085      	sub	sp, #20
    883c:	af00      	add	r7, sp, #0
    883e:	4603      	mov	r3, r0
    8840:	71fb      	strb	r3, [r7, #7]
    8842:	2300      	movs	r3, #0
    8844:	81fb      	strh	r3, [r7, #14]
    8846:	2300      	movs	r3, #0
    8848:	81bb      	strh	r3, [r7, #12]
    884a:	79fb      	ldrb	r3, [r7, #7]
    884c:	3304      	adds	r3, #4
    884e:	021b      	lsls	r3, r3, #8
    8850:	3326      	adds	r3, #38	; 0x26
    8852:	4618      	mov	r0, r3
    8854:	f7f9 fa36 	bl	1cc4 <WIZCHIP_READ>
    8858:	4603      	mov	r3, r0
    885a:	81bb      	strh	r3, [r7, #12]
    885c:	89bb      	ldrh	r3, [r7, #12]
    885e:	021b      	lsls	r3, r3, #8
    8860:	b29c      	uxth	r4, r3
    8862:	79fb      	ldrb	r3, [r7, #7]
    8864:	3304      	adds	r3, #4
    8866:	021b      	lsls	r3, r3, #8
    8868:	3327      	adds	r3, #39	; 0x27
    886a:	4618      	mov	r0, r3
    886c:	f7f9 fa2a 	bl	1cc4 <WIZCHIP_READ>
    8870:	4603      	mov	r3, r0
    8872:	b29b      	uxth	r3, r3
    8874:	4423      	add	r3, r4
    8876:	81bb      	strh	r3, [r7, #12]
    8878:	89bb      	ldrh	r3, [r7, #12]
    887a:	2b00      	cmp	r3, #0
    887c:	d016      	beq.n	88ac <getSn_RX_RSR+0x74>
    887e:	79fb      	ldrb	r3, [r7, #7]
    8880:	3304      	adds	r3, #4
    8882:	021b      	lsls	r3, r3, #8
    8884:	3326      	adds	r3, #38	; 0x26
    8886:	4618      	mov	r0, r3
    8888:	f7f9 fa1c 	bl	1cc4 <WIZCHIP_READ>
    888c:	4603      	mov	r3, r0
    888e:	81fb      	strh	r3, [r7, #14]
    8890:	89fb      	ldrh	r3, [r7, #14]
    8892:	021b      	lsls	r3, r3, #8
    8894:	b29c      	uxth	r4, r3
    8896:	79fb      	ldrb	r3, [r7, #7]
    8898:	3304      	adds	r3, #4
    889a:	021b      	lsls	r3, r3, #8
    889c:	3327      	adds	r3, #39	; 0x27
    889e:	4618      	mov	r0, r3
    88a0:	f7f9 fa10 	bl	1cc4 <WIZCHIP_READ>
    88a4:	4603      	mov	r3, r0
    88a6:	b29b      	uxth	r3, r3
    88a8:	4423      	add	r3, r4
    88aa:	81fb      	strh	r3, [r7, #14]
    88ac:	89fa      	ldrh	r2, [r7, #14]
    88ae:	89bb      	ldrh	r3, [r7, #12]
    88b0:	429a      	cmp	r2, r3
    88b2:	d1ca      	bne.n	884a <getSn_RX_RSR+0x12>
    88b4:	89fb      	ldrh	r3, [r7, #14]
    88b6:	4618      	mov	r0, r3
    88b8:	3714      	adds	r7, #20
    88ba:	46bd      	mov	sp, r7
    88bc:	bd90      	pop	{r4, r7, pc}

000088be <getSn_RxBASE>:
    88be:	b580      	push	{r7, lr}
    88c0:	b084      	sub	sp, #16
    88c2:	af00      	add	r7, sp, #0
    88c4:	4603      	mov	r3, r0
    88c6:	71fb      	strb	r3, [r7, #7]
    88c8:	f44f 43c0 	mov.w	r3, #24576	; 0x6000
    88cc:	60bb      	str	r3, [r7, #8]
    88ce:	2300      	movs	r3, #0
    88d0:	73fb      	strb	r3, [r7, #15]
    88d2:	e020      	b.n	8916 <getSn_RxBASE+0x58>
    88d4:	201a      	movs	r0, #26
    88d6:	f7f9 f9f5 	bl	1cc4 <WIZCHIP_READ>
    88da:	4603      	mov	r3, r0
    88dc:	4619      	mov	r1, r3
    88de:	f997 300f 	ldrsb.w	r3, [r7, #15]
    88e2:	005b      	lsls	r3, r3, #1
    88e4:	2203      	movs	r2, #3
    88e6:	fa02 f303 	lsl.w	r3, r2, r3
    88ea:	ea01 0203 	and.w	r2, r1, r3
    88ee:	f997 300f 	ldrsb.w	r3, [r7, #15]
    88f2:	005b      	lsls	r3, r3, #1
    88f4:	fa42 f303 	asr.w	r3, r2, r3
    88f8:	2201      	movs	r2, #1
    88fa:	fa02 f303 	lsl.w	r3, r2, r3
    88fe:	b29b      	uxth	r3, r3
    8900:	029b      	lsls	r3, r3, #10
    8902:	461a      	mov	r2, r3
    8904:	68bb      	ldr	r3, [r7, #8]
    8906:	4413      	add	r3, r2
    8908:	60bb      	str	r3, [r7, #8]
    890a:	f997 300f 	ldrsb.w	r3, [r7, #15]
    890e:	b2db      	uxtb	r3, r3
    8910:	3301      	adds	r3, #1
    8912:	b2db      	uxtb	r3, r3
    8914:	73fb      	strb	r3, [r7, #15]
    8916:	f997 200f 	ldrsb.w	r2, [r7, #15]
    891a:	79fb      	ldrb	r3, [r7, #7]
    891c:	429a      	cmp	r2, r3
    891e:	dbd9      	blt.n	88d4 <getSn_RxBASE+0x16>
    8920:	68bb      	ldr	r3, [r7, #8]
    8922:	4618      	mov	r0, r3
    8924:	3710      	adds	r7, #16
    8926:	46bd      	mov	sp, r7
    8928:	bd80      	pop	{r7, pc}

0000892a <getSn_TxBASE>:
    892a:	b580      	push	{r7, lr}
    892c:	b084      	sub	sp, #16
    892e:	af00      	add	r7, sp, #0
    8930:	4603      	mov	r3, r0
    8932:	71fb      	strb	r3, [r7, #7]
    8934:	f44f 4380 	mov.w	r3, #16384	; 0x4000
    8938:	60bb      	str	r3, [r7, #8]
    893a:	2300      	movs	r3, #0
    893c:	73fb      	strb	r3, [r7, #15]
    893e:	e020      	b.n	8982 <getSn_TxBASE+0x58>
    8940:	201b      	movs	r0, #27
    8942:	f7f9 f9bf 	bl	1cc4 <WIZCHIP_READ>
    8946:	4603      	mov	r3, r0
    8948:	4619      	mov	r1, r3
    894a:	f997 300f 	ldrsb.w	r3, [r7, #15]
    894e:	005b      	lsls	r3, r3, #1
    8950:	2203      	movs	r2, #3
    8952:	fa02 f303 	lsl.w	r3, r2, r3
    8956:	ea01 0203 	and.w	r2, r1, r3
    895a:	f997 300f 	ldrsb.w	r3, [r7, #15]
    895e:	005b      	lsls	r3, r3, #1
    8960:	fa42 f303 	asr.w	r3, r2, r3
    8964:	2201      	movs	r2, #1
    8966:	fa02 f303 	lsl.w	r3, r2, r3
    896a:	b29b      	uxth	r3, r3
    896c:	029b      	lsls	r3, r3, #10
    896e:	461a      	mov	r2, r3
    8970:	68bb      	ldr	r3, [r7, #8]
    8972:	4413      	add	r3, r2
    8974:	60bb      	str	r3, [r7, #8]
    8976:	f997 300f 	ldrsb.w	r3, [r7, #15]
    897a:	b2db      	uxtb	r3, r3
    897c:	3301      	adds	r3, #1
    897e:	b2db      	uxtb	r3, r3
    8980:	73fb      	strb	r3, [r7, #15]
    8982:	f997 200f 	ldrsb.w	r2, [r7, #15]
    8986:	79fb      	ldrb	r3, [r7, #7]
    8988:	429a      	cmp	r2, r3
    898a:	dbd9      	blt.n	8940 <getSn_TxBASE+0x16>
    898c:	68bb      	ldr	r3, [r7, #8]
    898e:	4618      	mov	r0, r3
    8990:	3710      	adds	r7, #16
    8992:	46bd      	mov	sp, r7
    8994:	bd80      	pop	{r7, pc}

00008996 <wiz_send_data>:
    8996:	b590      	push	{r4, r7, lr}
    8998:	b085      	sub	sp, #20
    899a:	af00      	add	r7, sp, #0
    899c:	4603      	mov	r3, r0
    899e:	6039      	str	r1, [r7, #0]
    89a0:	71fb      	strb	r3, [r7, #7]
    89a2:	4613      	mov	r3, r2
    89a4:	80bb      	strh	r3, [r7, #4]
    89a6:	79fb      	ldrb	r3, [r7, #7]
    89a8:	3304      	adds	r3, #4
    89aa:	021b      	lsls	r3, r3, #8
    89ac:	3324      	adds	r3, #36	; 0x24
    89ae:	4618      	mov	r0, r3
    89b0:	f7f9 f988 	bl	1cc4 <WIZCHIP_READ>
    89b4:	4603      	mov	r3, r0
    89b6:	b29b      	uxth	r3, r3
    89b8:	021b      	lsls	r3, r3, #8
    89ba:	b29c      	uxth	r4, r3
    89bc:	79fb      	ldrb	r3, [r7, #7]
    89be:	3304      	adds	r3, #4
    89c0:	021b      	lsls	r3, r3, #8
    89c2:	3325      	adds	r3, #37	; 0x25
    89c4:	4618      	mov	r0, r3
    89c6:	f7f9 f97d 	bl	1cc4 <WIZCHIP_READ>
    89ca:	4603      	mov	r3, r0
    89cc:	b29b      	uxth	r3, r3
    89ce:	4423      	add	r3, r4
    89d0:	81fb      	strh	r3, [r7, #14]
    89d2:	201b      	movs	r0, #27
    89d4:	f7f9 f976 	bl	1cc4 <WIZCHIP_READ>
    89d8:	4603      	mov	r3, r0
    89da:	4619      	mov	r1, r3
    89dc:	79fb      	ldrb	r3, [r7, #7]
    89de:	005b      	lsls	r3, r3, #1
    89e0:	2203      	movs	r2, #3
    89e2:	fa02 f303 	lsl.w	r3, r2, r3
    89e6:	ea01 0203 	and.w	r2, r1, r3
    89ea:	79fb      	ldrb	r3, [r7, #7]
    89ec:	005b      	lsls	r3, r3, #1
    89ee:	fa42 f303 	asr.w	r3, r2, r3
    89f2:	2201      	movs	r2, #1
    89f4:	fa02 f303 	lsl.w	r3, r2, r3
    89f8:	b29b      	uxth	r3, r3
    89fa:	029b      	lsls	r3, r3, #10
    89fc:	b29b      	uxth	r3, r3
    89fe:	3b01      	subs	r3, #1
    8a00:	b29b      	uxth	r3, r3
    8a02:	b21a      	sxth	r2, r3
    8a04:	f9b7 300e 	ldrsh.w	r3, [r7, #14]
    8a08:	4013      	ands	r3, r2
    8a0a:	b21b      	sxth	r3, r3
    8a0c:	81bb      	strh	r3, [r7, #12]
    8a0e:	79fb      	ldrb	r3, [r7, #7]
    8a10:	4618      	mov	r0, r3
    8a12:	f7ff ff8a 	bl	892a <getSn_TxBASE>
    8a16:	4603      	mov	r3, r0
    8a18:	b29a      	uxth	r2, r3
    8a1a:	89bb      	ldrh	r3, [r7, #12]
    8a1c:	4413      	add	r3, r2
    8a1e:	817b      	strh	r3, [r7, #10]
    8a20:	89ba      	ldrh	r2, [r7, #12]
    8a22:	88bb      	ldrh	r3, [r7, #4]
    8a24:	18d4      	adds	r4, r2, r3
    8a26:	201b      	movs	r0, #27
    8a28:	f7f9 f94c 	bl	1cc4 <WIZCHIP_READ>
    8a2c:	4603      	mov	r3, r0
    8a2e:	4619      	mov	r1, r3
    8a30:	79fb      	ldrb	r3, [r7, #7]
    8a32:	005b      	lsls	r3, r3, #1
    8a34:	2203      	movs	r2, #3
    8a36:	fa02 f303 	lsl.w	r3, r2, r3
    8a3a:	ea01 0203 	and.w	r2, r1, r3
    8a3e:	79fb      	ldrb	r3, [r7, #7]
    8a40:	005b      	lsls	r3, r3, #1
    8a42:	fa42 f303 	asr.w	r3, r2, r3
    8a46:	2201      	movs	r2, #1
    8a48:	fa02 f303 	lsl.w	r3, r2, r3
    8a4c:	b29b      	uxth	r3, r3
    8a4e:	029b      	lsls	r3, r3, #10
    8a50:	429c      	cmp	r4, r3
    8a52:	dd33      	ble.n	8abc <wiz_send_data+0x126>
    8a54:	201b      	movs	r0, #27
    8a56:	f7f9 f935 	bl	1cc4 <WIZCHIP_READ>
    8a5a:	4603      	mov	r3, r0
    8a5c:	4619      	mov	r1, r3
    8a5e:	79fb      	ldrb	r3, [r7, #7]
    8a60:	005b      	lsls	r3, r3, #1
    8a62:	2203      	movs	r2, #3
    8a64:	fa02 f303 	lsl.w	r3, r2, r3
    8a68:	ea01 0203 	and.w	r2, r1, r3
    8a6c:	79fb      	ldrb	r3, [r7, #7]
    8a6e:	005b      	lsls	r3, r3, #1
    8a70:	fa42 f303 	asr.w	r3, r2, r3
    8a74:	2201      	movs	r2, #1
    8a76:	fa02 f303 	lsl.w	r3, r2, r3
    8a7a:	b29b      	uxth	r3, r3
    8a7c:	029b      	lsls	r3, r3, #10
    8a7e:	b29a      	uxth	r2, r3
    8a80:	89bb      	ldrh	r3, [r7, #12]
    8a82:	1ad3      	subs	r3, r2, r3
    8a84:	813b      	strh	r3, [r7, #8]
    8a86:	897b      	ldrh	r3, [r7, #10]
    8a88:	893a      	ldrh	r2, [r7, #8]
    8a8a:	6839      	ldr	r1, [r7, #0]
    8a8c:	4618      	mov	r0, r3
    8a8e:	f7f9 f947 	bl	1d20 <WIZCHIP_WRITE_BUF>
    8a92:	893b      	ldrh	r3, [r7, #8]
    8a94:	683a      	ldr	r2, [r7, #0]
    8a96:	4413      	add	r3, r2
    8a98:	603b      	str	r3, [r7, #0]
    8a9a:	88ba      	ldrh	r2, [r7, #4]
    8a9c:	893b      	ldrh	r3, [r7, #8]
    8a9e:	1ad3      	subs	r3, r2, r3
    8aa0:	813b      	strh	r3, [r7, #8]
    8aa2:	79fb      	ldrb	r3, [r7, #7]
    8aa4:	4618      	mov	r0, r3
    8aa6:	f7ff ff40 	bl	892a <getSn_TxBASE>
    8aaa:	4603      	mov	r3, r0
    8aac:	817b      	strh	r3, [r7, #10]
    8aae:	897b      	ldrh	r3, [r7, #10]
    8ab0:	893a      	ldrh	r2, [r7, #8]
    8ab2:	6839      	ldr	r1, [r7, #0]
    8ab4:	4618      	mov	r0, r3
    8ab6:	f7f9 f933 	bl	1d20 <WIZCHIP_WRITE_BUF>
    8aba:	e005      	b.n	8ac8 <wiz_send_data+0x132>
    8abc:	897b      	ldrh	r3, [r7, #10]
    8abe:	88ba      	ldrh	r2, [r7, #4]
    8ac0:	6839      	ldr	r1, [r7, #0]
    8ac2:	4618      	mov	r0, r3
    8ac4:	f7f9 f92c 	bl	1d20 <WIZCHIP_WRITE_BUF>
    8ac8:	89fa      	ldrh	r2, [r7, #14]
    8aca:	88bb      	ldrh	r3, [r7, #4]
    8acc:	4413      	add	r3, r2
    8ace:	81fb      	strh	r3, [r7, #14]
    8ad0:	79fb      	ldrb	r3, [r7, #7]
    8ad2:	3304      	adds	r3, #4
    8ad4:	021b      	lsls	r3, r3, #8
    8ad6:	3324      	adds	r3, #36	; 0x24
    8ad8:	461a      	mov	r2, r3
    8ada:	89fb      	ldrh	r3, [r7, #14]
    8adc:	0a1b      	lsrs	r3, r3, #8
    8ade:	b29b      	uxth	r3, r3
    8ae0:	b2db      	uxtb	r3, r3
    8ae2:	4619      	mov	r1, r3
    8ae4:	4610      	mov	r0, r2
    8ae6:	f7f9 f8bf 	bl	1c68 <WIZCHIP_WRITE>
    8aea:	79fb      	ldrb	r3, [r7, #7]
    8aec:	3304      	adds	r3, #4
    8aee:	021b      	lsls	r3, r3, #8
    8af0:	3325      	adds	r3, #37	; 0x25
    8af2:	461a      	mov	r2, r3
    8af4:	89fb      	ldrh	r3, [r7, #14]
    8af6:	b2db      	uxtb	r3, r3
    8af8:	4619      	mov	r1, r3
    8afa:	4610      	mov	r0, r2
    8afc:	f7f9 f8b4 	bl	1c68 <WIZCHIP_WRITE>
    8b00:	bf00      	nop
    8b02:	3714      	adds	r7, #20
    8b04:	46bd      	mov	sp, r7
    8b06:	bd90      	pop	{r4, r7, pc}

00008b08 <wiz_recv_data>:
    8b08:	b590      	push	{r4, r7, lr}
    8b0a:	b085      	sub	sp, #20
    8b0c:	af00      	add	r7, sp, #0
    8b0e:	4603      	mov	r3, r0
    8b10:	6039      	str	r1, [r7, #0]
    8b12:	71fb      	strb	r3, [r7, #7]
    8b14:	4613      	mov	r3, r2
    8b16:	80bb      	strh	r3, [r7, #4]
    8b18:	79fb      	ldrb	r3, [r7, #7]
    8b1a:	3304      	adds	r3, #4
    8b1c:	021b      	lsls	r3, r3, #8
    8b1e:	3328      	adds	r3, #40	; 0x28
    8b20:	4618      	mov	r0, r3
    8b22:	f7f9 f8cf 	bl	1cc4 <WIZCHIP_READ>
    8b26:	4603      	mov	r3, r0
    8b28:	b29b      	uxth	r3, r3
    8b2a:	021b      	lsls	r3, r3, #8
    8b2c:	b29c      	uxth	r4, r3
    8b2e:	79fb      	ldrb	r3, [r7, #7]
    8b30:	3304      	adds	r3, #4
    8b32:	021b      	lsls	r3, r3, #8
    8b34:	3329      	adds	r3, #41	; 0x29
    8b36:	4618      	mov	r0, r3
    8b38:	f7f9 f8c4 	bl	1cc4 <WIZCHIP_READ>
    8b3c:	4603      	mov	r3, r0
    8b3e:	b29b      	uxth	r3, r3
    8b40:	4423      	add	r3, r4
    8b42:	81fb      	strh	r3, [r7, #14]
    8b44:	201a      	movs	r0, #26
    8b46:	f7f9 f8bd 	bl	1cc4 <WIZCHIP_READ>
    8b4a:	4603      	mov	r3, r0
    8b4c:	4619      	mov	r1, r3
    8b4e:	79fb      	ldrb	r3, [r7, #7]
    8b50:	005b      	lsls	r3, r3, #1
    8b52:	2203      	movs	r2, #3
    8b54:	fa02 f303 	lsl.w	r3, r2, r3
    8b58:	ea01 0203 	and.w	r2, r1, r3
    8b5c:	79fb      	ldrb	r3, [r7, #7]
    8b5e:	005b      	lsls	r3, r3, #1
    8b60:	fa42 f303 	asr.w	r3, r2, r3
    8b64:	2201      	movs	r2, #1
    8b66:	fa02 f303 	lsl.w	r3, r2, r3
    8b6a:	b29b      	uxth	r3, r3
    8b6c:	029b      	lsls	r3, r3, #10
    8b6e:	b29b      	uxth	r3, r3
    8b70:	3b01      	subs	r3, #1
    8b72:	b29a      	uxth	r2, r3
    8b74:	89fb      	ldrh	r3, [r7, #14]
    8b76:	4013      	ands	r3, r2
    8b78:	81bb      	strh	r3, [r7, #12]
    8b7a:	79fb      	ldrb	r3, [r7, #7]
    8b7c:	4618      	mov	r0, r3
    8b7e:	f7ff fe9e 	bl	88be <getSn_RxBASE>
    8b82:	4603      	mov	r3, r0
    8b84:	b29a      	uxth	r2, r3
    8b86:	89bb      	ldrh	r3, [r7, #12]
    8b88:	4413      	add	r3, r2
    8b8a:	817b      	strh	r3, [r7, #10]
    8b8c:	89ba      	ldrh	r2, [r7, #12]
    8b8e:	88bb      	ldrh	r3, [r7, #4]
    8b90:	18d4      	adds	r4, r2, r3
    8b92:	201a      	movs	r0, #26
    8b94:	f7f9 f896 	bl	1cc4 <WIZCHIP_READ>
    8b98:	4603      	mov	r3, r0
    8b9a:	4619      	mov	r1, r3
    8b9c:	79fb      	ldrb	r3, [r7, #7]
    8b9e:	005b      	lsls	r3, r3, #1
    8ba0:	2203      	movs	r2, #3
    8ba2:	fa02 f303 	lsl.w	r3, r2, r3
    8ba6:	ea01 0203 	and.w	r2, r1, r3
    8baa:	79fb      	ldrb	r3, [r7, #7]
    8bac:	005b      	lsls	r3, r3, #1
    8bae:	fa42 f303 	asr.w	r3, r2, r3
    8bb2:	2201      	movs	r2, #1
    8bb4:	fa02 f303 	lsl.w	r3, r2, r3
    8bb8:	b29b      	uxth	r3, r3
    8bba:	029b      	lsls	r3, r3, #10
    8bbc:	429c      	cmp	r4, r3
    8bbe:	dd33      	ble.n	8c28 <wiz_recv_data+0x120>
    8bc0:	201a      	movs	r0, #26
    8bc2:	f7f9 f87f 	bl	1cc4 <WIZCHIP_READ>
    8bc6:	4603      	mov	r3, r0
    8bc8:	4619      	mov	r1, r3
    8bca:	79fb      	ldrb	r3, [r7, #7]
    8bcc:	005b      	lsls	r3, r3, #1
    8bce:	2203      	movs	r2, #3
    8bd0:	fa02 f303 	lsl.w	r3, r2, r3
    8bd4:	ea01 0203 	and.w	r2, r1, r3
    8bd8:	79fb      	ldrb	r3, [r7, #7]
    8bda:	005b      	lsls	r3, r3, #1
    8bdc:	fa42 f303 	asr.w	r3, r2, r3
    8be0:	2201      	movs	r2, #1
    8be2:	fa02 f303 	lsl.w	r3, r2, r3
    8be6:	b29b      	uxth	r3, r3
    8be8:	029b      	lsls	r3, r3, #10
    8bea:	b29a      	uxth	r2, r3
    8bec:	89bb      	ldrh	r3, [r7, #12]
    8bee:	1ad3      	subs	r3, r2, r3
    8bf0:	813b      	strh	r3, [r7, #8]
    8bf2:	897b      	ldrh	r3, [r7, #10]
    8bf4:	893a      	ldrh	r2, [r7, #8]
    8bf6:	6839      	ldr	r1, [r7, #0]
    8bf8:	4618      	mov	r0, r3
    8bfa:	f7f9 f8df 	bl	1dbc <WIZCHIP_READ_BUF>
    8bfe:	893b      	ldrh	r3, [r7, #8]
    8c00:	683a      	ldr	r2, [r7, #0]
    8c02:	4413      	add	r3, r2
    8c04:	603b      	str	r3, [r7, #0]
    8c06:	88ba      	ldrh	r2, [r7, #4]
    8c08:	893b      	ldrh	r3, [r7, #8]
    8c0a:	1ad3      	subs	r3, r2, r3
    8c0c:	813b      	strh	r3, [r7, #8]
    8c0e:	79fb      	ldrb	r3, [r7, #7]
    8c10:	4618      	mov	r0, r3
    8c12:	f7ff fe54 	bl	88be <getSn_RxBASE>
    8c16:	4603      	mov	r3, r0
    8c18:	817b      	strh	r3, [r7, #10]
    8c1a:	897b      	ldrh	r3, [r7, #10]
    8c1c:	893a      	ldrh	r2, [r7, #8]
    8c1e:	6839      	ldr	r1, [r7, #0]
    8c20:	4618      	mov	r0, r3
    8c22:	f7f9 f8cb 	bl	1dbc <WIZCHIP_READ_BUF>
    8c26:	e005      	b.n	8c34 <wiz_recv_data+0x12c>
    8c28:	897b      	ldrh	r3, [r7, #10]
    8c2a:	88ba      	ldrh	r2, [r7, #4]
    8c2c:	6839      	ldr	r1, [r7, #0]
    8c2e:	4618      	mov	r0, r3
    8c30:	f7f9 f8c4 	bl	1dbc <WIZCHIP_READ_BUF>
    8c34:	89fa      	ldrh	r2, [r7, #14]
    8c36:	88bb      	ldrh	r3, [r7, #4]
    8c38:	4413      	add	r3, r2
    8c3a:	81fb      	strh	r3, [r7, #14]
    8c3c:	79fb      	ldrb	r3, [r7, #7]
    8c3e:	3304      	adds	r3, #4
    8c40:	021b      	lsls	r3, r3, #8
    8c42:	3328      	adds	r3, #40	; 0x28
    8c44:	461a      	mov	r2, r3
    8c46:	89fb      	ldrh	r3, [r7, #14]
    8c48:	0a1b      	lsrs	r3, r3, #8
    8c4a:	b29b      	uxth	r3, r3
    8c4c:	b2db      	uxtb	r3, r3
    8c4e:	4619      	mov	r1, r3
    8c50:	4610      	mov	r0, r2
    8c52:	f7f9 f809 	bl	1c68 <WIZCHIP_WRITE>
    8c56:	79fb      	ldrb	r3, [r7, #7]
    8c58:	3304      	adds	r3, #4
    8c5a:	021b      	lsls	r3, r3, #8
    8c5c:	3329      	adds	r3, #41	; 0x29
    8c5e:	461a      	mov	r2, r3
    8c60:	89fb      	ldrh	r3, [r7, #14]
    8c62:	b2db      	uxtb	r3, r3
    8c64:	4619      	mov	r1, r3
    8c66:	4610      	mov	r0, r2
    8c68:	f7f8 fffe 	bl	1c68 <WIZCHIP_WRITE>
    8c6c:	bf00      	nop
    8c6e:	3714      	adds	r7, #20
    8c70:	46bd      	mov	sp, r7
    8c72:	bd90      	pop	{r4, r7, pc}

00008c74 <wiz_recv_ignore>:
    8c74:	b590      	push	{r4, r7, lr}
    8c76:	b085      	sub	sp, #20
    8c78:	af00      	add	r7, sp, #0
    8c7a:	4603      	mov	r3, r0
    8c7c:	460a      	mov	r2, r1
    8c7e:	71fb      	strb	r3, [r7, #7]
    8c80:	4613      	mov	r3, r2
    8c82:	80bb      	strh	r3, [r7, #4]
    8c84:	79fb      	ldrb	r3, [r7, #7]
    8c86:	3304      	adds	r3, #4
    8c88:	021b      	lsls	r3, r3, #8
    8c8a:	3328      	adds	r3, #40	; 0x28
    8c8c:	4618      	mov	r0, r3
    8c8e:	f7f9 f819 	bl	1cc4 <WIZCHIP_READ>
    8c92:	4603      	mov	r3, r0
    8c94:	b29b      	uxth	r3, r3
    8c96:	021b      	lsls	r3, r3, #8
    8c98:	b29c      	uxth	r4, r3
    8c9a:	79fb      	ldrb	r3, [r7, #7]
    8c9c:	3304      	adds	r3, #4
    8c9e:	021b      	lsls	r3, r3, #8
    8ca0:	3329      	adds	r3, #41	; 0x29
    8ca2:	4618      	mov	r0, r3
    8ca4:	f7f9 f80e 	bl	1cc4 <WIZCHIP_READ>
    8ca8:	4603      	mov	r3, r0
    8caa:	b29b      	uxth	r3, r3
    8cac:	4423      	add	r3, r4
    8cae:	81fb      	strh	r3, [r7, #14]
    8cb0:	89fa      	ldrh	r2, [r7, #14]
    8cb2:	88bb      	ldrh	r3, [r7, #4]
    8cb4:	4413      	add	r3, r2
    8cb6:	81fb      	strh	r3, [r7, #14]
    8cb8:	79fb      	ldrb	r3, [r7, #7]
    8cba:	3304      	adds	r3, #4
    8cbc:	021b      	lsls	r3, r3, #8
    8cbe:	3328      	adds	r3, #40	; 0x28
    8cc0:	461a      	mov	r2, r3
    8cc2:	89fb      	ldrh	r3, [r7, #14]
    8cc4:	0a1b      	lsrs	r3, r3, #8
    8cc6:	b29b      	uxth	r3, r3
    8cc8:	b2db      	uxtb	r3, r3
    8cca:	4619      	mov	r1, r3
    8ccc:	4610      	mov	r0, r2
    8cce:	f7f8 ffcb 	bl	1c68 <WIZCHIP_WRITE>
    8cd2:	79fb      	ldrb	r3, [r7, #7]
    8cd4:	3304      	adds	r3, #4
    8cd6:	021b      	lsls	r3, r3, #8
    8cd8:	3329      	adds	r3, #41	; 0x29
    8cda:	461a      	mov	r2, r3
    8cdc:	89fb      	ldrh	r3, [r7, #14]
    8cde:	b2db      	uxtb	r3, r3
    8ce0:	4619      	mov	r1, r3
    8ce2:	4610      	mov	r0, r2
    8ce4:	f7f8 ffc0 	bl	1c68 <WIZCHIP_WRITE>
    8ce8:	bf00      	nop
    8cea:	3714      	adds	r7, #20
    8cec:	46bd      	mov	sp, r7
    8cee:	bd90      	pop	{r4, r7, pc}

00008cf0 <wizchip_cris_enter>:
    8cf0:	b480      	push	{r7}
    8cf2:	af00      	add	r7, sp, #0
    8cf4:	bf00      	nop
    8cf6:	46bd      	mov	sp, r7
    8cf8:	f85d 7b04 	ldr.w	r7, [sp], #4
    8cfc:	4770      	bx	lr

00008cfe <wizchip_cris_exit>:
    8cfe:	b480      	push	{r7}
    8d00:	af00      	add	r7, sp, #0
    8d02:	bf00      	nop
    8d04:	46bd      	mov	sp, r7
    8d06:	f85d 7b04 	ldr.w	r7, [sp], #4
    8d0a:	4770      	bx	lr

00008d0c <wizchip_bus_readdata>:
    8d0c:	b480      	push	{r7}
    8d0e:	b083      	sub	sp, #12
    8d10:	af00      	add	r7, sp, #0
    8d12:	6078      	str	r0, [r7, #4]
    8d14:	687b      	ldr	r3, [r7, #4]
    8d16:	781b      	ldrb	r3, [r3, #0]
    8d18:	b2db      	uxtb	r3, r3
    8d1a:	4618      	mov	r0, r3
    8d1c:	370c      	adds	r7, #12
    8d1e:	46bd      	mov	sp, r7
    8d20:	f85d 7b04 	ldr.w	r7, [sp], #4
    8d24:	4770      	bx	lr

00008d26 <wizchip_bus_writedata>:
    8d26:	b480      	push	{r7}
    8d28:	b083      	sub	sp, #12
    8d2a:	af00      	add	r7, sp, #0
    8d2c:	6078      	str	r0, [r7, #4]
    8d2e:	460b      	mov	r3, r1
    8d30:	70fb      	strb	r3, [r7, #3]
    8d32:	687b      	ldr	r3, [r7, #4]
    8d34:	78fa      	ldrb	r2, [r7, #3]
    8d36:	701a      	strb	r2, [r3, #0]
    8d38:	bf00      	nop
    8d3a:	370c      	adds	r7, #12
    8d3c:	46bd      	mov	sp, r7
    8d3e:	f85d 7b04 	ldr.w	r7, [sp], #4
    8d42:	4770      	bx	lr

00008d44 <wizchip_sw_reset>:
    8d44:	b580      	push	{r7, lr}
    8d46:	b086      	sub	sp, #24
    8d48:	af00      	add	r7, sp, #0
    8d4a:	1d3b      	adds	r3, r7, #4
    8d4c:	2206      	movs	r2, #6
    8d4e:	4619      	mov	r1, r3
    8d50:	2009      	movs	r0, #9
    8d52:	f7f9 f833 	bl	1dbc <WIZCHIP_READ_BUF>
    8d56:	f107 0314 	add.w	r3, r7, #20
    8d5a:	2204      	movs	r2, #4
    8d5c:	4619      	mov	r1, r3
    8d5e:	2001      	movs	r0, #1
    8d60:	f7f9 f82c 	bl	1dbc <WIZCHIP_READ_BUF>
    8d64:	f107 0310 	add.w	r3, r7, #16
    8d68:	2204      	movs	r2, #4
    8d6a:	4619      	mov	r1, r3
    8d6c:	2005      	movs	r0, #5
    8d6e:	f7f9 f825 	bl	1dbc <WIZCHIP_READ_BUF>
    8d72:	f107 030c 	add.w	r3, r7, #12
    8d76:	2204      	movs	r2, #4
    8d78:	4619      	mov	r1, r3
    8d7a:	200f      	movs	r0, #15
    8d7c:	f7f9 f81e 	bl	1dbc <WIZCHIP_READ_BUF>
    8d80:	2180      	movs	r1, #128	; 0x80
    8d82:	2000      	movs	r0, #0
    8d84:	f7f8 ff70 	bl	1c68 <WIZCHIP_WRITE>
    8d88:	2000      	movs	r0, #0
    8d8a:	f7f8 ff9b 	bl	1cc4 <WIZCHIP_READ>
    8d8e:	1d3b      	adds	r3, r7, #4
    8d90:	2206      	movs	r2, #6
    8d92:	4619      	mov	r1, r3
    8d94:	2009      	movs	r0, #9
    8d96:	f7f8 ffc3 	bl	1d20 <WIZCHIP_WRITE_BUF>
    8d9a:	f107 0314 	add.w	r3, r7, #20
    8d9e:	2204      	movs	r2, #4
    8da0:	4619      	mov	r1, r3
    8da2:	2001      	movs	r0, #1
    8da4:	f7f8 ffbc 	bl	1d20 <WIZCHIP_WRITE_BUF>
    8da8:	f107 0310 	add.w	r3, r7, #16
    8dac:	2204      	movs	r2, #4
    8dae:	4619      	mov	r1, r3
    8db0:	2005      	movs	r0, #5
    8db2:	f7f8 ffb5 	bl	1d20 <WIZCHIP_WRITE_BUF>
    8db6:	f107 030c 	add.w	r3, r7, #12
    8dba:	2204      	movs	r2, #4
    8dbc:	4619      	mov	r1, r3
    8dbe:	200f      	movs	r0, #15
    8dc0:	f7f8 ffae 	bl	1d20 <WIZCHIP_WRITE_BUF>
    8dc4:	bf00      	nop
    8dc6:	3718      	adds	r7, #24
    8dc8:	46bd      	mov	sp, r7
    8dca:	bd80      	pop	{r7, pc}

00008dcc <wizchip_init>:
    8dcc:	b580      	push	{r7, lr}
    8dce:	b084      	sub	sp, #16
    8dd0:	af00      	add	r7, sp, #0
    8dd2:	6078      	str	r0, [r7, #4]
    8dd4:	6039      	str	r1, [r7, #0]
    8dd6:	2300      	movs	r3, #0
    8dd8:	737b      	strb	r3, [r7, #13]
    8dda:	f7ff ffb3 	bl	8d44 <wizchip_sw_reset>
    8dde:	687b      	ldr	r3, [r7, #4]
    8de0:	2b00      	cmp	r3, #0
    8de2:	d066      	beq.n	8eb2 <wizchip_init+0xe6>
    8de4:	2300      	movs	r3, #0
    8de6:	737b      	strb	r3, [r7, #13]
    8de8:	2300      	movs	r3, #0
    8dea:	73fb      	strb	r3, [r7, #15]
    8dec:	e015      	b.n	8e1a <wizchip_init+0x4e>
    8dee:	f997 300f 	ldrsb.w	r3, [r7, #15]
    8df2:	687a      	ldr	r2, [r7, #4]
    8df4:	4413      	add	r3, r2
    8df6:	781a      	ldrb	r2, [r3, #0]
    8df8:	7b7b      	ldrb	r3, [r7, #13]
    8dfa:	4413      	add	r3, r2
    8dfc:	b2db      	uxtb	r3, r3
    8dfe:	737b      	strb	r3, [r7, #13]
    8e00:	f997 300d 	ldrsb.w	r3, [r7, #13]
    8e04:	2b08      	cmp	r3, #8
    8e06:	dd02      	ble.n	8e0e <wizchip_init+0x42>
    8e08:	f04f 33ff 	mov.w	r3, #4294967295
    8e0c:	e0bc      	b.n	8f88 <wizchip_init+0x1bc>
    8e0e:	f997 300f 	ldrsb.w	r3, [r7, #15]
    8e12:	b2db      	uxtb	r3, r3
    8e14:	3301      	adds	r3, #1
    8e16:	b2db      	uxtb	r3, r3
    8e18:	73fb      	strb	r3, [r7, #15]
    8e1a:	f997 300f 	ldrsb.w	r3, [r7, #15]
    8e1e:	2b03      	cmp	r3, #3
    8e20:	dde5      	ble.n	8dee <wizchip_init+0x22>
    8e22:	2300      	movs	r3, #0
    8e24:	73fb      	strb	r3, [r7, #15]
    8e26:	e040      	b.n	8eaa <wizchip_init+0xde>
    8e28:	2300      	movs	r3, #0
    8e2a:	73bb      	strb	r3, [r7, #14]
    8e2c:	e005      	b.n	8e3a <wizchip_init+0x6e>
    8e2e:	f997 300e 	ldrsb.w	r3, [r7, #14]
    8e32:	b2db      	uxtb	r3, r3
    8e34:	3301      	adds	r3, #1
    8e36:	b2db      	uxtb	r3, r3
    8e38:	73bb      	strb	r3, [r7, #14]
    8e3a:	f997 300f 	ldrsb.w	r3, [r7, #15]
    8e3e:	687a      	ldr	r2, [r7, #4]
    8e40:	4413      	add	r3, r2
    8e42:	781b      	ldrb	r3, [r3, #0]
    8e44:	461a      	mov	r2, r3
    8e46:	f997 300e 	ldrsb.w	r3, [r7, #14]
    8e4a:	fa42 f303 	asr.w	r3, r2, r3
    8e4e:	2b01      	cmp	r3, #1
    8e50:	d006      	beq.n	8e60 <wizchip_init+0x94>
    8e52:	f997 300f 	ldrsb.w	r3, [r7, #15]
    8e56:	687a      	ldr	r2, [r7, #4]
    8e58:	4413      	add	r3, r2
    8e5a:	781b      	ldrb	r3, [r3, #0]
    8e5c:	2b00      	cmp	r3, #0
    8e5e:	d1e6      	bne.n	8e2e <wizchip_init+0x62>
    8e60:	201b      	movs	r0, #27
    8e62:	f7f8 ff2f 	bl	1cc4 <WIZCHIP_READ>
    8e66:	4603      	mov	r3, r0
    8e68:	b25a      	sxtb	r2, r3
    8e6a:	f997 300f 	ldrsb.w	r3, [r7, #15]
    8e6e:	005b      	lsls	r3, r3, #1
    8e70:	2103      	movs	r1, #3
    8e72:	fa01 f303 	lsl.w	r3, r1, r3
    8e76:	b25b      	sxtb	r3, r3
    8e78:	43db      	mvns	r3, r3
    8e7a:	b25b      	sxtb	r3, r3
    8e7c:	4013      	ands	r3, r2
    8e7e:	b25a      	sxtb	r2, r3
    8e80:	f997 100e 	ldrsb.w	r1, [r7, #14]
    8e84:	f997 300f 	ldrsb.w	r3, [r7, #15]
    8e88:	005b      	lsls	r3, r3, #1
    8e8a:	fa01 f303 	lsl.w	r3, r1, r3
    8e8e:	b25b      	sxtb	r3, r3
    8e90:	4313      	orrs	r3, r2
    8e92:	b25b      	sxtb	r3, r3
    8e94:	b2db      	uxtb	r3, r3
    8e96:	4619      	mov	r1, r3
    8e98:	201b      	movs	r0, #27
    8e9a:	f7f8 fee5 	bl	1c68 <WIZCHIP_WRITE>
    8e9e:	f997 300f 	ldrsb.w	r3, [r7, #15]
    8ea2:	b2db      	uxtb	r3, r3
    8ea4:	3301      	adds	r3, #1
    8ea6:	b2db      	uxtb	r3, r3
    8ea8:	73fb      	strb	r3, [r7, #15]
    8eaa:	f997 300f 	ldrsb.w	r3, [r7, #15]
    8eae:	2b03      	cmp	r3, #3
    8eb0:	ddba      	ble.n	8e28 <wizchip_init+0x5c>
    8eb2:	683b      	ldr	r3, [r7, #0]
    8eb4:	2b00      	cmp	r3, #0
    8eb6:	d066      	beq.n	8f86 <wizchip_init+0x1ba>
    8eb8:	2300      	movs	r3, #0
    8eba:	737b      	strb	r3, [r7, #13]
    8ebc:	2300      	movs	r3, #0
    8ebe:	73fb      	strb	r3, [r7, #15]
    8ec0:	e015      	b.n	8eee <wizchip_init+0x122>
    8ec2:	f997 300f 	ldrsb.w	r3, [r7, #15]
    8ec6:	683a      	ldr	r2, [r7, #0]
    8ec8:	4413      	add	r3, r2
    8eca:	781a      	ldrb	r2, [r3, #0]
    8ecc:	7b7b      	ldrb	r3, [r7, #13]
    8ece:	4413      	add	r3, r2
    8ed0:	b2db      	uxtb	r3, r3
    8ed2:	737b      	strb	r3, [r7, #13]
    8ed4:	f997 300d 	ldrsb.w	r3, [r7, #13]
    8ed8:	2b08      	cmp	r3, #8
    8eda:	dd02      	ble.n	8ee2 <wizchip_init+0x116>
    8edc:	f04f 33ff 	mov.w	r3, #4294967295
    8ee0:	e052      	b.n	8f88 <wizchip_init+0x1bc>
    8ee2:	f997 300f 	ldrsb.w	r3, [r7, #15]
    8ee6:	b2db      	uxtb	r3, r3
    8ee8:	3301      	adds	r3, #1
    8eea:	b2db      	uxtb	r3, r3
    8eec:	73fb      	strb	r3, [r7, #15]
    8eee:	f997 300f 	ldrsb.w	r3, [r7, #15]
    8ef2:	2b03      	cmp	r3, #3
    8ef4:	dde5      	ble.n	8ec2 <wizchip_init+0xf6>
    8ef6:	2300      	movs	r3, #0
    8ef8:	73fb      	strb	r3, [r7, #15]
    8efa:	e040      	b.n	8f7e <wizchip_init+0x1b2>
    8efc:	2300      	movs	r3, #0
    8efe:	73bb      	strb	r3, [r7, #14]
    8f00:	e005      	b.n	8f0e <wizchip_init+0x142>
    8f02:	f997 300e 	ldrsb.w	r3, [r7, #14]
    8f06:	b2db      	uxtb	r3, r3
    8f08:	3301      	adds	r3, #1
    8f0a:	b2db      	uxtb	r3, r3
    8f0c:	73bb      	strb	r3, [r7, #14]
    8f0e:	f997 300f 	ldrsb.w	r3, [r7, #15]
    8f12:	683a      	ldr	r2, [r7, #0]
    8f14:	4413      	add	r3, r2
    8f16:	781b      	ldrb	r3, [r3, #0]
    8f18:	461a      	mov	r2, r3
    8f1a:	f997 300e 	ldrsb.w	r3, [r7, #14]
    8f1e:	fa42 f303 	asr.w	r3, r2, r3
    8f22:	2b01      	cmp	r3, #1
    8f24:	d006      	beq.n	8f34 <wizchip_init+0x168>
    8f26:	f997 300f 	ldrsb.w	r3, [r7, #15]
    8f2a:	687a      	ldr	r2, [r7, #4]
    8f2c:	4413      	add	r3, r2
    8f2e:	781b      	ldrb	r3, [r3, #0]
    8f30:	2b00      	cmp	r3, #0
    8f32:	d1e6      	bne.n	8f02 <wizchip_init+0x136>
    8f34:	201a      	movs	r0, #26
    8f36:	f7f8 fec5 	bl	1cc4 <WIZCHIP_READ>
    8f3a:	4603      	mov	r3, r0
    8f3c:	b25a      	sxtb	r2, r3
    8f3e:	f997 300f 	ldrsb.w	r3, [r7, #15]
    8f42:	005b      	lsls	r3, r3, #1
    8f44:	2103      	movs	r1, #3
    8f46:	fa01 f303 	lsl.w	r3, r1, r3
    8f4a:	b25b      	sxtb	r3, r3
    8f4c:	43db      	mvns	r3, r3
    8f4e:	b25b      	sxtb	r3, r3
    8f50:	4013      	ands	r3, r2
    8f52:	b25a      	sxtb	r2, r3
    8f54:	f997 100e 	ldrsb.w	r1, [r7, #14]
    8f58:	f997 300f 	ldrsb.w	r3, [r7, #15]
    8f5c:	005b      	lsls	r3, r3, #1
    8f5e:	fa01 f303 	lsl.w	r3, r1, r3
    8f62:	b25b      	sxtb	r3, r3
    8f64:	4313      	orrs	r3, r2
    8f66:	b25b      	sxtb	r3, r3
    8f68:	b2db      	uxtb	r3, r3
    8f6a:	4619      	mov	r1, r3
    8f6c:	201a      	movs	r0, #26
    8f6e:	f7f8 fe7b 	bl	1c68 <WIZCHIP_WRITE>
    8f72:	f997 300f 	ldrsb.w	r3, [r7, #15]
    8f76:	b2db      	uxtb	r3, r3
    8f78:	3301      	adds	r3, #1
    8f7a:	b2db      	uxtb	r3, r3
    8f7c:	73fb      	strb	r3, [r7, #15]
    8f7e:	f997 300f 	ldrsb.w	r3, [r7, #15]
    8f82:	2b03      	cmp	r3, #3
    8f84:	ddba      	ble.n	8efc <wizchip_init+0x130>
    8f86:	2300      	movs	r3, #0
    8f88:	4618      	mov	r0, r3
    8f8a:	3710      	adds	r7, #16
    8f8c:	46bd      	mov	sp, r7
    8f8e:	bd80      	pop	{r7, pc}

00008f90 <QTMR_StartTimer>:
    8f90:	b480      	push	{r7}
    8f92:	b085      	sub	sp, #20
    8f94:	af00      	add	r7, sp, #0
    8f96:	6078      	str	r0, [r7, #4]
    8f98:	460b      	mov	r3, r1
    8f9a:	70fb      	strb	r3, [r7, #3]
    8f9c:	4613      	mov	r3, r2
    8f9e:	70bb      	strb	r3, [r7, #2]
    8fa0:	78fb      	ldrb	r3, [r7, #3]
    8fa2:	687a      	ldr	r2, [r7, #4]
    8fa4:	015b      	lsls	r3, r3, #5
    8fa6:	4413      	add	r3, r2
    8fa8:	330c      	adds	r3, #12
    8faa:	881b      	ldrh	r3, [r3, #0]
    8fac:	81fb      	strh	r3, [r7, #14]
    8fae:	89fb      	ldrh	r3, [r7, #14]
    8fb0:	f3c3 030c 	ubfx	r3, r3, #0, #13
    8fb4:	81fb      	strh	r3, [r7, #14]
    8fb6:	78bb      	ldrb	r3, [r7, #2]
    8fb8:	b29b      	uxth	r3, r3
    8fba:	035b      	lsls	r3, r3, #13
    8fbc:	b29a      	uxth	r2, r3
    8fbe:	89fb      	ldrh	r3, [r7, #14]
    8fc0:	4313      	orrs	r3, r2
    8fc2:	81fb      	strh	r3, [r7, #14]
    8fc4:	78fb      	ldrb	r3, [r7, #3]
    8fc6:	687a      	ldr	r2, [r7, #4]
    8fc8:	015b      	lsls	r3, r3, #5
    8fca:	4413      	add	r3, r2
    8fcc:	330c      	adds	r3, #12
    8fce:	89fa      	ldrh	r2, [r7, #14]
    8fd0:	801a      	strh	r2, [r3, #0]
    8fd2:	bf00      	nop
    8fd4:	3714      	adds	r7, #20
    8fd6:	46bd      	mov	sp, r7
    8fd8:	f85d 7b04 	ldr.w	r7, [sp], #4
    8fdc:	4770      	bx	lr

00008fde <_delay_ms>:
    8fde:	b480      	push	{r7}
    8fe0:	b085      	sub	sp, #20
    8fe2:	af00      	add	r7, sp, #0
    8fe4:	6078      	str	r0, [r7, #4]
    8fe6:	2300      	movs	r3, #0
    8fe8:	60fb      	str	r3, [r7, #12]
    8fea:	e003      	b.n	8ff4 <_delay_ms+0x16>
    8fec:	bf00      	nop
    8fee:	68fb      	ldr	r3, [r7, #12]
    8ff0:	3301      	adds	r3, #1
    8ff2:	60fb      	str	r3, [r7, #12]
    8ff4:	687a      	ldr	r2, [r7, #4]
    8ff6:	4613      	mov	r3, r2
    8ff8:	051b      	lsls	r3, r3, #20
    8ffa:	1a9a      	subs	r2, r3, r2
    8ffc:	68fb      	ldr	r3, [r7, #12]
    8ffe:	429a      	cmp	r2, r3
    9000:	d8f4      	bhi.n	8fec <_delay_ms+0xe>
    9002:	bf00      	nop
    9004:	3714      	adds	r7, #20
    9006:	46bd      	mov	sp, r7
    9008:	f85d 7b04 	ldr.w	r7, [sp], #4
    900c:	4770      	bx	lr

0000900e <HardFault_Handler>:
    900e:	2004      	movs	r0, #4
    9010:	4671      	mov	r1, lr
    9012:	4208      	tst	r0, r1
    9014:	d002      	beq.n	901c <_MSP>
    9016:	f3ef 8009 	mrs	r0, PSP
    901a:	e001      	b.n	9020 <_process>

0000901c <_MSP>:
    901c:	f3ef 8008 	mrs	r0, MSP

00009020 <_process>:
    9020:	6981      	ldr	r1, [r0, #24]
    9022:	880a      	ldrh	r2, [r1, #0]
    9024:	f64b 63ab 	movw	r3, #48811	; 0xbeab
    9028:	429a      	cmp	r2, r3
    902a:	d000      	beq.n	902e <_semihost_return>
    902c:	e7fe      	b.n	902c <_process+0xc>

0000902e <_semihost_return>:
    902e:	3102      	adds	r1, #2
    9030:	6181      	str	r1, [r0, #24]
    9032:	2120      	movs	r1, #32
    9034:	6001      	str	r1, [r0, #0]
    9036:	4770      	bx	lr
    9038:	bf00      	nop

0000903a <CLOCK_GetRtcFreq>:
    903a:	b480      	push	{r7}
    903c:	af00      	add	r7, sp, #0
    903e:	f44f 4300 	mov.w	r3, #32768	; 0x8000
    9042:	4618      	mov	r0, r3
    9044:	46bd      	mov	sp, r7
    9046:	f85d 7b04 	ldr.w	r7, [sp], #4
    904a:	4770      	bx	lr

0000904c <CLOCK_IsPllBypassed>:
    904c:	b480      	push	{r7}
    904e:	b083      	sub	sp, #12
    9050:	af00      	add	r7, sp, #0
    9052:	6078      	str	r0, [r7, #4]
    9054:	6039      	str	r1, [r7, #0]
    9056:	683b      	ldr	r3, [r7, #0]
    9058:	0c1b      	lsrs	r3, r3, #16
    905a:	f3c3 020b 	ubfx	r2, r3, #0, #12
    905e:	687b      	ldr	r3, [r7, #4]
    9060:	4413      	add	r3, r2
    9062:	681b      	ldr	r3, [r3, #0]
    9064:	f403 3380 	and.w	r3, r3, #65536	; 0x10000
    9068:	2b00      	cmp	r3, #0
    906a:	bf14      	ite	ne
    906c:	2301      	movne	r3, #1
    906e:	2300      	moveq	r3, #0
    9070:	b2db      	uxtb	r3, r3
    9072:	4618      	mov	r0, r3
    9074:	370c      	adds	r7, #12
    9076:	46bd      	mov	sp, r7
    9078:	f85d 7b04 	ldr.w	r7, [sp], #4
    907c:	4770      	bx	lr

0000907e <CLOCK_IsPllEnabled>:
    907e:	b480      	push	{r7}
    9080:	b083      	sub	sp, #12
    9082:	af00      	add	r7, sp, #0
    9084:	6078      	str	r0, [r7, #4]
    9086:	6039      	str	r1, [r7, #0]
    9088:	683b      	ldr	r3, [r7, #0]
    908a:	0c1b      	lsrs	r3, r3, #16
    908c:	f3c3 020b 	ubfx	r2, r3, #0, #12
    9090:	687b      	ldr	r3, [r7, #4]
    9092:	4413      	add	r3, r2
    9094:	681a      	ldr	r2, [r3, #0]
    9096:	683b      	ldr	r3, [r7, #0]
    9098:	f003 031f 	and.w	r3, r3, #31
    909c:	fa22 f303 	lsr.w	r3, r2, r3
    90a0:	f003 0301 	and.w	r3, r3, #1
    90a4:	2b00      	cmp	r3, #0
    90a6:	bf14      	ite	ne
    90a8:	2301      	movne	r3, #1
    90aa:	2300      	moveq	r3, #0
    90ac:	b2db      	uxtb	r3, r3
    90ae:	4618      	mov	r0, r3
    90b0:	370c      	adds	r7, #12
    90b2:	46bd      	mov	sp, r7
    90b4:	f85d 7b04 	ldr.w	r7, [sp], #4
    90b8:	4770      	bx	lr

000090ba <CLOCK_GetPllBypassRefClk>:
    90ba:	b580      	push	{r7, lr}
    90bc:	b082      	sub	sp, #8
    90be:	af00      	add	r7, sp, #0
    90c0:	6078      	str	r0, [r7, #4]
    90c2:	6039      	str	r1, [r7, #0]
    90c4:	683b      	ldr	r3, [r7, #0]
    90c6:	0c1b      	lsrs	r3, r3, #16
    90c8:	f3c3 020b 	ubfx	r2, r3, #0, #12
    90cc:	687b      	ldr	r3, [r7, #4]
    90ce:	4413      	add	r3, r2
    90d0:	681b      	ldr	r3, [r3, #0]
    90d2:	0b9b      	lsrs	r3, r3, #14
    90d4:	f003 0303 	and.w	r3, r3, #3
    90d8:	2b00      	cmp	r3, #0
    90da:	d103      	bne.n	90e4 <CLOCK_GetPllBypassRefClk+0x2a>
    90dc:	f7f9 fdf4 	bl	2cc8 <CLOCK_GetOscFreq>
    90e0:	4603      	mov	r3, r0
    90e2:	e000      	b.n	90e6 <CLOCK_GetPllBypassRefClk+0x2c>
    90e4:	2300      	movs	r3, #0
    90e6:	4618      	mov	r0, r3
    90e8:	3708      	adds	r7, #8
    90ea:	46bd      	mov	sp, r7
    90ec:	bd80      	pop	{r7, pc}

000090ee <CLOCK_EnableClock>:
    90ee:	b580      	push	{r7, lr}
    90f0:	b082      	sub	sp, #8
    90f2:	af00      	add	r7, sp, #0
    90f4:	4603      	mov	r3, r0
    90f6:	80fb      	strh	r3, [r7, #6]
    90f8:	f9b7 3006 	ldrsh.w	r3, [r7, #6]
    90fc:	2103      	movs	r1, #3
    90fe:	4618      	mov	r0, r3
    9100:	f7fa fe60 	bl	3dc4 <CLOCK_ControlGate>
    9104:	bf00      	nop
    9106:	3708      	adds	r7, #8
    9108:	46bd      	mov	sp, r7
    910a:	bd80      	pop	{r7, pc}

0000910c <GPIO_SetPinInterruptConfig>:
    910c:	b580      	push	{r7, lr}
    910e:	b084      	sub	sp, #16
    9110:	af00      	add	r7, sp, #0
    9112:	60f8      	str	r0, [r7, #12]
    9114:	60b9      	str	r1, [r7, #8]
    9116:	4613      	mov	r3, r2
    9118:	71fb      	strb	r3, [r7, #7]
    911a:	79fb      	ldrb	r3, [r7, #7]
    911c:	461a      	mov	r2, r3
    911e:	68b9      	ldr	r1, [r7, #8]
    9120:	68f8      	ldr	r0, [r7, #12]
    9122:	f7fa ff23 	bl	3f6c <GPIO_PinSetInterruptConfig>
    9126:	bf00      	nop
    9128:	3710      	adds	r7, #16
    912a:	46bd      	mov	sp, r7
    912c:	bd80      	pop	{r7, pc}

0000912e <CLOCK_EnableClock>:
    912e:	b580      	push	{r7, lr}
    9130:	b082      	sub	sp, #8
    9132:	af00      	add	r7, sp, #0
    9134:	4603      	mov	r3, r0
    9136:	80fb      	strh	r3, [r7, #6]
    9138:	f9b7 3006 	ldrsh.w	r3, [r7, #6]
    913c:	2103      	movs	r1, #3
    913e:	4618      	mov	r0, r3
    9140:	f7fa ffb0 	bl	40a4 <CLOCK_ControlGate>
    9144:	bf00      	nop
    9146:	3708      	adds	r7, #8
    9148:	46bd      	mov	sp, r7
    914a:	bd80      	pop	{r7, pc}

0000914c <CLOCK_DisableClock>:
    914c:	b580      	push	{r7, lr}
    914e:	b082      	sub	sp, #8
    9150:	af00      	add	r7, sp, #0
    9152:	4603      	mov	r3, r0
    9154:	80fb      	strh	r3, [r7, #6]
    9156:	f9b7 3006 	ldrsh.w	r3, [r7, #6]
    915a:	2100      	movs	r1, #0
    915c:	4618      	mov	r0, r3
    915e:	f7fa ffa1 	bl	40a4 <CLOCK_ControlGate>
    9162:	bf00      	nop
    9164:	3708      	adds	r7, #8
    9166:	46bd      	mov	sp, r7
    9168:	bd80      	pop	{r7, pc}

0000916a <EnableIRQ>:
    916a:	b580      	push	{r7, lr}
    916c:	b082      	sub	sp, #8
    916e:	af00      	add	r7, sp, #0
    9170:	4603      	mov	r3, r0
    9172:	80fb      	strh	r3, [r7, #6]
    9174:	f9b7 3006 	ldrsh.w	r3, [r7, #6]
    9178:	f113 0f80 	cmn.w	r3, #128	; 0x80
    917c:	d101      	bne.n	9182 <EnableIRQ+0x18>
    917e:	2301      	movs	r3, #1
    9180:	e005      	b.n	918e <EnableIRQ+0x24>
    9182:	f9b7 3006 	ldrsh.w	r3, [r7, #6]
    9186:	4618      	mov	r0, r3
    9188:	f7fa ff6e 	bl	4068 <__NVIC_EnableIRQ>
    918c:	2300      	movs	r3, #0
    918e:	4618      	mov	r0, r3
    9190:	3708      	adds	r7, #8
    9192:	46bd      	mov	sp, r7
    9194:	bd80      	pop	{r7, pc}

00009196 <LPSPI_Enable>:
    9196:	b480      	push	{r7}
    9198:	b083      	sub	sp, #12
    919a:	af00      	add	r7, sp, #0
    919c:	6078      	str	r0, [r7, #4]
    919e:	460b      	mov	r3, r1
    91a0:	70fb      	strb	r3, [r7, #3]
    91a2:	78fb      	ldrb	r3, [r7, #3]
    91a4:	2b00      	cmp	r3, #0
    91a6:	d006      	beq.n	91b6 <LPSPI_Enable+0x20>
    91a8:	687b      	ldr	r3, [r7, #4]
    91aa:	691b      	ldr	r3, [r3, #16]
    91ac:	f043 0201 	orr.w	r2, r3, #1
    91b0:	687b      	ldr	r3, [r7, #4]
    91b2:	611a      	str	r2, [r3, #16]
    91b4:	e005      	b.n	91c2 <LPSPI_Enable+0x2c>
    91b6:	687b      	ldr	r3, [r7, #4]
    91b8:	691b      	ldr	r3, [r3, #16]
    91ba:	f023 0201 	bic.w	r2, r3, #1
    91be:	687b      	ldr	r3, [r7, #4]
    91c0:	611a      	str	r2, [r3, #16]
    91c2:	bf00      	nop
    91c4:	370c      	adds	r7, #12
    91c6:	46bd      	mov	sp, r7
    91c8:	f85d 7b04 	ldr.w	r7, [sp], #4
    91cc:	4770      	bx	lr

000091ce <LPSPI_GetStatusFlags>:
    91ce:	b480      	push	{r7}
    91d0:	b083      	sub	sp, #12
    91d2:	af00      	add	r7, sp, #0
    91d4:	6078      	str	r0, [r7, #4]
    91d6:	687b      	ldr	r3, [r7, #4]
    91d8:	695b      	ldr	r3, [r3, #20]
    91da:	4618      	mov	r0, r3
    91dc:	370c      	adds	r7, #12
    91de:	46bd      	mov	sp, r7
    91e0:	f85d 7b04 	ldr.w	r7, [sp], #4
    91e4:	4770      	bx	lr

000091e6 <LPSPI_GetRxFifoSize>:
    91e6:	b480      	push	{r7}
    91e8:	b083      	sub	sp, #12
    91ea:	af00      	add	r7, sp, #0
    91ec:	6078      	str	r0, [r7, #4]
    91ee:	687b      	ldr	r3, [r7, #4]
    91f0:	685b      	ldr	r3, [r3, #4]
    91f2:	0a1b      	lsrs	r3, r3, #8
    91f4:	b2db      	uxtb	r3, r3
    91f6:	2201      	movs	r2, #1
    91f8:	fa02 f303 	lsl.w	r3, r2, r3
    91fc:	4618      	mov	r0, r3
    91fe:	370c      	adds	r7, #12
    9200:	46bd      	mov	sp, r7
    9202:	f85d 7b04 	ldr.w	r7, [sp], #4
    9206:	4770      	bx	lr

00009208 <LPSPI_GetTxFifoCount>:
    9208:	b480      	push	{r7}
    920a:	b083      	sub	sp, #12
    920c:	af00      	add	r7, sp, #0
    920e:	6078      	str	r0, [r7, #4]
    9210:	687b      	ldr	r3, [r7, #4]
    9212:	6ddb      	ldr	r3, [r3, #92]	; 0x5c
    9214:	f003 031f 	and.w	r3, r3, #31
    9218:	4618      	mov	r0, r3
    921a:	370c      	adds	r7, #12
    921c:	46bd      	mov	sp, r7
    921e:	f85d 7b04 	ldr.w	r7, [sp], #4
    9222:	4770      	bx	lr

00009224 <LPSPI_GetRxFifoCount>:
    9224:	b480      	push	{r7}
    9226:	b083      	sub	sp, #12
    9228:	af00      	add	r7, sp, #0
    922a:	6078      	str	r0, [r7, #4]
    922c:	687b      	ldr	r3, [r7, #4]
    922e:	6ddb      	ldr	r3, [r3, #92]	; 0x5c
    9230:	0c1b      	lsrs	r3, r3, #16
    9232:	f003 031f 	and.w	r3, r3, #31
    9236:	4618      	mov	r0, r3
    9238:	370c      	adds	r7, #12
    923a:	46bd      	mov	sp, r7
    923c:	f85d 7b04 	ldr.w	r7, [sp], #4
    9240:	4770      	bx	lr

00009242 <LPSPI_ClearStatusFlags>:
    9242:	b480      	push	{r7}
    9244:	b083      	sub	sp, #12
    9246:	af00      	add	r7, sp, #0
    9248:	6078      	str	r0, [r7, #4]
    924a:	6039      	str	r1, [r7, #0]
    924c:	687b      	ldr	r3, [r7, #4]
    924e:	683a      	ldr	r2, [r7, #0]
    9250:	615a      	str	r2, [r3, #20]
    9252:	bf00      	nop
    9254:	370c      	adds	r7, #12
    9256:	46bd      	mov	sp, r7
    9258:	f85d 7b04 	ldr.w	r7, [sp], #4
    925c:	4770      	bx	lr

0000925e <LPSPI_EnableInterrupts>:
    925e:	b480      	push	{r7}
    9260:	b083      	sub	sp, #12
    9262:	af00      	add	r7, sp, #0
    9264:	6078      	str	r0, [r7, #4]
    9266:	6039      	str	r1, [r7, #0]
    9268:	687b      	ldr	r3, [r7, #4]
    926a:	699a      	ldr	r2, [r3, #24]
    926c:	683b      	ldr	r3, [r7, #0]
    926e:	431a      	orrs	r2, r3
    9270:	687b      	ldr	r3, [r7, #4]
    9272:	619a      	str	r2, [r3, #24]
    9274:	bf00      	nop
    9276:	370c      	adds	r7, #12
    9278:	46bd      	mov	sp, r7
    927a:	f85d 7b04 	ldr.w	r7, [sp], #4
    927e:	4770      	bx	lr

00009280 <LPSPI_DisableInterrupts>:
    9280:	b480      	push	{r7}
    9282:	b083      	sub	sp, #12
    9284:	af00      	add	r7, sp, #0
    9286:	6078      	str	r0, [r7, #4]
    9288:	6039      	str	r1, [r7, #0]
    928a:	687b      	ldr	r3, [r7, #4]
    928c:	699a      	ldr	r2, [r3, #24]
    928e:	683b      	ldr	r3, [r7, #0]
    9290:	43db      	mvns	r3, r3
    9292:	401a      	ands	r2, r3
    9294:	687b      	ldr	r3, [r7, #4]
    9296:	619a      	str	r2, [r3, #24]
    9298:	bf00      	nop
    929a:	370c      	adds	r7, #12
    929c:	46bd      	mov	sp, r7
    929e:	f85d 7b04 	ldr.w	r7, [sp], #4
    92a2:	4770      	bx	lr

000092a4 <LPSPI_SetMasterSlaveMode>:
    92a4:	b480      	push	{r7}
    92a6:	b083      	sub	sp, #12
    92a8:	af00      	add	r7, sp, #0
    92aa:	6078      	str	r0, [r7, #4]
    92ac:	460b      	mov	r3, r1
    92ae:	70fb      	strb	r3, [r7, #3]
    92b0:	687b      	ldr	r3, [r7, #4]
    92b2:	6a5b      	ldr	r3, [r3, #36]	; 0x24
    92b4:	f023 0201 	bic.w	r2, r3, #1
    92b8:	78fb      	ldrb	r3, [r7, #3]
    92ba:	f003 0301 	and.w	r3, r3, #1
    92be:	431a      	orrs	r2, r3
    92c0:	687b      	ldr	r3, [r7, #4]
    92c2:	625a      	str	r2, [r3, #36]	; 0x24
    92c4:	bf00      	nop
    92c6:	370c      	adds	r7, #12
    92c8:	46bd      	mov	sp, r7
    92ca:	f85d 7b04 	ldr.w	r7, [sp], #4
    92ce:	4770      	bx	lr

000092d0 <LPSPI_IsMaster>:
    92d0:	b480      	push	{r7}
    92d2:	b083      	sub	sp, #12
    92d4:	af00      	add	r7, sp, #0
    92d6:	6078      	str	r0, [r7, #4]
    92d8:	687b      	ldr	r3, [r7, #4]
    92da:	6a5b      	ldr	r3, [r3, #36]	; 0x24
    92dc:	f003 0301 	and.w	r3, r3, #1
    92e0:	2b00      	cmp	r3, #0
    92e2:	bf14      	ite	ne
    92e4:	2301      	movne	r3, #1
    92e6:	2300      	moveq	r3, #0
    92e8:	b2db      	uxtb	r3, r3
    92ea:	4618      	mov	r0, r3
    92ec:	370c      	adds	r7, #12
    92ee:	46bd      	mov	sp, r7
    92f0:	f85d 7b04 	ldr.w	r7, [sp], #4
    92f4:	4770      	bx	lr

000092f6 <LPSPI_FlushFifo>:
    92f6:	b480      	push	{r7}
    92f8:	b083      	sub	sp, #12
    92fa:	af00      	add	r7, sp, #0
    92fc:	6078      	str	r0, [r7, #4]
    92fe:	460b      	mov	r3, r1
    9300:	70fb      	strb	r3, [r7, #3]
    9302:	4613      	mov	r3, r2
    9304:	70bb      	strb	r3, [r7, #2]
    9306:	687b      	ldr	r3, [r7, #4]
    9308:	691a      	ldr	r2, [r3, #16]
    930a:	78fb      	ldrb	r3, [r7, #3]
    930c:	0219      	lsls	r1, r3, #8
    930e:	78bb      	ldrb	r3, [r7, #2]
    9310:	025b      	lsls	r3, r3, #9
    9312:	430b      	orrs	r3, r1
    9314:	431a      	orrs	r2, r3
    9316:	687b      	ldr	r3, [r7, #4]
    9318:	611a      	str	r2, [r3, #16]
    931a:	bf00      	nop
    931c:	370c      	adds	r7, #12
    931e:	46bd      	mov	sp, r7
    9320:	f85d 7b04 	ldr.w	r7, [sp], #4
    9324:	4770      	bx	lr

00009326 <LPSPI_SetFifoWatermarks>:
    9326:	b480      	push	{r7}
    9328:	b085      	sub	sp, #20
    932a:	af00      	add	r7, sp, #0
    932c:	60f8      	str	r0, [r7, #12]
    932e:	60b9      	str	r1, [r7, #8]
    9330:	607a      	str	r2, [r7, #4]
    9332:	68bb      	ldr	r3, [r7, #8]
    9334:	f003 020f 	and.w	r2, r3, #15
    9338:	687b      	ldr	r3, [r7, #4]
    933a:	041b      	lsls	r3, r3, #16
    933c:	f403 2370 	and.w	r3, r3, #983040	; 0xf0000
    9340:	431a      	orrs	r2, r3
    9342:	68fb      	ldr	r3, [r7, #12]
    9344:	659a      	str	r2, [r3, #88]	; 0x58
    9346:	bf00      	nop
    9348:	3714      	adds	r7, #20
    934a:	46bd      	mov	sp, r7
    934c:	f85d 7b04 	ldr.w	r7, [sp], #4
    9350:	4770      	bx	lr

00009352 <LPSPI_WriteData>:
    9352:	b480      	push	{r7}
    9354:	b083      	sub	sp, #12
    9356:	af00      	add	r7, sp, #0
    9358:	6078      	str	r0, [r7, #4]
    935a:	6039      	str	r1, [r7, #0]
    935c:	687b      	ldr	r3, [r7, #4]
    935e:	683a      	ldr	r2, [r7, #0]
    9360:	665a      	str	r2, [r3, #100]	; 0x64
    9362:	bf00      	nop
    9364:	370c      	adds	r7, #12
    9366:	46bd      	mov	sp, r7
    9368:	f85d 7b04 	ldr.w	r7, [sp], #4
    936c:	4770      	bx	lr

0000936e <LPSPI_ReadData>:
    936e:	b480      	push	{r7}
    9370:	b083      	sub	sp, #12
    9372:	af00      	add	r7, sp, #0
    9374:	6078      	str	r0, [r7, #4]
    9376:	687b      	ldr	r3, [r7, #4]
    9378:	6f5b      	ldr	r3, [r3, #116]	; 0x74
    937a:	4618      	mov	r0, r3
    937c:	370c      	adds	r7, #12
    937e:	46bd      	mov	sp, r7
    9380:	f85d 7b04 	ldr.w	r7, [sp], #4
    9384:	4770      	bx	lr

00009386 <LPSPI_Reset>:
    9386:	b480      	push	{r7}
    9388:	b083      	sub	sp, #12
    938a:	af00      	add	r7, sp, #0
    938c:	6078      	str	r0, [r7, #4]
    938e:	687b      	ldr	r3, [r7, #4]
    9390:	691b      	ldr	r3, [r3, #16]
    9392:	f043 0202 	orr.w	r2, r3, #2
    9396:	687b      	ldr	r3, [r7, #4]
    9398:	611a      	str	r2, [r3, #16]
    939a:	687b      	ldr	r3, [r7, #4]
    939c:	691b      	ldr	r3, [r3, #16]
    939e:	f443 7240 	orr.w	r2, r3, #768	; 0x300
    93a2:	687b      	ldr	r3, [r7, #4]
    93a4:	611a      	str	r2, [r3, #16]
    93a6:	687b      	ldr	r3, [r7, #4]
    93a8:	2200      	movs	r2, #0
    93aa:	611a      	str	r2, [r3, #16]
    93ac:	bf00      	nop
    93ae:	370c      	adds	r7, #12
    93b0:	46bd      	mov	sp, r7
    93b2:	f85d 7b04 	ldr.w	r7, [sp], #4
    93b6:	4770      	bx	lr

000093b8 <LPSPI_SetOnePcsPolarity>:
    93b8:	b480      	push	{r7}
    93ba:	b085      	sub	sp, #20
    93bc:	af00      	add	r7, sp, #0
    93be:	6078      	str	r0, [r7, #4]
    93c0:	460b      	mov	r3, r1
    93c2:	70fb      	strb	r3, [r7, #3]
    93c4:	4613      	mov	r3, r2
    93c6:	70bb      	strb	r3, [r7, #2]
    93c8:	2300      	movs	r3, #0
    93ca:	60fb      	str	r3, [r7, #12]
    93cc:	687b      	ldr	r3, [r7, #4]
    93ce:	6a5a      	ldr	r2, [r3, #36]	; 0x24
    93d0:	78fb      	ldrb	r3, [r7, #3]
    93d2:	3308      	adds	r3, #8
    93d4:	2101      	movs	r1, #1
    93d6:	fa01 f303 	lsl.w	r3, r1, r3
    93da:	43db      	mvns	r3, r3
    93dc:	4013      	ands	r3, r2
    93de:	60fb      	str	r3, [r7, #12]
    93e0:	78ba      	ldrb	r2, [r7, #2]
    93e2:	78fb      	ldrb	r3, [r7, #3]
    93e4:	3308      	adds	r3, #8
    93e6:	409a      	lsls	r2, r3
    93e8:	68fb      	ldr	r3, [r7, #12]
    93ea:	431a      	orrs	r2, r3
    93ec:	687b      	ldr	r3, [r7, #4]
    93ee:	625a      	str	r2, [r3, #36]	; 0x24
    93f0:	bf00      	nop
    93f2:	3714      	adds	r7, #20
    93f4:	46bd      	mov	sp, r7
    93f6:	f85d 7b04 	ldr.w	r7, [sp], #4
    93fa:	4770      	bx	lr

000093fc <CLOCK_EnableClock>:
    93fc:	b580      	push	{r7, lr}
    93fe:	b082      	sub	sp, #8
    9400:	af00      	add	r7, sp, #0
    9402:	4603      	mov	r3, r0
    9404:	80fb      	strh	r3, [r7, #6]
    9406:	f9b7 3006 	ldrsh.w	r3, [r7, #6]
    940a:	2103      	movs	r1, #3
    940c:	4618      	mov	r0, r3
    940e:	f7fc fa0d 	bl	582c <CLOCK_ControlGate>
    9412:	bf00      	nop
    9414:	3708      	adds	r7, #8
    9416:	46bd      	mov	sp, r7
    9418:	bd80      	pop	{r7, pc}

0000941a <LPSPI_Enable>:
    941a:	b480      	push	{r7}
    941c:	b083      	sub	sp, #12
    941e:	af00      	add	r7, sp, #0
    9420:	6078      	str	r0, [r7, #4]
    9422:	460b      	mov	r3, r1
    9424:	70fb      	strb	r3, [r7, #3]
    9426:	78fb      	ldrb	r3, [r7, #3]
    9428:	2b00      	cmp	r3, #0
    942a:	d006      	beq.n	943a <LPSPI_Enable+0x20>
    942c:	687b      	ldr	r3, [r7, #4]
    942e:	691b      	ldr	r3, [r3, #16]
    9430:	f043 0201 	orr.w	r2, r3, #1
    9434:	687b      	ldr	r3, [r7, #4]
    9436:	611a      	str	r2, [r3, #16]
    9438:	e005      	b.n	9446 <LPSPI_Enable+0x2c>
    943a:	687b      	ldr	r3, [r7, #4]
    943c:	691b      	ldr	r3, [r3, #16]
    943e:	f023 0201 	bic.w	r2, r3, #1
    9442:	687b      	ldr	r3, [r7, #4]
    9444:	611a      	str	r2, [r3, #16]
    9446:	bf00      	nop
    9448:	370c      	adds	r7, #12
    944a:	46bd      	mov	sp, r7
    944c:	f85d 7b04 	ldr.w	r7, [sp], #4
    9450:	4770      	bx	lr

00009452 <LPSPI_SetMasterSlaveMode>:
    9452:	b480      	push	{r7}
    9454:	b083      	sub	sp, #12
    9456:	af00      	add	r7, sp, #0
    9458:	6078      	str	r0, [r7, #4]
    945a:	460b      	mov	r3, r1
    945c:	70fb      	strb	r3, [r7, #3]
    945e:	687b      	ldr	r3, [r7, #4]
    9460:	6a5b      	ldr	r3, [r3, #36]	; 0x24
    9462:	f023 0201 	bic.w	r2, r3, #1
    9466:	78fb      	ldrb	r3, [r7, #3]
    9468:	f003 0301 	and.w	r3, r3, #1
    946c:	431a      	orrs	r2, r3
    946e:	687b      	ldr	r3, [r7, #4]
    9470:	625a      	str	r2, [r3, #36]	; 0x24
    9472:	bf00      	nop
    9474:	370c      	adds	r7, #12
    9476:	46bd      	mov	sp, r7
    9478:	f85d 7b04 	ldr.w	r7, [sp], #4
    947c:	4770      	bx	lr

0000947e <LPSPI_IsMaster>:
    947e:	b480      	push	{r7}
    9480:	b083      	sub	sp, #12
    9482:	af00      	add	r7, sp, #0
    9484:	6078      	str	r0, [r7, #4]
    9486:	687b      	ldr	r3, [r7, #4]
    9488:	6a5b      	ldr	r3, [r3, #36]	; 0x24
    948a:	f003 0301 	and.w	r3, r3, #1
    948e:	2b00      	cmp	r3, #0
    9490:	bf14      	ite	ne
    9492:	2301      	movne	r3, #1
    9494:	2300      	moveq	r3, #0
    9496:	b2db      	uxtb	r3, r3
    9498:	4618      	mov	r0, r3
    949a:	370c      	adds	r7, #12
    949c:	46bd      	mov	sp, r7
    949e:	f85d 7b04 	ldr.w	r7, [sp], #4
    94a2:	4770      	bx	lr

000094a4 <LPSPI_CommonControl>:
    94a4:	b590      	push	{r4, r7, lr}
    94a6:	b08f      	sub	sp, #60	; 0x3c
    94a8:	af00      	add	r7, sp, #0
    94aa:	60f8      	str	r0, [r7, #12]
    94ac:	60b9      	str	r1, [r7, #8]
    94ae:	607a      	str	r2, [r7, #4]
    94b0:	603b      	str	r3, [r7, #0]
    94b2:	f107 031c 	add.w	r3, r7, #28
    94b6:	4618      	mov	r0, r3
    94b8:	f7fa fef2 	bl	42a0 <LPSPI_MasterGetDefaultConfig>
    94bc:	f107 0310 	add.w	r3, r7, #16
    94c0:	4618      	mov	r0, r3
    94c2:	f7fa ff99 	bl	43f8 <LPSPI_SlaveGetDefaultConfig>
    94c6:	68bb      	ldr	r3, [r7, #8]
    94c8:	61fb      	str	r3, [r7, #28]
    94ca:	68fb      	ldr	r3, [r7, #12]
    94cc:	b2db      	uxtb	r3, r3
    94ce:	2b03      	cmp	r3, #3
    94d0:	d102      	bne.n	94d8 <LPSPI_CommonControl+0x34>
    94d2:	2302      	movs	r3, #2
    94d4:	f887 3036 	strb.w	r3, [r7, #54]	; 0x36
    94d8:	68fb      	ldr	r3, [r7, #12]
    94da:	b2db      	uxtb	r3, r3
    94dc:	2b04      	cmp	r3, #4
    94de:	d101      	bne.n	94e4 <LPSPI_CommonControl+0x40>
    94e0:	2301      	movs	r3, #1
    94e2:	767b      	strb	r3, [r7, #25]
    94e4:	687b      	ldr	r3, [r7, #4]
    94e6:	685b      	ldr	r3, [r3, #4]
    94e8:	2b01      	cmp	r3, #1
    94ea:	d108      	bne.n	94fe <LPSPI_CommonControl+0x5a>
    94ec:	f44f 737a 	mov.w	r3, #1000	; 0x3e8
    94f0:	62bb      	str	r3, [r7, #40]	; 0x28
    94f2:	f44f 737a 	mov.w	r3, #1000	; 0x3e8
    94f6:	62fb      	str	r3, [r7, #44]	; 0x2c
    94f8:	f44f 737a 	mov.w	r3, #1000	; 0x3e8
    94fc:	633b      	str	r3, [r7, #48]	; 0x30
    94fe:	687b      	ldr	r3, [r7, #4]
    9500:	685b      	ldr	r3, [r3, #4]
    9502:	2b02      	cmp	r3, #2
    9504:	d108      	bne.n	9518 <LPSPI_CommonControl+0x74>
    9506:	f44f 737a 	mov.w	r3, #1000	; 0x3e8
    950a:	62bb      	str	r3, [r7, #40]	; 0x28
    950c:	f44f 737a 	mov.w	r3, #1000	; 0x3e8
    9510:	62fb      	str	r3, [r7, #44]	; 0x2c
    9512:	f44f 737a 	mov.w	r3, #1000	; 0x3e8
    9516:	633b      	str	r3, [r7, #48]	; 0x30
    9518:	687b      	ldr	r3, [r7, #4]
    951a:	685b      	ldr	r3, [r3, #4]
    951c:	2b03      	cmp	r3, #3
    951e:	d108      	bne.n	9532 <LPSPI_CommonControl+0x8e>
    9520:	f44f 737a 	mov.w	r3, #1000	; 0x3e8
    9524:	62bb      	str	r3, [r7, #40]	; 0x28
    9526:	f44f 737a 	mov.w	r3, #1000	; 0x3e8
    952a:	62fb      	str	r3, [r7, #44]	; 0x2c
    952c:	f44f 737a 	mov.w	r3, #1000	; 0x3e8
    9530:	633b      	str	r3, [r7, #48]	; 0x30
    9532:	687b      	ldr	r3, [r7, #4]
    9534:	685b      	ldr	r3, [r3, #4]
    9536:	2b04      	cmp	r3, #4
    9538:	d108      	bne.n	954c <LPSPI_CommonControl+0xa8>
    953a:	f44f 737a 	mov.w	r3, #1000	; 0x3e8
    953e:	62bb      	str	r3, [r7, #40]	; 0x28
    9540:	f44f 737a 	mov.w	r3, #1000	; 0x3e8
    9544:	62fb      	str	r3, [r7, #44]	; 0x2c
    9546:	f44f 737a 	mov.w	r3, #1000	; 0x3e8
    954a:	633b      	str	r3, [r7, #48]	; 0x30
    954c:	68fb      	ldr	r3, [r7, #12]
    954e:	f403 63e0 	and.w	r3, r3, #1792	; 0x700
    9552:	f5b3 7f80 	cmp.w	r3, #256	; 0x100
    9556:	d020      	beq.n	959a <LPSPI_CommonControl+0xf6>
    9558:	f5b3 7f80 	cmp.w	r3, #256	; 0x100
    955c:	d802      	bhi.n	9564 <LPSPI_CommonControl+0xc0>
    955e:	2b00      	cmp	r3, #0
    9560:	d007      	beq.n	9572 <LPSPI_CommonControl+0xce>
    9562:	e056      	b.n	9612 <LPSPI_CommonControl+0x16e>
    9564:	f5b3 7f00 	cmp.w	r3, #512	; 0x200
    9568:	d02b      	beq.n	95c2 <LPSPI_CommonControl+0x11e>
    956a:	f5b3 7f40 	cmp.w	r3, #768	; 0x300
    956e:	d03c      	beq.n	95ea <LPSPI_CommonControl+0x146>
    9570:	e04f      	b.n	9612 <LPSPI_CommonControl+0x16e>
    9572:	687b      	ldr	r3, [r7, #4]
    9574:	681b      	ldr	r3, [r3, #0]
    9576:	4618      	mov	r0, r3
    9578:	f7ff ff81 	bl	947e <LPSPI_IsMaster>
    957c:	4603      	mov	r3, r0
    957e:	2b00      	cmp	r3, #0
    9580:	d006      	beq.n	9590 <LPSPI_CommonControl+0xec>
    9582:	2300      	movs	r3, #0
    9584:	f887 3024 	strb.w	r3, [r7, #36]	; 0x24
    9588:	2300      	movs	r3, #0
    958a:	f887 3025 	strb.w	r3, [r7, #37]	; 0x25
    958e:	e040      	b.n	9612 <LPSPI_CommonControl+0x16e>
    9590:	2300      	movs	r3, #0
    9592:	753b      	strb	r3, [r7, #20]
    9594:	2300      	movs	r3, #0
    9596:	757b      	strb	r3, [r7, #21]
    9598:	e03b      	b.n	9612 <LPSPI_CommonControl+0x16e>
    959a:	687b      	ldr	r3, [r7, #4]
    959c:	681b      	ldr	r3, [r3, #0]
    959e:	4618      	mov	r0, r3
    95a0:	f7ff ff6d 	bl	947e <LPSPI_IsMaster>
    95a4:	4603      	mov	r3, r0
    95a6:	2b00      	cmp	r3, #0
    95a8:	d006      	beq.n	95b8 <LPSPI_CommonControl+0x114>
    95aa:	2300      	movs	r3, #0
    95ac:	f887 3024 	strb.w	r3, [r7, #36]	; 0x24
    95b0:	2301      	movs	r3, #1
    95b2:	f887 3025 	strb.w	r3, [r7, #37]	; 0x25
    95b6:	e02c      	b.n	9612 <LPSPI_CommonControl+0x16e>
    95b8:	2300      	movs	r3, #0
    95ba:	753b      	strb	r3, [r7, #20]
    95bc:	2301      	movs	r3, #1
    95be:	757b      	strb	r3, [r7, #21]
    95c0:	e027      	b.n	9612 <LPSPI_CommonControl+0x16e>
    95c2:	687b      	ldr	r3, [r7, #4]
    95c4:	681b      	ldr	r3, [r3, #0]
    95c6:	4618      	mov	r0, r3
    95c8:	f7ff ff59 	bl	947e <LPSPI_IsMaster>
    95cc:	4603      	mov	r3, r0
    95ce:	2b00      	cmp	r3, #0
    95d0:	d006      	beq.n	95e0 <LPSPI_CommonControl+0x13c>
    95d2:	2301      	movs	r3, #1
    95d4:	f887 3024 	strb.w	r3, [r7, #36]	; 0x24
    95d8:	2300      	movs	r3, #0
    95da:	f887 3025 	strb.w	r3, [r7, #37]	; 0x25
    95de:	e018      	b.n	9612 <LPSPI_CommonControl+0x16e>
    95e0:	2301      	movs	r3, #1
    95e2:	753b      	strb	r3, [r7, #20]
    95e4:	2300      	movs	r3, #0
    95e6:	757b      	strb	r3, [r7, #21]
    95e8:	e013      	b.n	9612 <LPSPI_CommonControl+0x16e>
    95ea:	687b      	ldr	r3, [r7, #4]
    95ec:	681b      	ldr	r3, [r3, #0]
    95ee:	4618      	mov	r0, r3
    95f0:	f7ff ff45 	bl	947e <LPSPI_IsMaster>
    95f4:	4603      	mov	r3, r0
    95f6:	2b00      	cmp	r3, #0
    95f8:	d006      	beq.n	9608 <LPSPI_CommonControl+0x164>
    95fa:	2301      	movs	r3, #1
    95fc:	f887 3024 	strb.w	r3, [r7, #36]	; 0x24
    9600:	2301      	movs	r3, #1
    9602:	f887 3025 	strb.w	r3, [r7, #37]	; 0x25
    9606:	e003      	b.n	9610 <LPSPI_CommonControl+0x16c>
    9608:	2301      	movs	r3, #1
    960a:	753b      	strb	r3, [r7, #20]
    960c:	2301      	movs	r3, #1
    960e:	757b      	strb	r3, [r7, #21]
    9610:	bf00      	nop
    9612:	68fb      	ldr	r3, [r7, #12]
    9614:	f403 337c 	and.w	r3, r3, #258048	; 0x3f000
    9618:	2b00      	cmp	r3, #0
    961a:	d01c      	beq.n	9656 <LPSPI_CommonControl+0x1b2>
    961c:	68fb      	ldr	r3, [r7, #12]
    961e:	0b1b      	lsrs	r3, r3, #12
    9620:	f003 0338 	and.w	r3, r3, #56	; 0x38
    9624:	2b00      	cmp	r3, #0
    9626:	d013      	beq.n	9650 <LPSPI_CommonControl+0x1ac>
    9628:	687b      	ldr	r3, [r7, #4]
    962a:	681b      	ldr	r3, [r3, #0]
    962c:	4618      	mov	r0, r3
    962e:	f7ff ff26 	bl	947e <LPSPI_IsMaster>
    9632:	4603      	mov	r3, r0
    9634:	2b00      	cmp	r3, #0
    9636:	d005      	beq.n	9644 <LPSPI_CommonControl+0x1a0>
    9638:	68fb      	ldr	r3, [r7, #12]
    963a:	0b1b      	lsrs	r3, r3, #12
    963c:	f003 033f 	and.w	r3, r3, #63	; 0x3f
    9640:	623b      	str	r3, [r7, #32]
    9642:	e008      	b.n	9656 <LPSPI_CommonControl+0x1b2>
    9644:	68fb      	ldr	r3, [r7, #12]
    9646:	0b1b      	lsrs	r3, r3, #12
    9648:	f003 033f 	and.w	r3, r3, #63	; 0x3f
    964c:	613b      	str	r3, [r7, #16]
    964e:	e002      	b.n	9656 <LPSPI_CommonControl+0x1b2>
    9650:	f06f 0308 	mvn.w	r3, #8
    9654:	e097      	b.n	9786 <LPSPI_CommonControl+0x2e2>
    9656:	68fb      	ldr	r3, [r7, #12]
    9658:	f403 2380 	and.w	r3, r3, #262144	; 0x40000
    965c:	2b00      	cmp	r3, #0
    965e:	d011      	beq.n	9684 <LPSPI_CommonControl+0x1e0>
    9660:	f5b3 2f80 	cmp.w	r3, #262144	; 0x40000
    9664:	d11d      	bne.n	96a2 <LPSPI_CommonControl+0x1fe>
    9666:	687b      	ldr	r3, [r7, #4]
    9668:	681b      	ldr	r3, [r3, #0]
    966a:	4618      	mov	r0, r3
    966c:	f7ff ff07 	bl	947e <LPSPI_IsMaster>
    9670:	4603      	mov	r3, r0
    9672:	2b00      	cmp	r3, #0
    9674:	d003      	beq.n	967e <LPSPI_CommonControl+0x1da>
    9676:	2301      	movs	r3, #1
    9678:	f887 3026 	strb.w	r3, [r7, #38]	; 0x26
    967c:	e012      	b.n	96a4 <LPSPI_CommonControl+0x200>
    967e:	2301      	movs	r3, #1
    9680:	75bb      	strb	r3, [r7, #22]
    9682:	e00f      	b.n	96a4 <LPSPI_CommonControl+0x200>
    9684:	687b      	ldr	r3, [r7, #4]
    9686:	681b      	ldr	r3, [r3, #0]
    9688:	4618      	mov	r0, r3
    968a:	f7ff fef8 	bl	947e <LPSPI_IsMaster>
    968e:	4603      	mov	r3, r0
    9690:	2b00      	cmp	r3, #0
    9692:	d003      	beq.n	969c <LPSPI_CommonControl+0x1f8>
    9694:	2300      	movs	r3, #0
    9696:	f887 3026 	strb.w	r3, [r7, #38]	; 0x26
    969a:	e003      	b.n	96a4 <LPSPI_CommonControl+0x200>
    969c:	2300      	movs	r3, #0
    969e:	75bb      	strb	r3, [r7, #22]
    96a0:	e000      	b.n	96a4 <LPSPI_CommonControl+0x200>
    96a2:	bf00      	nop
    96a4:	687b      	ldr	r3, [r7, #4]
    96a6:	681b      	ldr	r3, [r3, #0]
    96a8:	4618      	mov	r0, r3
    96aa:	f7ff fee8 	bl	947e <LPSPI_IsMaster>
    96ae:	4603      	mov	r3, r0
    96b0:	2b00      	cmp	r3, #0
    96b2:	d012      	beq.n	96da <LPSPI_CommonControl+0x236>
    96b4:	68fb      	ldr	r3, [r7, #12]
    96b6:	f403 13c0 	and.w	r3, r3, #1572864	; 0x180000
    96ba:	f5b3 2f00 	cmp.w	r3, #524288	; 0x80000
    96be:	d015      	beq.n	96ec <LPSPI_CommonControl+0x248>
    96c0:	f5b3 2f00 	cmp.w	r3, #524288	; 0x80000
    96c4:	d802      	bhi.n	96cc <LPSPI_CommonControl+0x228>
    96c6:	2b00      	cmp	r3, #0
    96c8:	d012      	beq.n	96f0 <LPSPI_CommonControl+0x24c>
    96ca:	e01a      	b.n	9702 <LPSPI_CommonControl+0x25e>
    96cc:	f5b3 1f80 	cmp.w	r3, #1048576	; 0x100000
    96d0:	d010      	beq.n	96f4 <LPSPI_CommonControl+0x250>
    96d2:	f5b3 1fc0 	cmp.w	r3, #1572864	; 0x180000
    96d6:	d00f      	beq.n	96f8 <LPSPI_CommonControl+0x254>
    96d8:	e013      	b.n	9702 <LPSPI_CommonControl+0x25e>
    96da:	68fb      	ldr	r3, [r7, #12]
    96dc:	f403 1300 	and.w	r3, r3, #2097152	; 0x200000
    96e0:	2b00      	cmp	r3, #0
    96e2:	d00b      	beq.n	96fc <LPSPI_CommonControl+0x258>
    96e4:	f5b3 1f00 	cmp.w	r3, #2097152	; 0x200000
    96e8:	d00a      	beq.n	9700 <LPSPI_CommonControl+0x25c>
    96ea:	e00a      	b.n	9702 <LPSPI_CommonControl+0x25e>
    96ec:	bf00      	nop
    96ee:	e008      	b.n	9702 <LPSPI_CommonControl+0x25e>
    96f0:	bf00      	nop
    96f2:	e006      	b.n	9702 <LPSPI_CommonControl+0x25e>
    96f4:	bf00      	nop
    96f6:	e004      	b.n	9702 <LPSPI_CommonControl+0x25e>
    96f8:	bf00      	nop
    96fa:	e002      	b.n	9702 <LPSPI_CommonControl+0x25e>
    96fc:	bf00      	nop
    96fe:	e000      	b.n	9702 <LPSPI_CommonControl+0x25e>
    9700:	bf00      	nop
    9702:	687b      	ldr	r3, [r7, #4]
    9704:	681b      	ldr	r3, [r3, #0]
    9706:	4618      	mov	r0, r3
    9708:	f7ff feb9 	bl	947e <LPSPI_IsMaster>
    970c:	4603      	mov	r3, r0
    970e:	2b00      	cmp	r3, #0
    9710:	d01e      	beq.n	9750 <LPSPI_CommonControl+0x2ac>
    9712:	683b      	ldr	r3, [r7, #0]
    9714:	781b      	ldrb	r3, [r3, #0]
    9716:	f003 0304 	and.w	r3, r3, #4
    971a:	2b00      	cmp	r3, #0
    971c:	d004      	beq.n	9728 <LPSPI_CommonControl+0x284>
    971e:	687b      	ldr	r3, [r7, #4]
    9720:	681b      	ldr	r3, [r3, #0]
    9722:	4618      	mov	r0, r3
    9724:	f7fa fe96 	bl	4454 <LPSPI_Deinit>
    9728:	687b      	ldr	r3, [r7, #4]
    972a:	681c      	ldr	r4, [r3, #0]
    972c:	687b      	ldr	r3, [r7, #4]
    972e:	689b      	ldr	r3, [r3, #8]
    9730:	4798      	blx	r3
    9732:	4602      	mov	r2, r0
    9734:	f107 031c 	add.w	r3, r7, #28
    9738:	4619      	mov	r1, r3
    973a:	4620      	mov	r0, r4
    973c:	f7fa fd22 	bl	4184 <LPSPI_MasterInit>
    9740:	683b      	ldr	r3, [r7, #0]
    9742:	781b      	ldrb	r3, [r3, #0]
    9744:	f043 0304 	orr.w	r3, r3, #4
    9748:	b2da      	uxtb	r2, r3
    974a:	683b      	ldr	r3, [r7, #0]
    974c:	701a      	strb	r2, [r3, #0]
    974e:	e019      	b.n	9784 <LPSPI_CommonControl+0x2e0>
    9750:	683b      	ldr	r3, [r7, #0]
    9752:	781b      	ldrb	r3, [r3, #0]
    9754:	f003 0304 	and.w	r3, r3, #4
    9758:	2b00      	cmp	r3, #0
    975a:	d004      	beq.n	9766 <LPSPI_CommonControl+0x2c2>
    975c:	687b      	ldr	r3, [r7, #4]
    975e:	681b      	ldr	r3, [r3, #0]
    9760:	4618      	mov	r0, r3
    9762:	f7fa fe77 	bl	4454 <LPSPI_Deinit>
    9766:	687b      	ldr	r3, [r7, #4]
    9768:	681b      	ldr	r3, [r3, #0]
    976a:	f107 0210 	add.w	r2, r7, #16
    976e:	4611      	mov	r1, r2
    9770:	4618      	mov	r0, r3
    9772:	f7fa fde1 	bl	4338 <LPSPI_SlaveInit>
    9776:	683b      	ldr	r3, [r7, #0]
    9778:	781b      	ldrb	r3, [r3, #0]
    977a:	f043 0304 	orr.w	r3, r3, #4
    977e:	b2da      	uxtb	r2, r3
    9780:	683b      	ldr	r3, [r7, #0]
    9782:	701a      	strb	r2, [r3, #0]
    9784:	2300      	movs	r3, #0
    9786:	4618      	mov	r0, r3
    9788:	373c      	adds	r7, #60	; 0x3c
    978a:	46bd      	mov	sp, r7
    978c:	bd90      	pop	{r4, r7, pc}

0000978e <LPSPI_SetTransferConfigFlags>:
    978e:	b480      	push	{r7}
    9790:	b085      	sub	sp, #20
    9792:	af00      	add	r7, sp, #0
    9794:	4603      	mov	r3, r0
    9796:	60b9      	str	r1, [r7, #8]
    9798:	607a      	str	r2, [r7, #4]
    979a:	73fb      	strb	r3, [r7, #15]
    979c:	7bfb      	ldrb	r3, [r7, #15]
    979e:	2b00      	cmp	r3, #0
    97a0:	d020      	beq.n	97e4 <LPSPI_SetTransferConfigFlags+0x56>
    97a2:	687b      	ldr	r3, [r7, #4]
    97a4:	f44f 02a0 	mov.w	r2, #5242880	; 0x500000
    97a8:	60da      	str	r2, [r3, #12]
    97aa:	68bb      	ldr	r3, [r7, #8]
    97ac:	2b01      	cmp	r3, #1
    97ae:	d103      	bne.n	97b8 <LPSPI_SetTransferConfigFlags+0x2a>
    97b0:	687b      	ldr	r3, [r7, #4]
    97b2:	f44f 02a0 	mov.w	r2, #5242880	; 0x500000
    97b6:	60da      	str	r2, [r3, #12]
    97b8:	68bb      	ldr	r3, [r7, #8]
    97ba:	2b02      	cmp	r3, #2
    97bc:	d103      	bne.n	97c6 <LPSPI_SetTransferConfigFlags+0x38>
    97be:	687b      	ldr	r3, [r7, #4]
    97c0:	f44f 02a0 	mov.w	r2, #5242880	; 0x500000
    97c4:	60da      	str	r2, [r3, #12]
    97c6:	68bb      	ldr	r3, [r7, #8]
    97c8:	2b03      	cmp	r3, #3
    97ca:	d103      	bne.n	97d4 <LPSPI_SetTransferConfigFlags+0x46>
    97cc:	687b      	ldr	r3, [r7, #4]
    97ce:	f44f 02a0 	mov.w	r2, #5242880	; 0x500000
    97d2:	60da      	str	r2, [r3, #12]
    97d4:	68bb      	ldr	r3, [r7, #8]
    97d6:	2b04      	cmp	r3, #4
    97d8:	d124      	bne.n	9824 <LPSPI_SetTransferConfigFlags+0x96>
    97da:	687b      	ldr	r3, [r7, #4]
    97dc:	f44f 02a0 	mov.w	r2, #5242880	; 0x500000
    97e0:	60da      	str	r2, [r3, #12]
    97e2:	e01f      	b.n	9824 <LPSPI_SetTransferConfigFlags+0x96>
    97e4:	687b      	ldr	r3, [r7, #4]
    97e6:	f44f 0280 	mov.w	r2, #4194304	; 0x400000
    97ea:	60da      	str	r2, [r3, #12]
    97ec:	68bb      	ldr	r3, [r7, #8]
    97ee:	2b01      	cmp	r3, #1
    97f0:	d103      	bne.n	97fa <LPSPI_SetTransferConfigFlags+0x6c>
    97f2:	687b      	ldr	r3, [r7, #4]
    97f4:	f44f 0280 	mov.w	r2, #4194304	; 0x400000
    97f8:	60da      	str	r2, [r3, #12]
    97fa:	68bb      	ldr	r3, [r7, #8]
    97fc:	2b02      	cmp	r3, #2
    97fe:	d103      	bne.n	9808 <LPSPI_SetTransferConfigFlags+0x7a>
    9800:	687b      	ldr	r3, [r7, #4]
    9802:	f44f 0280 	mov.w	r2, #4194304	; 0x400000
    9806:	60da      	str	r2, [r3, #12]
    9808:	68bb      	ldr	r3, [r7, #8]
    980a:	2b03      	cmp	r3, #3
    980c:	d103      	bne.n	9816 <LPSPI_SetTransferConfigFlags+0x88>
    980e:	687b      	ldr	r3, [r7, #4]
    9810:	f44f 0280 	mov.w	r2, #4194304	; 0x400000
    9814:	60da      	str	r2, [r3, #12]
    9816:	68bb      	ldr	r3, [r7, #8]
    9818:	2b04      	cmp	r3, #4
    981a:	d103      	bne.n	9824 <LPSPI_SetTransferConfigFlags+0x96>
    981c:	687b      	ldr	r3, [r7, #4]
    981e:	f44f 0280 	mov.w	r2, #4194304	; 0x400000
    9822:	60da      	str	r2, [r3, #12]
    9824:	bf00      	nop
    9826:	3714      	adds	r7, #20
    9828:	46bd      	mov	sp, r7
    982a:	f85d 7b04 	ldr.w	r7, [sp], #4
    982e:	4770      	bx	lr

00009830 <LPSPIx_GetCapabilities>:
    9830:	b480      	push	{r7}
    9832:	af00      	add	r7, sp, #0
    9834:	2300      	movs	r3, #0
    9836:	f043 0301 	orr.w	r3, r3, #1
    983a:	4618      	mov	r0, r3
    983c:	46bd      	mov	sp, r7
    983e:	f85d 7b04 	ldr.w	r7, [sp], #4
    9842:	4770      	bx	lr

00009844 <KSDK_LPSPI_MasterInterruptCallback>:
    9844:	b580      	push	{r7, lr}
    9846:	b086      	sub	sp, #24
    9848:	af00      	add	r7, sp, #0
    984a:	60f8      	str	r0, [r7, #12]
    984c:	60b9      	str	r1, [r7, #8]
    984e:	607a      	str	r2, [r7, #4]
    9850:	603b      	str	r3, [r7, #0]
    9852:	2300      	movs	r3, #0
    9854:	617b      	str	r3, [r7, #20]
    9856:	687b      	ldr	r3, [r7, #4]
    9858:	2b00      	cmp	r3, #0
    985a:	d102      	bne.n	9862 <KSDK_LPSPI_MasterInterruptCallback+0x1e>
    985c:	2301      	movs	r3, #1
    985e:	617b      	str	r3, [r7, #20]
    9860:	e008      	b.n	9874 <KSDK_LPSPI_MasterInterruptCallback+0x30>
    9862:	687b      	ldr	r3, [r7, #4]
    9864:	f240 1291 	movw	r2, #401	; 0x191
    9868:	4293      	cmp	r3, r2
    986a:	d102      	bne.n	9872 <KSDK_LPSPI_MasterInterruptCallback+0x2e>
    986c:	2302      	movs	r3, #2
    986e:	617b      	str	r3, [r7, #20]
    9870:	e000      	b.n	9874 <KSDK_LPSPI_MasterInterruptCallback+0x30>
    9872:	bf00      	nop
    9874:	697b      	ldr	r3, [r7, #20]
    9876:	2b00      	cmp	r3, #0
    9878:	d005      	beq.n	9886 <KSDK_LPSPI_MasterInterruptCallback+0x42>
    987a:	683b      	ldr	r3, [r7, #0]
    987c:	2b00      	cmp	r3, #0
    987e:	d002      	beq.n	9886 <KSDK_LPSPI_MasterInterruptCallback+0x42>
    9880:	683b      	ldr	r3, [r7, #0]
    9882:	6978      	ldr	r0, [r7, #20]
    9884:	4798      	blx	r3
    9886:	bf00      	nop
    9888:	3718      	adds	r7, #24
    988a:	46bd      	mov	sp, r7
    988c:	bd80      	pop	{r7, pc}

0000988e <KSDK_LPSPI_SlaveInterruptCallback>:
    988e:	b580      	push	{r7, lr}
    9890:	b086      	sub	sp, #24
    9892:	af00      	add	r7, sp, #0
    9894:	60f8      	str	r0, [r7, #12]
    9896:	60b9      	str	r1, [r7, #8]
    9898:	607a      	str	r2, [r7, #4]
    989a:	603b      	str	r3, [r7, #0]
    989c:	2300      	movs	r3, #0
    989e:	617b      	str	r3, [r7, #20]
    98a0:	687b      	ldr	r3, [r7, #4]
    98a2:	2b00      	cmp	r3, #0
    98a4:	d101      	bne.n	98aa <KSDK_LPSPI_SlaveInterruptCallback+0x1c>
    98a6:	2301      	movs	r3, #1
    98a8:	617b      	str	r3, [r7, #20]
    98aa:	687b      	ldr	r3, [r7, #4]
    98ac:	f240 1291 	movw	r2, #401	; 0x191
    98b0:	4293      	cmp	r3, r2
    98b2:	d102      	bne.n	98ba <KSDK_LPSPI_SlaveInterruptCallback+0x2c>
    98b4:	2302      	movs	r3, #2
    98b6:	617b      	str	r3, [r7, #20]
    98b8:	e000      	b.n	98bc <KSDK_LPSPI_SlaveInterruptCallback+0x2e>
    98ba:	bf00      	nop
    98bc:	697b      	ldr	r3, [r7, #20]
    98be:	2b00      	cmp	r3, #0
    98c0:	d005      	beq.n	98ce <KSDK_LPSPI_SlaveInterruptCallback+0x40>
    98c2:	683b      	ldr	r3, [r7, #0]
    98c4:	2b00      	cmp	r3, #0
    98c6:	d002      	beq.n	98ce <KSDK_LPSPI_SlaveInterruptCallback+0x40>
    98c8:	683b      	ldr	r3, [r7, #0]
    98ca:	6978      	ldr	r0, [r7, #20]
    98cc:	4798      	blx	r3
    98ce:	bf00      	nop
    98d0:	3718      	adds	r7, #24
    98d2:	46bd      	mov	sp, r7
    98d4:	bd80      	pop	{r7, pc}

000098d6 <LPSPI_InterruptInitialize>:
    98d6:	b480      	push	{r7}
    98d8:	b083      	sub	sp, #12
    98da:	af00      	add	r7, sp, #0
    98dc:	6078      	str	r0, [r7, #4]
    98de:	6039      	str	r1, [r7, #0]
    98e0:	683b      	ldr	r3, [r7, #0]
    98e2:	7c1b      	ldrb	r3, [r3, #16]
    98e4:	f003 0301 	and.w	r3, r3, #1
    98e8:	2b00      	cmp	r3, #0
    98ea:	d105      	bne.n	98f8 <LPSPI_InterruptInitialize+0x22>
    98ec:	683b      	ldr	r3, [r7, #0]
    98ee:	687a      	ldr	r2, [r7, #4]
    98f0:	609a      	str	r2, [r3, #8]
    98f2:	683b      	ldr	r3, [r7, #0]
    98f4:	2201      	movs	r2, #1
    98f6:	741a      	strb	r2, [r3, #16]
    98f8:	2300      	movs	r3, #0
    98fa:	4618      	mov	r0, r3
    98fc:	370c      	adds	r7, #12
    98fe:	46bd      	mov	sp, r7
    9900:	f85d 7b04 	ldr.w	r7, [sp], #4
    9904:	4770      	bx	lr

00009906 <LPSPI_InterruptUninitialize>:
    9906:	b480      	push	{r7}
    9908:	b083      	sub	sp, #12
    990a:	af00      	add	r7, sp, #0
    990c:	6078      	str	r0, [r7, #4]
    990e:	687b      	ldr	r3, [r7, #4]
    9910:	2200      	movs	r2, #0
    9912:	741a      	strb	r2, [r3, #16]
    9914:	2300      	movs	r3, #0
    9916:	4618      	mov	r0, r3
    9918:	370c      	adds	r7, #12
    991a:	46bd      	mov	sp, r7
    991c:	f85d 7b04 	ldr.w	r7, [sp], #4
    9920:	4770      	bx	lr

00009922 <LPSPI_InterruptSend>:
    9922:	b580      	push	{r7, lr}
    9924:	b08a      	sub	sp, #40	; 0x28
    9926:	af00      	add	r7, sp, #0
    9928:	60f8      	str	r0, [r7, #12]
    992a:	60b9      	str	r1, [r7, #8]
    992c:	607a      	str	r2, [r7, #4]
    992e:	f107 0310 	add.w	r3, r7, #16
    9932:	2200      	movs	r2, #0
    9934:	601a      	str	r2, [r3, #0]
    9936:	605a      	str	r2, [r3, #4]
    9938:	609a      	str	r2, [r3, #8]
    993a:	60da      	str	r2, [r3, #12]
    993c:	2300      	movs	r3, #0
    993e:	617b      	str	r3, [r7, #20]
    9940:	68fb      	ldr	r3, [r7, #12]
    9942:	613b      	str	r3, [r7, #16]
    9944:	68bb      	ldr	r3, [r7, #8]
    9946:	61bb      	str	r3, [r7, #24]
    9948:	687b      	ldr	r3, [r7, #4]
    994a:	681b      	ldr	r3, [r3, #0]
    994c:	681b      	ldr	r3, [r3, #0]
    994e:	4618      	mov	r0, r3
    9950:	f7ff fd95 	bl	947e <LPSPI_IsMaster>
    9954:	4603      	mov	r3, r0
    9956:	4618      	mov	r0, r3
    9958:	687b      	ldr	r3, [r7, #4]
    995a:	681b      	ldr	r3, [r3, #0]
    995c:	685b      	ldr	r3, [r3, #4]
    995e:	f107 0210 	add.w	r2, r7, #16
    9962:	4619      	mov	r1, r3
    9964:	f7ff ff13 	bl	978e <LPSPI_SetTransferConfigFlags>
    9968:	687b      	ldr	r3, [r7, #4]
    996a:	681b      	ldr	r3, [r3, #0]
    996c:	681b      	ldr	r3, [r3, #0]
    996e:	4618      	mov	r0, r3
    9970:	f7ff fd85 	bl	947e <LPSPI_IsMaster>
    9974:	4603      	mov	r3, r0
    9976:	2b00      	cmp	r3, #0
    9978:	d00c      	beq.n	9994 <LPSPI_InterruptSend+0x72>
    997a:	687b      	ldr	r3, [r7, #4]
    997c:	681b      	ldr	r3, [r3, #0]
    997e:	6818      	ldr	r0, [r3, #0]
    9980:	687b      	ldr	r3, [r7, #4]
    9982:	685b      	ldr	r3, [r3, #4]
    9984:	4619      	mov	r1, r3
    9986:	f107 0310 	add.w	r3, r7, #16
    998a:	461a      	mov	r2, r3
    998c:	f7fa fea6 	bl	46dc <LPSPI_MasterTransferNonBlocking>
    9990:	6238      	str	r0, [r7, #32]
    9992:	e00b      	b.n	99ac <LPSPI_InterruptSend+0x8a>
    9994:	687b      	ldr	r3, [r7, #4]
    9996:	681b      	ldr	r3, [r3, #0]
    9998:	6818      	ldr	r0, [r3, #0]
    999a:	687b      	ldr	r3, [r7, #4]
    999c:	685b      	ldr	r3, [r3, #4]
    999e:	4619      	mov	r1, r3
    99a0:	f107 0310 	add.w	r3, r7, #16
    99a4:	461a      	mov	r2, r3
    99a6:	f7fb f9db 	bl	4d60 <LPSPI_SlaveTransferNonBlocking>
    99aa:	6238      	str	r0, [r7, #32]
    99ac:	6a3b      	ldr	r3, [r7, #32]
    99ae:	2b04      	cmp	r3, #4
    99b0:	d009      	beq.n	99c6 <LPSPI_InterruptSend+0xa4>
    99b2:	6a3b      	ldr	r3, [r7, #32]
    99b4:	f5b3 7fc8 	cmp.w	r3, #400	; 0x190
    99b8:	d009      	beq.n	99ce <LPSPI_InterruptSend+0xac>
    99ba:	6a3b      	ldr	r3, [r7, #32]
    99bc:	2b00      	cmp	r3, #0
    99be:	d10a      	bne.n	99d6 <LPSPI_InterruptSend+0xb4>
    99c0:	2300      	movs	r3, #0
    99c2:	627b      	str	r3, [r7, #36]	; 0x24
    99c4:	e00b      	b.n	99de <LPSPI_InterruptSend+0xbc>
    99c6:	f06f 0304 	mvn.w	r3, #4
    99ca:	627b      	str	r3, [r7, #36]	; 0x24
    99cc:	e007      	b.n	99de <LPSPI_InterruptSend+0xbc>
    99ce:	f06f 0301 	mvn.w	r3, #1
    99d2:	627b      	str	r3, [r7, #36]	; 0x24
    99d4:	e003      	b.n	99de <LPSPI_InterruptSend+0xbc>
    99d6:	f04f 33ff 	mov.w	r3, #4294967295
    99da:	627b      	str	r3, [r7, #36]	; 0x24
    99dc:	bf00      	nop
    99de:	6a7b      	ldr	r3, [r7, #36]	; 0x24
    99e0:	4618      	mov	r0, r3
    99e2:	3728      	adds	r7, #40	; 0x28
    99e4:	46bd      	mov	sp, r7
    99e6:	bd80      	pop	{r7, pc}

000099e8 <LPSPI_InterruptReceive>:
    99e8:	b580      	push	{r7, lr}
    99ea:	b08a      	sub	sp, #40	; 0x28
    99ec:	af00      	add	r7, sp, #0
    99ee:	60f8      	str	r0, [r7, #12]
    99f0:	60b9      	str	r1, [r7, #8]
    99f2:	607a      	str	r2, [r7, #4]
    99f4:	f107 0310 	add.w	r3, r7, #16
    99f8:	2200      	movs	r2, #0
    99fa:	601a      	str	r2, [r3, #0]
    99fc:	605a      	str	r2, [r3, #4]
    99fe:	609a      	str	r2, [r3, #8]
    9a00:	60da      	str	r2, [r3, #12]
    9a02:	2300      	movs	r3, #0
    9a04:	613b      	str	r3, [r7, #16]
    9a06:	68fb      	ldr	r3, [r7, #12]
    9a08:	617b      	str	r3, [r7, #20]
    9a0a:	68bb      	ldr	r3, [r7, #8]
    9a0c:	61bb      	str	r3, [r7, #24]
    9a0e:	687b      	ldr	r3, [r7, #4]
    9a10:	681b      	ldr	r3, [r3, #0]
    9a12:	681b      	ldr	r3, [r3, #0]
    9a14:	4618      	mov	r0, r3
    9a16:	f7ff fd32 	bl	947e <LPSPI_IsMaster>
    9a1a:	4603      	mov	r3, r0
    9a1c:	4618      	mov	r0, r3
    9a1e:	687b      	ldr	r3, [r7, #4]
    9a20:	681b      	ldr	r3, [r3, #0]
    9a22:	685b      	ldr	r3, [r3, #4]
    9a24:	f107 0210 	add.w	r2, r7, #16
    9a28:	4619      	mov	r1, r3
    9a2a:	f7ff feb0 	bl	978e <LPSPI_SetTransferConfigFlags>
    9a2e:	687b      	ldr	r3, [r7, #4]
    9a30:	681b      	ldr	r3, [r3, #0]
    9a32:	681b      	ldr	r3, [r3, #0]
    9a34:	4618      	mov	r0, r3
    9a36:	f7ff fd22 	bl	947e <LPSPI_IsMaster>
    9a3a:	4603      	mov	r3, r0
    9a3c:	2b00      	cmp	r3, #0
    9a3e:	d00c      	beq.n	9a5a <LPSPI_InterruptReceive+0x72>
    9a40:	687b      	ldr	r3, [r7, #4]
    9a42:	681b      	ldr	r3, [r3, #0]
    9a44:	6818      	ldr	r0, [r3, #0]
    9a46:	687b      	ldr	r3, [r7, #4]
    9a48:	685b      	ldr	r3, [r3, #4]
    9a4a:	4619      	mov	r1, r3
    9a4c:	f107 0310 	add.w	r3, r7, #16
    9a50:	461a      	mov	r2, r3
    9a52:	f7fa fe43 	bl	46dc <LPSPI_MasterTransferNonBlocking>
    9a56:	6238      	str	r0, [r7, #32]
    9a58:	e00b      	b.n	9a72 <LPSPI_InterruptReceive+0x8a>
    9a5a:	687b      	ldr	r3, [r7, #4]
    9a5c:	681b      	ldr	r3, [r3, #0]
    9a5e:	6818      	ldr	r0, [r3, #0]
    9a60:	687b      	ldr	r3, [r7, #4]
    9a62:	685b      	ldr	r3, [r3, #4]
    9a64:	4619      	mov	r1, r3
    9a66:	f107 0310 	add.w	r3, r7, #16
    9a6a:	461a      	mov	r2, r3
    9a6c:	f7fb f978 	bl	4d60 <LPSPI_SlaveTransferNonBlocking>
    9a70:	6238      	str	r0, [r7, #32]
    9a72:	6a3b      	ldr	r3, [r7, #32]
    9a74:	2b04      	cmp	r3, #4
    9a76:	d009      	beq.n	9a8c <LPSPI_InterruptReceive+0xa4>
    9a78:	6a3b      	ldr	r3, [r7, #32]
    9a7a:	f5b3 7fc8 	cmp.w	r3, #400	; 0x190
    9a7e:	d009      	beq.n	9a94 <LPSPI_InterruptReceive+0xac>
    9a80:	6a3b      	ldr	r3, [r7, #32]
    9a82:	2b00      	cmp	r3, #0
    9a84:	d10a      	bne.n	9a9c <LPSPI_InterruptReceive+0xb4>
    9a86:	2300      	movs	r3, #0
    9a88:	627b      	str	r3, [r7, #36]	; 0x24
    9a8a:	e00b      	b.n	9aa4 <LPSPI_InterruptReceive+0xbc>
    9a8c:	f06f 0304 	mvn.w	r3, #4
    9a90:	627b      	str	r3, [r7, #36]	; 0x24
    9a92:	e007      	b.n	9aa4 <LPSPI_InterruptReceive+0xbc>
    9a94:	f06f 0301 	mvn.w	r3, #1
    9a98:	627b      	str	r3, [r7, #36]	; 0x24
    9a9a:	e003      	b.n	9aa4 <LPSPI_InterruptReceive+0xbc>
    9a9c:	f04f 33ff 	mov.w	r3, #4294967295
    9aa0:	627b      	str	r3, [r7, #36]	; 0x24
    9aa2:	bf00      	nop
    9aa4:	6a7b      	ldr	r3, [r7, #36]	; 0x24
    9aa6:	4618      	mov	r0, r3
    9aa8:	3728      	adds	r7, #40	; 0x28
    9aaa:	46bd      	mov	sp, r7
    9aac:	bd80      	pop	{r7, pc}

00009aae <LPSPI_InterruptTransfer>:
    9aae:	b580      	push	{r7, lr}
    9ab0:	b08a      	sub	sp, #40	; 0x28
    9ab2:	af00      	add	r7, sp, #0
    9ab4:	60f8      	str	r0, [r7, #12]
    9ab6:	60b9      	str	r1, [r7, #8]
    9ab8:	607a      	str	r2, [r7, #4]
    9aba:	603b      	str	r3, [r7, #0]
    9abc:	f107 0310 	add.w	r3, r7, #16
    9ac0:	2200      	movs	r2, #0
    9ac2:	601a      	str	r2, [r3, #0]
    9ac4:	605a      	str	r2, [r3, #4]
    9ac6:	609a      	str	r2, [r3, #8]
    9ac8:	60da      	str	r2, [r3, #12]
    9aca:	68fb      	ldr	r3, [r7, #12]
    9acc:	613b      	str	r3, [r7, #16]
    9ace:	68bb      	ldr	r3, [r7, #8]
    9ad0:	617b      	str	r3, [r7, #20]
    9ad2:	687b      	ldr	r3, [r7, #4]
    9ad4:	61bb      	str	r3, [r7, #24]
    9ad6:	683b      	ldr	r3, [r7, #0]
    9ad8:	681b      	ldr	r3, [r3, #0]
    9ada:	681b      	ldr	r3, [r3, #0]
    9adc:	4618      	mov	r0, r3
    9ade:	f7ff fcce 	bl	947e <LPSPI_IsMaster>
    9ae2:	4603      	mov	r3, r0
    9ae4:	4618      	mov	r0, r3
    9ae6:	683b      	ldr	r3, [r7, #0]
    9ae8:	681b      	ldr	r3, [r3, #0]
    9aea:	685b      	ldr	r3, [r3, #4]
    9aec:	f107 0210 	add.w	r2, r7, #16
    9af0:	4619      	mov	r1, r3
    9af2:	f7ff fe4c 	bl	978e <LPSPI_SetTransferConfigFlags>
    9af6:	683b      	ldr	r3, [r7, #0]
    9af8:	681b      	ldr	r3, [r3, #0]
    9afa:	681b      	ldr	r3, [r3, #0]
    9afc:	4618      	mov	r0, r3
    9afe:	f7ff fcbe 	bl	947e <LPSPI_IsMaster>
    9b02:	4603      	mov	r3, r0
    9b04:	2b00      	cmp	r3, #0
    9b06:	d00c      	beq.n	9b22 <LPSPI_InterruptTransfer+0x74>
    9b08:	683b      	ldr	r3, [r7, #0]
    9b0a:	681b      	ldr	r3, [r3, #0]
    9b0c:	6818      	ldr	r0, [r3, #0]
    9b0e:	683b      	ldr	r3, [r7, #0]
    9b10:	685b      	ldr	r3, [r3, #4]
    9b12:	4619      	mov	r1, r3
    9b14:	f107 0310 	add.w	r3, r7, #16
    9b18:	461a      	mov	r2, r3
    9b1a:	f7fa fddf 	bl	46dc <LPSPI_MasterTransferNonBlocking>
    9b1e:	6238      	str	r0, [r7, #32]
    9b20:	e00b      	b.n	9b3a <LPSPI_InterruptTransfer+0x8c>
    9b22:	683b      	ldr	r3, [r7, #0]
    9b24:	681b      	ldr	r3, [r3, #0]
    9b26:	6818      	ldr	r0, [r3, #0]
    9b28:	683b      	ldr	r3, [r7, #0]
    9b2a:	685b      	ldr	r3, [r3, #4]
    9b2c:	4619      	mov	r1, r3
    9b2e:	f107 0310 	add.w	r3, r7, #16
    9b32:	461a      	mov	r2, r3
    9b34:	f7fb f914 	bl	4d60 <LPSPI_SlaveTransferNonBlocking>
    9b38:	6238      	str	r0, [r7, #32]
    9b3a:	6a3b      	ldr	r3, [r7, #32]
    9b3c:	2b04      	cmp	r3, #4
    9b3e:	d009      	beq.n	9b54 <LPSPI_InterruptTransfer+0xa6>
    9b40:	6a3b      	ldr	r3, [r7, #32]
    9b42:	f5b3 7fc8 	cmp.w	r3, #400	; 0x190
    9b46:	d009      	beq.n	9b5c <LPSPI_InterruptTransfer+0xae>
    9b48:	6a3b      	ldr	r3, [r7, #32]
    9b4a:	2b00      	cmp	r3, #0
    9b4c:	d10a      	bne.n	9b64 <LPSPI_InterruptTransfer+0xb6>
    9b4e:	2300      	movs	r3, #0
    9b50:	627b      	str	r3, [r7, #36]	; 0x24
    9b52:	e00b      	b.n	9b6c <LPSPI_InterruptTransfer+0xbe>
    9b54:	f06f 0304 	mvn.w	r3, #4
    9b58:	627b      	str	r3, [r7, #36]	; 0x24
    9b5a:	e007      	b.n	9b6c <LPSPI_InterruptTransfer+0xbe>
    9b5c:	f06f 0301 	mvn.w	r3, #1
    9b60:	627b      	str	r3, [r7, #36]	; 0x24
    9b62:	e003      	b.n	9b6c <LPSPI_InterruptTransfer+0xbe>
    9b64:	f04f 33ff 	mov.w	r3, #4294967295
    9b68:	627b      	str	r3, [r7, #36]	; 0x24
    9b6a:	bf00      	nop
    9b6c:	6a7b      	ldr	r3, [r7, #36]	; 0x24
    9b6e:	4618      	mov	r0, r3
    9b70:	3728      	adds	r7, #40	; 0x28
    9b72:	46bd      	mov	sp, r7
    9b74:	bd80      	pop	{r7, pc}

00009b76 <LPSPI_InterruptGetCount>:
    9b76:	b580      	push	{r7, lr}
    9b78:	b082      	sub	sp, #8
    9b7a:	af00      	add	r7, sp, #0
    9b7c:	6078      	str	r0, [r7, #4]
    9b7e:	687b      	ldr	r3, [r7, #4]
    9b80:	681b      	ldr	r3, [r3, #0]
    9b82:	681b      	ldr	r3, [r3, #0]
    9b84:	4618      	mov	r0, r3
    9b86:	f7ff fc7a 	bl	947e <LPSPI_IsMaster>
    9b8a:	4603      	mov	r3, r0
    9b8c:	2b00      	cmp	r3, #0
    9b8e:	d007      	beq.n	9ba0 <LPSPI_InterruptGetCount+0x2a>
    9b90:	687b      	ldr	r3, [r7, #4]
    9b92:	685b      	ldr	r3, [r3, #4]
    9b94:	6a1a      	ldr	r2, [r3, #32]
    9b96:	687b      	ldr	r3, [r7, #4]
    9b98:	685b      	ldr	r3, [r3, #4]
    9b9a:	695b      	ldr	r3, [r3, #20]
    9b9c:	1ad3      	subs	r3, r2, r3
    9b9e:	e006      	b.n	9bae <LPSPI_InterruptGetCount+0x38>
    9ba0:	687b      	ldr	r3, [r7, #4]
    9ba2:	685b      	ldr	r3, [r3, #4]
    9ba4:	6a1a      	ldr	r2, [r3, #32]
    9ba6:	687b      	ldr	r3, [r7, #4]
    9ba8:	685b      	ldr	r3, [r3, #4]
    9baa:	695b      	ldr	r3, [r3, #20]
    9bac:	1ad3      	subs	r3, r2, r3
    9bae:	4618      	mov	r0, r3
    9bb0:	3708      	adds	r7, #8
    9bb2:	46bd      	mov	sp, r7
    9bb4:	bd80      	pop	{r7, pc}

00009bb6 <LPSPI_InterruptGetStatus>:
    9bb6:	b580      	push	{r7, lr}
    9bb8:	b084      	sub	sp, #16
    9bba:	af00      	add	r7, sp, #0
    9bbc:	6078      	str	r0, [r7, #4]
    9bbe:	687b      	ldr	r3, [r7, #4]
    9bc0:	681b      	ldr	r3, [r3, #0]
    9bc2:	681b      	ldr	r3, [r3, #0]
    9bc4:	4618      	mov	r0, r3
    9bc6:	f7ff fc5a 	bl	947e <LPSPI_IsMaster>
    9bca:	4603      	mov	r3, r0
    9bcc:	2b00      	cmp	r3, #0
    9bce:	d01f      	beq.n	9c10 <LPSPI_InterruptGetStatus+0x5a>
    9bd0:	687b      	ldr	r3, [r7, #4]
    9bd2:	685b      	ldr	r3, [r3, #4]
    9bd4:	695b      	ldr	r3, [r3, #20]
    9bd6:	2b00      	cmp	r3, #0
    9bd8:	d104      	bne.n	9be4 <LPSPI_InterruptGetStatus+0x2e>
    9bda:	687b      	ldr	r3, [r7, #4]
    9bdc:	685b      	ldr	r3, [r3, #4]
    9bde:	691b      	ldr	r3, [r3, #16]
    9be0:	2b00      	cmp	r3, #0
    9be2:	d001      	beq.n	9be8 <LPSPI_InterruptGetStatus+0x32>
    9be4:	2201      	movs	r2, #1
    9be6:	e000      	b.n	9bea <LPSPI_InterruptGetStatus+0x34>
    9be8:	2200      	movs	r2, #0
    9bea:	68fb      	ldr	r3, [r7, #12]
    9bec:	f362 0300 	bfi	r3, r2, #0, #1
    9bf0:	60fb      	str	r3, [r7, #12]
    9bf2:	687b      	ldr	r3, [r7, #4]
    9bf4:	685b      	ldr	r3, [r3, #4]
    9bf6:	f893 3028 	ldrb.w	r3, [r3, #40]	; 0x28
    9bfa:	b2db      	uxtb	r3, r3
    9bfc:	2b02      	cmp	r3, #2
    9bfe:	d101      	bne.n	9c04 <LPSPI_InterruptGetStatus+0x4e>
    9c00:	2201      	movs	r2, #1
    9c02:	e000      	b.n	9c06 <LPSPI_InterruptGetStatus+0x50>
    9c04:	2200      	movs	r2, #0
    9c06:	68fb      	ldr	r3, [r7, #12]
    9c08:	f362 0341 	bfi	r3, r2, #1, #1
    9c0c:	60fb      	str	r3, [r7, #12]
    9c0e:	e01e      	b.n	9c4e <LPSPI_InterruptGetStatus+0x98>
    9c10:	687b      	ldr	r3, [r7, #4]
    9c12:	685b      	ldr	r3, [r3, #4]
    9c14:	695b      	ldr	r3, [r3, #20]
    9c16:	2b00      	cmp	r3, #0
    9c18:	d104      	bne.n	9c24 <LPSPI_InterruptGetStatus+0x6e>
    9c1a:	687b      	ldr	r3, [r7, #4]
    9c1c:	685b      	ldr	r3, [r3, #4]
    9c1e:	691b      	ldr	r3, [r3, #16]
    9c20:	2b00      	cmp	r3, #0
    9c22:	d001      	beq.n	9c28 <LPSPI_InterruptGetStatus+0x72>
    9c24:	2201      	movs	r2, #1
    9c26:	e000      	b.n	9c2a <LPSPI_InterruptGetStatus+0x74>
    9c28:	2200      	movs	r2, #0
    9c2a:	68fb      	ldr	r3, [r7, #12]
    9c2c:	f362 0300 	bfi	r3, r2, #0, #1
    9c30:	60fb      	str	r3, [r7, #12]
    9c32:	687b      	ldr	r3, [r7, #4]
    9c34:	685b      	ldr	r3, [r3, #4]
    9c36:	f893 3024 	ldrb.w	r3, [r3, #36]	; 0x24
    9c3a:	b2db      	uxtb	r3, r3
    9c3c:	2b02      	cmp	r3, #2
    9c3e:	d101      	bne.n	9c44 <LPSPI_InterruptGetStatus+0x8e>
    9c40:	2201      	movs	r2, #1
    9c42:	e000      	b.n	9c46 <LPSPI_InterruptGetStatus+0x90>
    9c44:	2200      	movs	r2, #0
    9c46:	68fb      	ldr	r3, [r7, #12]
    9c48:	f362 0341 	bfi	r3, r2, #1, #1
    9c4c:	60fb      	str	r3, [r7, #12]
    9c4e:	68fb      	ldr	r3, [r7, #12]
    9c50:	f36f 0382 	bfc	r3, #2, #1
    9c54:	60fb      	str	r3, [r7, #12]
    9c56:	68fb      	ldr	r3, [r7, #12]
    9c58:	f36f 03df 	bfc	r3, #3, #29
    9c5c:	60fb      	str	r3, [r7, #12]
    9c5e:	68fb      	ldr	r3, [r7, #12]
    9c60:	4618      	mov	r0, r3
    9c62:	3710      	adds	r7, #16
    9c64:	46bd      	mov	sp, r7
    9c66:	bd80      	pop	{r7, pc}

00009c68 <CLOCK_EnableClock>:
    9c68:	b580      	push	{r7, lr}
    9c6a:	b082      	sub	sp, #8
    9c6c:	af00      	add	r7, sp, #0
    9c6e:	4603      	mov	r3, r0
    9c70:	80fb      	strh	r3, [r7, #6]
    9c72:	f9b7 3006 	ldrsh.w	r3, [r7, #6]
    9c76:	2103      	movs	r1, #3
    9c78:	4618      	mov	r0, r3
    9c7a:	f7fc f82b 	bl	5cd4 <CLOCK_ControlGate>
    9c7e:	bf00      	nop
    9c80:	3708      	adds	r7, #8
    9c82:	46bd      	mov	sp, r7
    9c84:	bd80      	pop	{r7, pc}

00009c86 <LPUART_SoftwareReset>:
    9c86:	b480      	push	{r7}
    9c88:	b083      	sub	sp, #12
    9c8a:	af00      	add	r7, sp, #0
    9c8c:	6078      	str	r0, [r7, #4]
    9c8e:	687b      	ldr	r3, [r7, #4]
    9c90:	689b      	ldr	r3, [r3, #8]
    9c92:	f043 0202 	orr.w	r2, r3, #2
    9c96:	687b      	ldr	r3, [r7, #4]
    9c98:	609a      	str	r2, [r3, #8]
    9c9a:	687b      	ldr	r3, [r7, #4]
    9c9c:	689b      	ldr	r3, [r3, #8]
    9c9e:	f023 0202 	bic.w	r2, r3, #2
    9ca2:	687b      	ldr	r3, [r7, #4]
    9ca4:	609a      	str	r2, [r3, #8]
    9ca6:	bf00      	nop
    9ca8:	370c      	adds	r7, #12
    9caa:	46bd      	mov	sp, r7
    9cac:	f85d 7b04 	ldr.w	r7, [sp], #4
    9cb0:	4770      	bx	lr

00009cb2 <CLOCK_EnableClock>:
    9cb2:	b580      	push	{r7, lr}
    9cb4:	b082      	sub	sp, #8
    9cb6:	af00      	add	r7, sp, #0
    9cb8:	4603      	mov	r3, r0
    9cba:	80fb      	strh	r3, [r7, #6]
    9cbc:	f9b7 3006 	ldrsh.w	r3, [r7, #6]
    9cc0:	2103      	movs	r1, #3
    9cc2:	4618      	mov	r0, r3
    9cc4:	f7fc fade 	bl	6284 <CLOCK_ControlGate>
    9cc8:	bf00      	nop
    9cca:	3708      	adds	r7, #8
    9ccc:	46bd      	mov	sp, r7
    9cce:	bd80      	pop	{r7, pc}

00009cd0 <QTMR_EnableInterrupts>:
    9cd0:	b480      	push	{r7}
    9cd2:	b087      	sub	sp, #28
    9cd4:	af00      	add	r7, sp, #0
    9cd6:	60f8      	str	r0, [r7, #12]
    9cd8:	460b      	mov	r3, r1
    9cda:	607a      	str	r2, [r7, #4]
    9cdc:	72fb      	strb	r3, [r7, #11]
    9cde:	7afb      	ldrb	r3, [r7, #11]
    9ce0:	68fa      	ldr	r2, [r7, #12]
    9ce2:	015b      	lsls	r3, r3, #5
    9ce4:	4413      	add	r3, r2
    9ce6:	330e      	adds	r3, #14
    9ce8:	881b      	ldrh	r3, [r3, #0]
    9cea:	82fb      	strh	r3, [r7, #22]
    9cec:	687b      	ldr	r3, [r7, #4]
    9cee:	f003 0301 	and.w	r3, r3, #1
    9cf2:	2b00      	cmp	r3, #0
    9cf4:	d003      	beq.n	9cfe <QTMR_EnableInterrupts+0x2e>
    9cf6:	8afb      	ldrh	r3, [r7, #22]
    9cf8:	f443 4380 	orr.w	r3, r3, #16384	; 0x4000
    9cfc:	82fb      	strh	r3, [r7, #22]
    9cfe:	687b      	ldr	r3, [r7, #4]
    9d00:	f003 0308 	and.w	r3, r3, #8
    9d04:	2b00      	cmp	r3, #0
    9d06:	d003      	beq.n	9d10 <QTMR_EnableInterrupts+0x40>
    9d08:	8afb      	ldrh	r3, [r7, #22]
    9d0a:	f443 5380 	orr.w	r3, r3, #4096	; 0x1000
    9d0e:	82fb      	strh	r3, [r7, #22]
    9d10:	687b      	ldr	r3, [r7, #4]
    9d12:	f003 0310 	and.w	r3, r3, #16
    9d16:	2b00      	cmp	r3, #0
    9d18:	d014      	beq.n	9d44 <QTMR_EnableInterrupts+0x74>
    9d1a:	7afb      	ldrb	r3, [r7, #11]
    9d1c:	68fa      	ldr	r2, [r7, #12]
    9d1e:	015b      	lsls	r3, r3, #5
    9d20:	4413      	add	r3, r2
    9d22:	3318      	adds	r3, #24
    9d24:	881b      	ldrh	r3, [r3, #0]
    9d26:	b29a      	uxth	r2, r3
    9d28:	7afb      	ldrb	r3, [r7, #11]
    9d2a:	f022 0201 	bic.w	r2, r2, #1
    9d2e:	b291      	uxth	r1, r2
    9d30:	68fa      	ldr	r2, [r7, #12]
    9d32:	015b      	lsls	r3, r3, #5
    9d34:	4413      	add	r3, r2
    9d36:	3318      	adds	r3, #24
    9d38:	460a      	mov	r2, r1
    9d3a:	801a      	strh	r2, [r3, #0]
    9d3c:	8afb      	ldrh	r3, [r7, #22]
    9d3e:	f443 6380 	orr.w	r3, r3, #1024	; 0x400
    9d42:	82fb      	strh	r3, [r7, #22]
    9d44:	7afb      	ldrb	r3, [r7, #11]
    9d46:	68fa      	ldr	r2, [r7, #12]
    9d48:	015b      	lsls	r3, r3, #5
    9d4a:	4413      	add	r3, r2
    9d4c:	330e      	adds	r3, #14
    9d4e:	8afa      	ldrh	r2, [r7, #22]
    9d50:	801a      	strh	r2, [r3, #0]
    9d52:	7afb      	ldrb	r3, [r7, #11]
    9d54:	68fa      	ldr	r2, [r7, #12]
    9d56:	015b      	lsls	r3, r3, #5
    9d58:	4413      	add	r3, r2
    9d5a:	3314      	adds	r3, #20
    9d5c:	881b      	ldrh	r3, [r3, #0]
    9d5e:	82fb      	strh	r3, [r7, #22]
    9d60:	687b      	ldr	r3, [r7, #4]
    9d62:	f003 0302 	and.w	r3, r3, #2
    9d66:	2b00      	cmp	r3, #0
    9d68:	d003      	beq.n	9d72 <QTMR_EnableInterrupts+0xa2>
    9d6a:	8afb      	ldrh	r3, [r7, #22]
    9d6c:	f043 0340 	orr.w	r3, r3, #64	; 0x40
    9d70:	82fb      	strh	r3, [r7, #22]
    9d72:	687b      	ldr	r3, [r7, #4]
    9d74:	f003 0304 	and.w	r3, r3, #4
    9d78:	2b00      	cmp	r3, #0
    9d7a:	d003      	beq.n	9d84 <QTMR_EnableInterrupts+0xb4>
    9d7c:	8afb      	ldrh	r3, [r7, #22]
    9d7e:	f043 0380 	orr.w	r3, r3, #128	; 0x80
    9d82:	82fb      	strh	r3, [r7, #22]
    9d84:	7afb      	ldrb	r3, [r7, #11]
    9d86:	68fa      	ldr	r2, [r7, #12]
    9d88:	015b      	lsls	r3, r3, #5
    9d8a:	4413      	add	r3, r2
    9d8c:	3314      	adds	r3, #20
    9d8e:	8afa      	ldrh	r2, [r7, #22]
    9d90:	801a      	strh	r2, [r3, #0]
    9d92:	bf00      	nop
    9d94:	371c      	adds	r7, #28
    9d96:	46bd      	mov	sp, r7
    9d98:	f85d 7b04 	ldr.w	r7, [sp], #4
    9d9c:	4770      	bx	lr

00009d9e <QTMR_ClearStatusFlags>:
    9d9e:	b480      	push	{r7}
    9da0:	b087      	sub	sp, #28
    9da2:	af00      	add	r7, sp, #0
    9da4:	60f8      	str	r0, [r7, #12]
    9da6:	460b      	mov	r3, r1
    9da8:	607a      	str	r2, [r7, #4]
    9daa:	72fb      	strb	r3, [r7, #11]
    9dac:	7afb      	ldrb	r3, [r7, #11]
    9dae:	68fa      	ldr	r2, [r7, #12]
    9db0:	015b      	lsls	r3, r3, #5
    9db2:	4413      	add	r3, r2
    9db4:	330e      	adds	r3, #14
    9db6:	881b      	ldrh	r3, [r3, #0]
    9db8:	82fb      	strh	r3, [r7, #22]
    9dba:	687b      	ldr	r3, [r7, #4]
    9dbc:	f003 0301 	and.w	r3, r3, #1
    9dc0:	2b00      	cmp	r3, #0
    9dc2:	d003      	beq.n	9dcc <QTMR_ClearStatusFlags+0x2e>
    9dc4:	8afb      	ldrh	r3, [r7, #22]
    9dc6:	f3c3 030e 	ubfx	r3, r3, #0, #15
    9dca:	82fb      	strh	r3, [r7, #22]
    9dcc:	687b      	ldr	r3, [r7, #4]
    9dce:	f003 0308 	and.w	r3, r3, #8
    9dd2:	2b00      	cmp	r3, #0
    9dd4:	d003      	beq.n	9dde <QTMR_ClearStatusFlags+0x40>
    9dd6:	8afb      	ldrh	r3, [r7, #22]
    9dd8:	f423 5300 	bic.w	r3, r3, #8192	; 0x2000
    9ddc:	82fb      	strh	r3, [r7, #22]
    9dde:	687b      	ldr	r3, [r7, #4]
    9de0:	f003 0310 	and.w	r3, r3, #16
    9de4:	2b00      	cmp	r3, #0
    9de6:	d003      	beq.n	9df0 <QTMR_ClearStatusFlags+0x52>
    9de8:	8afb      	ldrh	r3, [r7, #22]
    9dea:	f423 6300 	bic.w	r3, r3, #2048	; 0x800
    9dee:	82fb      	strh	r3, [r7, #22]
    9df0:	7afb      	ldrb	r3, [r7, #11]
    9df2:	68fa      	ldr	r2, [r7, #12]
    9df4:	015b      	lsls	r3, r3, #5
    9df6:	4413      	add	r3, r2
    9df8:	330e      	adds	r3, #14
    9dfa:	8afa      	ldrh	r2, [r7, #22]
    9dfc:	801a      	strh	r2, [r3, #0]
    9dfe:	7afb      	ldrb	r3, [r7, #11]
    9e00:	68fa      	ldr	r2, [r7, #12]
    9e02:	015b      	lsls	r3, r3, #5
    9e04:	4413      	add	r3, r2
    9e06:	3314      	adds	r3, #20
    9e08:	881b      	ldrh	r3, [r3, #0]
    9e0a:	82fb      	strh	r3, [r7, #22]
    9e0c:	687b      	ldr	r3, [r7, #4]
    9e0e:	f003 0302 	and.w	r3, r3, #2
    9e12:	2b00      	cmp	r3, #0
    9e14:	d003      	beq.n	9e1e <QTMR_ClearStatusFlags+0x80>
    9e16:	8afb      	ldrh	r3, [r7, #22]
    9e18:	f023 0310 	bic.w	r3, r3, #16
    9e1c:	82fb      	strh	r3, [r7, #22]
    9e1e:	687b      	ldr	r3, [r7, #4]
    9e20:	f003 0304 	and.w	r3, r3, #4
    9e24:	2b00      	cmp	r3, #0
    9e26:	d003      	beq.n	9e30 <QTMR_ClearStatusFlags+0x92>
    9e28:	8afb      	ldrh	r3, [r7, #22]
    9e2a:	f023 0320 	bic.w	r3, r3, #32
    9e2e:	82fb      	strh	r3, [r7, #22]
    9e30:	7afb      	ldrb	r3, [r7, #11]
    9e32:	68fa      	ldr	r2, [r7, #12]
    9e34:	015b      	lsls	r3, r3, #5
    9e36:	4413      	add	r3, r2
    9e38:	3314      	adds	r3, #20
    9e3a:	8afa      	ldrh	r2, [r7, #22]
    9e3c:	801a      	strh	r2, [r3, #0]
    9e3e:	bf00      	nop
    9e40:	371c      	adds	r7, #28
    9e42:	46bd      	mov	sp, r7
    9e44:	f85d 7b04 	ldr.w	r7, [sp], #4
    9e48:	4770      	bx	lr

00009e4a <QTMR_SetTimerPeriod>:
    9e4a:	b480      	push	{r7}
    9e4c:	b083      	sub	sp, #12
    9e4e:	af00      	add	r7, sp, #0
    9e50:	6078      	str	r0, [r7, #4]
    9e52:	460b      	mov	r3, r1
    9e54:	70fb      	strb	r3, [r7, #3]
    9e56:	4613      	mov	r3, r2
    9e58:	803b      	strh	r3, [r7, #0]
    9e5a:	78fb      	ldrb	r3, [r7, #3]
    9e5c:	687a      	ldr	r2, [r7, #4]
    9e5e:	015b      	lsls	r3, r3, #5
    9e60:	4413      	add	r3, r2
    9e62:	330c      	adds	r3, #12
    9e64:	881b      	ldrh	r3, [r3, #0]
    9e66:	b29a      	uxth	r2, r3
    9e68:	78fb      	ldrb	r3, [r7, #3]
    9e6a:	f042 0220 	orr.w	r2, r2, #32
    9e6e:	b291      	uxth	r1, r2
    9e70:	687a      	ldr	r2, [r7, #4]
    9e72:	015b      	lsls	r3, r3, #5
    9e74:	4413      	add	r3, r2
    9e76:	330c      	adds	r3, #12
    9e78:	460a      	mov	r2, r1
    9e7a:	801a      	strh	r2, [r3, #0]
    9e7c:	78fb      	ldrb	r3, [r7, #3]
    9e7e:	687a      	ldr	r2, [r7, #4]
    9e80:	015b      	lsls	r3, r3, #5
    9e82:	4413      	add	r3, r2
    9e84:	330c      	adds	r3, #12
    9e86:	881b      	ldrh	r3, [r3, #0]
    9e88:	b29b      	uxth	r3, r3
    9e8a:	f003 0310 	and.w	r3, r3, #16
    9e8e:	2b00      	cmp	r3, #0
    9e90:	d007      	beq.n	9ea2 <QTMR_SetTimerPeriod+0x58>
    9e92:	78fb      	ldrb	r3, [r7, #3]
    9e94:	687a      	ldr	r2, [r7, #4]
    9e96:	015b      	lsls	r3, r3, #5
    9e98:	4413      	add	r3, r2
    9e9a:	3302      	adds	r3, #2
    9e9c:	883a      	ldrh	r2, [r7, #0]
    9e9e:	801a      	strh	r2, [r3, #0]
    9ea0:	e005      	b.n	9eae <QTMR_SetTimerPeriod+0x64>
    9ea2:	78fb      	ldrb	r3, [r7, #3]
    9ea4:	687a      	ldr	r2, [r7, #4]
    9ea6:	015b      	lsls	r3, r3, #5
    9ea8:	4413      	add	r3, r2
    9eaa:	883a      	ldrh	r2, [r7, #0]
    9eac:	801a      	strh	r2, [r3, #0]
    9eae:	bf00      	nop
    9eb0:	370c      	adds	r7, #12
    9eb2:	46bd      	mov	sp, r7
    9eb4:	f85d 7b04 	ldr.w	r7, [sp], #4
    9eb8:	4770      	bx	lr

00009eba <SystemInitHook>:
    9eba:	b480      	push	{r7}
    9ebc:	af00      	add	r7, sp, #0
    9ebe:	bf00      	nop
    9ec0:	46bd      	mov	sp, r7
    9ec2:	f85d 7b04 	ldr.w	r7, [sp], #4
    9ec6:	4770      	bx	lr

00009ec8 <HAL_UartGetStatus>:
    9ec8:	b480      	push	{r7}
    9eca:	b083      	sub	sp, #12
    9ecc:	af00      	add	r7, sp, #0
    9ece:	6078      	str	r0, [r7, #4]
    9ed0:	687b      	ldr	r3, [r7, #4]
    9ed2:	2b00      	cmp	r3, #0
    9ed4:	d101      	bne.n	9eda <HAL_UartGetStatus+0x12>
    9ed6:	2300      	movs	r3, #0
    9ed8:	e001      	b.n	9ede <HAL_UartGetStatus+0x16>
    9eda:	f642 73af 	movw	r3, #12207	; 0x2faf
    9ede:	4618      	mov	r0, r3
    9ee0:	370c      	adds	r7, #12
    9ee2:	46bd      	mov	sp, r7
    9ee4:	f85d 7b04 	ldr.w	r7, [sp], #4
    9ee8:	4770      	bx	lr

00009eea <SerialManager_StartWriting>:
    9eea:	b580      	push	{r7, lr}
    9eec:	b086      	sub	sp, #24
    9eee:	af00      	add	r7, sp, #0
    9ef0:	60f8      	str	r0, [r7, #12]
    9ef2:	60b9      	str	r1, [r7, #8]
    9ef4:	607a      	str	r2, [r7, #4]
    9ef6:	603b      	str	r3, [r7, #0]
    9ef8:	f243 5321 	movw	r3, #13601	; 0x3521
    9efc:	82fb      	strh	r3, [r7, #22]
    9efe:	68bb      	ldr	r3, [r7, #8]
    9f00:	2b00      	cmp	r3, #0
    9f02:	d011      	beq.n	9f28 <SerialManager_StartWriting+0x3e>
    9f04:	68fb      	ldr	r3, [r7, #12]
    9f06:	7b1b      	ldrb	r3, [r3, #12]
    9f08:	2b01      	cmp	r3, #1
    9f0a:	d109      	bne.n	9f20 <SerialManager_StartWriting+0x36>
    9f0c:	68fb      	ldr	r3, [r7, #12]
    9f0e:	3308      	adds	r3, #8
    9f10:	683a      	ldr	r2, [r7, #0]
    9f12:	6879      	ldr	r1, [r7, #4]
    9f14:	4618      	mov	r0, r3
    9f16:	f7fc fd53 	bl	69c0 <Serial_UartWrite>
    9f1a:	4603      	mov	r3, r0
    9f1c:	82fb      	strh	r3, [r7, #22]
    9f1e:	e004      	b.n	9f2a <SerialManager_StartWriting+0x40>
    9f20:	f243 5321 	movw	r3, #13601	; 0x3521
    9f24:	82fb      	strh	r3, [r7, #22]
    9f26:	e000      	b.n	9f2a <SerialManager_StartWriting+0x40>
    9f28:	bf00      	nop
    9f2a:	8afb      	ldrh	r3, [r7, #22]
    9f2c:	4618      	mov	r0, r3
    9f2e:	3718      	adds	r7, #24
    9f30:	46bd      	mov	sp, r7
    9f32:	bd80      	pop	{r7, pc}

00009f34 <SerialManager_WriteBlocking>:
    9f34:	b580      	push	{r7, lr}
    9f36:	b084      	sub	sp, #16
    9f38:	af00      	add	r7, sp, #0
    9f3a:	60f8      	str	r0, [r7, #12]
    9f3c:	60b9      	str	r1, [r7, #8]
    9f3e:	607a      	str	r2, [r7, #4]
    9f40:	687a      	ldr	r2, [r7, #4]
    9f42:	68b9      	ldr	r1, [r7, #8]
    9f44:	68f8      	ldr	r0, [r7, #12]
    9f46:	f7fc fc2f 	bl	67a8 <SerialManager_Write>
    9f4a:	4603      	mov	r3, r0
    9f4c:	4618      	mov	r0, r3
    9f4e:	3710      	adds	r7, #16
    9f50:	46bd      	mov	sp, r7
    9f52:	bd80      	pop	{r7, pc}

00009f54 <BOARD_InitDebugConsole>:
    9f54:	b580      	push	{r7, lr}
    9f56:	b082      	sub	sp, #8
    9f58:	af00      	add	r7, sp, #0
    9f5a:	f7fc fea3 	bl	6ca4 <BOARD_DebugConsoleSrcFreq>
    9f5e:	6078      	str	r0, [r7, #4]
    9f60:	687b      	ldr	r3, [r7, #4]
    9f62:	2201      	movs	r2, #1
    9f64:	f44f 31e1 	mov.w	r1, #115200	; 0x1c200
    9f68:	2001      	movs	r0, #1
    9f6a:	f7f6 fb3b 	bl	5e4 <DbgConsole_Init>
    9f6e:	bf00      	nop
    9f70:	3708      	adds	r7, #8
    9f72:	46bd      	mov	sp, r7
    9f74:	bd80      	pop	{r7, pc}

00009f76 <CLOCK_DisableClock>:
    9f76:	b580      	push	{r7, lr}
    9f78:	b082      	sub	sp, #8
    9f7a:	af00      	add	r7, sp, #0
    9f7c:	4603      	mov	r3, r0
    9f7e:	80fb      	strh	r3, [r7, #6]
    9f80:	f9b7 3006 	ldrsh.w	r3, [r7, #6]
    9f84:	2100      	movs	r1, #0
    9f86:	4618      	mov	r0, r3
    9f88:	f7fc ffda 	bl	6f40 <CLOCK_ControlGate>
    9f8c:	bf00      	nop
    9f8e:	3708      	adds	r7, #8
    9f90:	46bd      	mov	sp, r7
    9f92:	bd80      	pop	{r7, pc}

00009f94 <CLOCK_SetPllBypass>:
    9f94:	b480      	push	{r7}
    9f96:	b085      	sub	sp, #20
    9f98:	af00      	add	r7, sp, #0
    9f9a:	60f8      	str	r0, [r7, #12]
    9f9c:	60b9      	str	r1, [r7, #8]
    9f9e:	4613      	mov	r3, r2
    9fa0:	71fb      	strb	r3, [r7, #7]
    9fa2:	79fb      	ldrb	r3, [r7, #7]
    9fa4:	2b00      	cmp	r3, #0
    9fa6:	d00b      	beq.n	9fc0 <CLOCK_SetPllBypass+0x2c>
    9fa8:	68bb      	ldr	r3, [r7, #8]
    9faa:	0c1b      	lsrs	r3, r3, #16
    9fac:	f3c3 020b 	ubfx	r2, r3, #0, #12
    9fb0:	68fb      	ldr	r3, [r7, #12]
    9fb2:	4413      	add	r3, r2
    9fb4:	3304      	adds	r3, #4
    9fb6:	461a      	mov	r2, r3
    9fb8:	f44f 3380 	mov.w	r3, #65536	; 0x10000
    9fbc:	6013      	str	r3, [r2, #0]
    9fbe:	e00a      	b.n	9fd6 <CLOCK_SetPllBypass+0x42>
    9fc0:	68bb      	ldr	r3, [r7, #8]
    9fc2:	0c1b      	lsrs	r3, r3, #16
    9fc4:	f3c3 020b 	ubfx	r2, r3, #0, #12
    9fc8:	68fb      	ldr	r3, [r7, #12]
    9fca:	4413      	add	r3, r2
    9fcc:	3308      	adds	r3, #8
    9fce:	461a      	mov	r2, r3
    9fd0:	f44f 3380 	mov.w	r3, #65536	; 0x10000
    9fd4:	6013      	str	r3, [r2, #0]
    9fd6:	bf00      	nop
    9fd8:	3714      	adds	r7, #20
    9fda:	46bd      	mov	sp, r7
    9fdc:	f85d 7b04 	ldr.w	r7, [sp], #4
    9fe0:	4770      	bx	lr

00009fe2 <IOMUXC_SetSaiMClkClockSource>:
    9fe2:	b480      	push	{r7}
    9fe4:	b085      	sub	sp, #20
    9fe6:	af00      	add	r7, sp, #0
    9fe8:	6078      	str	r0, [r7, #4]
    9fea:	460b      	mov	r3, r1
    9fec:	70fb      	strb	r3, [r7, #3]
    9fee:	4613      	mov	r3, r2
    9ff0:	70bb      	strb	r3, [r7, #2]
    9ff2:	78fb      	ldrb	r3, [r7, #3]
    9ff4:	2b03      	cmp	r3, #3
    9ff6:	d912      	bls.n	a01e <IOMUXC_SetSaiMClkClockSource+0x3c>
    9ff8:	687b      	ldr	r3, [r7, #4]
    9ffa:	685a      	ldr	r2, [r3, #4]
    9ffc:	78fb      	ldrb	r3, [r7, #3]
    9ffe:	2103      	movs	r1, #3
    a000:	fa01 f303 	lsl.w	r3, r1, r3
    a004:	43db      	mvns	r3, r3
    a006:	4013      	ands	r3, r2
    a008:	60fb      	str	r3, [r7, #12]
    a00a:	78bb      	ldrb	r3, [r7, #2]
    a00c:	f003 0203 	and.w	r2, r3, #3
    a010:	78fb      	ldrb	r3, [r7, #3]
    a012:	409a      	lsls	r2, r3
    a014:	68fb      	ldr	r3, [r7, #12]
    a016:	431a      	orrs	r2, r3
    a018:	687b      	ldr	r3, [r7, #4]
    a01a:	605a      	str	r2, [r3, #4]
    a01c:	e011      	b.n	a042 <IOMUXC_SetSaiMClkClockSource+0x60>
    a01e:	687b      	ldr	r3, [r7, #4]
    a020:	685a      	ldr	r2, [r3, #4]
    a022:	78fb      	ldrb	r3, [r7, #3]
    a024:	2107      	movs	r1, #7
    a026:	fa01 f303 	lsl.w	r3, r1, r3
    a02a:	43db      	mvns	r3, r3
    a02c:	4013      	ands	r3, r2
    a02e:	60fb      	str	r3, [r7, #12]
    a030:	78bb      	ldrb	r3, [r7, #2]
    a032:	f003 0207 	and.w	r2, r3, #7
    a036:	78fb      	ldrb	r3, [r7, #3]
    a038:	409a      	lsls	r2, r3
    a03a:	68fb      	ldr	r3, [r7, #12]
    a03c:	431a      	orrs	r2, r3
    a03e:	687b      	ldr	r3, [r7, #4]
    a040:	605a      	str	r2, [r3, #4]
    a042:	bf00      	nop
    a044:	3714      	adds	r7, #20
    a046:	46bd      	mov	sp, r7
    a048:	f85d 7b04 	ldr.w	r7, [sp], #4
    a04c:	4770      	bx	lr

0000a04e <CLOCK_EnableClock>:
    a04e:	b580      	push	{r7, lr}
    a050:	b082      	sub	sp, #8
    a052:	af00      	add	r7, sp, #0
    a054:	4603      	mov	r3, r0
    a056:	80fb      	strh	r3, [r7, #6]
    a058:	f9b7 3006 	ldrsh.w	r3, [r7, #6]
    a05c:	2103      	movs	r1, #3
    a05e:	4618      	mov	r0, r3
    a060:	f7fd fb4a 	bl	76f8 <CLOCK_ControlGate>
    a064:	bf00      	nop
    a066:	3708      	adds	r7, #8
    a068:	46bd      	mov	sp, r7
    a06a:	bd80      	pop	{r7, pc}

0000a06c <IOMUXC_SetPinMux>:
    a06c:	b480      	push	{r7}
    a06e:	b085      	sub	sp, #20
    a070:	af00      	add	r7, sp, #0
    a072:	60f8      	str	r0, [r7, #12]
    a074:	60b9      	str	r1, [r7, #8]
    a076:	607a      	str	r2, [r7, #4]
    a078:	603b      	str	r3, [r7, #0]
    a07a:	68bb      	ldr	r3, [r7, #8]
    a07c:	f003 010f 	and.w	r1, r3, #15
    a080:	69fb      	ldr	r3, [r7, #28]
    a082:	011b      	lsls	r3, r3, #4
    a084:	f003 0210 	and.w	r2, r3, #16
    a088:	68fb      	ldr	r3, [r7, #12]
    a08a:	430a      	orrs	r2, r1
    a08c:	601a      	str	r2, [r3, #0]
    a08e:	687b      	ldr	r3, [r7, #4]
    a090:	2b00      	cmp	r3, #0
    a092:	d002      	beq.n	a09a <IOMUXC_SetPinMux+0x2e>
    a094:	687b      	ldr	r3, [r7, #4]
    a096:	683a      	ldr	r2, [r7, #0]
    a098:	601a      	str	r2, [r3, #0]
    a09a:	bf00      	nop
    a09c:	3714      	adds	r7, #20
    a09e:	46bd      	mov	sp, r7
    a0a0:	f85d 7b04 	ldr.w	r7, [sp], #4
    a0a4:	4770      	bx	lr

0000a0a6 <IOMUXC_SetPinConfig>:
    a0a6:	b480      	push	{r7}
    a0a8:	b085      	sub	sp, #20
    a0aa:	af00      	add	r7, sp, #0
    a0ac:	60f8      	str	r0, [r7, #12]
    a0ae:	60b9      	str	r1, [r7, #8]
    a0b0:	607a      	str	r2, [r7, #4]
    a0b2:	603b      	str	r3, [r7, #0]
    a0b4:	69bb      	ldr	r3, [r7, #24]
    a0b6:	2b00      	cmp	r3, #0
    a0b8:	d002      	beq.n	a0c0 <IOMUXC_SetPinConfig+0x1a>
    a0ba:	69bb      	ldr	r3, [r7, #24]
    a0bc:	69fa      	ldr	r2, [r7, #28]
    a0be:	601a      	str	r2, [r3, #0]
    a0c0:	bf00      	nop
    a0c2:	3714      	adds	r7, #20
    a0c4:	46bd      	mov	sp, r7
    a0c6:	f85d 7b04 	ldr.w	r7, [sp], #4
    a0ca:	4770      	bx	lr

0000a0cc <__main>:
    a0cc:	b508      	push	{r3, lr}
    a0ce:	f7fd fdf9 	bl	7cc4 <_initio>
    a0d2:	e8bd 4008 	ldmia.w	sp!, {r3, lr}
    a0d6:	f7f8 bced 	b.w	2ab4 <main>

0000a0da <__sys_appexit>:
    a0da:	e7fe      	b.n	a0da <__sys_appexit>

0000a0dc <memset>:
    a0dc:	f000 ba82 	b.w	a5e4 <__aeabi_lowlevel_memset>

0000a0e0 <_deferredlazyseek>:
    a0e0:	68c3      	ldr	r3, [r0, #12]
    a0e2:	6982      	ldr	r2, [r0, #24]
    a0e4:	f023 0320 	bic.w	r3, r3, #32
    a0e8:	b510      	push	{r4, lr}
    a0ea:	60c3      	str	r3, [r0, #12]
    a0ec:	4604      	mov	r4, r0
    a0ee:	6a83      	ldr	r3, [r0, #40]	; 0x28
    a0f0:	429a      	cmp	r2, r3
    a0f2:	d00e      	beq.n	a112 <_deferredlazyseek+0x32>
    a0f4:	f000 f8b4 	bl	a260 <_fflush>
    a0f8:	68e3      	ldr	r3, [r4, #12]
    a0fa:	f423 5340 	bic.w	r3, r3, #12288	; 0x3000
    a0fe:	f023 0310 	bic.w	r3, r3, #16
    a102:	f043 0310 	orr.w	r3, r3, #16
    a106:	60e3      	str	r3, [r4, #12]
    a108:	6aa3      	ldr	r3, [r4, #40]	; 0x28
    a10a:	61a3      	str	r3, [r4, #24]
    a10c:	6923      	ldr	r3, [r4, #16]
    a10e:	62e3      	str	r3, [r4, #44]	; 0x2c
    a110:	6023      	str	r3, [r4, #0]
    a112:	68e3      	ldr	r3, [r4, #12]
    a114:	f423 4380 	bic.w	r3, r3, #16384	; 0x4000
    a118:	f023 0340 	bic.w	r3, r3, #64	; 0x40
    a11c:	60e3      	str	r3, [r4, #12]
    a11e:	bd10      	pop	{r4, pc}

0000a120 <__flsbuf>:
    a120:	68cb      	ldr	r3, [r1, #12]
    a122:	f423 2200 	bic.w	r2, r3, #524288	; 0x80000
    a126:	b570      	push	{r4, r5, r6, lr}
    a128:	460c      	mov	r4, r1
    a12a:	60ca      	str	r2, [r1, #12]
    a12c:	0699      	lsls	r1, r3, #26
    a12e:	4605      	mov	r5, r0
    a130:	d502      	bpl.n	a138 <__flsbuf+0x18>
    a132:	4620      	mov	r0, r4
    a134:	f7ff ffd4 	bl	a0e0 <_deferredlazyseek>
    a138:	e9d4 3602 	ldrd	r3, r6, [r4, #8]
    a13c:	1c5a      	adds	r2, r3, #1
    a13e:	da10      	bge.n	a162 <__flsbuf+0x42>
    a140:	05b0      	lsls	r0, r6, #22
    a142:	d40e      	bmi.n	a162 <__flsbuf+0x42>
    a144:	f1c3 23ff 	rsb	r3, r3, #4278255360	; 0xff00ff00
    a148:	f446 3690 	orr.w	r6, r6, #73728	; 0x12000
    a14c:	f503 037f 	add.w	r3, r3, #16711680	; 0xff0000
    a150:	60e6      	str	r6, [r4, #12]
    a152:	33fe      	adds	r3, #254	; 0xfe
    a154:	60a3      	str	r3, [r4, #8]
    a156:	6823      	ldr	r3, [r4, #0]
    a158:	1c5a      	adds	r2, r3, #1
    a15a:	6022      	str	r2, [r4, #0]
    a15c:	701d      	strb	r5, [r3, #0]
    a15e:	b2e8      	uxtb	r0, r5
    a160:	bd70      	pop	{r4, r5, r6, pc}
    a162:	f241 028a 	movw	r2, #4234	; 0x108a
    a166:	4032      	ands	r2, r6
    a168:	2a02      	cmp	r2, #2
    a16a:	d007      	beq.n	a17c <__flsbuf+0x5c>
    a16c:	2300      	movs	r3, #0
    a16e:	f046 0680 	orr.w	r6, r6, #128	; 0x80
    a172:	60a3      	str	r3, [r4, #8]
    a174:	60e6      	str	r6, [r4, #12]
    a176:	f04f 30ff 	mov.w	r0, #4294967295
    a17a:	e7f1      	b.n	a160 <__flsbuf+0x40>
    a17c:	f24a 0310 	movw	r3, #40976	; 0xa010
    a180:	4033      	ands	r3, r6
    a182:	f5b3 4f00 	cmp.w	r3, #32768	; 0x8000
    a186:	d10a      	bne.n	a19e <__flsbuf+0x7e>
    a188:	2100      	movs	r1, #0
    a18a:	4620      	mov	r0, r4
    a18c:	f7fd fcf6 	bl	7b7c <fseek>
    a190:	68e3      	ldr	r3, [r4, #12]
    a192:	0699      	lsls	r1, r3, #26
    a194:	d502      	bpl.n	a19c <__flsbuf+0x7c>
    a196:	4620      	mov	r0, r4
    a198:	f7ff ffa2 	bl	a0e0 <_deferredlazyseek>
    a19c:	68e6      	ldr	r6, [r4, #12]
    a19e:	f446 3390 	orr.w	r3, r6, #73728	; 0x12000
    a1a2:	f416 6f70 	tst.w	r6, #3840	; 0xf00
    a1a6:	60e3      	str	r3, [r4, #12]
    a1a8:	d10e      	bne.n	a1c8 <__flsbuf+0xa8>
    a1aa:	6960      	ldr	r0, [r4, #20]
    a1ac:	f000 fa39 	bl	a622 <__sys_istty>
    a1b0:	b300      	cbz	r0, a1f4 <__flsbuf+0xd4>
    a1b2:	0572      	lsls	r2, r6, #21
    a1b4:	d51e      	bpl.n	a1f4 <__flsbuf+0xd4>
    a1b6:	f104 0324 	add.w	r3, r4, #36	; 0x24
    a1ba:	6123      	str	r3, [r4, #16]
    a1bc:	6023      	str	r3, [r4, #0]
    a1be:	2301      	movs	r3, #1
    a1c0:	61e3      	str	r3, [r4, #28]
    a1c2:	f446 3392 	orr.w	r3, r6, #74752	; 0x12400
    a1c6:	60e3      	str	r3, [r4, #12]
    a1c8:	f413 6f10 	tst.w	r3, #2304	; 0x900
    a1cc:	6821      	ldr	r1, [r4, #0]
    a1ce:	6926      	ldr	r6, [r4, #16]
    a1d0:	d026      	beq.n	a220 <__flsbuf+0x100>
    a1d2:	6ae3      	ldr	r3, [r4, #44]	; 0x2c
    a1d4:	4299      	cmp	r1, r3
    a1d6:	bf2c      	ite	cs
    a1d8:	ebc6 0101 	rsbcs	r1, r6, r1
    a1dc:	ebc6 0103 	rsbcc	r1, r6, r3
    a1e0:	b9b9      	cbnz	r1, a212 <__flsbuf+0xf2>
    a1e2:	1c73      	adds	r3, r6, #1
    a1e4:	62e3      	str	r3, [r4, #44]	; 0x2c
    a1e6:	6023      	str	r3, [r4, #0]
    a1e8:	69e3      	ldr	r3, [r4, #28]
    a1ea:	1e5a      	subs	r2, r3, #1
    a1ec:	6323      	str	r3, [r4, #48]	; 0x30
    a1ee:	60a2      	str	r2, [r4, #8]
    a1f0:	7035      	strb	r5, [r6, #0]
    a1f2:	e7b4      	b.n	a15e <__flsbuf+0x3e>
    a1f4:	f44f 7080 	mov.w	r0, #256	; 0x100
    a1f8:	f7fd fcb0 	bl	7b5c <_Csys_alloc>
    a1fc:	f44f 7380 	mov.w	r3, #256	; 0x100
    a200:	68e2      	ldr	r2, [r4, #12]
    a202:	61e3      	str	r3, [r4, #28]
    a204:	f446 3394 	orr.w	r3, r6, #75776	; 0x12800
    a208:	6120      	str	r0, [r4, #16]
    a20a:	431a      	orrs	r2, r3
    a20c:	6020      	str	r0, [r4, #0]
    a20e:	60e2      	str	r2, [r4, #12]
    a210:	e7da      	b.n	a1c8 <__flsbuf+0xa8>
    a212:	4622      	mov	r2, r4
    a214:	4630      	mov	r0, r6
    a216:	f7fd fc07 	bl	7a28 <_Cwritebuf>
    a21a:	2800      	cmp	r0, #0
    a21c:	d0e1      	beq.n	a1e2 <__flsbuf+0xc2>
    a21e:	e7aa      	b.n	a176 <__flsbuf+0x56>
    a220:	1c4a      	adds	r2, r1, #1
    a222:	b2ed      	uxtb	r5, r5
    a224:	6022      	str	r2, [r4, #0]
    a226:	700d      	strb	r5, [r1, #0]
    a228:	6ae2      	ldr	r2, [r4, #44]	; 0x2c
    a22a:	6821      	ldr	r1, [r4, #0]
    a22c:	4291      	cmp	r1, r2
    a22e:	bf2c      	ite	cs
    a230:	ebc6 0101 	rsbcs	r1, r6, r1
    a234:	ebc6 0102 	rsbcc	r1, r6, r2
    a238:	69e2      	ldr	r2, [r4, #28]
    a23a:	055b      	lsls	r3, r3, #21
    a23c:	6322      	str	r2, [r4, #48]	; 0x30
    a23e:	d403      	bmi.n	a248 <__flsbuf+0x128>
    a240:	2d0a      	cmp	r5, #10
    a242:	d001      	beq.n	a248 <__flsbuf+0x128>
    a244:	428a      	cmp	r2, r1
    a246:	dc09      	bgt.n	a25c <__flsbuf+0x13c>
    a248:	2300      	movs	r3, #0
    a24a:	62e6      	str	r6, [r4, #44]	; 0x2c
    a24c:	6026      	str	r6, [r4, #0]
    a24e:	4622      	mov	r2, r4
    a250:	60a3      	str	r3, [r4, #8]
    a252:	4630      	mov	r0, r6
    a254:	f7fd fbe8 	bl	7a28 <_Cwritebuf>
    a258:	2800      	cmp	r0, #0
    a25a:	d18c      	bne.n	a176 <__flsbuf+0x56>
    a25c:	4628      	mov	r0, r5
    a25e:	e77f      	b.n	a160 <__flsbuf+0x40>

0000a260 <_fflush>:
    a260:	b538      	push	{r3, r4, r5, lr}
    a262:	6801      	ldr	r1, [r0, #0]
    a264:	4604      	mov	r4, r0
    a266:	6905      	ldr	r5, [r0, #16]
    a268:	6ac3      	ldr	r3, [r0, #44]	; 0x2c
    a26a:	68c0      	ldr	r0, [r0, #12]
    a26c:	f420 2200 	bic.w	r2, r0, #524288	; 0x80000
    a270:	60e2      	str	r2, [r4, #12]
    a272:	f000 0282 	and.w	r2, r0, #130	; 0x82
    a276:	2a02      	cmp	r2, #2
    a278:	d002      	beq.n	a280 <_fflush+0x20>
    a27a:	f04f 30ff 	mov.w	r0, #4294967295
    a27e:	bd38      	pop	{r3, r4, r5, pc}
    a280:	f410 3080 	ands.w	r0, r0, #65536	; 0x10000
    a284:	d0fb      	beq.n	a27e <_fflush+0x1e>
    a286:	4299      	cmp	r1, r3
    a288:	bf38      	it	cc
    a28a:	4619      	movcc	r1, r3
    a28c:	428d      	cmp	r5, r1
    a28e:	d108      	bne.n	a2a2 <_fflush+0x42>
    a290:	68e3      	ldr	r3, [r4, #12]
    a292:	2000      	movs	r0, #0
    a294:	62e5      	str	r5, [r4, #44]	; 0x2c
    a296:	f423 3380 	bic.w	r3, r3, #65536	; 0x10000
    a29a:	6025      	str	r5, [r4, #0]
    a29c:	60a0      	str	r0, [r4, #8]
    a29e:	60e3      	str	r3, [r4, #12]
    a2a0:	e7ed      	b.n	a27e <_fflush+0x1e>
    a2a2:	4622      	mov	r2, r4
    a2a4:	1b49      	subs	r1, r1, r5
    a2a6:	4628      	mov	r0, r5
    a2a8:	f7fd fbbe 	bl	7a28 <_Cwritebuf>
    a2ac:	2800      	cmp	r0, #0
    a2ae:	d0ef      	beq.n	a290 <_fflush+0x30>
    a2b0:	e7e3      	b.n	a27a <_fflush+0x1a>

0000a2b2 <free>:
    a2b2:	b1a8      	cbz	r0, a2e0 <free+0x2e>
    a2b4:	f04f 5380 	mov.w	r3, #268435456	; 0x10000000
    a2b8:	f840 3c0c 	str.w	r3, [r0, #-12]
    a2bc:	f850 2c04 	ldr.w	r2, [r0, #-4]
    a2c0:	b172      	cbz	r2, a2e0 <free+0x2e>
    a2c2:	6813      	ldr	r3, [r2, #0]
    a2c4:	f1b3 5f80 	cmp.w	r3, #268435456	; 0x10000000
    a2c8:	d10a      	bne.n	a2e0 <free+0x2e>
    a2ca:	f850 3c08 	ldr.w	r3, [r0, #-8]
    a2ce:	6851      	ldr	r1, [r2, #4]
    a2d0:	3303      	adds	r3, #3
    a2d2:	440b      	add	r3, r1
    a2d4:	f840 3c08 	str.w	r3, [r0, #-8]
    a2d8:	6893      	ldr	r3, [r2, #8]
    a2da:	f840 3c04 	str.w	r3, [r0, #-4]
    a2de:	e7ed      	b.n	a2bc <free+0xa>
    a2e0:	4770      	bx	lr

0000a2e2 <fputs>:
    a2e2:	b538      	push	{r3, r4, r5, lr}
    a2e4:	4605      	mov	r5, r0
    a2e6:	460c      	mov	r4, r1
    a2e8:	f815 0b01 	ldrb.w	r0, [r5], #1
    a2ec:	b170      	cbz	r0, a30c <fputs+0x2a>
    a2ee:	68a3      	ldr	r3, [r4, #8]
    a2f0:	3b01      	subs	r3, #1
    a2f2:	2b00      	cmp	r3, #0
    a2f4:	60a3      	str	r3, [r4, #8]
    a2f6:	db04      	blt.n	a302 <fputs+0x20>
    a2f8:	6823      	ldr	r3, [r4, #0]
    a2fa:	1c5a      	adds	r2, r3, #1
    a2fc:	6022      	str	r2, [r4, #0]
    a2fe:	7018      	strb	r0, [r3, #0]
    a300:	e7f2      	b.n	a2e8 <fputs+0x6>
    a302:	4621      	mov	r1, r4
    a304:	f7ff ff0c 	bl	a120 <__flsbuf>
    a308:	1c43      	adds	r3, r0, #1
    a30a:	d1ed      	bne.n	a2e8 <fputs+0x6>
    a30c:	bd38      	pop	{r3, r4, r5, pc}

0000a30e <strlen>:
    a30e:	1c42      	adds	r2, r0, #1
    a310:	b510      	push	{r4, lr}
    a312:	0783      	lsls	r3, r0, #30
    a314:	4604      	mov	r4, r0
    a316:	d116      	bne.n	a346 <strlen+0x38>
    a318:	4623      	mov	r3, r4
    a31a:	f854 1b04 	ldr.w	r1, [r4], #4
    a31e:	f1a1 3001 	sub.w	r0, r1, #16843009	; 0x1010101
    a322:	ea20 0001 	bic.w	r0, r0, r1
    a326:	f010 3f80 	tst.w	r0, #2155905152	; 0x80808080
    a32a:	d0f5      	beq.n	a318 <strlen+0xa>
    a32c:	f011 0fff 	tst.w	r1, #255	; 0xff
    a330:	d011      	beq.n	a356 <strlen+0x48>
    a332:	f411 4f7f 	tst.w	r1, #65280	; 0xff00
    a336:	d00c      	beq.n	a352 <strlen+0x44>
    a338:	f411 0f7f 	tst.w	r1, #16711680	; 0xff0000
    a33c:	bf14      	ite	ne
    a33e:	4623      	movne	r3, r4
    a340:	3303      	addeq	r3, #3
    a342:	1a98      	subs	r0, r3, r2
    a344:	e004      	b.n	a350 <strlen+0x42>
    a346:	f810 3b01 	ldrb.w	r3, [r0], #1
    a34a:	2b00      	cmp	r3, #0
    a34c:	d1e1      	bne.n	a312 <strlen+0x4>
    a34e:	1a80      	subs	r0, r0, r2
    a350:	bd10      	pop	{r4, pc}
    a352:	3302      	adds	r3, #2
    a354:	e7f5      	b.n	a342 <strlen+0x34>
    a356:	3301      	adds	r3, #1
    a358:	e7f3      	b.n	a342 <strlen+0x34>

0000a35a <_fdopen>:
    a35a:	b570      	push	{r4, r5, r6, lr}
    a35c:	460d      	mov	r5, r1
    a35e:	4606      	mov	r6, r0
    a360:	4610      	mov	r0, r2
    a362:	4614      	mov	r4, r2
    a364:	f000 f82d 	bl	a3c2 <fclose>
    a368:	782b      	ldrb	r3, [r5, #0]
    a36a:	2b72      	cmp	r3, #114	; 0x72
    a36c:	d017      	beq.n	a39e <_fdopen+0x44>
    a36e:	2b77      	cmp	r3, #119	; 0x77
    a370:	d018      	beq.n	a3a4 <_fdopen+0x4a>
    a372:	2b61      	cmp	r3, #97	; 0x61
    a374:	d123      	bne.n	a3be <_fdopen+0x64>
    a376:	2308      	movs	r3, #8
    a378:	f248 0202 	movw	r2, #32770	; 0x8002
    a37c:	f815 1f01 	ldrb.w	r1, [r5, #1]!
    a380:	292b      	cmp	r1, #43	; 0x2b
    a382:	d012      	beq.n	a3aa <_fdopen+0x50>
    a384:	2962      	cmp	r1, #98	; 0x62
    a386:	d015      	beq.n	a3b4 <_fdopen+0x5a>
    a388:	071b      	lsls	r3, r3, #28
    a38a:	60e2      	str	r2, [r4, #12]
    a38c:	6166      	str	r6, [r4, #20]
    a38e:	d504      	bpl.n	a39a <_fdopen+0x40>
    a390:	2202      	movs	r2, #2
    a392:	2100      	movs	r1, #0
    a394:	4620      	mov	r0, r4
    a396:	f7fd fbf1 	bl	7b7c <fseek>
    a39a:	4620      	mov	r0, r4
    a39c:	bd70      	pop	{r4, r5, r6, pc}
    a39e:	2300      	movs	r3, #0
    a3a0:	2201      	movs	r2, #1
    a3a2:	e7eb      	b.n	a37c <_fdopen+0x22>
    a3a4:	2304      	movs	r3, #4
    a3a6:	2202      	movs	r2, #2
    a3a8:	e7e8      	b.n	a37c <_fdopen+0x22>
    a3aa:	f042 0203 	orr.w	r2, r2, #3
    a3ae:	f043 0302 	orr.w	r3, r3, #2
    a3b2:	e7e3      	b.n	a37c <_fdopen+0x22>
    a3b4:	f042 0204 	orr.w	r2, r2, #4
    a3b8:	f043 0301 	orr.w	r3, r3, #1
    a3bc:	e7de      	b.n	a37c <_fdopen+0x22>
    a3be:	2400      	movs	r4, #0
    a3c0:	e7eb      	b.n	a39a <_fdopen+0x40>

0000a3c2 <fclose>:
    a3c2:	b5f0      	push	{r4, r5, r6, r7, lr}
    a3c4:	68c4      	ldr	r4, [r0, #12]
    a3c6:	b089      	sub	sp, #36	; 0x24
    a3c8:	4605      	mov	r5, r0
    a3ca:	07a1      	lsls	r1, r4, #30
    a3cc:	d022      	beq.n	a414 <fclose+0x52>
    a3ce:	0722      	lsls	r2, r4, #28
    a3d0:	d418      	bmi.n	a404 <fclose+0x42>
    a3d2:	e9d0 6704 	ldrd	r6, r7, [r0, #16]
    a3d6:	f7fd fcef 	bl	7db8 <fflush>
    a3da:	4638      	mov	r0, r7
    a3dc:	f000 f91b 	bl	a616 <__sys_close>
    a3e0:	0523      	lsls	r3, r4, #20
    a3e2:	d502      	bpl.n	a3ea <fclose+0x28>
    a3e4:	4630      	mov	r0, r6
    a3e6:	f7ff ff64 	bl	a2b2 <free>
    a3ea:	0da4      	lsrs	r4, r4, #22
    a3ec:	05a4      	lsls	r4, r4, #22
    a3ee:	f114 4fa5 	cmn.w	r4, #1384120320	; 0x52800000
    a3f2:	d107      	bne.n	a404 <fclose+0x42>
    a3f4:	2220      	movs	r2, #32
    a3f6:	6a29      	ldr	r1, [r5, #32]
    a3f8:	4668      	mov	r0, sp
    a3fa:	f000 f91b 	bl	a634 <__sys_tmpnam>
    a3fe:	4668      	mov	r0, sp
    a400:	f000 f80b 	bl	a41a <remove>
    a404:	223c      	movs	r2, #60	; 0x3c
    a406:	2100      	movs	r1, #0
    a408:	4628      	mov	r0, r5
    a40a:	f7ff fe67 	bl	a0dc <memset>
    a40e:	2000      	movs	r0, #0
    a410:	b009      	add	sp, #36	; 0x24
    a412:	bdf0      	pop	{r4, r5, r6, r7, pc}
    a414:	f04f 30ff 	mov.w	r0, #4294967295
    a418:	e7fa      	b.n	a410 <fclose+0x4e>

0000a41a <remove>:
    a41a:	b510      	push	{r4, lr}
    a41c:	4604      	mov	r4, r0
    a41e:	f7ff ff76 	bl	a30e <strlen>
    a422:	4601      	mov	r1, r0
    a424:	4620      	mov	r0, r4
    a426:	e8bd 4010 	ldmia.w	sp!, {r4, lr}
    a42a:	f000 b8fd 	b.w	a628 <__sys_remove>

0000a42e <_do_fflush>:
    a42e:	68c3      	ldr	r3, [r0, #12]
    a430:	b570      	push	{r4, r5, r6, lr}
    a432:	f013 0603 	ands.w	r6, r3, #3
    a436:	4604      	mov	r4, r0
    a438:	d011      	beq.n	a45e <_do_fflush+0x30>
    a43a:	069b      	lsls	r3, r3, #26
    a43c:	d511      	bpl.n	a462 <_do_fflush+0x34>
    a43e:	6a85      	ldr	r5, [r0, #40]	; 0x28
    a440:	f7ff fe4e 	bl	a0e0 <_deferredlazyseek>
    a444:	68e3      	ldr	r3, [r4, #12]
    a446:	4620      	mov	r0, r4
    a448:	f423 5340 	bic.w	r3, r3, #12288	; 0x3000
    a44c:	60e3      	str	r3, [r4, #12]
    a44e:	f7ff ff07 	bl	a260 <_fflush>
    a452:	2200      	movs	r2, #0
    a454:	4606      	mov	r6, r0
    a456:	4629      	mov	r1, r5
    a458:	4620      	mov	r0, r4
    a45a:	f7fd fb8f 	bl	7b7c <fseek>
    a45e:	4630      	mov	r0, r6
    a460:	bd70      	pop	{r4, r5, r6, pc}
    a462:	6983      	ldr	r3, [r0, #24]
    a464:	6805      	ldr	r5, [r0, #0]
    a466:	441d      	add	r5, r3
    a468:	6903      	ldr	r3, [r0, #16]
    a46a:	1aed      	subs	r5, r5, r3
    a46c:	e7ea      	b.n	a444 <_do_fflush+0x16>

0000a46e <__aeabi_uldivmod>:
    a46e:	f05f 0c00 	movs.w	ip, #0

0000a472 <__bhs_ldivmod1>:
    a472:	b530      	push	{r4, r5, lr}
    a474:	001c      	movs	r4, r3
    a476:	d122      	bne.n	a4be <ldiv64>
    a478:	0012      	movs	r2, r2
    a47a:	d06f      	beq.n	a55c <ldiv_divzero>
    a47c:	4291      	cmp	r1, r2
    a47e:	d306      	bcc.n	a48e <ldiv32>
    a480:	4605      	mov	r5, r0
    a482:	4608      	mov	r0, r1
    a484:	2100      	movs	r1, #0
    a486:	f000 f86f 	bl	a568 <udiv6432>
    a48a:	4604      	mov	r4, r0
    a48c:	4628      	mov	r0, r5

0000a48e <ldiv32>:
    a48e:	f000 f86b 	bl	a568 <udiv6432>
    a492:	460a      	mov	r2, r1
    a494:	4621      	mov	r1, r4

0000a496 <ldiv_return>:
    a496:	e8bd 4030 	ldmia.w	sp!, {r4, r5, lr}
    a49a:	f01c 4f40 	tst.w	ip, #3221225472	; 0xc0000000
    a49e:	bf08      	it	eq
    a4a0:	4770      	bxeq	lr
    a4a2:	d503      	bpl.n	a4ac <ldiv_sign>
    a4a4:	4249      	negs	r1, r1
    a4a6:	4240      	negs	r0, r0
    a4a8:	f161 0100 	sbc.w	r1, r1, #0

0000a4ac <ldiv_sign>:
    a4ac:	ea5f 0c8c 	movs.w	ip, ip, lsl #2
    a4b0:	bf38      	it	cc
    a4b2:	4770      	bxcc	lr
    a4b4:	425b      	negs	r3, r3
    a4b6:	4252      	negs	r2, r2
    a4b8:	f163 0300 	sbc.w	r3, r3, #0
    a4bc:	4770      	bx	lr

0000a4be <ldiv64>:
    a4be:	d442      	bmi.n	a546 <ldiv_res01>
    a4c0:	0c1c      	lsrs	r4, r3, #16
    a4c2:	bf04      	itt	eq
    a4c4:	041b      	lsleq	r3, r3, #16
    a4c6:	f10c 0c10 	addeq.w	ip, ip, #16
    a4ca:	f013 4f7f 	tst.w	r3, #4278190080	; 0xff000000
    a4ce:	bf04      	itt	eq
    a4d0:	021b      	lsleq	r3, r3, #8
    a4d2:	f10c 0c08 	addeq.w	ip, ip, #8
    a4d6:	f013 4f70 	tst.w	r3, #4026531840	; 0xf0000000
    a4da:	bf04      	itt	eq
    a4dc:	011b      	lsleq	r3, r3, #4
    a4de:	f10c 0c04 	addeq.w	ip, ip, #4
    a4e2:	f013 4f40 	tst.w	r3, #3221225472	; 0xc0000000
    a4e6:	bf04      	itt	eq
    a4e8:	f10c 0c02 	addeq.w	ip, ip, #2
    a4ec:	ea5f 0383 	movseq.w	r3, r3, lsl #2
    a4f0:	bf5c      	itt	pl
    a4f2:	f10c 0c01 	addpl.w	ip, ip, #1
    a4f6:	005b      	lslpl	r3, r3, #1
    a4f8:	f1cc 0e20 	rsb	lr, ip, #32
    a4fc:	fa22 f40e 	lsr.w	r4, r2, lr
    a500:	4323      	orrs	r3, r4
    a502:	fa02 f20c 	lsl.w	r2, r2, ip
    a506:	fa00 f50c 	lsl.w	r5, r0, ip
    a50a:	fa20 f00e 	lsr.w	r0, r0, lr
    a50e:	fa01 f40c 	lsl.w	r4, r1, ip
    a512:	4320      	orrs	r0, r4
    a514:	fa21 f10e 	lsr.w	r1, r1, lr
    a518:	4614      	mov	r4, r2
    a51a:	461a      	mov	r2, r3
    a51c:	f000 f824 	bl	a568 <udiv6432>
    a520:	fba4 2300 	umull	r2, r3, r4, r0
    a524:	1aaa      	subs	r2, r5, r2
    a526:	eb71 0303 	sbcs.w	r3, r1, r3
    a52a:	bf3c      	itt	cc
    a52c:	191b      	addcc	r3, r3, r4
    a52e:	3801      	subcc	r0, #1
    a530:	f1cc 0e20 	rsb	lr, ip, #32
    a534:	fa22 f20c 	lsr.w	r2, r2, ip
    a538:	fa03 f40e 	lsl.w	r4, r3, lr
    a53c:	4322      	orrs	r2, r4
    a53e:	fa23 f30c 	lsr.w	r3, r3, ip
    a542:	2100      	movs	r1, #0
    a544:	e7a7      	b.n	a496 <ldiv_return>

0000a546 <ldiv_res01>:
    a546:	1a82      	subs	r2, r0, r2
    a548:	eb71 0303 	sbcs.w	r3, r1, r3
    a54c:	bf3c      	itt	cc
    a54e:	4602      	movcc	r2, r0
    a550:	460b      	movcc	r3, r1
    a552:	f04f 0100 	mov.w	r1, #0
    a556:	f141 0000 	adc.w	r0, r1, #0
    a55a:	e79c      	b.n	a496 <ldiv_return>

0000a55c <ldiv_divzero>:
    a55c:	2000      	movs	r0, #0
    a55e:	2100      	movs	r1, #0
    a560:	e8bd 4030 	ldmia.w	sp!, {r4, r5, lr}
    a564:	f000 b83d 	b.w	a5e2 <__aeabi_idiv0>

0000a568 <udiv6432>:
    a568:	2304      	movs	r3, #4
    a56a:	ebb1 2f12 	cmp.w	r1, r2, lsr #8
    a56e:	d209      	bcs.n	a584 <udiv6432_entry>

0000a570 <udiv6432_loop1>:
    a570:	0209      	lsls	r1, r1, #8
    a572:	ea41 6110 	orr.w	r1, r1, r0, lsr #24
    a576:	0200      	lsls	r0, r0, #8
    a578:	3b01      	subs	r3, #1
    a57a:	bf08      	it	eq
    a57c:	4770      	bxeq	lr
    a57e:	ebb1 2f12 	cmp.w	r1, r2, lsr #8
    a582:	d3f5      	bcc.n	a570 <udiv6432_loop1>

0000a584 <udiv6432_entry>:
    a584:	1800      	adds	r0, r0, r0

0000a586 <udiv6432_loop>:
    a586:	4149      	adcs	r1, r1
    a588:	bf34      	ite	cc
    a58a:	4291      	cmpcc	r1, r2
    a58c:	1a89      	subcs	r1, r1, r2
    a58e:	4140      	adcs	r0, r0
    a590:	4149      	adcs	r1, r1
    a592:	bf34      	ite	cc
    a594:	4291      	cmpcc	r1, r2
    a596:	1a89      	subcs	r1, r1, r2
    a598:	4140      	adcs	r0, r0
    a59a:	4149      	adcs	r1, r1
    a59c:	bf34      	ite	cc
    a59e:	4291      	cmpcc	r1, r2
    a5a0:	1a89      	subcs	r1, r1, r2
    a5a2:	4140      	adcs	r0, r0
    a5a4:	4149      	adcs	r1, r1
    a5a6:	bf34      	ite	cc
    a5a8:	4291      	cmpcc	r1, r2
    a5aa:	1a89      	subcs	r1, r1, r2
    a5ac:	4140      	adcs	r0, r0
    a5ae:	4149      	adcs	r1, r1
    a5b0:	bf34      	ite	cc
    a5b2:	4291      	cmpcc	r1, r2
    a5b4:	1a89      	subcs	r1, r1, r2
    a5b6:	4140      	adcs	r0, r0
    a5b8:	4149      	adcs	r1, r1
    a5ba:	bf34      	ite	cc
    a5bc:	4291      	cmpcc	r1, r2
    a5be:	1a89      	subcs	r1, r1, r2
    a5c0:	4140      	adcs	r0, r0
    a5c2:	4149      	adcs	r1, r1
    a5c4:	bf34      	ite	cc
    a5c6:	4291      	cmpcc	r1, r2
    a5c8:	1a89      	subcs	r1, r1, r2
    a5ca:	4140      	adcs	r0, r0
    a5cc:	4149      	adcs	r1, r1
    a5ce:	bf34      	ite	cc
    a5d0:	4291      	cmpcc	r1, r2
    a5d2:	1a89      	subcs	r1, r1, r2
    a5d4:	4140      	adcs	r0, r0
    a5d6:	f1a3 0301 	sub.w	r3, r3, #1
    a5da:	f013 0f0f 	tst.w	r3, #15
    a5de:	d1d2      	bne.n	a586 <udiv6432_loop>
    a5e0:	4770      	bx	lr

0000a5e2 <__aeabi_idiv0>:
    a5e2:	4770      	bx	lr

0000a5e4 <__aeabi_lowlevel_memset>:
    a5e4:	4603      	mov	r3, r0
    a5e6:	f013 0f03 	tst.w	r3, #3
    a5ea:	d10e      	bne.n	a60a <memset1a>
    a5ec:	f001 01ff 	and.w	r1, r1, #255	; 0xff
    a5f0:	ea41 2101 	orr.w	r1, r1, r1, lsl #8
    a5f4:	ea41 4101 	orr.w	r1, r1, r1, lsl #16

0000a5f8 <__bhs_memset4>:
    a5f8:	3a04      	subs	r2, #4

0000a5fa <memset4>:
    a5fa:	bf24      	itt	cs
    a5fc:	f843 1b04 	strcs.w	r1, [r3], #4
    a600:	f1b2 0204 	subscs.w	r2, r2, #4
    a604:	d2f9      	bcs.n	a5fa <memset4>

0000a606 <memset1>:
    a606:	f102 0204 	add.w	r2, r2, #4

0000a60a <memset1a>:
    a60a:	3a01      	subs	r2, #1
    a60c:	bf24      	itt	cs
    a60e:	f803 1b01 	strbcs.w	r1, [r3], #1
    a612:	e7fa      	bcs.n	a60a <memset1a>
    a614:	4770      	bx	lr

0000a616 <__sys_close>:
    a616:	f04f 30ff 	mov.w	r0, #4294967295
    a61a:	4770      	bx	lr

0000a61c <__sys_flen>:
    a61c:	f04f 30ff 	mov.w	r0, #4294967295
    a620:	4770      	bx	lr

0000a622 <__sys_istty>:
    a622:	f04f 30ff 	mov.w	r0, #4294967295
    a626:	4770      	bx	lr

0000a628 <__sys_remove>:
    a628:	f04f 30ff 	mov.w	r0, #4294967295
    a62c:	4770      	bx	lr

0000a62e <__sys_seek>:
    a62e:	f04f 30ff 	mov.w	r0, #4294967295
    a632:	4770      	bx	lr

0000a634 <__sys_tmpnam>:
    a634:	f04f 30ff 	mov.w	r0, #4294967295
    a638:	4770      	bx	lr

0000a63a <__sys_write>:
    a63a:	4610      	mov	r0, r2
    a63c:	4770      	bx	lr
    a63e:	ffff 2e2e 			; <UNDEFINED> instruction: 0xffff2e2e
    a642:	752f      	.short	0x752f
    a644:	696c6974 	.word	0x696c6974
    a648:	73656974 	.word	0x73656974
    a64c:	6c73662f 	.word	0x6c73662f
    a650:	6265645f 	.word	0x6265645f
    a654:	635f6775 	.word	0x635f6775
    a658:	6f736e6f 	.word	0x6f736e6f
    a65c:	632e656c 	.word	0x632e656c
    a660:	3239333a 	.word	0x3239333a
    a664:	4e203a20 	.word	0x4e203a20
    a668:	204c4c55 	.word	0x204c4c55
    a66c:	63203d21 	.word	0x63203d21
    a670:	00000068 	.word	0x00000068
    a674:	752f2e2e 	.word	0x752f2e2e
    a678:	696c6974 	.word	0x696c6974
    a67c:	73656974 	.word	0x73656974
    a680:	6c73662f 	.word	0x6c73662f
    a684:	6265645f 	.word	0x6265645f
    a688:	635f6775 	.word	0x635f6775
    a68c:	6f736e6f 	.word	0x6f736e6f
    a690:	632e656c 	.word	0x632e656c
    a694:	3339333a 	.word	0x3339333a
    a698:	30203a20 	.word	0x30203a20
    a69c:	203d2120 	.word	0x203d2120
    a6a0:	657a6973 	.word	0x657a6973
    a6a4:	00000000 	.word	0x00000000
    a6a8:	752f2e2e 	.word	0x752f2e2e
    a6ac:	696c6974 	.word	0x696c6974
    a6b0:	73656974 	.word	0x73656974
    a6b4:	6c73662f 	.word	0x6c73662f
    a6b8:	6265645f 	.word	0x6265645f
    a6bc:	635f6775 	.word	0x635f6775
    a6c0:	6f736e6f 	.word	0x6f736e6f
    a6c4:	632e656c 	.word	0x632e656c
    a6c8:	3536343a 	.word	0x3536343a
    a6cc:	4e203a20 	.word	0x4e203a20
    a6d0:	204c4c55 	.word	0x204c4c55
    a6d4:	63203d21 	.word	0x63203d21
    a6d8:	00000068 	.word	0x00000068
    a6dc:	752f2e2e 	.word	0x752f2e2e
    a6e0:	696c6974 	.word	0x696c6974
    a6e4:	73656974 	.word	0x73656974
    a6e8:	6c73662f 	.word	0x6c73662f
    a6ec:	6265645f 	.word	0x6265645f
    a6f0:	635f6775 	.word	0x635f6775
    a6f4:	6f736e6f 	.word	0x6f736e6f
    a6f8:	632e656c 	.word	0x632e656c
    a6fc:	3636343a 	.word	0x3636343a
    a700:	30203a20 	.word	0x30203a20
    a704:	203d2120 	.word	0x203d2120
    a708:	657a6973 	.word	0x657a6973
    a70c:	00000000 	.word	0x00000000
    a710:	752f2e2e 	.word	0x752f2e2e
    a714:	696c6974 	.word	0x696c6974
    a718:	73656974 	.word	0x73656974
    a71c:	6c73662f 	.word	0x6c73662f
    a720:	6265645f 	.word	0x6265645f
    a724:	635f6775 	.word	0x635f6775
    a728:	6f736e6f 	.word	0x6f736e6f
    a72c:	632e656c 	.word	0x632e656c
    a730:	3732353a 	.word	0x3732353a
    a734:	62203a20 	.word	0x62203a20
    a738:	21206675 	.word	0x21206675
    a73c:	554e203d 	.word	0x554e203d
    a740:	00004c4c 	.word	0x00004c4c
    a744:	752f2e2e 	.word	0x752f2e2e
    a748:	696c6974 	.word	0x696c6974
    a74c:	73656974 	.word	0x73656974
    a750:	6c73662f 	.word	0x6c73662f
    a754:	6265645f 	.word	0x6265645f
    a758:	635f6775 	.word	0x635f6775
    a75c:	6f736e6f 	.word	0x6f736e6f
    a760:	632e656c 	.word	0x632e656c
    a764:	3238353a 	.word	0x3238353a
    a768:	63203a20 	.word	0x63203a20
    a76c:	00000068 	.word	0x00000068
    a770:	752f2e2e 	.word	0x752f2e2e
    a774:	696c6974 	.word	0x696c6974
    a778:	73656974 	.word	0x73656974
    a77c:	6c73662f 	.word	0x6c73662f
    a780:	6265645f 	.word	0x6265645f
    a784:	635f6775 	.word	0x635f6775
    a788:	6f736e6f 	.word	0x6f736e6f
    a78c:	632e656c 	.word	0x632e656c
    a790:	3631373a 	.word	0x3631373a
    a794:	6b203a20 	.word	0x6b203a20
    a798:	74617453 	.word	0x74617453
    a79c:	535f7375 	.word	0x535f7375
    a7a0:	61697265 	.word	0x61697265
    a7a4:	6e614d6c 	.word	0x6e614d6c
    a7a8:	72656761 	.word	0x72656761
    a7ac:	6375535f 	.word	0x6375535f
    a7b0:	73736563 	.word	0x73736563
    a7b4:	203d3d20 	.word	0x203d3d20
    a7b8:	74617473 	.word	0x74617473
    a7bc:	00007375 	.word	0x00007375
    a7c0:	752f2e2e 	.word	0x752f2e2e
    a7c4:	696c6974 	.word	0x696c6974
    a7c8:	73656974 	.word	0x73656974
    a7cc:	6c73662f 	.word	0x6c73662f
    a7d0:	6265645f 	.word	0x6265645f
    a7d4:	635f6775 	.word	0x635f6775
    a7d8:	6f736e6f 	.word	0x6f736e6f
    a7dc:	632e656c 	.word	0x632e656c
    a7e0:	3632373a 	.word	0x3632373a
    a7e4:	6b203a20 	.word	0x6b203a20
    a7e8:	74617453 	.word	0x74617453
    a7ec:	535f7375 	.word	0x535f7375
    a7f0:	61697265 	.word	0x61697265
    a7f4:	6e614d6c 	.word	0x6e614d6c
    a7f8:	72656761 	.word	0x72656761
    a7fc:	6375535f 	.word	0x6375535f
    a800:	73736563 	.word	0x73736563
    a804:	203d3d20 	.word	0x203d3d20
    a808:	74617473 	.word	0x74617473
    a80c:	00007375 	.word	0x00007375
    a810:	752f2e2e 	.word	0x752f2e2e
    a814:	696c6974 	.word	0x696c6974
    a818:	73656974 	.word	0x73656974
    a81c:	6c73662f 	.word	0x6c73662f
    a820:	6265645f 	.word	0x6265645f
    a824:	635f6775 	.word	0x635f6775
    a828:	6f736e6f 	.word	0x6f736e6f
    a82c:	632e656c 	.word	0x632e656c
    a830:	3733373a 	.word	0x3733373a
    a834:	6b203a20 	.word	0x6b203a20
    a838:	74617453 	.word	0x74617453
    a83c:	535f7375 	.word	0x535f7375
    a840:	61697265 	.word	0x61697265
    a844:	6e614d6c 	.word	0x6e614d6c
    a848:	72656761 	.word	0x72656761
    a84c:	6375535f 	.word	0x6375535f
    a850:	73736563 	.word	0x73736563
    a854:	203d3d20 	.word	0x203d3d20
    a858:	74617473 	.word	0x74617473
    a85c:	ff007375 	.word	0xff007375
    a860:	43454843 	.word	0x43454843
    a864:	50495f4b 	.word	0x50495f4b
    a868:	4e4f435f 	.word	0x4e4f435f
    a86c:	43494c46 	.word	0x43494c46
    a870:	ffff0054 	.word	0xffff0054
    a874:	00000000 	.word	0x00000000
    a878:	ffffff00 	.word	0xffffff00
    a87c:	2a2a0a0d 	.word	0x2a2a0a0d
    a880:	68432a2a 	.word	0x68432a2a
    a884:	206e6961 	.word	0x206e6961
    a888:	656d6954 	.word	0x656d6954
    a88c:	73752072 	.word	0x73752072
    a890:	61632d65 	.word	0x61632d65
    a894:	202c6573 	.word	0x202c6573
    a898:	73203031 	.word	0x73203031
    a89c:	6e6f6365 	.word	0x6e6f6365
    a8a0:	69742064 	.word	0x69742064
    a8a4:	2a2e6b63 	.word	0x2a2e6b63
    a8a8:	0a2a2a2a 	.word	0x0a2a2a2a
    a8ac:	00000000 	.word	0x00000000
    a8b0:	5053504c 	.word	0x5053504c
    a8b4:	4d432049 	.word	0x4d432049
    a8b8:	20534953 	.word	0x20534953
    a8bc:	76697264 	.word	0x76697264
    a8c0:	62207265 	.word	0x62207265
    a8c4:	6472616f 	.word	0x6472616f
    a8c8:	206f7420 	.word	0x206f7420
    a8cc:	72616f62 	.word	0x72616f62
    a8d0:	6e692064 	.word	0x6e692064
    a8d4:	72726574 	.word	0x72726574
    a8d8:	20747075 	.word	0x20747075
    a8dc:	6d617865 	.word	0x6d617865
    a8e0:	2e656c70 	.word	0x2e656c70
    a8e4:	00000a0d 	.word	0x00000a0d
    a8e8:	73696854 	.word	0x73696854
    a8ec:	61786520 	.word	0x61786520
    a8f0:	656c706d 	.word	0x656c706d
    a8f4:	65737520 	.word	0x65737520
    a8f8:	656e6f20 	.word	0x656e6f20
    a8fc:	616f6220 	.word	0x616f6220
    a900:	61206472 	.word	0x61206472
    a904:	616d2073 	.word	0x616d2073
    a908:	72657473 	.word	0x72657473
    a90c:	646e6120 	.word	0x646e6120
    a910:	6f6e6120 	.word	0x6f6e6120
    a914:	72656874 	.word	0x72656874
    a918:	20736120 	.word	0x20736120
    a91c:	76616c73 	.word	0x76616c73
    a920:	0a0d2e65 	.word	0x0a0d2e65
    a924:	00000000 	.word	0x00000000
    a928:	7473614d 	.word	0x7473614d
    a92c:	61207265 	.word	0x61207265
    a930:	7320646e 	.word	0x7320646e
    a934:	6576616c 	.word	0x6576616c
    a938:	65737520 	.word	0x65737520
    a93c:	6e692073 	.word	0x6e692073
    a940:	72726574 	.word	0x72726574
    a944:	20747075 	.word	0x20747075
    a948:	2e796177 	.word	0x2e796177
    a94c:	616c5320 	.word	0x616c5320
    a950:	73206576 	.word	0x73206576
    a954:	6c756f68 	.word	0x6c756f68
    a958:	74732064 	.word	0x74732064
    a95c:	20747261 	.word	0x20747261
    a960:	73726966 	.word	0x73726966
    a964:	0d202e74 	.word	0x0d202e74
    a968:	0000000a 	.word	0x0000000a
    a96c:	61656c50 	.word	0x61656c50
    a970:	6d206573 	.word	0x6d206573
    a974:	20656b61 	.word	0x20656b61
    a978:	65727573 	.word	0x65727573
    a97c:	756f7920 	.word	0x756f7920
    a980:	6b616d20 	.word	0x6b616d20
    a984:	68742065 	.word	0x68742065
    a988:	6f632065 	.word	0x6f632065
    a98c:	63657272 	.word	0x63657272
    a990:	696c2074 	.word	0x696c2074
    a994:	6320656e 	.word	0x6320656e
    a998:	656e6e6f 	.word	0x656e6e6f
    a99c:	6f697463 	.word	0x6f697463
    a9a0:	42202e6e 	.word	0x42202e6e
    a9a4:	63697361 	.word	0x63697361
    a9a8:	796c6c61 	.word	0x796c6c61
    a9ac:	6874202c 	.word	0x6874202c
    a9b0:	6f632065 	.word	0x6f632065
    a9b4:	63656e6e 	.word	0x63656e6e
    a9b8:	6e6f6974 	.word	0x6e6f6974
    a9bc:	3a736920 	.word	0x3a736920
    a9c0:	000a0d20 	.word	0x000a0d20
    a9c4:	5053504c 	.word	0x5053504c
    a9c8:	616d5f49 	.word	0x616d5f49
    a9cc:	72657473 	.word	0x72657473
    a9d0:	202d2d20 	.word	0x202d2d20
    a9d4:	5053504c 	.word	0x5053504c
    a9d8:	6c735f49 	.word	0x6c735f49
    a9dc:	20657661 	.word	0x20657661
    a9e0:	0a0d2020 	.word	0x0a0d2020
    a9e4:	00000000 	.word	0x00000000
    a9e8:	43202020 	.word	0x43202020
    a9ec:	20204b4c 	.word	0x20204b4c
    a9f0:	20202020 	.word	0x20202020
    a9f4:	202d2d20 	.word	0x202d2d20
    a9f8:	43202020 	.word	0x43202020
    a9fc:	20204b4c 	.word	0x20204b4c
    aa00:	00000a0d 	.word	0x00000a0d
    aa04:	50202020 	.word	0x50202020
    aa08:	20205343 	.word	0x20205343
    aa0c:	20202020 	.word	0x20202020
    aa10:	202d2d20 	.word	0x202d2d20
    aa14:	50202020 	.word	0x50202020
    aa18:	0d205343 	.word	0x0d205343
    aa1c:	0000000a 	.word	0x0000000a
    aa20:	53202020 	.word	0x53202020
    aa24:	2054554f 	.word	0x2054554f
    aa28:	20202020 	.word	0x20202020
    aa2c:	202d2d20 	.word	0x202d2d20
    aa30:	53202020 	.word	0x53202020
    aa34:	20204e49 	.word	0x20204e49
    aa38:	00000a0d 	.word	0x00000a0d
    aa3c:	53202020 	.word	0x53202020
    aa40:	20204e49 	.word	0x20204e49
    aa44:	20202020 	.word	0x20202020
    aa48:	202d2d20 	.word	0x202d2d20
    aa4c:	53202020 	.word	0x53202020
    aa50:	2054554f 	.word	0x2054554f
    aa54:	00000a0d 	.word	0x00000a0d
    aa58:	47202020 	.word	0x47202020
    aa5c:	2020444e 	.word	0x2020444e
    aa60:	20202020 	.word	0x20202020
    aa64:	202d2d20 	.word	0x202d2d20
    aa68:	47202020 	.word	0x47202020
    aa6c:	0d20444e 	.word	0x0d20444e
    aa70:	0000000a 	.word	0x0000000a
    aa74:	00006425 	.word	0x00006425
    aa78:	637a6957 	.word	0x637a6957
    aa7c:	20706968 	.word	0x20706968
    aa80:	74696e69 	.word	0x74696e69
    aa84:	0000000a 	.word	0x0000000a
    aa88:	000a6425 	.word	0x000a6425
    aa8c:	637a6957 	.word	0x637a6957
    aa90:	20706968 	.word	0x20706968
    aa94:	20746573 	.word	0x20746573
    aa98:	6f666e69 	.word	0x6f666e69
    aa9c:	0000000a 	.word	0x0000000a
    aaa0:	50434844 	.word	0x50434844
    aaa4:	696e4920 	.word	0x696e4920
    aaa8:	00000a74 	.word	0x00000a74
    aaac:	50434844 	.word	0x50434844
    aab0:	6e755220 	.word	0x6e755220
    aab4:	0000000a 	.word	0x0000000a
    aab8:	0a0a6425 	.word	0x0a0a6425
    aabc:	00000000 	.word	0x00000000
    aac0:	61205049 	.word	0x61205049
    aac4:	67697373 	.word	0x67697373
    aac8:	0a64656e 	.word	0x0a64656e
    aacc:	00000000 	.word	0x00000000
    aad0:	252e6425 	.word	0x252e6425
    aad4:	64252e64 	.word	0x64252e64
    aad8:	0a64252e 	.word	0x0a64252e
    aadc:	00000000 	.word	0x00000000
    aae0:	63205049 	.word	0x63205049
    aae4:	676e6168 	.word	0x676e6168
    aae8:	000a6465 	.word	0x000a6465
    aaec:	4c205049 	.word	0x4c205049
    aaf0:	65736165 	.word	0x65736165
    aaf4:	00000064 	.word	0x00000064
    aaf8:	50434844 	.word	0x50434844
    aafc:	69616620 	.word	0x69616620
    ab00:	0a64656c 	.word	0x0a64656c
    ab04:	00000000 	.word	0x00000000
    ab08:	50434844 	.word	0x50434844
    ab0c:	6b6e7520 	.word	0x6b6e7520
    ab10:	6e776f6e 	.word	0x6e776f6e
    ab14:	ffff000a 	.word	0xffff000a
    ab18:	642f2e2e 	.word	0x642f2e2e
    ab1c:	65766972 	.word	0x65766972
    ab20:	662f7372 	.word	0x662f7372
    ab24:	635f6c73 	.word	0x635f6c73
    ab28:	6b636f6c 	.word	0x6b636f6c
    ab2c:	313a632e 	.word	0x313a632e
    ab30:	3a203435 	.word	0x3a203435
    ab34:	79622120 	.word	0x79622120
    ab38:	73736170 	.word	0x73736170
    ab3c:	6c617458 	.word	0x6c617458
    ab40:	0063734f 	.word	0x0063734f
    ab44:	017d7840 	.word	0x017d7840
    ab48:	02faf080 	.word	0x02faf080
    ab4c:	05f5e100 	.word	0x05f5e100
    ab50:	07735940 	.word	0x07735940
    ab54:	642f2e2e 	.word	0x642f2e2e
    ab58:	65766972 	.word	0x65766972
    ab5c:	662f7372 	.word	0x662f7372
    ab60:	635f6c73 	.word	0x635f6c73
    ab64:	6b636f6c 	.word	0x6b636f6c
    ab68:	313a632e 	.word	0x313a632e
    ab6c:	20303432 	.word	0x20303432
    ab70:	5530203a 	.word	0x5530203a
    ab74:	203d2120 	.word	0x203d2120
    ab78:	616c6564 	.word	0x616c6564
    ab7c:	73755f79 	.word	0x73755f79
    ab80:	00000000 	.word	0x00000000
    ab84:	642f2e2e 	.word	0x642f2e2e
    ab88:	65766972 	.word	0x65766972
    ab8c:	662f7372 	.word	0x662f7372
    ab90:	635f6c73 	.word	0x635f6c73
    ab94:	6b636f6c 	.word	0x6b636f6c
    ab98:	313a632e 	.word	0x313a632e
    ab9c:	20313532 	.word	0x20313532
    aba0:	5744203a 	.word	0x5744203a
    aba4:	54435f54 	.word	0x54435f54
    aba8:	4e5f4c52 	.word	0x4e5f4c52
    abac:	4359434f 	.word	0x4359434f
    abb0:	5f544e43 	.word	0x5f544e43
    abb4:	206b734d 	.word	0x206b734d
    abb8:	28203d21 	.word	0x28203d21
    abbc:	2d545744 	.word	0x2d545744
    abc0:	5254433e 	.word	0x5254433e
    abc4:	2026204c 	.word	0x2026204c
    abc8:	5f545744 	.word	0x5f545744
    abcc:	4c525443 	.word	0x4c525443
    abd0:	434f4e5f 	.word	0x434f4e5f
    abd4:	4e434359 	.word	0x4e434359
    abd8:	734d5f54 	.word	0x734d5f54
    abdc:	ff00296b 	.word	0xff00296b
    abe0:	642f2e2e 	.word	0x642f2e2e
    abe4:	65766972 	.word	0x65766972
    abe8:	662f7372 	.word	0x662f7372
    abec:	635f6c73 	.word	0x635f6c73
    abf0:	6b636f6c 	.word	0x6b636f6c
    abf4:	313a682e 	.word	0x313a682e
    abf8:	20313630 	.word	0x20313630
    abfc:	6e69203a 	.word	0x6e69203a
    ac00:	20786564 	.word	0x20786564
    ac04:	37203d3c 	.word	0x37203d3c
    ac08:	00000000 	.word	0x00000000
    ac0c:	642f2e2e 	.word	0x642f2e2e
    ac10:	65766972 	.word	0x65766972
    ac14:	662f7372 	.word	0x662f7372
    ac18:	655f6c73 	.word	0x655f6c73
    ac1c:	2e616d64 	.word	0x2e616d64
    ac20:	38363a63 	.word	0x38363a63
    ac24:	69203a20 	.word	0x69203a20
    ac28:	6174736e 	.word	0x6174736e
    ac2c:	2065636e 	.word	0x2065636e
    ac30:	5241203c 	.word	0x5241203c
    ac34:	5f594152 	.word	0x5f594152
    ac38:	455a4953 	.word	0x455a4953
    ac3c:	655f7328 	.word	0x655f7328
    ac40:	42616d64 	.word	0x42616d64
    ac44:	73657361 	.word	0x73657361
    ac48:	00000029 	.word	0x00000029
    ac4c:	642f2e2e 	.word	0x642f2e2e
    ac50:	65766972 	.word	0x65766972
    ac54:	662f7372 	.word	0x662f7372
    ac58:	655f6c73 	.word	0x655f6c73
    ac5c:	2e616d64 	.word	0x2e616d64
    ac60:	32383a63 	.word	0x32383a63
    ac64:	63203a20 	.word	0x63203a20
    ac68:	6e6e6168 	.word	0x6e6e6168
    ac6c:	3c206c65 	.word	0x3c206c65
    ac70:	69752820 	.word	0x69752820
    ac74:	3233746e 	.word	0x3233746e
    ac78:	4629745f 	.word	0x4629745f
    ac7c:	465f4c53 	.word	0x465f4c53
    ac80:	55544145 	.word	0x55544145
    ac84:	455f4552 	.word	0x455f4552
    ac88:	5f414d44 	.word	0x5f414d44
    ac8c:	55444f4d 	.word	0x55444f4d
    ac90:	435f454c 	.word	0x435f454c
    ac94:	4e4e4148 	.word	0x4e4e4148
    ac98:	00004c45 	.word	0x00004c45
    ac9c:	642f2e2e 	.word	0x642f2e2e
    aca0:	65766972 	.word	0x65766972
    aca4:	662f7372 	.word	0x662f7372
    aca8:	655f6c73 	.word	0x655f6c73
    acac:	2e616d64 	.word	0x2e616d64
    acb0:	33383a63 	.word	0x33383a63
    acb4:	74203a20 	.word	0x74203a20
    acb8:	21206463 	.word	0x21206463
    acbc:	554e203d 	.word	0x554e203d
    acc0:	00004c4c 	.word	0x00004c4c
    acc4:	642f2e2e 	.word	0x642f2e2e
    acc8:	65766972 	.word	0x65766972
    accc:	662f7372 	.word	0x662f7372
    acd0:	655f6c73 	.word	0x655f6c73
    acd4:	2e616d64 	.word	0x2e616d64
    acd8:	34383a63 	.word	0x34383a63
    acdc:	28203a20 	.word	0x28203a20
    ace0:	6e697528 	.word	0x6e697528
    ace4:	5f323374 	.word	0x5f323374
    ace8:	63742974 	.word	0x63742974
    acec:	20262064 	.word	0x20262064
    acf0:	46317830 	.word	0x46317830
    acf4:	3d202955 	.word	0x3d202955
    acf8:	5530203d 	.word	0x5530203d
    acfc:	00000000 	.word	0x00000000
    ad00:	642f2e2e 	.word	0x642f2e2e
    ad04:	65766972 	.word	0x65766972
    ad08:	662f7372 	.word	0x662f7372
    ad0c:	655f6c73 	.word	0x655f6c73
    ad10:	2e616d64 	.word	0x2e616d64
    ad14:	31313a63 	.word	0x31313a63
    ad18:	203a2034 	.word	0x203a2034
    ad1c:	666e6f63 	.word	0x666e6f63
    ad20:	21206769 	.word	0x21206769
    ad24:	554e203d 	.word	0x554e203d
    ad28:	00004c4c 	.word	0x00004c4c
    ad2c:	642f2e2e 	.word	0x642f2e2e
    ad30:	65766972 	.word	0x65766972
    ad34:	662f7372 	.word	0x662f7372
    ad38:	655f6c73 	.word	0x655f6c73
    ad3c:	2e616d64 	.word	0x2e616d64
    ad40:	36313a63 	.word	0x36313a63
    ad44:	203a2036 	.word	0x203a2036
    ad48:	666e6f63 	.word	0x666e6f63
    ad4c:	21206769 	.word	0x21206769
    ad50:	554e203d 	.word	0x554e203d
    ad54:	00004c4c 	.word	0x00004c4c
    ad58:	642f2e2e 	.word	0x642f2e2e
    ad5c:	65766972 	.word	0x65766972
    ad60:	662f7372 	.word	0x662f7372
    ad64:	655f6c73 	.word	0x655f6c73
    ad68:	2e616d64 	.word	0x2e616d64
    ad6c:	39313a63 	.word	0x39313a63
    ad70:	203a2030 	.word	0x203a2030
    ad74:	6e616863 	.word	0x6e616863
    ad78:	206c656e 	.word	0x206c656e
    ad7c:	7528203c 	.word	0x7528203c
    ad80:	33746e69 	.word	0x33746e69
    ad84:	29745f32 	.word	0x29745f32
    ad88:	5f4c5346 	.word	0x5f4c5346
    ad8c:	54414546 	.word	0x54414546
    ad90:	5f455255 	.word	0x5f455255
    ad94:	414d4445 	.word	0x414d4445
    ad98:	444f4d5f 	.word	0x444f4d5f
    ad9c:	5f454c55 	.word	0x5f454c55
    ada0:	4e414843 	.word	0x4e414843
    ada4:	004c454e 	.word	0x004c454e
    ada8:	642f2e2e 	.word	0x642f2e2e
    adac:	65766972 	.word	0x65766972
    adb0:	662f7372 	.word	0x662f7372
    adb4:	655f6c73 	.word	0x655f6c73
    adb8:	2e616d64 	.word	0x2e616d64
    adbc:	32323a63 	.word	0x32323a63
    adc0:	203a2032 	.word	0x203a2032
    adc4:	6e616863 	.word	0x6e616863
    adc8:	206c656e 	.word	0x206c656e
    adcc:	7528203c 	.word	0x7528203c
    add0:	33746e69 	.word	0x33746e69
    add4:	29745f32 	.word	0x29745f32
    add8:	5f4c5346 	.word	0x5f4c5346
    addc:	54414546 	.word	0x54414546
    ade0:	5f455255 	.word	0x5f455255
    ade4:	414d4445 	.word	0x414d4445
    ade8:	444f4d5f 	.word	0x444f4d5f
    adec:	5f454c55 	.word	0x5f454c55
    adf0:	4e414843 	.word	0x4e414843
    adf4:	004c454e 	.word	0x004c454e
    adf8:	642f2e2e 	.word	0x642f2e2e
    adfc:	65766972 	.word	0x65766972
    ae00:	662f7372 	.word	0x662f7372
    ae04:	655f6c73 	.word	0x655f6c73
    ae08:	2e616d64 	.word	0x2e616d64
    ae0c:	32323a63 	.word	0x32323a63
    ae10:	203a2033 	.word	0x203a2033
    ae14:	666e6f63 	.word	0x666e6f63
    ae18:	21206769 	.word	0x21206769
    ae1c:	554e203d 	.word	0x554e203d
    ae20:	00004c4c 	.word	0x00004c4c
    ae24:	642f2e2e 	.word	0x642f2e2e
    ae28:	65766972 	.word	0x65766972
    ae2c:	662f7372 	.word	0x662f7372
    ae30:	655f6c73 	.word	0x655f6c73
    ae34:	2e616d64 	.word	0x2e616d64
    ae38:	32323a63 	.word	0x32323a63
    ae3c:	203a2034 	.word	0x203a2034
    ae40:	69752828 	.word	0x69752828
    ae44:	3233746e 	.word	0x3233746e
    ae48:	6e29745f 	.word	0x6e29745f
    ae4c:	54747865 	.word	0x54747865
    ae50:	26206463 	.word	0x26206463
    ae54:	31783020 	.word	0x31783020
    ae58:	20295546 	.word	0x20295546
    ae5c:	30203d3d 	.word	0x30203d3d
    ae60:	00000055 	.word	0x00000055
    ae64:	642f2e2e 	.word	0x642f2e2e
    ae68:	65766972 	.word	0x65766972
    ae6c:	662f7372 	.word	0x662f7372
    ae70:	655f6c73 	.word	0x655f6c73
    ae74:	2e616d64 	.word	0x2e616d64
    ae78:	34323a63 	.word	0x34323a63
    ae7c:	203a2031 	.word	0x203a2031
    ae80:	6e616863 	.word	0x6e616863
    ae84:	206c656e 	.word	0x206c656e
    ae88:	7528203c 	.word	0x7528203c
    ae8c:	33746e69 	.word	0x33746e69
    ae90:	29745f32 	.word	0x29745f32
    ae94:	5f4c5346 	.word	0x5f4c5346
    ae98:	54414546 	.word	0x54414546
    ae9c:	5f455255 	.word	0x5f455255
    aea0:	414d4445 	.word	0x414d4445
    aea4:	444f4d5f 	.word	0x444f4d5f
    aea8:	5f454c55 	.word	0x5f454c55
    aeac:	4e414843 	.word	0x4e414843
    aeb0:	004c454e 	.word	0x004c454e
    aeb4:	642f2e2e 	.word	0x642f2e2e
    aeb8:	65766972 	.word	0x65766972
    aebc:	662f7372 	.word	0x662f7372
    aec0:	655f6c73 	.word	0x655f6c73
    aec4:	2e616d64 	.word	0x2e616d64
    aec8:	34323a63 	.word	0x34323a63
    aecc:	203a2032 	.word	0x203a2032
    aed0:	666e6f63 	.word	0x666e6f63
    aed4:	21206769 	.word	0x21206769
    aed8:	554e203d 	.word	0x554e203d
    aedc:	00004c4c 	.word	0x00004c4c
    aee0:	642f2e2e 	.word	0x642f2e2e
    aee4:	65766972 	.word	0x65766972
    aee8:	662f7372 	.word	0x662f7372
    aeec:	655f6c73 	.word	0x655f6c73
    aef0:	2e616d64 	.word	0x2e616d64
    aef4:	36323a63 	.word	0x36323a63
    aef8:	203a2035 	.word	0x203a2035
    aefc:	6e616863 	.word	0x6e616863
    af00:	206c656e 	.word	0x206c656e
    af04:	7528203c 	.word	0x7528203c
    af08:	33746e69 	.word	0x33746e69
    af0c:	29745f32 	.word	0x29745f32
    af10:	5f4c5346 	.word	0x5f4c5346
    af14:	54414546 	.word	0x54414546
    af18:	5f455255 	.word	0x5f455255
    af1c:	414d4445 	.word	0x414d4445
    af20:	444f4d5f 	.word	0x444f4d5f
    af24:	5f454c55 	.word	0x5f454c55
    af28:	4e414843 	.word	0x4e414843
    af2c:	004c454e 	.word	0x004c454e
    af30:	642f2e2e 	.word	0x642f2e2e
    af34:	65766972 	.word	0x65766972
    af38:	662f7372 	.word	0x662f7372
    af3c:	655f6c73 	.word	0x655f6c73
    af40:	2e616d64 	.word	0x2e616d64
    af44:	36323a63 	.word	0x36323a63
    af48:	203a2036 	.word	0x203a2036
    af4c:	666e6f63 	.word	0x666e6f63
    af50:	21206769 	.word	0x21206769
    af54:	554e203d 	.word	0x554e203d
    af58:	00004c4c 	.word	0x00004c4c
    af5c:	642f2e2e 	.word	0x642f2e2e
    af60:	65766972 	.word	0x65766972
    af64:	662f7372 	.word	0x662f7372
    af68:	655f6c73 	.word	0x655f6c73
    af6c:	2e616d64 	.word	0x2e616d64
    af70:	39323a63 	.word	0x39323a63
    af74:	203a2036 	.word	0x203a2036
    af78:	6e616863 	.word	0x6e616863
    af7c:	206c656e 	.word	0x206c656e
    af80:	7528203c 	.word	0x7528203c
    af84:	33746e69 	.word	0x33746e69
    af88:	29745f32 	.word	0x29745f32
    af8c:	5f4c5346 	.word	0x5f4c5346
    af90:	54414546 	.word	0x54414546
    af94:	5f455255 	.word	0x5f455255
    af98:	414d4445 	.word	0x414d4445
    af9c:	444f4d5f 	.word	0x444f4d5f
    afa0:	5f454c55 	.word	0x5f454c55
    afa4:	4e414843 	.word	0x4e414843
    afa8:	004c454e 	.word	0x004c454e
    afac:	642f2e2e 	.word	0x642f2e2e
    afb0:	65766972 	.word	0x65766972
    afb4:	662f7372 	.word	0x662f7372
    afb8:	655f6c73 	.word	0x655f6c73
    afbc:	2e616d64 	.word	0x2e616d64
    afc0:	39323a63 	.word	0x39323a63
    afc4:	203a2037 	.word	0x203a2037
    afc8:	6b6e696c 	.word	0x6b6e696c
    afcc:	68436465 	.word	0x68436465
    afd0:	656e6e61 	.word	0x656e6e61
    afd4:	203c206c 	.word	0x203c206c
    afd8:	6e697528 	.word	0x6e697528
    afdc:	5f323374 	.word	0x5f323374
    afe0:	53462974 	.word	0x53462974
    afe4:	45465f4c 	.word	0x45465f4c
    afe8:	52555441 	.word	0x52555441
    afec:	44455f45 	.word	0x44455f45
    aff0:	4d5f414d 	.word	0x4d5f414d
    aff4:	4c55444f 	.word	0x4c55444f
    aff8:	48435f45 	.word	0x48435f45
    affc:	454e4e41 	.word	0x454e4e41
    b000:	0000004c 	.word	0x0000004c
    b004:	642f2e2e 	.word	0x642f2e2e
    b008:	65766972 	.word	0x65766972
    b00c:	662f7372 	.word	0x662f7372
    b010:	655f6c73 	.word	0x655f6c73
    b014:	2e616d64 	.word	0x2e616d64
    b018:	31333a63 	.word	0x31333a63
    b01c:	203a2038 	.word	0x203a2038
    b020:	6e616863 	.word	0x6e616863
    b024:	206c656e 	.word	0x206c656e
    b028:	7528203c 	.word	0x7528203c
    b02c:	33746e69 	.word	0x33746e69
    b030:	29745f32 	.word	0x29745f32
    b034:	5f4c5346 	.word	0x5f4c5346
    b038:	54414546 	.word	0x54414546
    b03c:	5f455255 	.word	0x5f455255
    b040:	414d4445 	.word	0x414d4445
    b044:	444f4d5f 	.word	0x444f4d5f
    b048:	5f454c55 	.word	0x5f454c55
    b04c:	4e414843 	.word	0x4e414843
    b050:	004c454e 	.word	0x004c454e
    b054:	642f2e2e 	.word	0x642f2e2e
    b058:	65766972 	.word	0x65766972
    b05c:	662f7372 	.word	0x662f7372
    b060:	655f6c73 	.word	0x655f6c73
    b064:	2e616d64 	.word	0x2e616d64
    b068:	33333a63 	.word	0x33333a63
    b06c:	203a2037 	.word	0x203a2037
    b070:	6e616863 	.word	0x6e616863
    b074:	206c656e 	.word	0x206c656e
    b078:	7528203c 	.word	0x7528203c
    b07c:	33746e69 	.word	0x33746e69
    b080:	29745f32 	.word	0x29745f32
    b084:	5f4c5346 	.word	0x5f4c5346
    b088:	54414546 	.word	0x54414546
    b08c:	5f455255 	.word	0x5f455255
    b090:	414d4445 	.word	0x414d4445
    b094:	444f4d5f 	.word	0x444f4d5f
    b098:	5f454c55 	.word	0x5f454c55
    b09c:	4e414843 	.word	0x4e414843
    b0a0:	004c454e 	.word	0x004c454e
    b0a4:	642f2e2e 	.word	0x642f2e2e
    b0a8:	65766972 	.word	0x65766972
    b0ac:	662f7372 	.word	0x662f7372
    b0b0:	655f6c73 	.word	0x655f6c73
    b0b4:	2e616d64 	.word	0x2e616d64
    b0b8:	35333a63 	.word	0x35333a63
    b0bc:	203a2035 	.word	0x203a2035
    b0c0:	6e616863 	.word	0x6e616863
    b0c4:	206c656e 	.word	0x206c656e
    b0c8:	7528203c 	.word	0x7528203c
    b0cc:	33746e69 	.word	0x33746e69
    b0d0:	29745f32 	.word	0x29745f32
    b0d4:	5f4c5346 	.word	0x5f4c5346
    b0d8:	54414546 	.word	0x54414546
    b0dc:	5f455255 	.word	0x5f455255
    b0e0:	414d4445 	.word	0x414d4445
    b0e4:	444f4d5f 	.word	0x444f4d5f
    b0e8:	5f454c55 	.word	0x5f454c55
    b0ec:	4e414843 	.word	0x4e414843
    b0f0:	004c454e 	.word	0x004c454e
    b0f4:	642f2e2e 	.word	0x642f2e2e
    b0f8:	65766972 	.word	0x65766972
    b0fc:	662f7372 	.word	0x662f7372
    b100:	655f6c73 	.word	0x655f6c73
    b104:	2e616d64 	.word	0x2e616d64
    b108:	38333a63 	.word	0x38333a63
    b10c:	203a2036 	.word	0x203a2036
    b110:	6e616863 	.word	0x6e616863
    b114:	206c656e 	.word	0x206c656e
    b118:	7528203c 	.word	0x7528203c
    b11c:	33746e69 	.word	0x33746e69
    b120:	29745f32 	.word	0x29745f32
    b124:	5f4c5346 	.word	0x5f4c5346
    b128:	54414546 	.word	0x54414546
    b12c:	5f455255 	.word	0x5f455255
    b130:	414d4445 	.word	0x414d4445
    b134:	444f4d5f 	.word	0x444f4d5f
    b138:	5f454c55 	.word	0x5f454c55
    b13c:	4e414843 	.word	0x4e414843
    b140:	004c454e 	.word	0x004c454e
    b144:	642f2e2e 	.word	0x642f2e2e
    b148:	65766972 	.word	0x65766972
    b14c:	662f7372 	.word	0x662f7372
    b150:	655f6c73 	.word	0x655f6c73
    b154:	2e616d64 	.word	0x2e616d64
    b158:	31343a63 	.word	0x31343a63
    b15c:	203a2037 	.word	0x203a2037
    b160:	20646374 	.word	0x20646374
    b164:	4e203d21 	.word	0x4e203d21
    b168:	004c4c55 	.word	0x004c4c55
    b16c:	642f2e2e 	.word	0x642f2e2e
    b170:	65766972 	.word	0x65766972
    b174:	662f7372 	.word	0x662f7372
    b178:	655f6c73 	.word	0x655f6c73
    b17c:	2e616d64 	.word	0x2e616d64
    b180:	31343a63 	.word	0x31343a63
    b184:	203a2038 	.word	0x203a2038
    b188:	69752828 	.word	0x69752828
    b18c:	3233746e 	.word	0x3233746e
    b190:	7429745f 	.word	0x7429745f
    b194:	26206463 	.word	0x26206463
    b198:	31783020 	.word	0x31783020
    b19c:	20295546 	.word	0x20295546
    b1a0:	30203d3d 	.word	0x30203d3d
    b1a4:	00000055 	.word	0x00000055
    b1a8:	642f2e2e 	.word	0x642f2e2e
    b1ac:	65766972 	.word	0x65766972
    b1b0:	662f7372 	.word	0x662f7372
    b1b4:	655f6c73 	.word	0x655f6c73
    b1b8:	2e616d64 	.word	0x2e616d64
    b1bc:	36343a63 	.word	0x36343a63
    b1c0:	203a2034 	.word	0x203a2034
    b1c4:	20646374 	.word	0x20646374
    b1c8:	4e203d21 	.word	0x4e203d21
    b1cc:	004c4c55 	.word	0x004c4c55
    b1d0:	642f2e2e 	.word	0x642f2e2e
    b1d4:	65766972 	.word	0x65766972
    b1d8:	662f7372 	.word	0x662f7372
    b1dc:	655f6c73 	.word	0x655f6c73
    b1e0:	2e616d64 	.word	0x2e616d64
    b1e4:	36343a63 	.word	0x36343a63
    b1e8:	203a2035 	.word	0x203a2035
    b1ec:	69752828 	.word	0x69752828
    b1f0:	3233746e 	.word	0x3233746e
    b1f4:	7429745f 	.word	0x7429745f
    b1f8:	26206463 	.word	0x26206463
    b1fc:	31783020 	.word	0x31783020
    b200:	20295546 	.word	0x20295546
    b204:	30203d3d 	.word	0x30203d3d
    b208:	00000055 	.word	0x00000055
    b20c:	642f2e2e 	.word	0x642f2e2e
    b210:	65766972 	.word	0x65766972
    b214:	662f7372 	.word	0x662f7372
    b218:	655f6c73 	.word	0x655f6c73
    b21c:	2e616d64 	.word	0x2e616d64
    b220:	36343a63 	.word	0x36343a63
    b224:	203a2036 	.word	0x203a2036
    b228:	666e6f63 	.word	0x666e6f63
    b22c:	21206769 	.word	0x21206769
    b230:	554e203d 	.word	0x554e203d
    b234:	00004c4c 	.word	0x00004c4c
    b238:	642f2e2e 	.word	0x642f2e2e
    b23c:	65766972 	.word	0x65766972
    b240:	662f7372 	.word	0x662f7372
    b244:	655f6c73 	.word	0x655f6c73
    b248:	2e616d64 	.word	0x2e616d64
    b24c:	36343a63 	.word	0x36343a63
    b250:	203a2037 	.word	0x203a2037
    b254:	69752828 	.word	0x69752828
    b258:	3233746e 	.word	0x3233746e
    b25c:	6e29745f 	.word	0x6e29745f
    b260:	54747865 	.word	0x54747865
    b264:	26206463 	.word	0x26206463
    b268:	31783020 	.word	0x31783020
    b26c:	20295546 	.word	0x20295546
    b270:	30203d3d 	.word	0x30203d3d
    b274:	00000055 	.word	0x00000055
    b278:	642f2e2e 	.word	0x642f2e2e
    b27c:	65766972 	.word	0x65766972
    b280:	662f7372 	.word	0x662f7372
    b284:	655f6c73 	.word	0x655f6c73
    b288:	2e616d64 	.word	0x2e616d64
    b28c:	31353a63 	.word	0x31353a63
    b290:	203a2033 	.word	0x203a2033
    b294:	20646374 	.word	0x20646374
    b298:	4e203d21 	.word	0x4e203d21
    b29c:	004c4c55 	.word	0x004c4c55
    b2a0:	642f2e2e 	.word	0x642f2e2e
    b2a4:	65766972 	.word	0x65766972
    b2a8:	662f7372 	.word	0x662f7372
    b2ac:	655f6c73 	.word	0x655f6c73
    b2b0:	2e616d64 	.word	0x2e616d64
    b2b4:	31353a63 	.word	0x31353a63
    b2b8:	203a2034 	.word	0x203a2034
    b2bc:	69752828 	.word	0x69752828
    b2c0:	3233746e 	.word	0x3233746e
    b2c4:	7429745f 	.word	0x7429745f
    b2c8:	26206463 	.word	0x26206463
    b2cc:	31783020 	.word	0x31783020
    b2d0:	20295546 	.word	0x20295546
    b2d4:	30203d3d 	.word	0x30203d3d
    b2d8:	00000055 	.word	0x00000055
    b2dc:	642f2e2e 	.word	0x642f2e2e
    b2e0:	65766972 	.word	0x65766972
    b2e4:	662f7372 	.word	0x662f7372
    b2e8:	655f6c73 	.word	0x655f6c73
    b2ec:	2e616d64 	.word	0x2e616d64
    b2f0:	34353a63 	.word	0x34353a63
    b2f4:	203a2033 	.word	0x203a2033
    b2f8:	20646374 	.word	0x20646374
    b2fc:	4e203d21 	.word	0x4e203d21
    b300:	004c4c55 	.word	0x004c4c55
    b304:	642f2e2e 	.word	0x642f2e2e
    b308:	65766972 	.word	0x65766972
    b30c:	662f7372 	.word	0x662f7372
    b310:	655f6c73 	.word	0x655f6c73
    b314:	2e616d64 	.word	0x2e616d64
    b318:	34353a63 	.word	0x34353a63
    b31c:	203a2034 	.word	0x203a2034
    b320:	69752828 	.word	0x69752828
    b324:	3233746e 	.word	0x3233746e
    b328:	7429745f 	.word	0x7429745f
    b32c:	26206463 	.word	0x26206463
    b330:	31783020 	.word	0x31783020
    b334:	20295546 	.word	0x20295546
    b338:	30203d3d 	.word	0x30203d3d
    b33c:	00000055 	.word	0x00000055
    b340:	642f2e2e 	.word	0x642f2e2e
    b344:	65766972 	.word	0x65766972
    b348:	662f7372 	.word	0x662f7372
    b34c:	655f6c73 	.word	0x655f6c73
    b350:	2e616d64 	.word	0x2e616d64
    b354:	34353a63 	.word	0x34353a63
    b358:	203a2035 	.word	0x203a2035
    b35c:	6b6e696c 	.word	0x6b6e696c
    b360:	68436465 	.word	0x68436465
    b364:	656e6e61 	.word	0x656e6e61
    b368:	203c206c 	.word	0x203c206c
    b36c:	6e697528 	.word	0x6e697528
    b370:	5f323374 	.word	0x5f323374
    b374:	53462974 	.word	0x53462974
    b378:	45465f4c 	.word	0x45465f4c
    b37c:	52555441 	.word	0x52555441
    b380:	44455f45 	.word	0x44455f45
    b384:	4d5f414d 	.word	0x4d5f414d
    b388:	4c55444f 	.word	0x4c55444f
    b38c:	48435f45 	.word	0x48435f45
    b390:	454e4e41 	.word	0x454e4e41
    b394:	0000004c 	.word	0x0000004c
    b398:	642f2e2e 	.word	0x642f2e2e
    b39c:	65766972 	.word	0x65766972
    b3a0:	662f7372 	.word	0x662f7372
    b3a4:	655f6c73 	.word	0x655f6c73
    b3a8:	2e616d64 	.word	0x2e616d64
    b3ac:	39353a63 	.word	0x39353a63
    b3b0:	203a2033 	.word	0x203a2033
    b3b4:	20646374 	.word	0x20646374
    b3b8:	4e203d21 	.word	0x4e203d21
    b3bc:	004c4c55 	.word	0x004c4c55
    b3c0:	642f2e2e 	.word	0x642f2e2e
    b3c4:	65766972 	.word	0x65766972
    b3c8:	662f7372 	.word	0x662f7372
    b3cc:	655f6c73 	.word	0x655f6c73
    b3d0:	2e616d64 	.word	0x2e616d64
    b3d4:	39353a63 	.word	0x39353a63
    b3d8:	203a2034 	.word	0x203a2034
    b3dc:	69752828 	.word	0x69752828
    b3e0:	3233746e 	.word	0x3233746e
    b3e4:	7429745f 	.word	0x7429745f
    b3e8:	26206463 	.word	0x26206463
    b3ec:	31783020 	.word	0x31783020
    b3f0:	20295546 	.word	0x20295546
    b3f4:	30203d3d 	.word	0x30203d3d
    b3f8:	00000055 	.word	0x00000055
    b3fc:	642f2e2e 	.word	0x642f2e2e
    b400:	65766972 	.word	0x65766972
    b404:	662f7372 	.word	0x662f7372
    b408:	655f6c73 	.word	0x655f6c73
    b40c:	2e616d64 	.word	0x2e616d64
    b410:	31363a63 	.word	0x31363a63
    b414:	203a2031 	.word	0x203a2031
    b418:	20646374 	.word	0x20646374
    b41c:	4e203d21 	.word	0x4e203d21
    b420:	004c4c55 	.word	0x004c4c55
    b424:	642f2e2e 	.word	0x642f2e2e
    b428:	65766972 	.word	0x65766972
    b42c:	662f7372 	.word	0x662f7372
    b430:	655f6c73 	.word	0x655f6c73
    b434:	2e616d64 	.word	0x2e616d64
    b438:	33363a63 	.word	0x33363a63
    b43c:	203a2035 	.word	0x203a2035
    b440:	20646374 	.word	0x20646374
    b444:	4e203d21 	.word	0x4e203d21
    b448:	004c4c55 	.word	0x004c4c55
    b44c:	642f2e2e 	.word	0x642f2e2e
    b450:	65766972 	.word	0x65766972
    b454:	662f7372 	.word	0x662f7372
    b458:	655f6c73 	.word	0x655f6c73
    b45c:	2e616d64 	.word	0x2e616d64
    b460:	37363a63 	.word	0x37363a63
    b464:	203a2033 	.word	0x203a2033
    b468:	6e616863 	.word	0x6e616863
    b46c:	206c656e 	.word	0x206c656e
    b470:	7528203c 	.word	0x7528203c
    b474:	33746e69 	.word	0x33746e69
    b478:	29745f32 	.word	0x29745f32
    b47c:	5f4c5346 	.word	0x5f4c5346
    b480:	54414546 	.word	0x54414546
    b484:	5f455255 	.word	0x5f455255
    b488:	414d4445 	.word	0x414d4445
    b48c:	444f4d5f 	.word	0x444f4d5f
    b490:	5f454c55 	.word	0x5f454c55
    b494:	4e414843 	.word	0x4e414843
    b498:	004c454e 	.word	0x004c454e
    b49c:	642f2e2e 	.word	0x642f2e2e
    b4a0:	65766972 	.word	0x65766972
    b4a4:	662f7372 	.word	0x662f7372
    b4a8:	655f6c73 	.word	0x655f6c73
    b4ac:	2e616d64 	.word	0x2e616d64
    b4b0:	30373a63 	.word	0x30373a63
    b4b4:	203a2039 	.word	0x203a2039
    b4b8:	6e616863 	.word	0x6e616863
    b4bc:	206c656e 	.word	0x206c656e
    b4c0:	7528203c 	.word	0x7528203c
    b4c4:	33746e69 	.word	0x33746e69
    b4c8:	29745f32 	.word	0x29745f32
    b4cc:	5f4c5346 	.word	0x5f4c5346
    b4d0:	54414546 	.word	0x54414546
    b4d4:	5f455255 	.word	0x5f455255
    b4d8:	414d4445 	.word	0x414d4445
    b4dc:	444f4d5f 	.word	0x444f4d5f
    b4e0:	5f454c55 	.word	0x5f454c55
    b4e4:	4e414843 	.word	0x4e414843
    b4e8:	004c454e 	.word	0x004c454e
    b4ec:	642f2e2e 	.word	0x642f2e2e
    b4f0:	65766972 	.word	0x65766972
    b4f4:	662f7372 	.word	0x662f7372
    b4f8:	655f6c73 	.word	0x655f6c73
    b4fc:	2e616d64 	.word	0x2e616d64
    b500:	33373a63 	.word	0x33373a63
    b504:	203a2033 	.word	0x203a2033
    b508:	6e616863 	.word	0x6e616863
    b50c:	206c656e 	.word	0x206c656e
    b510:	7528203c 	.word	0x7528203c
    b514:	33746e69 	.word	0x33746e69
    b518:	29745f32 	.word	0x29745f32
    b51c:	5f4c5346 	.word	0x5f4c5346
    b520:	54414546 	.word	0x54414546
    b524:	5f455255 	.word	0x5f455255
    b528:	414d4445 	.word	0x414d4445
    b52c:	444f4d5f 	.word	0x444f4d5f
    b530:	5f454c55 	.word	0x5f454c55
    b534:	4e414843 	.word	0x4e414843
    b538:	004c454e 	.word	0x004c454e
    b53c:	642f2e2e 	.word	0x642f2e2e
    b540:	65766972 	.word	0x65766972
    b544:	662f7372 	.word	0x662f7372
    b548:	655f6c73 	.word	0x655f6c73
    b54c:	2e616d64 	.word	0x2e616d64
    b550:	38373a63 	.word	0x38373a63
    b554:	203a2032 	.word	0x203a2032
    b558:	646e6168 	.word	0x646e6168
    b55c:	2120656c 	.word	0x2120656c
    b560:	554e203d 	.word	0x554e203d
    b564:	00004c4c 	.word	0x00004c4c
    b568:	642f2e2e 	.word	0x642f2e2e
    b56c:	65766972 	.word	0x65766972
    b570:	662f7372 	.word	0x662f7372
    b574:	655f6c73 	.word	0x655f6c73
    b578:	2e616d64 	.word	0x2e616d64
    b57c:	38373a63 	.word	0x38373a63
    b580:	203a2033 	.word	0x203a2033
    b584:	6e616863 	.word	0x6e616863
    b588:	206c656e 	.word	0x206c656e
    b58c:	7528203c 	.word	0x7528203c
    b590:	33746e69 	.word	0x33746e69
    b594:	29745f32 	.word	0x29745f32
    b598:	5f4c5346 	.word	0x5f4c5346
    b59c:	54414546 	.word	0x54414546
    b5a0:	5f455255 	.word	0x5f455255
    b5a4:	414d4445 	.word	0x414d4445
    b5a8:	444f4d5f 	.word	0x444f4d5f
    b5ac:	5f454c55 	.word	0x5f454c55
    b5b0:	4e414843 	.word	0x4e414843
    b5b4:	004c454e 	.word	0x004c454e
    b5b8:	642f2e2e 	.word	0x642f2e2e
    b5bc:	65766972 	.word	0x65766972
    b5c0:	662f7372 	.word	0x662f7372
    b5c4:	655f6c73 	.word	0x655f6c73
    b5c8:	2e616d64 	.word	0x2e616d64
    b5cc:	33383a63 	.word	0x33383a63
    b5d0:	203a2037 	.word	0x203a2037
    b5d4:	646e6168 	.word	0x646e6168
    b5d8:	2120656c 	.word	0x2120656c
    b5dc:	554e203d 	.word	0x554e203d
    b5e0:	00004c4c 	.word	0x00004c4c
    b5e4:	642f2e2e 	.word	0x642f2e2e
    b5e8:	65766972 	.word	0x65766972
    b5ec:	662f7372 	.word	0x662f7372
    b5f0:	655f6c73 	.word	0x655f6c73
    b5f4:	2e616d64 	.word	0x2e616d64
    b5f8:	33383a63 	.word	0x33383a63
    b5fc:	203a2038 	.word	0x203a2038
    b600:	69752828 	.word	0x69752828
    b604:	3233746e 	.word	0x3233746e
    b608:	7429745f 	.word	0x7429745f
    b60c:	6f506463 	.word	0x6f506463
    b610:	26206c6f 	.word	0x26206c6f
    b614:	31783020 	.word	0x31783020
    b618:	20295546 	.word	0x20295546
    b61c:	30203d3d 	.word	0x30203d3d
    b620:	00000055 	.word	0x00000055
    b624:	642f2e2e 	.word	0x642f2e2e
    b628:	65766972 	.word	0x65766972
    b62c:	662f7372 	.word	0x662f7372
    b630:	655f6c73 	.word	0x655f6c73
    b634:	2e616d64 	.word	0x2e616d64
    b638:	36383a63 	.word	0x36383a63
    b63c:	203a2031 	.word	0x203a2031
    b640:	646e6168 	.word	0x646e6168
    b644:	2120656c 	.word	0x2120656c
    b648:	554e203d 	.word	0x554e203d
    b64c:	00004c4c 	.word	0x00004c4c
    b650:	642f2e2e 	.word	0x642f2e2e
    b654:	65766972 	.word	0x65766972
    b658:	662f7372 	.word	0x662f7372
    b65c:	655f6c73 	.word	0x655f6c73
    b660:	2e616d64 	.word	0x2e616d64
    b664:	39383a63 	.word	0x39383a63
    b668:	203a2033 	.word	0x203a2033
    b66c:	666e6f63 	.word	0x666e6f63
    b670:	21206769 	.word	0x21206769
    b674:	554e203d 	.word	0x554e203d
    b678:	00004c4c 	.word	0x00004c4c
    b67c:	642f2e2e 	.word	0x642f2e2e
    b680:	65766972 	.word	0x65766972
    b684:	662f7372 	.word	0x662f7372
    b688:	655f6c73 	.word	0x655f6c73
    b68c:	2e616d64 	.word	0x2e616d64
    b690:	39383a63 	.word	0x39383a63
    b694:	203a2034 	.word	0x203a2034
    b698:	41637273 	.word	0x41637273
    b69c:	20726464 	.word	0x20726464
    b6a0:	4e203d21 	.word	0x4e203d21
    b6a4:	004c4c55 	.word	0x004c4c55
    b6a8:	642f2e2e 	.word	0x642f2e2e
    b6ac:	65766972 	.word	0x65766972
    b6b0:	662f7372 	.word	0x662f7372
    b6b4:	655f6c73 	.word	0x655f6c73
    b6b8:	2e616d64 	.word	0x2e616d64
    b6bc:	39383a63 	.word	0x39383a63
    b6c0:	203a2035 	.word	0x203a2035
    b6c4:	74736564 	.word	0x74736564
    b6c8:	72646441 	.word	0x72646441
    b6cc:	203d2120 	.word	0x203d2120
    b6d0:	4c4c554e 	.word	0x4c4c554e
    b6d4:	00000000 	.word	0x00000000
    b6d8:	642f2e2e 	.word	0x642f2e2e
    b6dc:	65766972 	.word	0x65766972
    b6e0:	662f7372 	.word	0x662f7372
    b6e4:	655f6c73 	.word	0x655f6c73
    b6e8:	2e616d64 	.word	0x2e616d64
    b6ec:	39383a63 	.word	0x39383a63
    b6f0:	203a2037 	.word	0x203a2037
    b6f4:	63727328 	.word	0x63727328
    b6f8:	74646957 	.word	0x74646957
    b6fc:	3d3d2068 	.word	0x3d3d2068
    b700:	29553120 	.word	0x29553120
    b704:	207c7c20 	.word	0x207c7c20
    b708:	63727328 	.word	0x63727328
    b70c:	74646957 	.word	0x74646957
    b710:	3d3d2068 	.word	0x3d3d2068
    b714:	29553220 	.word	0x29553220
    b718:	207c7c20 	.word	0x207c7c20
    b71c:	63727328 	.word	0x63727328
    b720:	74646957 	.word	0x74646957
    b724:	3d3d2068 	.word	0x3d3d2068
    b728:	29553420 	.word	0x29553420
    b72c:	207c7c20 	.word	0x207c7c20
    b730:	63727328 	.word	0x63727328
    b734:	74646957 	.word	0x74646957
    b738:	3d3d2068 	.word	0x3d3d2068
    b73c:	29553820 	.word	0x29553820
    b740:	207c7c20 	.word	0x207c7c20
    b744:	63727328 	.word	0x63727328
    b748:	74646957 	.word	0x74646957
    b74c:	3d3d2068 	.word	0x3d3d2068
    b750:	55363120 	.word	0x55363120
    b754:	7c7c2029 	.word	0x7c7c2029
    b758:	72732820 	.word	0x72732820
    b75c:	64695763 	.word	0x64695763
    b760:	3d206874 	.word	0x3d206874
    b764:	3233203d 	.word	0x3233203d
    b768:	00002955 	.word	0x00002955
    b76c:	642f2e2e 	.word	0x642f2e2e
    b770:	65766972 	.word	0x65766972
    b774:	662f7372 	.word	0x662f7372
    b778:	655f6c73 	.word	0x655f6c73
    b77c:	2e616d64 	.word	0x2e616d64
    b780:	39383a63 	.word	0x39383a63
    b784:	203a2039 	.word	0x203a2039
    b788:	73656428 	.word	0x73656428
    b78c:	64695774 	.word	0x64695774
    b790:	3d206874 	.word	0x3d206874
    b794:	5531203d 	.word	0x5531203d
    b798:	7c7c2029 	.word	0x7c7c2029
    b79c:	65642820 	.word	0x65642820
    b7a0:	69577473 	.word	0x69577473
    b7a4:	20687464 	.word	0x20687464
    b7a8:	32203d3d 	.word	0x32203d3d
    b7ac:	7c202955 	.word	0x7c202955
    b7b0:	6428207c 	.word	0x6428207c
    b7b4:	57747365 	.word	0x57747365
    b7b8:	68746469 	.word	0x68746469
    b7bc:	203d3d20 	.word	0x203d3d20
    b7c0:	20295534 	.word	0x20295534
    b7c4:	28207c7c 	.word	0x28207c7c
    b7c8:	74736564 	.word	0x74736564
    b7cc:	74646957 	.word	0x74646957
    b7d0:	3d3d2068 	.word	0x3d3d2068
    b7d4:	29553820 	.word	0x29553820
    b7d8:	207c7c20 	.word	0x207c7c20
    b7dc:	73656428 	.word	0x73656428
    b7e0:	64695774 	.word	0x64695774
    b7e4:	3d206874 	.word	0x3d206874
    b7e8:	3631203d 	.word	0x3631203d
    b7ec:	7c202955 	.word	0x7c202955
    b7f0:	6428207c 	.word	0x6428207c
    b7f4:	57747365 	.word	0x57747365
    b7f8:	68746469 	.word	0x68746469
    b7fc:	203d3d20 	.word	0x203d3d20
    b800:	29553233 	.word	0x29553233
    b804:	00000000 	.word	0x00000000
    b808:	642f2e2e 	.word	0x642f2e2e
    b80c:	65766972 	.word	0x65766972
    b810:	662f7372 	.word	0x662f7372
    b814:	655f6c73 	.word	0x655f6c73
    b818:	2e616d64 	.word	0x2e616d64
    b81c:	30393a63 	.word	0x30393a63
    b820:	203a2030 	.word	0x203a2030
    b824:	61727428 	.word	0x61727428
    b828:	6566736e 	.word	0x6566736e
    b82c:	74794272 	.word	0x74794272
    b830:	25207365 	.word	0x25207365
    b834:	74796220 	.word	0x74796220
    b838:	61457365 	.word	0x61457365
    b83c:	65526863 	.word	0x65526863
    b840:	73657571 	.word	0x73657571
    b844:	3d202974 	.word	0x3d202974
    b848:	5530203d 	.word	0x5530203d
    b84c:	00000000 	.word	0x00000000
    b850:	642f2e2e 	.word	0x642f2e2e
    b854:	65766972 	.word	0x65766972
    b858:	662f7372 	.word	0x662f7372
    b85c:	655f6c73 	.word	0x655f6c73
    b860:	2e616d64 	.word	0x2e616d64
    b864:	33393a63 	.word	0x33393a63
    b868:	203a2035 	.word	0x203a2035
    b86c:	736c6166 	.word	0x736c6166
    b870:	00000065 	.word	0x00000065
    b874:	642f2e2e 	.word	0x642f2e2e
    b878:	65766972 	.word	0x65766972
    b87c:	662f7372 	.word	0x662f7372
    b880:	655f6c73 	.word	0x655f6c73
    b884:	2e616d64 	.word	0x2e616d64
    b888:	36393a63 	.word	0x36393a63
    b88c:	203a2034 	.word	0x203a2034
    b890:	736c6166 	.word	0x736c6166
    b894:	00000065 	.word	0x00000065
    b898:	642f2e2e 	.word	0x642f2e2e
    b89c:	65766972 	.word	0x65766972
    b8a0:	662f7372 	.word	0x662f7372
    b8a4:	655f6c73 	.word	0x655f6c73
    b8a8:	2e616d64 	.word	0x2e616d64
    b8ac:	38393a63 	.word	0x38393a63
    b8b0:	203a2033 	.word	0x203a2033
    b8b4:	736c6166 	.word	0x736c6166
    b8b8:	00000065 	.word	0x00000065
    b8bc:	642f2e2e 	.word	0x642f2e2e
    b8c0:	65766972 	.word	0x65766972
    b8c4:	662f7372 	.word	0x662f7372
    b8c8:	655f6c73 	.word	0x655f6c73
    b8cc:	2e616d64 	.word	0x2e616d64
    b8d0:	30313a63 	.word	0x30313a63
    b8d4:	3a203330 	.word	0x3a203330
    b8d8:	6e616820 	.word	0x6e616820
    b8dc:	20656c64 	.word	0x20656c64
    b8e0:	4e203d21 	.word	0x4e203d21
    b8e4:	004c4c55 	.word	0x004c4c55
    b8e8:	642f2e2e 	.word	0x642f2e2e
    b8ec:	65766972 	.word	0x65766972
    b8f0:	662f7372 	.word	0x662f7372
    b8f4:	655f6c73 	.word	0x655f6c73
    b8f8:	2e616d64 	.word	0x2e616d64
    b8fc:	30313a63 	.word	0x30313a63
    b900:	3a203430 	.word	0x3a203430
    b904:	6e6f6320 	.word	0x6e6f6320
    b908:	20676966 	.word	0x20676966
    b90c:	4e203d21 	.word	0x4e203d21
    b910:	004c4c55 	.word	0x004c4c55
    b914:	642f2e2e 	.word	0x642f2e2e
    b918:	65766972 	.word	0x65766972
    b91c:	662f7372 	.word	0x662f7372
    b920:	655f6c73 	.word	0x655f6c73
    b924:	2e616d64 	.word	0x2e616d64
    b928:	31313a63 	.word	0x31313a63
    b92c:	3a203635 	.word	0x3a203635
    b930:	6e616820 	.word	0x6e616820
    b934:	20656c64 	.word	0x20656c64
    b938:	4e203d21 	.word	0x4e203d21
    b93c:	004c4c55 	.word	0x004c4c55
    b940:	642f2e2e 	.word	0x642f2e2e
    b944:	65766972 	.word	0x65766972
    b948:	662f7372 	.word	0x662f7372
    b94c:	655f6c73 	.word	0x655f6c73
    b950:	2e616d64 	.word	0x2e616d64
    b954:	32313a63 	.word	0x32313a63
    b958:	3a203330 	.word	0x3a203330
    b95c:	6e616820 	.word	0x6e616820
    b960:	20656c64 	.word	0x20656c64
    b964:	4e203d21 	.word	0x4e203d21
    b968:	004c4c55 	.word	0x004c4c55
    b96c:	642f2e2e 	.word	0x642f2e2e
    b970:	65766972 	.word	0x65766972
    b974:	662f7372 	.word	0x662f7372
    b978:	655f6c73 	.word	0x655f6c73
    b97c:	2e616d64 	.word	0x2e616d64
    b980:	32313a63 	.word	0x32313a63
    b984:	3a203836 	.word	0x3a203836
    b988:	6e616820 	.word	0x6e616820
    b98c:	20656c64 	.word	0x20656c64
    b990:	4e203d21 	.word	0x4e203d21
    b994:	004c4c55 	.word	0x004c4c55
    b998:	642f2e2e 	.word	0x642f2e2e
    b99c:	65766972 	.word	0x65766972
    b9a0:	662f7372 	.word	0x662f7372
    b9a4:	635f6c73 	.word	0x635f6c73
    b9a8:	6b636f6c 	.word	0x6b636f6c
    b9ac:	313a682e 	.word	0x313a682e
    b9b0:	20313630 	.word	0x20313630
    b9b4:	6e69203a 	.word	0x6e69203a
    b9b8:	20786564 	.word	0x20786564
    b9bc:	37203d3c 	.word	0x37203d3c
    b9c0:	00000000 	.word	0x00000000
    b9c4:	642f2e2e 	.word	0x642f2e2e
    b9c8:	65766972 	.word	0x65766972
    b9cc:	662f7372 	.word	0x662f7372
    b9d0:	675f6c73 	.word	0x675f6c73
    b9d4:	2e6f6970 	.word	0x2e6f6970
    b9d8:	37353a63 	.word	0x37353a63
    b9dc:	69203a20 	.word	0x69203a20
    b9e0:	6174736e 	.word	0x6174736e
    b9e4:	2065636e 	.word	0x2065636e
    b9e8:	5241203c 	.word	0x5241203c
    b9ec:	5f594152 	.word	0x5f594152
    b9f0:	455a4953 	.word	0x455a4953
    b9f4:	675f7328 	.word	0x675f7328
    b9f8:	426f6970 	.word	0x426f6970
    b9fc:	73657361 	.word	0x73657361
    ba00:	00000029 	.word	0x00000029
    ba04:	642f2e2e 	.word	0x642f2e2e
    ba08:	65766972 	.word	0x65766972
    ba0c:	662f7372 	.word	0x662f7372
    ba10:	675f6c73 	.word	0x675f6c73
    ba14:	2e6f6970 	.word	0x2e6f6970
    ba18:	31313a63 	.word	0x31313a63
    ba1c:	203a2033 	.word	0x203a2033
    ba20:	206e6970 	.word	0x206e6970
    ba24:	3233203c 	.word	0x3233203c
    ba28:	ffffff00 	.word	0xffffff00

0000ba2c <s_gpioBases>:
    ba2c:	00000000 401b8000 401bc000 401c0000     .......@...@...@
    ba3c:	401c4000 400c0000 42000000 42004000     .@.@...@...B.@.B
    ba4c:	42008000 4200c000                       ...B...B

0000ba54 <s_gpioClock>:
    ba54:	011affff 021a001e 011e030c 642f2e2e     ............../d
    ba64:	65766972 662f7372 635f6c73 6b636f6c     rivers/fsl_clock
    ba74:	313a682e 20313630 6e69203a 20786564     .h:1061 : index 
    ba84:	37203d3c 00000000 642f2e2e 65766972     <= 7....../drive
    ba94:	662f7372 6c5f6c73 69707370 313a632e     rs/fsl_lpspi.c:1
    baa4:	3a203835 736e6920 636e6174 203c2065     58 : instance < 
    bab4:	41525241 49535f59 7328455a 73706c5f     ARRAY_SIZE(s_lps
    bac4:	61426970 29736573 00000000 642f2e2e     piBases)....../d
    bad4:	65766972 662f7372 6c5f6c73 69707370     rivers/fsl_lpspi
    bae4:	313a632e 3a203838 73616d20 43726574     .c:188 : masterC
    baf4:	69666e6f 00000067 642f2e2e 65766972     onfig...../drive
    bb04:	662f7372 6c5f6c73 69707370 323a632e     rs/fsl_lpspi.c:2
    bb14:	3a203035 73616d20 43726574 69666e6f     50 : masterConfi
    bb24:	00000067 642f2e2e 65766972 662f7372     g...../drivers/f
    bb34:	6c5f6c73 69707370 323a632e 3a203038     sl_lpspi.c:280 :
    bb44:	616c7320 6f436576 6769666e 00000000      slaveConfig....
    bb54:	642f2e2e 65766972 662f7372 6c5f6c73     ../drivers/fsl_l
    bb64:	69707370 333a632e 3a203732 616c7320     pspi.c:327 : sla
    bb74:	6f436576 6769666e 00000000 642f2e2e     veConfig....../d
    bb84:	65766972 662f7372 6c5f6c73 69707370     rivers/fsl_lpspi
    bb94:	343a632e 3a203432 72637420 73657250     .c:424 : tcrPres
    bba4:	656c6163 756c6156 00000065 642f2e2e     caleValue...../d
    bbb4:	65766972 662f7372 6c5f6c73 69707370     rivers/fsl_lpspi
    bbc4:	353a632e 3a203333 6c616620 00006573     .c:533 : false..
    bbd4:	642f2e2e 65766972 662f7372 6c5f6c73     ../drivers/fsl_l
    bbe4:	69707370 363a632e 3a203039 6e616820     pspi.c:690 : han
    bbf4:	00656c64 642f2e2e 65766972 662f7372     dle.../drivers/f
    bc04:	6c5f6c73 69707370 373a632e 3a203431     sl_lpspi.c:714 :
    bc14:	61727420 6566736e 00000072 642f2e2e      transfer...../d
    bc24:	65766972 662f7372 6c5f6c73 69707370     rivers/fsl_lpspi
    bc34:	373a632e 3a203038 61727420 6566736e     .c:780 : transfe
    bc44:	00000072 642f2e2e 65766972 662f7372     r...../drivers/f
    bc54:	6c5f6c73 69707370 393a632e 3a203236     sl_lpspi.c:962 :
    bc64:	6e616820 00656c64 642f2e2e 65766972      handle.../drive
    bc74:	662f7372 6c5f6c73 69707370 393a632e     rs/fsl_lpspi.c:9
    bc84:	3a203336 61727420 6566736e 00000072     63 : transfer...
    bc94:	642f2e2e 65766972 662f7372 6c5f6c73     ../drivers/fsl_l
    bca4:	69707370 313a632e 20313131 6168203a     pspi.c:1111 : ha
    bcb4:	656c646e 00000000 642f2e2e 65766972     ndle....../drive
    bcc4:	662f7372 6c5f6c73 69707370 313a632e     rs/fsl_lpspi.c:1
    bcd4:	20313731 6168203a 656c646e 00000000     171 : handle....
    bce4:	642f2e2e 65766972 662f7372 6c5f6c73     ../drivers/fsl_l
    bcf4:	69707370 313a632e 20363931 6168203a     pspi.c:1196 : ha
    bd04:	656c646e 00000000 642f2e2e 65766972     ndle....../drive
    bd14:	662f7372 6c5f6c73 69707370 313a632e     rs/fsl_lpspi.c:1
    bd24:	20363332 6168203a 656c646e 00000000     236 : handle....
    bd34:	642f2e2e 65766972 662f7372 6c5f6c73     ../drivers/fsl_l
    bd44:	69707370 313a632e 20383532 6168203a     pspi.c:1258 : ha
    bd54:	656c646e 00000000 642f2e2e 65766972     ndle....../drive
    bd64:	662f7372 6c5f6c73 69707370 313a632e     rs/fsl_lpspi.c:1
    bd74:	20303733 6168203a 656c646e 00000000     370 : handle....
    bd84:	642f2e2e 65766972 662f7372 6c5f6c73     ../drivers/fsl_l
    bd94:	69707370 313a632e 20343034 6168203a     pspi.c:1404 : ha
    bda4:	656c646e 00000000 642f2e2e 65766972     ndle....../drive
    bdb4:	662f7372 6c5f6c73 69707370 313a632e     rs/fsl_lpspi.c:1
    bdc4:	20353034 7274203a 66736e61 00007265     405 : transfer..
    bdd4:	642f2e2e 65766972 662f7372 6c5f6c73     ../drivers/fsl_l
    bde4:	69707370 313a632e 20343635 6168203a     pspi.c:1564 : ha
    bdf4:	656c646e 00000000 642f2e2e 65766972     ndle....../drive
    be04:	662f7372 6c5f6c73 69707370 313a632e     rs/fsl_lpspi.c:1
    be14:	20333935 6168203a 656c646e 00000000     593 : handle....
    be24:	642f2e2e 65766972 662f7372 6c5f6c73     ../drivers/fsl_l
    be34:	69707370 313a632e 20393236 6168203a     pspi.c:1629 : ha
    be44:	656c646e 00000000 642f2e2e 65766972     ndle....../drive
    be54:	662f7372 6c5f6c73 69707370 313a632e     rs/fsl_lpspi.c:1
    be64:	20393636 6168203a 656c646e 00000000     669 : handle....
    be74:	642f2e2e 65766972 662f7372 6c5f6c73     ../drivers/fsl_l
    be84:	69707370 313a632e 20313936 6168203a     pspi.c:1691 : ha
    be94:	656c646e 00000000 642f2e2e 65766972     ndle....../drive
    bea4:	662f7372 6c5f6c73 69707370 313a632e     rs/fsl_lpspi.c:1
    beb4:	20323138 7874203a 61746144 00000000     812 : txData....
    bec4:	642f2e2e 65766972 662f7372 6c5f6c73     ../drivers/fsl_l
    bed4:	69707370 313a632e 20383838 6166203a     pspi.c:1888 : fa
    bee4:	0065736c 642f2e2e 65766972 662f7372     lse.../drivers/f
    bef4:	6c5f6c73 69707370 313a632e 20363938     sl_lpspi.c:1896 
    bf04:	7872203a 61746144 00000000 642f2e2e     : rxData....../d
    bf14:	65766972 662f7372 6c5f6c73 69707370     rivers/fsl_lpspi
    bf24:	313a632e 20393639 6166203a 0065736c     .c:1969 : false.
    bf34:	642f2e2e 65766972 662f7372 6c5f6c73     ../drivers/fsl_l
    bf44:	69707370 323a632e 20323030 5f73203a     pspi.c:2002 : s_
    bf54:	7073706c 6e614869 5b656c64 00005d31     lpspiHandle[1]..
    bf64:	642f2e2e 65766972 662f7372 6c5f6c73     ../drivers/fsl_l
    bf74:	69707370 323a632e 20303130 5f73203a     pspi.c:2010 : s_
    bf84:	7073706c 6e614869 5b656c64 00005d32     lpspiHandle[2]..
    bf94:	642f2e2e 65766972 662f7372 6c5f6c73     ../drivers/fsl_l
    bfa4:	69707370 323a632e 20383130 5f73203a     pspi.c:2018 : s_
    bfb4:	7073706c 6e614869 5b656c64 00005d33     lpspiHandle[3]..
    bfc4:	642f2e2e 65766972 662f7372 6c5f6c73     ../drivers/fsl_l
    bfd4:	69707370 323a632e 20363230 5f73203a     pspi.c:2026 : s_
    bfe4:	7073706c 6e614869 5b656c64 ff005d34     lpspiHandle[4]..

0000bff4 <s_baudratePrescaler>:
    bff4:	08040201 80402010                       ..... @.

0000bffc <s_lpspiBases>:
    bffc:	00000000 40394000 40398000 4039c000     .....@9@..9@..9@
    c00c:	403a0000                                ..:@

0000c010 <s_lpspiIRQ>:
    c010:	0020ff80 00220021 ffff0023              .. .!.".#...

0000c01c <s_lpspiClocks>:
    c01c:	0100ffff 01040102 ffff0106 642f2e2e     ............../d
    c02c:	65766972 662f7372 635f6c73 6b636f6c     rivers/fsl_clock
    c03c:	313a682e 20313630 6e69203a 20786564     .h:1061 : index 
    c04c:	37203d3c ffffff00                       <= 7....

0000c054 <s_lpspiClock>:
    c054:	0100ffff 01040102 ffff0106              ............

0000c060 <s_lpspiDriverVersion>:
    c060:	02010202                                ....

0000c064 <LPSPI4_Resource>:
    c064:	403a0000 00000004 00002a85              ..:@.....*..

0000c070 <Driver_SPI4>:
    c070:	00005891 00009831 00005bb9 00005bdd     .X..1....[...[..
    c080:	00005bf5 00005c19 00005c3d 00005c61     .[...\..=\..a\..
    c090:	00005c89 00005c9d 00005cc1 642f2e2e     .\...\...\..../d
    c0a0:	65766972 662f7372 635f6c73 6b636f6c     rivers/fsl_clock
    c0b0:	313a682e 20313630 6e69203a 20786564     .h:1061 : index 
    c0c0:	37203d3c 00000000 642f2e2e 65766972     <= 7....../drive
    c0d0:	662f7372 6c5f6c73 72617570 3a632e74     rs/fsl_lpuart.c:
    c0e0:	20323231 6e69203a 6e617473 3c206563     122 : instance <
    c0f0:	52524120 535f5941 28455a49 706c5f73      ARRAY_SIZE(s_lp
    c100:	74726175 65736142 00002973 642f2e2e     uartBases)..../d
    c110:	65766972 662f7372 6c5f6c73 72617570     rivers/fsl_lpuar
    c120:	3a632e74 20353331 554e203a 21204c4c     t.c:135 : NULL !
    c130:	6168203d 656c646e 00000000 642f2e2e     = handle....../d
    c140:	65766972 662f7372 6c5f6c73 72617570     rivers/fsl_lpuar
    c150:	3a632e74 20363531 554e203a 21204c4c     t.c:156 : NULL !
    c160:	6168203d 656c646e 00000000 642f2e2e     = handle....../d
    c170:	65766972 662f7372 6c5f6c73 72617570     rivers/fsl_lpuar
    c180:	3a632e74 20333731 554e203a 21204c4c     t.c:173 : NULL !
    c190:	6164203d 00006174 642f2e2e 65766972     = data..../drive
    c1a0:	662f7372 6c5f6c73 72617570 3a632e74     rs/fsl_lpuart.c:
    c1b0:	20373831 554e203a 21204c4c 6164203d     187 : NULL != da
    c1c0:	00006174 642f2e2e 65766972 662f7372     ta..../drivers/f
    c1d0:	6c5f6c73 72617570 3a632e74 20313432     sl_lpuart.c:241 
    c1e0:	554e203a 21204c4c 6f63203d 6769666e     : NULL != config
    c1f0:	00000000 642f2e2e 65766972 662f7372     ....../drivers/f
    c200:	6c5f6c73 72617570 3a632e74 20323432     sl_lpuart.c:242 
    c210:	5530203a 63203c20 69666e6f 623e2d67     : 0U < config->b
    c220:	52647561 5f657461 00737042 642f2e2e     audRate_Bps.../d
    c230:	65766972 662f7372 6c5f6c73 72617570     rivers/fsl_lpuar
    c240:	3a632e74 20343432 7528203a 38746e69     t.c:244 : (uint8
    c250:	4629745f 465f4c53 55544145 4c5f4552     _t)FSL_FEATURE_L
    c260:	52415550 49465f54 535f4f46 6e455a49     PUART_FIFO_SIZEn
    c270:	73616228 3e202965 6f63203d 6769666e     (base) >= config
    c280:	78743e2d 6f666946 65746157 72616d72     ->txFifoWatermar
    c290:	0000006b 642f2e2e 65766972 662f7372     k...../drivers/f
    c2a0:	6c5f6c73 72617570 3a632e74 20353432     sl_lpuart.c:245 
    c2b0:	7528203a 38746e69 4629745f 465f4c53     : (uint8_t)FSL_F
    c2c0:	55544145 4c5f4552 52415550 49465f54     EATURE_LPUART_FI
    c2d0:	535f4f46 6e455a49 73616228 3e202965     FO_SIZEn(base) >
    c2e0:	6f63203d 6769666e 78723e2d 6f666946     = config->rxFifo
    c2f0:	65746157 72616d72 0000006b 642f2e2e     Watermark...../d
    c300:	65766972 662f7372 6c5f6c73 72617570     rivers/fsl_lpuar
    c310:	3a632e74 20303235 554e203a 21204c4c     t.c:520 : NULL !
    c320:	6f63203d 6769666e 00000000 642f2e2e     = config....../d
    c330:	65766972 662f7372 6c5f6c73 72617570     rivers/fsl_lpuar
    c340:	3a632e74 20353635 5530203a 62203c20     t.c:565 : 0U < b
    c350:	52647561 5f657461 00737042 642f2e2e     audRate_Bps.../d
    c360:	65766972 662f7372 6c5f6c73 72617570     rivers/fsl_lpuar
    c370:	3a632e74 20333338 554e203a 21204c4c     t.c:833 : NULL !
    c380:	6164203d 00006174 642f2e2e 65766972     = data..../drive
    c390:	662f7372 6c5f6c73 72617570 3a632e74     rs/fsl_lpuart.c:
    c3a0:	20383638 554e203a 21204c4c 6164203d     868 : NULL != da
    c3b0:	00006174 642f2e2e 65766972 662f7372     ta..../drivers/f
    c3c0:	6c5f6c73 72617570 3a632e74 20303639     sl_lpuart.c:960 
    c3d0:	554e203a 21204c4c 6168203d 656c646e     : NULL != handle
    c3e0:	00000000 642f2e2e 65766972 662f7372     ....../drivers/f
    c3f0:	6c5f6c73 72617570 3a632e74 35323031     sl_lpuart.c:1025
    c400:	4e203a20 204c4c55 68203d21 6c646e61      : NULL != handl
    c410:	00000065 642f2e2e 65766972 662f7372     e...../drivers/f
    c420:	6c5f6c73 72617570 3a632e74 36323031     sl_lpuart.c:1026
    c430:	4e203a20 204c4c55 72203d21 42676e69      : NULL != ringB
    c440:	65666675 00000072 642f2e2e 65766972     uffer...../drive
    c450:	662f7372 6c5f6c73 72617570 3a632e74     rs/fsl_lpuart.c:
    c460:	39343031 4e203a20 204c4c55 68203d21     1049 : NULL != h
    c470:	6c646e61 00000065 642f2e2e 65766972     andle...../drive
    c480:	662f7372 6c5f6c73 72617570 3a632e74     rs/fsl_lpuart.c:
    c490:	34383031 4e203a20 204c4c55 68203d21     1084 : NULL != h
    c4a0:	6c646e61 00000065 642f2e2e 65766972     andle...../drive
    c4b0:	662f7372 6c5f6c73 72617570 3a632e74     rs/fsl_lpuart.c:
    c4c0:	35383031 4e203a20 204c4c55 78203d21     1085 : NULL != x
    c4d0:	00726566 642f2e2e 65766972 662f7372     fer.../drivers/f
    c4e0:	6c5f6c73 72617570 3a632e74 36383031     sl_lpuart.c:1086
    c4f0:	4e203a20 204c4c55 78203d21 2d726566      : NULL != xfer-
    c500:	7461643e 00000061 642f2e2e 65766972     >data...../drive
    c510:	662f7372 6c5f6c73 72617570 3a632e74     rs/fsl_lpuart.c:
    c520:	37383031 30203a20 3d212055 65667820     1087 : 0U != xfe
    c530:	643e2d72 53617461 00657a69 642f2e2e     r->dataSize.../d
    c540:	65766972 662f7372 6c5f6c73 72617570     rivers/fsl_lpuar
    c550:	3a632e74 33323131 4e203a20 204c4c55     t.c:1123 : NULL 
    c560:	68203d21 6c646e61 00000065 642f2e2e     != handle...../d
    c570:	65766972 662f7372 6c5f6c73 72617570     rivers/fsl_lpuar
    c580:	3a632e74 37343131 4e203a20 204c4c55     t.c:1147 : NULL 
    c590:	68203d21 6c646e61 00000065 642f2e2e     != handle...../d
    c5a0:	65766972 662f7372 6c5f6c73 72617570     rivers/fsl_lpuar
    c5b0:	3a632e74 38343131 4e203a20 204c4c55     t.c:1148 : NULL 
    c5c0:	63203d21 746e756f 00000000 642f2e2e     != count....../d
    c5d0:	65766972 662f7372 6c5f6c73 72617570     rivers/fsl_lpuar
    c5e0:	3a632e74 31393131 4e203a20 204c4c55     t.c:1191 : NULL 
    c5f0:	68203d21 6c646e61 00000065 642f2e2e     != handle...../d
    c600:	65766972 662f7372 6c5f6c73 72617570     rivers/fsl_lpuar
    c610:	3a632e74 32393131 4e203a20 204c4c55     t.c:1192 : NULL 
    c620:	78203d21 00726566 642f2e2e 65766972     != xfer.../drive
    c630:	662f7372 6c5f6c73 72617570 3a632e74     rs/fsl_lpuart.c:
    c640:	33393131 4e203a20 204c4c55 78203d21     1193 : NULL != x
    c650:	2d726566 7461643e 00000061 642f2e2e     fer->data...../d
    c660:	65766972 662f7372 6c5f6c73 72617570     rivers/fsl_lpuar
    c670:	3a632e74 34393131 30203a20 3d212055     t.c:1194 : 0U !=
    c680:	65667820 643e2d72 53617461 00657a69      xfer->dataSize.
    c690:	642f2e2e 65766972 662f7372 6c5f6c73     ../drivers/fsl_l
    c6a0:	72617570 3a632e74 35313331 4e203a20     puart.c:1315 : N
    c6b0:	204c4c55 68203d21 6c646e61 00000065     ULL != handle...
    c6c0:	642f2e2e 65766972 662f7372 6c5f6c73     ../drivers/fsl_l
    c6d0:	72617570 3a632e74 34343331 4e203a20     puart.c:1344 : N
    c6e0:	204c4c55 68203d21 6c646e61 00000065     ULL != handle...
    c6f0:	642f2e2e 65766972 662f7372 6c5f6c73     ../drivers/fsl_l
    c700:	72617570 3a632e74 35343331 4e203a20     puart.c:1345 : N
    c710:	204c4c55 63203d21 746e756f 00000000     ULL != count....
    c720:	642f2e2e 65766972 662f7372 6c5f6c73     ../drivers/fsl_l
    c730:	72617570 3a632e74 37363331 4e203a20     puart.c:1367 : N
    c740:	204c4c55 68203d21 6c646e61 ffff0065     ULL != handle...

0000c750 <s_lpuartBases>:
    c750:	00000000 40184000 40188000 4018c000     .....@.@...@...@
    c760:	40190000 40194000 40198000 4019c000     ...@.@.@...@...@
    c770:	401a0000                                ...@

0000c774 <s_lpuartClock>:
    c774:	0518ffff 000c001c 03020118 051a0306     ................
    c784:	ffff060e 642f2e2e 65766972 662f7372     ....../drivers/f
    c794:	635f6c73 6b636f6c 313a682e 20313630     sl_clock.h:1061 
    c7a4:	6e69203a 20786564 37203d3c 00000000     : index <= 7....
    c7b4:	642f2e2e 65766972 662f7372 715f6c73     ../drivers/fsl_q
    c7c4:	2e726d74 34353a63 69203a20 6174736e     tmr.c:54 : insta
    c7d4:	2065636e 5241203c 5f594152 455a4953     nce < ARRAY_SIZE
    c7e4:	715f7328 42726d74 73657361 00000029     (s_qtmrBases)...
    c7f4:	642f2e2e 65766972 662f7372 715f6c73     ../drivers/fsl_q
    c804:	2e726d74 30373a63 63203a20 69666e6f     tmr.c:70 : confi
    c814:	00000067 642f2e2e 65766972 662f7372     g...../drivers/f
    c824:	715f6c73 2e726d74 32313a63 203a2037     sl_qtmr.c:127 : 
    c834:	666e6f63 ff006769                       config..

0000c83c <s_qtmrBases>:
    c83c:	00000000 401dc000 401e0000 401e4000     .......@...@.@.@
    c84c:	401e8000                                ...@

0000c850 <s_qtmrClocks>:
    c850:	061affff 061e061c ffff0610              ............

0000c85c <s_LpuartAdapterBase>:
    c85c:	00000000 40184000 40188000 4018c000     .....@.@...@...@
    c86c:	40190000 40194000 40198000 4019c000     ...@.@.@...@...@
    c87c:	401a0000 632f2e2e 6f706d6f 746e656e     ...@../component
    c88c:	7261752f 706c2f74 74726175 6164615f     /uart/lpuart_ada
    c89c:	72657470 323a632e 3a203832 6e616820     pter.c:228 : han
    c8ac:	00656c64 632f2e2e 6f706d6f 746e656e     dle.../component
    c8bc:	7261752f 706c2f74 74726175 6164615f     /uart/lpuart_ada
    c8cc:	72657470 323a632e 3a203932 6e6f6320     pter.c:229 : con
    c8dc:	00676966 632f2e2e 6f706d6f 746e656e     fig.../component
    c8ec:	7261752f 706c2f74 74726175 6164615f     /uart/lpuart_ada
    c8fc:	72657470 323a632e 3a203033 6e6f6320     pter.c:230 : con
    c90c:	2d676966 736e693e 636e6174 203c2065     fig->instance < 
    c91c:	7a697328 28666f65 704c5f73 74726175     (sizeof(s_Lpuart
    c92c:	70616441 42726574 29657361 73202f20     AdapterBase) / s
    c93c:	6f657a69 504c2866 54524155 7079545f     izeof(LPUART_Typ
    c94c:	292a2065 00000029 632f2e2e 6f706d6f     e *))...../compo
    c95c:	746e656e 7261752f 706c2f74 74726175     nent/uart/lpuart
    c96c:	6164615f 72657470 323a632e 3a203133     _adapter.c:231 :
    c97c:	4c5f7320 72617570 61644174 72657470      s_LpuartAdapter
    c98c:	65736142 6e6f635b 2d676966 736e693e     Base[config->ins
    c99c:	636e6174 00005d65 632f2e2e 6f706d6f     tance]..../compo
    c9ac:	746e656e 7261752f 706c2f74 74726175     nent/uart/lpuart
    c9bc:	6164615f 72657470 323a632e 3a203939     _adapter.c:299 :
    c9cc:	6e616820 00656c64 632f2e2e 6f706d6f      handle.../compo
    c9dc:	746e656e 7261752f 706c2f74 74726175     nent/uart/lpuart
    c9ec:	6164615f 72657470 333a632e 3a203032     _adapter.c:320 :
    c9fc:	6e616820 00656c64 632f2e2e 6f706d6f      handle.../compo
    ca0c:	746e656e 7261752f 706c2f74 74726175     nent/uart/lpuart
    ca1c:	6164615f 72657470 333a632e 3a203132     _adapter.c:321 :
    ca2c:	74616420 00000061 632f2e2e 6f706d6f      data...../compo
    ca3c:	746e656e 7261752f 706c2f74 74726175     nent/uart/lpuart
    ca4c:	6164615f 72657470 333a632e 3a203232     _adapter.c:322 :
    ca5c:	6e656c20 00687467 632f2e2e 6f706d6f      length.../compo
    ca6c:	746e656e 7261752f 706c2f74 74726175     nent/uart/lpuart
    ca7c:	6164615f 72657470 333a632e 3a203134     _adapter.c:341 :
    ca8c:	6e616820 00656c64 632f2e2e 6f706d6f      handle.../compo
    ca9c:	746e656e 7261752f 706c2f74 74726175     nent/uart/lpuart
    caac:	6164615f 72657470 333a632e 3a203234     _adapter.c:342 :
    cabc:	74616420 00000061 632f2e2e 6f706d6f      data...../compo
    cacc:	746e656e 7261752f 706c2f74 74726175     nent/uart/lpuart
    cadc:	6164615f 72657470 333a632e 3a203334     _adapter.c:343 :
    caec:	6e656c20 00687467 632f2e2e 6f706d6f      length.../compo
    cafc:	746e656e 7265732f 5f6c6169 616e616d     nent/serial_mana
    cb0c:	2f726567 69726573 6d5f6c61 67616e61     ger/serial_manag
    cb1c:	632e7265 3437373a 77203a20 65746972     er.c:774 : write
    cb2c:	646e6148 0000656c 632f2e2e 6f706d6f     Handle..../compo
    cb3c:	746e656e 7265732f 5f6c6169 616e616d     nent/serial_mana
    cb4c:	2f726567 69726573 6d5f6c61 67616e61     ger/serial_manag
    cb5c:	632e7265 3537373a 62203a20 65666675     er.c:775 : buffe
    cb6c:	00000072 632f2e2e 6f706d6f 746e656e     r...../component
    cb7c:	7265732f 5f6c6169 616e616d 2f726567     /serial_manager/
    cb8c:	69726573 6d5f6c61 67616e61 632e7265     serial_manager.c
    cb9c:	3637373a 6c203a20 74676e65 00000068     :776 : length...
    cbac:	632f2e2e 6f706d6f 746e656e 7265732f     ../component/ser
    cbbc:	5f6c6169 616e616d 2f726567 69726573     ial_manager/seri
    cbcc:	6d5f6c61 67616e61 632e7265 3138373a     al_manager.c:781
    cbdc:	68203a20 6c646e61 00000065 632f2e2e      : handle...../c
    cbec:	6f706d6f 746e656e 7265732f 5f6c6169     omponent/serial_
    cbfc:	616e616d 2f726567 69726573 6d5f6c61     manager/serial_m
    cc0c:	67616e61 632e7265 3139373a 72203a20     anager.c:791 : r
    cc1c:	48646165 6c646e61 00000065 632f2e2e     eadHandle...../c
    cc2c:	6f706d6f 746e656e 7265732f 5f6c6169     omponent/serial_
    cc3c:	616e616d 2f726567 69726573 6d5f6c61     manager/serial_m
    cc4c:	67616e61 632e7265 3239373a 62203a20     anager.c:792 : b
    cc5c:	65666675 00000072 632f2e2e 6f706d6f     uffer...../compo
    cc6c:	746e656e 7265732f 5f6c6169 616e616d     nent/serial_mana
    cc7c:	2f726567 69726573 6d5f6c61 67616e61     ger/serial_manag
    cc8c:	632e7265 3339373a 6c203a20 74676e65     er.c:793 : lengt
    cc9c:	00000068 632f2e2e 6f706d6f 746e656e     h...../component
    ccac:	7265732f 5f6c6169 616e616d 2f726567     /serial_manager/
    ccbc:	69726573 6d5f6c61 67616e61 632e7265     serial_manager.c
    cccc:	3839373a 68203a20 6c646e61 00000065     :798 : handle...
    ccdc:	632f2e2e 6f706d6f 746e656e 7265732f     ../component/ser
    ccec:	5f6c6169 616e616d 2f726567 69726573     ial_manager/seri
    ccfc:	6d5f6c61 67616e61 632e7265 3930383a     al_manager.c:809
    cd0c:	63203a20 69666e6f 00000067 632f2e2e      : config...../c
    cd1c:	6f706d6f 746e656e 7265732f 5f6c6169     omponent/serial_
    cd2c:	616e616d 2f726567 69726573 6d5f6c61     manager/serial_m
    cd3c:	67616e61 632e7265 3431383a 73203a20     anager.c:814 : s
    cd4c:	61697265 6e61486c 00656c64 632f2e2e     erialHandle.../c
    cd5c:	6f706d6f 746e656e 7265732f 5f6c6169     omponent/serial_
    cd6c:	616e616d 2f726567 69726573 6d5f6c61     manager/serial_m
    cd7c:	67616e61 632e7265 3932393a 73203a20     anager.c:929 : s
    cd8c:	61697265 6e61486c 00656c64 632f2e2e     erialHandle.../c
    cd9c:	6f706d6f 746e656e 7265732f 5f6c6169     omponent/serial_
    cdac:	616e616d 2f726567 69726573 6d5f6c61     manager/serial_m
    cdbc:	67616e61 632e7265 3738393a 73203a20     anager.c:987 : s
    cdcc:	61697265 6e61486c 00656c64 632f2e2e     erialHandle.../c
    cddc:	6f706d6f 746e656e 7265732f 5f6c6169     omponent/serial_
    cdec:	616e616d 2f726567 69726573 6d5f6c61     manager/serial_m
    cdfc:	67616e61 632e7265 3838393a 77203a20     anager.c:988 : w
    ce0c:	65746972 646e6148 0000656c 632f2e2e     riteHandle..../c
    ce1c:	6f706d6f 746e656e 7265732f 5f6c6169     omponent/serial_
    ce2c:	616e616d 2f726567 69726573 6d5f6c61     manager/serial_m
    ce3c:	67616e61 632e7265 3130313a 203a2031     anager.c:1011 : 
    ce4c:	74697277 6e614865 00656c64 632f2e2e     writeHandle.../c
    ce5c:	6f706d6f 746e656e 7265732f 5f6c6169     omponent/serial_
    ce6c:	616e616d 2f726567 69726573 6d5f6c61     manager/serial_m
    ce7c:	67616e61 632e7265 3130313a 203a2036     anager.c:1016 : 
    ce8c:	646e6168 0000656c 632f2e2e 6f706d6f     handle..../compo
    ce9c:	746e656e 7265732f 5f6c6169 616e616d     nent/serial_mana
    ceac:	2f726567 69726573 6d5f6c61 67616e61     ger/serial_manag
    cebc:	632e7265 3330313a 203a2036 69726573     er.c:1036 : seri
    cecc:	61486c61 656c646e 00000000 632f2e2e     alHandle....../c
    cedc:	6f706d6f 746e656e 7265732f 5f6c6169     omponent/serial_
    ceec:	616e616d 2f726567 69726573 6d5f6c61     manager/serial_m
    cefc:	67616e61 632e7265 3330313a 203a2037     anager.c:1037 : 
    cf0c:	64616572 646e6148 0000656c 632f2e2e     readHandle..../c
    cf1c:	6f706d6f 746e656e 7265732f 5f6c6169     omponent/serial_
    cf2c:	616e616d 2f726567 69726573 6d5f6c61     manager/serial_m
    cf3c:	67616e61 632e7265 3630313a 203a2034     anager.c:1064 : 
    cf4c:	64616572 646e6148 0000656c 632f2e2e     readHandle..../c
    cf5c:	6f706d6f 746e656e 7265732f 5f6c6169     omponent/serial_
    cf6c:	616e616d 2f726567 69726573 6d5f6c61     manager/serial_m
    cf7c:	67616e61 632e7265 3630313a 203a2039     anager.c:1069 : 
    cf8c:	646e6168 0000656c 632f2e2e 6f706d6f     handle..../compo
    cf9c:	746e656e 7265732f 5f6c6169 616e616d     nent/serial_mana
    cfac:	2f726567 69726573 6d5f6c61 67616e61     ger/serial_manag
    cfbc:	632e7265 3832313a 203a2039 69726573     er.c:1289 : seri
    cfcc:	61486c61 656c646e 00000000 632f2e2e     alHandle....../c
    cfdc:	6f706d6f 746e656e 7265732f 5f6c6169     omponent/serial_
    cfec:	616e616d 2f726567 69726573 6d5f6c61     manager/serial_m
    cffc:	67616e61 632e7265 3932313a 203a2036     anager.c:1296 : 
    d00c:	69726573 61486c61 656c646e ffffff00     serialHandle....
    d01c:	632f2e2e 6f706d6f 746e656e 7265732f     ../component/ser
    d02c:	5f6c6169 616e616d 2f726567 69726573     ial_manager/seri
    d03c:	705f6c61 5f74726f 74726175 313a632e     al_port_uart.c:1
    d04c:	3a203933 72657320 436c6169 69666e6f     39 : serialConfi
    d05c:	00000067 632f2e2e 6f706d6f 746e656e     g...../component
    d06c:	7265732f 5f6c6169 616e616d 2f726567     /serial_manager/
    d07c:	69726573 705f6c61 5f74726f 74726175     serial_port_uart
    d08c:	313a632e 3a203034 72657320 486c6169     .c:140 : serialH
    d09c:	6c646e61 00000065 632f2e2e 6f706d6f     andle...../compo
    d0ac:	746e656e 7265732f 5f6c6169 616e616d     nent/serial_mana
    d0bc:	2f726567 69726573 705f6c61 5f74726f     ger/serial_port_
    d0cc:	74726175 323a632e 3a203030 72657320     uart.c:200 : ser
    d0dc:	486c6169 6c646e61 00000065 632f2e2e     ialHandle...../c
    d0ec:	6f706d6f 746e656e 7265732f 5f6c6169     omponent/serial_
    d0fc:	616e616d 2f726567 69726573 705f6c61     manager/serial_p
    d10c:	5f74726f 74726175 323a632e 3a203736     ort_uart.c:267 :
    d11c:	72657320 486c6169 6c646e61 00000065      serialHandle...
    d12c:	632f2e2e 6f706d6f 746e656e 7265732f     ../component/ser
    d13c:	5f6c6169 616e616d 2f726567 69726573     ial_manager/seri
    d14c:	705f6c61 5f74726f 74726175 323a632e     al_port_uart.c:2
    d15c:	3a203836 66756220 00726566 632f2e2e     68 : buffer.../c
    d16c:	6f706d6f 746e656e 7265732f 5f6c6169     omponent/serial_
    d17c:	616e616d 2f726567 69726573 705f6c61     manager/serial_p
    d18c:	5f74726f 74726175 323a632e 3a203936     ort_uart.c:269 :
    d19c:	6e656c20 00687467 632f2e2e 6f706d6f      length.../compo
    d1ac:	746e656e 7265732f 5f6c6169 616e616d     nent/serial_mana
    d1bc:	2f726567 69726573 705f6c61 5f74726f     ger/serial_port_
    d1cc:	74726175 323a632e 3a203138 72657320     uart.c:281 : ser
    d1dc:	486c6169 6c646e61 00000065 632f2e2e     ialHandle...../c
    d1ec:	6f706d6f 746e656e 7265732f 5f6c6169     omponent/serial_
    d1fc:	616e616d 2f726567 69726573 705f6c61     manager/serial_p
    d20c:	5f74726f 74726175 323a632e 3a203238     ort_uart.c:282 :
    d21c:	66756220 00726566 632f2e2e 6f706d6f      buffer.../compo
    d22c:	746e656e 7265732f 5f6c6169 616e616d     nent/serial_mana
    d23c:	2f726567 69726573 705f6c61 5f74726f     ger/serial_port_
    d24c:	74726175 323a632e 3a203338 6e656c20     uart.c:283 : len
    d25c:	00687467 642f2e2e 65766972 662f7372     gth.../drivers/f
    d26c:	635f6c73 6b636f6c 393a682e 3a203039     sl_clock.h:990 :
    d27c:	73756220 69685379 3c207466 4343203d      busyShift <= CC
    d28c:	4f4e5f4d 5355425f 41575f59 00005449     M_NO_BUSY_WAIT..
    d29c:	642f2e2e 65766972 662f7372 635f6c73     ../drivers/fsl_c
    d2ac:	6b636f6c 313a682e 20373230 7562203a     lock.h:1027 : bu
    d2bc:	68537973 20746669 43203d3c 4e5f4d43     syShift <= CCM_N
    d2cc:	55425f4f 575f5953 00544941 642f2e2e     O_BUSY_WAIT.../d
    d2dc:	65766972 662f7372 635f6c73 6b636f6c     rivers/fsl_clock
    d2ec:	313a682e 20313630 6e69203a 20786564     .h:1061 : index 
    d2fc:	37203d3c ffffff00                       <= 7....

0000d304 <armPllConfig_BOARD_BootClockRUN>:
    d304:	00000064 00000000                       d.......

0000d30c <sysPllConfig_BOARD_BootClockRUN>:
    d30c:	00000001 00000000 00000001 00000000     ................
    d31c:	00000000 642f2e2e 65766972 662f7372     ....../drivers/f
    d32c:	635f6c73 6b636f6c 313a682e 20313630     sl_clock.h:1061 
    d33c:	6e69203a 20786564 37203d3c 00000000     : index <= 7....
    d34c:	ff000101                                ....

0000d350 <__num_Ciob_streams>:
    d350:	00000003 202a2a2a 65737361 66207472     ....*** assert f
    d360:	656c6961 203a2064 2a2a2a00 73435f20     ailed : .*** _Cs
    d370:	615f7379 636f6c6c 69616620 0a64656c     ys_alloc failed.
    d380:	77007200 ffffff00                       .r.w....
