
evkmimxrt1060_cmsis_lpspi_wiznet_API.axf:     file format elf32-littlearm
evkmimxrt1060_cmsis_lpspi_wiznet_API.axf
architecture: armv7e-m, flags 0x00000112:
EXEC_P, HAS_SYMS, D_PAGED
start address 0x60001000

Program Header:
    LOAD off    0x0001007c vaddr 0x2000007c paddr 0x2000007c align 2**16
         filesz 0x00000000 memsz 0x00002a40 flags rw-
    LOAD off    0x00010000 vaddr 0x60000000 paddr 0x60000000 align 2**16
         filesz 0x00002060 memsz 0x00002060 flags rwx
    LOAD off    0x00020000 vaddr 0x00000000 paddr 0x60002060 align 2**16
         filesz 0x0000d388 memsz 0x0000d388 flags r-x
    LOAD off    0x00030000 vaddr 0x20000000 paddr 0x6000f3e8 align 2**16
         filesz 0x0000007c memsz 0x0000007c flags rw-
private flags = 5000400: [Version5 EABI] [hard-float ABI]

Sections:
Idx Name          Size      VMA       LMA       File off  Algn
  0 .boot_hdr     00002000  60000000  60000000  00010000  2**2
                  CONTENTS, ALLOC, LOAD, DATA
  1 .teensy_boot  00000060  60002000  60002000  00012000  2**3
                  CONTENTS, ALLOC, LOAD, READONLY, CODE
  2 .text         0000d388  00000000  60002060  00020000  2**3
                  CONTENTS, ALLOC, LOAD, READONLY, CODE
  3 .data_RAM     00000000  0000d388  0000d388  0003007c  2**0
                  CONTENTS
  4 .data         0000007c  20000000  6000f3e8  00030000  2**2
                  CONTENTS, ALLOC, LOAD, DATA
  5 .data_RAM3    00000000  20200000  20200000  0003007c  2**2
                  CONTENTS
  6 .bss_RAM      00000000  0000d388  0000d388  0003007c  2**0
                  CONTENTS
  7 .bss          00000a40  2000007c  2000007c  0001007c  2**2
                  ALLOC
  8 .bss_RAM3     00000000  20200000  20200000  0003007c  2**0
                  CONTENTS
  9 .uninit_RESERVED 00000000  20000000  20000000  0003007c  2**0
                  CONTENTS
 10 .noinit_RAM   00000000  0000d388  0000d388  0003007c  2**0
                  CONTENTS
 11 .noinit_RAM3  00000000  20200000  20200000  0003007c  2**0
                  CONTENTS
 12 .noinit       00000000  20000abc  20000abc  0003007c  2**0
                  CONTENTS
 13 .heap         00001000  20000abc  20000abc  0001007c  2**2
                  ALLOC
 14 .stack        00001000  20001abc  20001abc  0001007c  2**2
                  ALLOC
 15 .debug_info   0001a8d7  00000000  00000000  0003007c  2**0
                  CONTENTS, READONLY, DEBUGGING
 16 .debug_abbrev 00003879  00000000  00000000  0004a953  2**0
                  CONTENTS, READONLY, DEBUGGING
 17 .debug_aranges 00001460  00000000  00000000  0004e1cc  2**0
                  CONTENTS, READONLY, DEBUGGING
 18 .debug_ranges 000012f0  00000000  00000000  0004f62c  2**0
                  CONTENTS, READONLY, DEBUGGING
 19 .debug_macro  00003d96  00000000  00000000  0005091c  2**0
                  CONTENTS, READONLY, DEBUGGING
 20 .debug_line   0000ddbc  00000000  00000000  000546b2  2**0
                  CONTENTS, READONLY, DEBUGGING
 21 .debug_str    001736db  00000000  00000000  0006246e  2**0
                  CONTENTS, READONLY, DEBUGGING
 22 .comment      00000075  00000000  00000000  001d5b49  2**0
                  CONTENTS, READONLY
 23 .ARM.attributes 00000035  00000000  00000000  001d5bbe  2**0
                  CONTENTS, READONLY
 24 .debug_frame  00004b98  00000000  00000000  001d5bf4  2**2
                  CONTENTS, READONLY, DEBUGGING
SYMBOL TABLE:
60000000 l    d  .boot_hdr	00000000 .boot_hdr
60002000 l    d  .teensy_boot	00000000 .teensy_boot
00000000 l    d  .text	00000000 .text
0000d388 l    d  .data_RAM	00000000 .data_RAM
20000000 l    d  .data	00000000 .data
20200000 l    d  .data_RAM3	00000000 .data_RAM3
0000d388 l    d  .bss_RAM	00000000 .bss_RAM
2000007c l    d  .bss	00000000 .bss
20200000 l    d  .bss_RAM3	00000000 .bss_RAM3
20000000 l    d  .uninit_RESERVED	00000000 .uninit_RESERVED
0000d388 l    d  .noinit_RAM	00000000 .noinit_RAM
20200000 l    d  .noinit_RAM3	00000000 .noinit_RAM3
20000abc l    d  .noinit	00000000 .noinit
20000abc l    d  .heap	00000000 .heap
20001abc l    d  .stack	00000000 .stack
00000000 l    d  .debug_info	00000000 .debug_info
00000000 l    d  .debug_abbrev	00000000 .debug_abbrev
00000000 l    d  .debug_aranges	00000000 .debug_aranges
00000000 l    d  .debug_ranges	00000000 .debug_ranges
00000000 l    d  .debug_macro	00000000 .debug_macro
00000000 l    d  .debug_line	00000000 .debug_line
00000000 l    d  .debug_str	00000000 .debug_str
00000000 l    d  .comment	00000000 .comment
00000000 l    d  .ARM.attributes	00000000 .ARM.attributes
00000000 l    d  .debug_frame	00000000 .debug_frame
00000000 l    df *ABS*	00000000 startup_mimxrt1062.c
6000203c l     F .teensy_boot	00000016 memory_copy
00000000 l    df *ABS*	00000000 fsl_lpspi.c
00004068 l     F .text	0000003c __NVIC_EnableIRQ
000040a4 l     F .text	00000064 CLOCK_ControlGate
0000912e l     F .text	0000001e CLOCK_EnableClock
0000914c l     F .text	0000001e CLOCK_DisableClock
0000916a l     F .text	0000002c EnableIRQ
00009196 l     F .text	00000038 LPSPI_Enable
000091ce l     F .text	00000018 LPSPI_GetStatusFlags
000091e6 l     F .text	00000022 LPSPI_GetRxFifoSize
00009208 l     F .text	0000001c LPSPI_GetTxFifoCount
00009224 l     F .text	0000001e LPSPI_GetRxFifoCount
00009242 l     F .text	0000001c LPSPI_ClearStatusFlags
0000925e l     F .text	00000022 LPSPI_EnableInterrupts
00009280 l     F .text	00000024 LPSPI_DisableInterrupts
000092a4 l     F .text	0000002c LPSPI_SetMasterSlaveMode
000092d0 l     F .text	00000026 LPSPI_IsMaster
000092f6 l     F .text	00000030 LPSPI_FlushFifo
00009326 l     F .text	0000002c LPSPI_SetFifoWatermarks
00009352 l     F .text	0000001c LPSPI_WriteData
0000936e l     F .text	00000018 LPSPI_ReadData
0000bff4 l     O .text	00000008 s_baudratePrescaler
0000bffc l     O .text	00000014 s_lpspiBases
0000c010 l     O .text	0000000a s_lpspiIRQ
0000c01c l     O .text	0000000a s_lpspiClocks
20000970 l     O .bss	00000014 s_lpspiHandle
20000984 l     O .bss	00000004 s_lpspiMasterIsr
20000988 l     O .bss	00000004 s_lpspiSlaveIsr
000093b8 l     F .text	00000044 LPSPI_SetOnePcsPolarity
000053cc l     F .text	000001bc LPSPI_CombineWriteData
00005588 l     F .text	000001a8 LPSPI_SeparateReadData
000049bc l     F .text	00000110 LPSPI_MasterTransferFillUpTxFifo
00004acc l     F .text	0000004c LPSPI_MasterTransferComplete
00005030 l     F .text	000000a0 LPSPI_SlaveTransferFillUpTxFifo
000050d0 l     F .text	00000068 LPSPI_SlaveTransferComplete
00005730 l     F .text	0000003c LPSPI_CommonIRQHandler
00000000 l    df *ABS*	00000000 fsl_debug_console.c
2000007c l     O .bss	0000001c s_debugConsoleState
00007e14 l     F .text	00000064 DbgConsole_PrintCallback
00000000 l    df *ABS*	00000000 dhcp.c
00000000 l    df *ABS*	00000000 w5100.c
00000000 l    df *ABS*	00000000 socket.c
20000078 l     O .data	00000002 sock_any_port
20000ab0 l     O .bss	00000002 sock_io_mode
20000ab2 l     O .bss	00000002 sock_is_sending
200000c8 l     O .bss	00000008 sock_remained_size
00000000 l    df *ABS*	00000000 wizchip_conf.c
200000d4 l     O .bss	00000004 _DNS_
20000aba l     O .bss	00000001 _DHCP_
00000000 l    df *ABS*	00000000 cmsis_lpspi_int_b2b_transfer_master.c
00008f90 l     F .text	0000004e QTMR_StartTimer
00000000 l    df *ABS*	00000000 fsl_clock.c
00002cc8 l     F .text	00000030 CLOCK_GetOscFreq
0000903a l     F .text	00000012 CLOCK_GetRtcFreq
0000904c l     F .text	00000032 CLOCK_IsPllBypassed
0000907e l     F .text	0000003c CLOCK_IsPllEnabled
000090ba l     F .text	00000034 CLOCK_GetPllBypassRefClk
00002cf8 l     F .text	000000e0 CLOCK_GetPeriphClkFreq
00000000 l    df *ABS*	00000000 fsl_edma.c
200008f0 l     O .bss	00000080 s_EDMAHandle
00000000 l    df *ABS*	00000000 fsl_gpio.c
00003dc4 l     F .text	00000064 CLOCK_ControlGate
000090ee l     F .text	0000001e CLOCK_EnableClock
0000910c l     F .text	00000022 GPIO_SetPinInterruptConfig
0000ba2c l     O .text	00000028 s_gpioBases
0000ba54 l     O .text	0000000c s_gpioClock
00003e28 l     F .text	0000004c GPIO_GetInstance
00000000 l    df *ABS*	00000000 fsl_lpspi_cmsis.c
0000582c l     F .text	00000064 CLOCK_ControlGate
000093fc l     F .text	0000001e CLOCK_EnableClock
0000941a l     F .text	00000038 LPSPI_Enable
00009452 l     F .text	0000002c LPSPI_SetMasterSlaveMode
0000947e l     F .text	00000026 LPSPI_IsMaster
0000c054 l     O .text	0000000a s_lpspiClock
0000c060 l     O .text	00000004 s_lpspiDriverVersion
000094a4 l     F .text	000002ea LPSPI_CommonControl
0000978e l     F .text	000000a2 LPSPI_SetTransferConfigFlags
00005890 l     F .text	0000002c LPSPIx_GetVersion
00009830 l     F .text	00000014 LPSPIx_GetCapabilities
000098d6 l     F .text	00000030 LPSPI_InterruptInitialize
00009906 l     F .text	0000001c LPSPI_InterruptUninitialize
000058bc l     F .text	00000098 LPSPI_InterruptPowerControl
00009922 l     F .text	000000c6 LPSPI_InterruptSend
000099e8 l     F .text	000000c6 LPSPI_InterruptReceive
00009aae l     F .text	000000c8 LPSPI_InterruptTransfer
00009b76 l     F .text	00000040 LPSPI_InterruptGetCount
00005954 l     F .text	00000264 LPSPI_InterruptControl
00005bb8 l     F .text	00000024 LPSPI4_InterruptInitialize
00005bdc l     F .text	00000018 LPSPI4_InterruptUninitialize
00005bf4 l     F .text	00000024 LPSPI4_InterruptPowerControl
00005c18 l     F .text	00000024 LPSPI4_InterruptSend
00005c3c l     F .text	00000024 LPSPI4_InterruptReceive
00005c60 l     F .text	00000028 LPSPI4_InterruptTransfer
00005c88 l     F .text	00000014 LPSPI4_InterruptGetCount
00005c9c l     F .text	00000024 LPSPI4_InterruptControl
00005cc0 l     F .text	00000014 LPSPI4_InterruptGetStatus
00000000 l    df *ABS*	00000000 fsl_lpuart.c
00005cd4 l     F .text	00000064 CLOCK_ControlGate
00009c68 l     F .text	0000001e CLOCK_EnableClock
00009c86 l     F .text	0000002c LPUART_SoftwareReset
0000c750 l     O .text	00000024 s_lpuartBases
200009c8 l     O .bss	00000024 s_lpuartHandle
0000c774 l     O .text	00000012 s_lpuartClock
200009ec l     O .bss	00000004 s_lpuartIsr
00000000 l    df *ABS*	00000000 fsl_qtmr.c
00006284 l     F .text	00000064 CLOCK_ControlGate
00009cb2 l     F .text	0000001e CLOCK_EnableClock
0000c83c l     O .text	00000014 s_qtmrBases
0000c850 l     O .text	0000000a s_qtmrClocks
000062e8 l     F .text	0000004c QTMR_GetInstance
00000000 l    df *ABS*	00000000 system_MIMXRT1062.c
00006490 l     F .text	00000040 SCB_EnableICache
000064d0 l     F .text	00000080 SCB_EnableDCache
00000000 l    df *ABS*	00000000 lpuart_adapter.c
0000c85c l     O .text	00000024 s_LpuartAdapterBase
00009ec8 l     F .text	00000022 HAL_UartGetStatus
00000000 l    df *ABS*	00000000 serial_manager.c
00009eea l     F .text	0000004a SerialManager_StartWriting
000067a8 l     F .text	0000006c SerialManager_Write
00000000 l    df *ABS*	00000000 serial_port_uart.c
00000000 l    df *ABS*	00000000 board.c
00006a18 l     F .text	0000003c ARM_MPU_Enable
00006a54 l     F .text	00000038 ARM_MPU_Disable
00006a8c l     F .text	00000040 SCB_EnableICache
00006acc l     F .text	00000038 SCB_DisableICache
00006b04 l     F .text	00000080 SCB_EnableDCache
00006b84 l     F .text	00000068 SCB_DisableDCache
00006bec l     F .text	00000044 CLOCK_GetMux
00006c30 l     F .text	00000044 CLOCK_GetDiv
00006c74 l     F .text	00000030 CLOCK_GetOscFreq
00000000 l    df *ABS*	00000000 clock_config.c
00006e08 l     F .text	0000009c CLOCK_SetMux
00006ea4 l     F .text	0000009c CLOCK_SetDiv
00006f40 l     F .text	00000064 CLOCK_ControlGate
00009f76 l     F .text	0000001e CLOCK_DisableClock
00006fa4 l     F .text	00000020 CLOCK_SetXtalFreq
00006fc4 l     F .text	00000020 CLOCK_SetRtcXtalFreq
00009f94 l     F .text	0000004e CLOCK_SetPllBypass
00006fe4 l     F .text	00000048 IOMUXC_EnableMode
00009fe2 l     F .text	0000006c IOMUXC_SetSaiMClkClockSource
0000702c l     F .text	00000044 IOMUXC_MQSConfig
00000000 l    df *ABS*	00000000 pin_mux.c
000076f8 l     F .text	00000064 CLOCK_ControlGate
0000a04e l     F .text	0000001e CLOCK_EnableClock
0000a06c l     F .text	0000003a IOMUXC_SetPinMux
0000a0a6 l     F .text	00000026 IOMUXC_SetPinConfig
00000000 l    df *ABS*	00000000 _cr_assert.c
00000000 l    df *ABS*	00000000 _writebuf.c
00000000 l    df *ABS*	00000000 alloc.c
00000000 l    df *ABS*	00000000 fseek.c
00000000 l    df *ABS*	00000000 ftell.c
00000000 l    df *ABS*	00000000 initio.c
00000000 l    df *ABS*	00000000 setvbuf.c
00000000 l    df *ABS*	00000000 _cr_sbrk.c
00000000 l    df *ABS*	00000000 fflush.c
00000000 l    df *ABS*	00000000 _cr_check_heap.c
00000000 l    df *ABS*	00000000 fsl_str.c
00007e78 l     F .text	00000114 ConvertRadixNumToString
00000000 l    df *ABS*	00000000 semihost_hardfault.c
0000901c l       .text	00000000 _MSP
00009020 l       .text	00000000 _process
0000902e l       .text	00000000 _semihost_return
00000000 l    df *ABS*	00000000 _cr__main.c
00000000 l    df *ABS*	00000000 __sys_appexit.c
00000000 l    df *ABS*	00000000 memset.c
00000000 l    df *ABS*	00000000 _deferredlazyseek.c
00000000 l    df *ABS*	00000000 _fflush.c
00000000 l    df *ABS*	00000000 fputs.c
00000000 l    df *ABS*	00000000 strlen.c
00000000 l    df *ABS*	00000000 _fdopen.c
00000000 l    df *ABS*	00000000 fclose.c
00000000 l    df *ABS*	00000000 remove.c
00000000 l    df *ABS*	00000000 _do_fflush.c
00000000 l    df *ABS*	00000000 division_64.o
0000a4be l       .text	00000000 ldiv64
0000a55c l       .text	00000000 ldiv_divzero
0000a48e l       .text	00000000 ldiv32
0000a568 l       .text	00000000 udiv6432
0000a496 l       .text	00000000 ldiv_return
0000a4ac l       .text	00000000 ldiv_sign
0000a546 l       .text	00000000 ldiv_res01
0000a584 l       .text	00000000 udiv6432_entry
0000a570 l       .text	00000000 udiv6432_loop1
0000a586 l       .text	00000000 udiv6432_loop
00000000 l    df *ABS*	00000000 division_idiv0.o
00000000 l    df *ABS*	00000000 memcpy.o
0000a60a l       .text	00000000 memset1a
0000a5f8 l       .text	00000000 __bhs_memset4
0000a5fa l       .text	00000000 memset4
0000a606 l       .text	00000000 memset1
00000000 l    df *ABS*	00000000 __sys_close.c
00000000 l    df *ABS*	00000000 __sys_flen.c
00000000 l    df *ABS*	00000000 __sys_istty.c
00000000 l    df *ABS*	00000000 __sys_remove.c
00000000 l    df *ABS*	00000000 __sys_seek.c
00000000 l    df *ABS*	00000000 __sys_tmpnam.c
00000000 l    df *ABS*	00000000 __sys_write.c
00000000 l    df *ABS*	00000000 __ciob.c
60002058 l     F .teensy_boot	00000008 __ResetISR_veneer
0000037a  w    F .text	00000002 ACMP4_DriverIRQHandler
000009c4 g     F .text	00000358 send_DHCP_DISCOVER
00002828 g     F .text	00000018 wizchip_cs_select
000084a0  w    F .text	00000008 USB_PHY1_IRQHandler
00000380 g     F .text	0000020c LPSPI_MasterSetDelayTimes
0000037a  w    F .text	00000002 Reserved87_DriverIRQHandler
00006260 g     F .text	00000024 LPUART8_DriverIRQHandler
00004158 g     F .text	0000002c LPSPI_SetDummyData
60000000 g       *ABS*	00000000 __boot_hdr_start__
00008780 g     F .text	00000032 NibbleToHex
000082a8  w    F .text	00000008 DMA2_DMA18_IRQHandler
0000037a  w    F .text	00000002 KPP_DriverIRQHandler
0000a0cc g     F .text	0000000e __main
0000037a  w    F .text	00000002 FLEXSPI2_DriverIRQHandler
0000579c g     F .text	00000030 LPSPI2_DriverIRQHandler
00005d84 g     F .text	000002fe LPUART_Init
00008448  w    F .text	00000008 SJC_IRQHandler
00008648  w    F .text	00000008 ADC_ETC_IRQ0_IRQHandler
00000000 g     O .text	000002b8 __Vectors
0000a0e0 g     F .text	00000040 _deferredlazyseek
0000037a  w    F .text	00000002 LCDIF_DriverIRQHandler
0000037a  w    F .text	00000002 SAI3_RX_DriverIRQHandler
0000037a  w    F .text	00000002 CCM_2_DriverIRQHandler
0000037a  w    F .text	00000002 PIT_DriverIRQHandler
000002b8 g       .text	00000000 __section_table_start
0000a0da  w    F .text	00000002 __exit
0000037a  w    F .text	00000002 PMU_EVENT_DriverIRQHandler
000083f8  w    F .text	00000008 PXP_IRQHandler
0000037a  w    F .text	00000002 PWM4_FAULT_DriverIRQHandler
00003cec g     F .text	00000048 DMA13_DMA29_DriverIRQHandler
0000d30c g     O .text	00000014 sysPllConfig_BOARD_BootClockRUN
0000a634 g     F .text	00000006 __sys_tmpnam
00004484 g     F .text	000000f0 LPSPI_MasterSetBaudRate
00008d26 g     F .text	0000001e wizchip_bus_writedata
00009f54 g     F .text	00000022 BOARD_InitDebugConsole
0000037a  w    F .text	00000002 FLEXRAM_DriverIRQHandler
000027bc g     F .text	00000024 waitfortransfer
00002858 g     F .text	00000030 wizchip_spi_readbyte
00001b10 g     F .text	000000d0 DHCP_init
0000900e g     F .text	0000002c HardFault_Handler
000084c8  w    F .text	00000008 Reserved86_IRQHandler
00000000 g       *ABS*	00000000 __vectors_start__
000085a8  w    F .text	00000008 SRC_IRQHandler
0000643c g     F .text	00000054 QTMR_GetDefaultConfig
000057fc g     F .text	00000030 LPSPI4_DriverIRQHandler
00001000 g       *ABS*	00000000 _HeapSize
00008fde g     F .text	00000030 _delay_ms
000042a0 g     F .text	00000098 LPSPI_MasterGetDefaultConfig
0000037a  w    F .text	00000002 SEMC_DriverIRQHandler
000082b0  w    F .text	00000008 DMA3_DMA19_IRQHandler
00008528  w    F .text	00000008 GPIO2_Combined_0_15_IRQHandler
00008b08 g     F .text	0000016c wiz_recv_data
0000892a g     F .text	0000006c getSn_TxBASE
0000037a  w    F .text	00000002 SPDIF_DriverIRQHandler
000084e8  w    F .text	00000008 GPIO1_INT2_IRQHandler
000083f0  w    F .text	00000008 CSI_IRQHandler
00000378  w    F .text	00000002 SysTick_Handler
0000037a  w    F .text	00000002 PWM4_3_DriverIRQHandler
0000037a  w    F .text	00000002 ENET2_DriverIRQHandler
601f0000 g       *ABS*	00000000 __top_Flash_00
0000610c g     F .text	00000058 LPUART_WriteBlocking
200000c0 g     O .bss	00000006 DHCP_CHADDR
20200000 g       *ABS*	00000000 __base_SRAM_OC
00008418  w    F .text	00000008 SNVS_LP_WRAPPER_IRQHandler
000086a8  w    F .text	00000008 ENC2_IRQHandler
60002060 g       *ABS*	00000000 _itcm_loadstart
000086e8  w    F .text	00000008 PWM2_2_IRQHandler
20000000 g       *ABS*	00000000 __base_RAM2
00000376  w    F .text	00000002 PendSV_Handler
00000370  w    F .text	00000002 NMI_Handler
0000d388 g       .text	00000000 __exidx_end
000002dc g       .text	00000000 __data_section_table_end
00003170 g     F .text	0000009c CLOCK_InitSysPll
0000320c g     F .text	00000018 CLOCK_DeinitUsb2Pll
00008748  w    F .text	00000008 PWM4_FAULT_IRQHandler
00008308  w    F .text	00000008 DMA14_DMA30_IRQHandler
00008510  w    F .text	00000008 GPIO1_INT7_IRQHandler
0000a120 g     F .text	00000140 __flsbuf
0000037a  w    F .text	00000002 USB_PHY1_DriverIRQHandler
60001000 g     O .boot_hdr	00000020 ImageVectorTable
00008590  w    F .text	00000008 CCM_1_IRQHandler
000083b8  w    F .text	00000008 CAN1_IRQHandler
00008cf0 g     F .text	0000000e wizchip_cris_enter
0000037a  w    F .text	00000002 GPIO3_Combined_0_15_DriverIRQHandler
0000037a  w    F .text	00000002 CAN3_DriverIRQHandler
2000098c g     O .bss	00000005 g_lpspiDummyData
00008650  w    F .text	00000008 ADC_ETC_IRQ1_IRQHandler
0000037a  w    F .text	00000002 Reserved171_DriverIRQHandler
000082b8  w    F .text	00000008 DMA4_DMA20_IRQHandler
00008570  w    F .text	00000008 FLEXIO2_IRQHandler
00008568  w    F .text	00000008 FLEXIO1_IRQHandler
00008996 g     F .text	00000172 wiz_send_data
000083a8  w    F .text	00000008 LPSPI3_IRQHandler
20000aac g     O .bss	00000004 errno
00003b3c g     F .text	00000048 DMA7_DMA23_DriverIRQHandler
0000d388 g       .text	00000000 _etext
00008320  w    F .text	00000008 CTI0_ERROR_IRQHandler
0000037a  w    F .text	00000002 BEE_DriverIRQHandler
00002888 g     F .text	00000038 wizchip_spi_writebyte
00008558  w    F .text	00000008 GPIO5_Combined_0_15_IRQHandler
000085c8  w    F .text	00000008 PWM1_0_IRQHandler
00008438  w    F .text	00000008 Reserved68_IRQHandler
00000d1c g     F .text	00000518 send_DHCP_REQUEST
00002dd8 g     F .text	0000006c CLOCK_InitExternalClk
0000037a  w    F .text	00000002 LPI2C3_DriverIRQHandler
000037e4 g     F .text	00000160 EDMA_HandleIRQ
0000037a  w    F .text	00000002 GPR_IRQ_DriverIRQHandler
00008360  w    F .text	00000008 LPUART6_IRQHandler
0000517c g     F .text	00000250 LPSPI_SlaveTransferHandleIRQ
00008dcc g     F .text	000001c4 wizchip_init
000084a8  w    F .text	00000008 USB_PHY2_IRQHandler
000082c8  w    F .text	00000008 DMA6_DMA22_IRQHandler
20000ab5 g     O .bss	00000001 dhcp_state
00006940 g     F .text	00000080 Serial_UartInit
20000994 g     O .bss	00000034 LPSPI4_Handle
000083d8  w    F .text	00000008 TSC_DIG_IRQHandler
000082e0  w    F .text	00000008 DMA9_DMA25_IRQHandler
00002e44 g     F .text	00000034 CLOCK_SwitchOsc
20000004 g     O .data	00000004 dhcp_tick_next
00001000 g       *ABS*	00000000 _StackSize
0000037a  w    F .text	00000002 PWM2_FAULT_DriverIRQHandler
0000035e g     F .text	00000012 bss_init
00008548  w    F .text	00000008 GPIO4_Combined_0_15_IRQHandler
0000037a  w    F .text	00000002 PWM3_1_DriverIRQHandler
00008350  w    F .text	00000008 LPUART4_IRQHandler
00001d20 g     F .text	0000009c WIZCHIP_WRITE_BUF
00008630  w    F .text	00000008 ENET_1588_Timer_IRQHandler
00006888 g     F .text	00000058 SerialManager_OpenWriteHandle
00007d3c g     F .text	00000040 setvbuf
00009cd0 g     F .text	000000ce QTMR_EnableInterrupts
0000c070 g     O .text	0000002c Driver_SPI4
000086d8  w    F .text	00000008 PWM2_0_IRQHandler
00008430  w    F .text	00000008 DCP_VMI_IRQHandler
00008468  w    F .text	00000008 SAI3_RX_IRQHandler
00003d34 g     F .text	00000048 DMA14_DMA30_DriverIRQHandler
000085f0  w    F .text	00000008 FLEXSPI2_IRQHandler
00001c68 g     F .text	0000005c WIZCHIP_WRITE
0000037a  w    F .text	00000002 TMR1_DriverIRQHandler
0000037a  w    F .text	00000002 TRNG_DriverIRQHandler
0000a46e g     F .text	00000174 __aeabi_uldivmod
20000abc g       .noinit	00000000 _noinit
0000037a  w    F .text	00000002 PWM3_2_DriverIRQHandler
60000000 g     O .boot_hdr	00000200 FlexSPI_NOR_Config
0000037a  w    F .text	00000002 ENET_1588_Timer_DriverIRQHandler
00008608  w    F .text	00000008 USDHC1_IRQHandler
000086e0  w    F .text	00000008 PWM2_1_IRQHandler
20000074 g     O .data	00000004 SystemCoreClock
00005138 g     F .text	00000044 LPSPI_SlaveTransferAbort
000082d8  w    F .text	00000008 DMA8_DMA24_IRQHandler
200008e8 g     O .bss	00000004 g_xtalFreq
00007a94 g     F .text	000000c8 malloc
0000a41a g     F .text	00000014 remove
200000d8 g     O .bss	00000004 loop_counter
200000a0 g     O .bss	00000004 OLD_allocated_ip
000086f8  w    F .text	00000008 PWM2_FAULT_IRQHandler
0000037a  w    F .text	00000002 FLEXIO2_DriverIRQHandler
0000037a  w    F .text	00000002 GPIO2_Combined_16_31_DriverIRQHandler
00008760  w    F .text	00000008 CAN3_IRQHandler
0000037a  w    F .text	00000002 Reserved143_DriverIRQHandler
00080000 g       *ABS*	00000000 __top_RAM
00007870 g     F .text	000000d8 LPSPI4_InitPins
00008578  w    F .text	00000008 WDOG1_IRQHandler
00006ca4 g     F .text	00000064 BOARD_DebugConsoleSrcFreq
0000037a  w    F .text	00000002 PWM4_1_DriverIRQHandler
000083b0  w    F .text	00000008 LPSPI4_IRQHandler
000023dc g     F .text	000003bc recvfrom
00008480  w    F .text	00000008 PMU_EVENT_IRQHandler
000061f4 g     F .text	00000024 LPUART5_DriverIRQHandler
00008d0c g     F .text	0000001a wizchip_bus_readdata
000085b8  w    F .text	00000008 GPT1_IRQHandler
aaaaaaaf g       *ABS*	00000000 _flexram_bank_config
00008340  w    F .text	00000008 LPUART2_IRQHandler
00008730  w    F .text	00000008 PWM4_1_IRQHandler
00004108 g     F .text	00000050 LPSPI_GetInstance
200008dc g     O .bss	00000004 ipaddr
0000a61c g     F .text	00000006 __sys_flen
00008618  w    F .text	00000008 USB_OTG2_IRQHandler
00008688  w    F .text	00000008 ACMP4_IRQHandler
00008600  w    F .text	00000008 SEMC_IRQHandler
0000037a  w    F .text	00000002 PWM3_3_DriverIRQHandler
00003944 g     F .text	00000048 DMA0_DMA16_DriverIRQHandler
00002f40 g     F .text	00000044 CLOCK_GetPerClkFreq
0000037a  w    F .text	00000002 IntDefaultHandler
00002ec0 g     F .text	0000005c CLOCK_GetSemcFreq
00001e58 g     F .text	0000020c socket
20080000 g       *ABS*	00000000 __top_RAM2
0000325c g     F .text	0000001c CLOCK_DeinitEnetPll
20001abc g       .heap	00000000 _pvHeapLimit
200000ac g     O .bss	00000004 DHCP_allocated_sn
000085d0  w    F .text	00000008 PWM1_1_IRQHandler
00008348  w    F .text	00000008 LPUART3_IRQHandler
000039d4 g     F .text	00000048 DMA2_DMA18_DriverIRQHandler
00007db8 g     F .text	00000044 fflush
00006644 g     F .text	00000100 HAL_UartInit
000035b4 g     F .text	00000064 CLOCK_InitSysPfd
0000037a  w    F .text	00000002 SRC_DriverIRQHandler
00008700  w    F .text	00000008 PWM3_0_IRQHandler
20000060 g     O .data	00000014 LPSPI4_InterruptDriverState
0000037a  w    F .text	00000002 GPIO1_INT4_DriverIRQHandler
20000010 g     O .data	00000004 dhcp_ip_assign
0000037a  w    F .text	00000002 Reserved144_DriverIRQHandler
0000d388 g       .text	00000000 __exidx_start
000079dc g     F .text	0000004c __assertion_failed
0000037a  w    F .text	00000002 USDHC1_DriverIRQHandler
00008718  w    F .text	00000008 PWM3_3_IRQHandler
000084d8  w    F .text	00000008 GPIO1_INT0_IRQHandler
0000037a  w    F .text	00000002 ENC3_DriverIRQHandler
00006188 g     F .text	00000024 LPUART2_DriverIRQHandler
000036c4 g     F .text	000000ac CLOCK_GetUsb1PfdFreq
0000c064 g     O .text	0000000c LPSPI4_Resource
00008358  w    F .text	00000008 LPUART5_IRQHandler
0000037a  w    F .text	00000002 PWM3_FAULT_DriverIRQHandler
00008420  w    F .text	00000008 CSU_IRQHandler
0000a35a g     F .text	00000068 _fdopen
0000a5e4 g     F .text	00000032 __aeabi_lowlevel_memset
00008460  w    F .text	00000008 SAI2_IRQHandler
000084b0  w    F .text	00000008 ADC1_IRQHandler
00007d7c g     F .text	0000003c _sbrk
00000790 g     F .text	00000028 default_ip_update
200000d0 g     O .bss	00000004 sock_pack_info
00080000 g       *ABS*	00000000 __top_SRAM_ITC
0000037a  w    F .text	00000002 EWM_DriverIRQHandler
000028c0 g     F .text	0000005c reg_wizchip_cs_cbfunc
00003108 g     F .text	00000068 CLOCK_InitArmPll
0000037a  w    F .text	00000002 TSC_DIG_DriverIRQHandler
0000037a  w    F .text	00000002 WDOG1_DriverIRQHandler
0000037a  w    F .text	00000002 FLEXIO1_DriverIRQHandler
000002b8 g       .text	00000000 __data_section_table
0000037a  w    F .text	00000002 ENET_DriverIRQHandler
0000037a  w    F .text	00000002 Reserved78_DriverIRQHandler
00008750  w    F .text	00000008 ENET2_IRQHandler
0000d350 g     O .text	00000004 __num_Ciob_streams
0000037a  w    F .text	00000002 TMR4_DriverIRQHandler
0000037a  w    F .text	00000002 ENC2_DriverIRQHandler
00008838 g     F .text	00000086 getSn_RX_RSR
20080000 g       *ABS*	00000000 __top_SRAM_DTC
0000037a  w    F .text	00000002 ADC_ETC_IRQ2_DriverIRQHandler
00005d38 g     F .text	0000004c LPUART_GetInstance
20000abc g       .bss	00000000 _ebss
00004b18 g     F .text	00000048 LPSPI_MasterTransferAbort
20000ab6 g     O .bss	00000001 dhcp_retry_count
00008520  w    F .text	00000008 GPIO1_Combined_16_31_IRQHandler
00008368  w    F .text	00000008 LPUART7_IRQHandler
00008580  w    F .text	00000008 RTWDOG_IRQHandler
0000037a  w    F .text	00000002 GPIO1_Combined_16_31_DriverIRQHandler
0000d404 g       *ABS*	00000000 _image_size
0000037a  w    F .text	00000002 GPIO1_INT7_DriverIRQHandler
00008488  w    F .text	00000008 Reserved78_IRQHandler
0000037a  w    F .text	00000002 SAI1_DriverIRQHandler
0000037a  w    F .text	00000002 DCDC_DriverIRQHandler
00003ca4 g     F .text	00000048 DMA12_DMA28_DriverIRQHandler
0000037a  w    F .text	00000002 PWM4_0_DriverIRQHandler
000086b0  w    F .text	00000008 ENC3_IRQHandler
20200000 g       *ABS*	00000000 __base_RAM3
0000037a  w    F .text	00000002 ADC_ETC_ERROR_IRQ_DriverIRQHandler
0000988e g     F .text	00000048 KSDK_LPSPI_SlaveInterruptCallback
0000037a  w    F .text	00000002 ACMP2_DriverIRQHandler
00008540  w    F .text	00000008 GPIO3_Combined_16_31_IRQHandler
00008588  w    F .text	00000008 EWM_IRQHandler
0000037a  w    F .text	00000002 GPIO5_Combined_0_15_DriverIRQHandler
00008490  w    F .text	00000008 TEMP_LOW_HIGH_IRQHandler
0000037a  w    F .text	00000002 GPIO1_INT0_DriverIRQHandler
0000037a  w    F .text	00000002 GPIO1_INT2_DriverIRQHandler
00002974 g     F .text	00000078 wizchip_setnetinfo
00000002 g       *ABS*	00000000 _itcm_block_count
000019e4 g     F .text	000000b4 check_DHCP_timeout
00008400  w    F .text	00000008 WDOG2_IRQHandler
0000037a  w    F .text	00000002 RTWDOG_DriverIRQHandler
00008500  w    F .text	00000008 GPIO1_INT5_IRQHandler
0000037a  w    F .text	00000002 FLEXSPI_DriverIRQHandler
00000340 g     F .text	0000001e data_init
00009d9e g     F .text	000000ac QTMR_ClearStatusFlags
00008398  w    F .text	00000008 LPSPI1_IRQHandler
0000037a  w    F .text	00000002 GPT2_DriverIRQHandler
00008708  w    F .text	00000008 PWM3_1_IRQHandler
200000b8 g     O .bss	00000004 DHCP_XID
000086f0  w    F .text	00000008 PWM2_3_IRQHandler
60002000 g     O .teensy_boot	00000008 vector_table
00003224 g     F .text	0000001c CLOCK_DeinitAudioPll
000082c0  w    F .text	00000008 DMA5_DMA21_IRQHandler
00008330  w    F .text	00000008 CORE_IRQHandler
000082f0  w    F .text	00000008 DMA11_DMA27_IRQHandler
200000b4 g     O .bss	00000004 dhcp_tick_1s
60002000 g       *ABS*	00000000 __teensy_vectors_start__
00007070 g     F .text	00000688 BOARD_BootClockRUN
00008380  w    F .text	00000008 LPI2C2_IRQHandler
0000037a  w    F .text	00000002 USB_PHY2_DriverIRQHandler
00003c14 g     F .text	00000048 DMA10_DMA26_DriverIRQHandler
0000037a  w    F .text	00000002 PWM2_1_DriverIRQHandler
00008498  w    F .text	00000008 TEMP_PANIC_IRQHandler
00008508  w    F .text	00000008 GPIO1_INT6_IRQHandler
000085d8  w    F .text	00000008 PWM1_2_IRQHandler
00007b7c g     F .text	00000100 fseek
20000048 g     O .data	00000017 net_info
00008698  w    F .text	00000008 Reserved144_IRQHandler
0000037a  w    F .text	00000002 PWM1_1_DriverIRQHandler
00002a84 g     F .text	00000014 LPSPI4_GetFreq
000083e0  w    F .text	00000008 GPR_IRQ_IRQHandler
20000000 g       *ABS*	00000000 __base_SRAM_DTC
0000037a  w    F .text	00000002 PXP_DriverIRQHandler
60000000 g       *ABS*	00000000 __base_Flash
0000775c g     F .text	00000114 BOARD_InitPins
000085a0  w    F .text	00000008 GPC_IRQHandler
00006164 g     F .text	00000024 LPUART1_DriverIRQHandler
0000a260 g     F .text	00000052 _fflush
000084c0  w    F .text	00000008 DCDC_IRQHandler
0000037a  w    F .text	00000002 ADC1_DriverIRQHandler
00008538  w    F .text	00000008 GPIO3_Combined_0_15_IRQHandler
00008740  w    F .text	00000008 PWM4_3_IRQHandler
0000037a  w    F .text	00000002 PWM1_0_DriverIRQHandler
00008610  w    F .text	00000008 USDHC2_IRQHandler
2000009c g     O .bss	00000004 DHCP_SIP
2000007c g       .bss	00000000 _bss
0000037a  w    F .text	00000002 SJC_DriverIRQHandler
00002840 g     F .text	00000018 wizchip_cs_deselect
000068e0 g     F .text	00000060 SerialManager_OpenReadHandle
0000398c g     F .text	00000048 DMA1_DMA17_DriverIRQHandler
00003f6c g     F .text	000000fc GPIO_PinSetInterruptConfig
0000037a  w    F .text	00000002 ENC1_DriverIRQHandler
200000a4 g     O .bss	00000004 DHCP_allocated_ip
2000001c g     O .data	0000002c WIZCHIP
60002060 g       *ABS*	00000000 _image_start
00008620  w    F .text	00000008 USB_OTG1_IRQHandler
601f0000 g       *ABS*	00000000 __top_Flash
0000037a  w    F .text	00000002 ENC4_DriverIRQHandler
000061d0 g     F .text	00000024 LPUART4_DriverIRQHandler
0000037a  w    F .text	00000002 CAN2_DriverIRQHandler
200000b0 g     O .bss	00000004 DHCP_allocated_dns
00002798 g     F .text	00000024 setintflags
0000037a  w    F .text	00000002 DCP_DriverIRQHandler
20000abc g       .noinit	00000000 _end_noinit
20002abc g       .stack	00000000 _vStackTop
000082f8  w    F .text	00000008 DMA12_DMA28_IRQHandler
00008560  w    F .text	00000008 GPIO5_Combined_16_31_IRQHandler
00002130 g     F .text	000002ac sendto
000086c8  w    F .text	00000008 TMR2_IRQHandler
0000037a  w    F .text	00000002 CTI0_ERROR_DriverIRQHandler
00008660  w    F .text	00000008 ADC_ETC_ERROR_IRQ_IRQHandler
00003b84 g     F .text	00000048 DMA8_DMA24_DriverIRQHandler
0000037a  w    F .text	00000002 GPT1_DriverIRQHandler
00008738  w    F .text	00000008 PWM4_2_IRQHandler
000002f4 g       .text	00000000 __bss_section_table_end
00006334 g     F .text	00000108 QTMR_Init
00001c28 g     F .text	00000040 getIPfromDHCP
00007dfc g     F .text	00000018 __check_heap_overflow
0000037a  w    F .text	00000002 ACMP3_DriverIRQHandler
00003af4 g     F .text	00000048 DMA6_DMA22_DriverIRQHandler
00003770 g     F .text	00000074 EDMA_GetChannelStatusFlags
0000037a  w    F .text	00000002 CSU_DriverIRQHandler
00008450  w    F .text	00000008 BEE_IRQHandler
00007948 g     F .text	00000094 LPSPI4_DeinitPins
000084e0  w    F .text	00000008 GPIO1_INT1_IRQHandler
00008478  w    F .text	00000008 SPDIF_IRQHandler
0000037a  w    F .text	00000002 GPIO1_INT5_DriverIRQHandler
000043f8 g     F .text	0000005c LPSPI_SlaveGetDefaultConfig
60000000 g       *ABS*	00000000 __base_Flash_00
00002f1c g     F .text	00000024 CLOCK_GetIpgFreq
00001234 g     F .text	000002a4 send_DHCP_DECLINE
0000037a  w    F .text	00000002 TMR3_DriverIRQHandler
0000de44 g       *ABS*	00000000 _itcm_end
0000037a  w    F .text	00000002 TMR2_DriverIRQHandler
00008658  w    F .text	00000008 ADC_ETC_IRQ2_IRQHandler
000007dc g     F .text	000001e8 makeDHCPMSG
000084f8  w    F .text	00000008 GPIO1_INT4_IRQHandler
00006218 g     F .text	00000024 LPUART6_DriverIRQHandler
0000037a  w    F .text	00000002 CTI1_ERROR_DriverIRQHandler
00008598  w    F .text	00000008 CCM_2_IRQHandler
0000d304 g     O .text	00000008 armPllConfig_BOARD_BootClockRUN
000083d0  w    F .text	00000008 KPP_IRQHandler
000085f8  w    F .text	00000008 FLEXSPI_IRQHandler
000029ec g     F .text	00000098 dhcp_timer_enable
000084b8  w    F .text	00000008 ADC2_IRQHandler
000045e4 g     F .text	00000060 LPSPI_MasterTransferCreateHandle
00009f34 g     F .text	00000020 SerialManager_WriteBlocking
0000037a  w    F .text	00000002 GPIO1_Combined_0_15_DriverIRQHandler
0000037a  w    F .text	00000002 USDHC2_DriverIRQHandler
00003240 g     F .text	0000001c CLOCK_DeinitVideoPll
0000a63a g     F .text	00000004 __sys_write
0000a0dc g     F .text	00000004 memset
0000037a  w    F .text	00000002 PWM4_2_DriverIRQHandler
0000037a  w    F .text	00000002 SAI2_DriverIRQHandler
00002ab4 g     F .text	00000214 main
0000037a  w    F .text	00000002 CORE_DriverIRQHandler
00008470  w    F .text	00000008 SAI3_TX_IRQHandler
00006744 g     F .text	00000064 HAL_UartSendBlocking
0000a42e g     F .text	00000040 _do_fflush
00009e4a g     F .text	00000070 QTMR_SetTimerPeriod
00007c7c g     F .text	00000048 ftell
00008668  w    F .text	00000008 PIT_IRQHandler
000085b0  w    F .text	00000008 Reserved115_IRQHandler
00008408  w    F .text	00000008 SNVS_HP_WRAPPER_IRQHandler
00000374  w    F .text	00000002 SVC_Handler
0000a3c2 g     F .text	00000058 fclose
00003c5c g     F .text	00000048 DMA11_DMA27_DriverIRQHandler
000069c0 g     F .text	00000058 Serial_UartWrite
0000037a  w    F .text	00000002 CSI_DriverIRQHandler
0000075c g     F .text	00000034 default_ip_assign
00008390  w    F .text	00000008 LPI2C4_IRQHandler
0000037a  w    F .text	00000002 PWM2_3_DriverIRQHandler
0000037a  w    F .text	00000002 XBAR1_IRQ_2_3_DriverIRQHandler
00008640  w    F .text	00000008 XBAR1_IRQ_2_3_IRQHandler
00008710  w    F .text	00000008 PWM3_2_IRQHandler
200000bc g     O .bss	00000004 pDHCPMSG
0000037a  w    F .text	00000002 SNVS_HP_WRAPPER_TZ_DriverIRQHandler
0000037a  w    F .text	00000002 GPIO3_Combined_16_31_DriverIRQHandler
0000a62e g     F .text	00000006 __sys_seek
20000000 g     O .data	00000004 dhcp_lease_time
00008758  w    F .text	00000008 ENET2_1588_Timer_IRQHandler
0000037a  w    F .text	00000002 PWM1_FAULT_DriverIRQHandler
0000037a  w    F .text	00000002 LPI2C1_DriverIRQHandler
0000a472 g     F .text	00000000 __bhs_ldivmod1
00008428  w    F .text	00000008 DCP_IRQHandler
0000037a  w    F .text	00000002 ENET2_1588_Timer_DriverIRQHandler
00002e9c g     F .text	00000024 CLOCK_GetAhbFreq
00008768  w    F .text	00000008 Reserved171_IRQHandler
00002e78 g     F .text	00000024 CLOCK_InitRcOsc24M
0000623c g     F .text	00000024 LPUART7_DriverIRQHandler
00008370  w    F .text	00000008 LPUART8_IRQHandler
0000037a  w    F .text	00000002 PWM2_2_DriverIRQHandler
00004644 g     F .text	00000098 LPSPI_CheckTransferArgument
00004184 g     F .text	0000011c LPSPI_MasterInit
00003a64 g     F .text	00000048 DMA4_DMA20_DriverIRQHandler
000084f0  w    F .text	00000008 GPIO1_INT3_IRQHandler
00001cc4 g     F .text	0000005c WIZCHIP_READ
00003bcc g     F .text	00000048 DMA9_DMA25_DriverIRQHandler
60002008 g     F .teensy_boot	00000034 ResetISR_pre
00006550 g     F .text	000000f4 SystemInit
00009844 g     F .text	0000004a KSDK_LPSPI_MasterInterruptCallback
0000037a  w    F .text	00000002 SNVS_HP_WRAPPER_DriverIRQHandler
00008518  w    F .text	00000008 GPIO1_Combined_0_15_IRQHandler
000002dc g       .text	00000000 __bss_section_table
00002f84 g     F .text	00000184 CLOCK_GetFreq
00004338 g     F .text	000000c0 LPSPI_SlaveInit
00004d00 g     F .text	00000060 LPSPI_SlaveTransferCreateHandle
60001020 g     O .boot_hdr	0000000c BootData
0000037a  w    F .text	00000002 XBAR1_IRQ_0_1_DriverIRQHandler
0000037a  w    F .text	00000002 ADC_ETC_IRQ1_DriverIRQHandler
0000576c g     F .text	00000030 LPSPI1_DriverIRQHandler
0000a616 g     F .text	00000006 __sys_close
00001a98 g     F .text	00000078 check_DHCP_leasedIP
00008300  w    F .text	00000008 DMA13_DMA29_IRQHandler
000087b2 g     F .text	00000086 getSn_TX_FSR
00003a1c g     F .text	00000048 DMA3_DMA19_DriverIRQHandler
000086d0  w    F .text	00000008 TMR4_IRQHandler
00008680  w    F .text	00000008 ACMP3_IRQHandler
00008318  w    F .text	00000008 DMA_ERROR_IRQHandler
00009bb6 g     F .text	000000b2 LPSPI_InterruptGetStatus
000086a0  w    F .text	00000008 ENC1_IRQHandler
000085e8  w    F .text	00000008 PWM1_FAULT_IRQHandler
00000000 g       .stack	00000000 _itcm_start
00008cfe g     F .text	0000000e wizchip_cris_exit
00008690  w    F .text	00000008 Reserved143_IRQHandler
20000000 g       .uninit_RESERVED	00000000 _end_uninit_RESERVED
00004d60 g     F .text	000002d0 LPSPI_SlaveTransferNonBlocking
00007a28 g     F .text	0000006c _Cwritebuf
0000037a  w    F .text	00000002 GPIO1_INT3_DriverIRQHandler
0000037a  w    F .text	00000002 DCP_VMI_DriverIRQHandler
00008778  w    F .text	00000008 GPIO6_7_8_9_IRQHandler
200000a8 g     O .bss	00000004 DHCP_allocated_gw
0000de44 g       *ABS*	00000000 _itcm_size
20000000 g       .data	00000000 _data
200008ec g     O .bss	00000004 g_rtcXtalFreq
00008770  w    F .text	00000008 FLEXIO3_IRQHandler
00008530  w    F .text	00000008 GPIO2_Combined_16_31_IRQHandler
0000037a  w    F .text	00000002 LPI2C4_DriverIRQHandler
20000abc g       .heap	00000000 _pvHeapStart
0000037a  w    F .text	00000002 GPC_DriverIRQHandler
00008338  w    F .text	00000008 LPUART1_IRQHandler
00002a98 g     F .text	0000001c TMR3_IRQHandler
200008e0 g     O .bss	00000007 qtmrConfig
00008378  w    F .text	00000008 LPI2C1_IRQHandler
000002f4 g       .text	00000000 __section_table_end
00007f8c g     F .text	0000030c StrFormatPrintf
200000dc g     O .bss	00000800 messagebuf
0000037a  w    F .text	00000002 GPIO2_Combined_0_15_DriverIRQHandler
0000058c g     F .text	00000058 DbgConsole_SendDataReliable
00006084 g     F .text	00000088 LPUART_GetDefaultConfig
00008638  w    F .text	00000008 XBAR1_IRQ_0_1_IRQHandler
00000000 g       *ABS*	00000000 __base_SRAM_ITC
000082d0  w    F .text	00000008 DMA7_DMA23_IRQHandler
00008388  w    F .text	00000008 LPI2C3_IRQHandler
00001dbc g     F .text	0000009c WIZCHIP_READ_BUF
000005e4 g     F .text	00000104 DbgConsole_Init
0000037a  w    F .text	00000002 PWM1_2_DriverIRQHandler
0000037a  w    F .text	00000002 USB_OTG1_DriverIRQHandler
0000a628 g     F .text	00000006 __sys_remove
20000014 g     O .data	00000004 dhcp_ip_update
0000037a  w    F .text	00000002 TEMP_LOW_HIGH_DriverIRQHandler
00008410  w    F .text	00000008 SNVS_HP_WRAPPER_TZ_IRQHandler
0000037a  w    F .text	00000002 SAI3_TX_DriverIRQHandler
0000037a  w    F .text	00000002 FLEXIO3_DriverIRQHandler
2000007c g       .data	00000000 _edata
0000037a  w    F .text	00000002 WDOG2_DriverIRQHandler
20000018 g     O .data	00000004 dhcp_ip_conflict
00003e74 g     F .text	000000a4 GPIO_PinInit
0000037a  w    F .text	00000002 Reserved68_DriverIRQHandler
00009eba  w    F .text	0000000e SystemInitHook
00003618 g     F .text	000000ac CLOCK_GetSysPfdFreq
20000ab8 g     O .bss	00000001 isMasterOnTransmit
0000037a  w    F .text	00000002 PWM3_0_DriverIRQHandler
20000aa8 g     O .bss	00000004 __heaps
0000037a  w    F .text	00000002 GPIO4_Combined_0_15_DriverIRQHandler
0000a0da g     F .text	00000002 __sys_appexit
000083a0  w    F .text	00000008 LPSPI2_IRQHandler
00008678  w    F .text	00000008 ACMP2_IRQHandler
0000037a  w    F .text	00000002 GPIO4_Combined_16_31_DriverIRQHandler
00000000 g       *ABS*	00000000 __base_RAM
00000000 g     O .text	000002b8 g_pfnVectors
000002f4 g     F .text	0000004c ResetISR
6000f464 g       *ABS*	00000000 _image_end
0000037a  w    F .text	00000002 GPIO6_7_8_9_DriverIRQHandler
20000aa4 g     O .bss	00000004 __end_of_heap
000085c0  w    F .text	00000008 GPT2_IRQHandler
00001be0 g     F .text	0000002c reset_DHCP_timeout
0000037a  w    F .text	00000002 GPIO5_Combined_16_31_DriverIRQHandler
00007b5c g     F .text	00000020 _Csys_alloc
000083c8  w    F .text	00000008 FLEXRAM_IRQHandler
000083c0  w    F .text	00000008 CAN2_IRQHandler
20280000 g       *ABS*	00000000 __top_SRAM_OC
00003aac g     F .text	00000048 DMA5_DMA21_DriverIRQHandler
0000a5e2 g     F .text	00000002 __aeabi_idiv0
0000291c g     F .text	00000058 reg_wizchip_spi_cbfunc
00008310  w    F .text	00000008 DMA15_DMA31_IRQHandler
0000037a  w    F .text	00000002 CCM_1_DriverIRQHandler
60001030 g       *ABS*	00000000 __boot_hdr_end__
0000037a  w    F .text	00000002 ADC2_DriverIRQHandler
00004b60 g     F .text	000001a0 LPSPI_MasterTransferHandleIRQ
20280000 g       *ABS*	00000000 __top_RAM3
00008670  w    F .text	00000008 ACMP1_IRQHandler
0000037a  w    F .text	00000002 Reserved115_DriverIRQHandler
000088be g     F .text	0000006c getSn_RxBASE
0000037a  w    F .text	00000002 TEMP_PANIC_DriverIRQHandler
000084d0  w    F .text	00000008 Reserved87_IRQHandler
00003d7c g     F .text	00000048 DMA15_DMA31_DriverIRQHandler
00008550  w    F .text	00000008 GPIO4_Combined_16_31_IRQHandler
0000a30e g     F .text	0000004c strlen
00006814 g     F .text	00000074 SerialManager_Init
000007b8 g     F .text	00000024 default_ip_conflict
000057cc g     F .text	00000030 LPSPI3_DriverIRQHandler
000086b8  w    F .text	00000008 ENC4_IRQHandler
0000037a  w    F .text	00000002 PWM1_3_DriverIRQHandler
000014d8 g     F .text	000002dc parseDHCPMSG
0000037a  w    F .text	00000002 ACMP1_DriverIRQHandler
0000037a  w    F .text	00000002 LPI2C2_DriverIRQHandler
000082e8  w    F .text	00000008 DMA10_DMA26_IRQHandler
0000a2e2 g     F .text	0000002c fputs
0000037a  w    F .text	00000002 Reserved86_DriverIRQHandler
00003f18 g     F .text	00000054 GPIO_PinWrite
00003278 g     F .text	0000033c CLOCK_GetPllFreq
0000037a  w    F .text	00000002 DMA_ERROR_DriverIRQHandler
20001abc g       .stack	00000000 _vStackBase
20000ab9 g     O .bss	00000001 isMasterOnReceive
0000037a  w    F .text	00000002 ADC_ETC_IRQ0_DriverIRQHandler
20000098 g     O .bss	00000004 g_serialHandle
00008c74 g     F .text	0000007c wiz_recv_ignore
20000008 g     O .data	00000008 HOST_NAME
00008728  w    F .text	00000008 PWM4_0_IRQHandler
0000037a  w    F .text	00000002 CAN1_DriverIRQHandler
00007cc4 g     F .text	00000078 _initio
000086c0  w    F .text	00000008 TMR1_IRQHandler
00008298  w    F .text	00000008 DMA0_DMA16_IRQHandler
0000037a  w    F .text	00000002 GPIO1_INT6_DriverIRQHandler
0000037a  w    F .text	00000002 GPIO1_INT1_DriverIRQHandler
00008440  w    F .text	00000008 TRNG_IRQHandler
000083e8  w    F .text	00000008 LCDIF_IRQHandler
00008d44 g     F .text	00000088 wizchip_sw_reset
200009f0 g     O .bss	000000b4 __Ciob
00004454 g     F .text	00000030 LPSPI_Deinit
00008720  w    F .text	00000008 PWM3_FAULT_IRQHandler
00008628  w    F .text	00000008 ENET_IRQHandler
0000a622 g     F .text	00000006 __sys_istty
00004574 g     F .text	00000070 LPSPI_MasterSetDelayScaler
00002064 g     F .text	000000cc close
00008328  w    F .text	00000008 CTI1_ERROR_IRQHandler
00006d08 g     F .text	00000100 BOARD_ConfigMPU
00001c0c g     F .text	0000001c DHCP_time_handler
000027e0 g     F .text	00000048 LPSPI_MasterSignalEvent_t
0000037a  w    F .text	00000002 PWM2_0_DriverIRQHandler
000085e0  w    F .text	00000008 PWM1_3_IRQHandler
000082a0  w    F .text	00000008 DMA1_DMA17_IRQHandler
00009386 g     F .text	00000032 LPSPI_Reset
20000ab4 g     O .bss	00000001 DHCP_SOCKET
00008458  w    F .text	00000008 SAI1_IRQHandler
20000ab7 g     O .bss	00000001 isTransferCompleted
000017b4 g     F .text	00000230 DHCP_run
000061ac g     F .text	00000024 LPUART3_DriverIRQHandler
000006e8 g     F .text	00000074 DbgConsole_Printf
0000a2b2 g     F .text	00000030 free
000046dc g     F .text	000002e0 LPSPI_MasterTransferNonBlocking
0000037a  w    F .text	00000002 SNVS_LP_WRAPPER_DriverIRQHandler
0000037a  w    F .text	00000002 USB_OTG2_DriverIRQHandler



Disassembly of section .teensy_boot:

60002000 <vector_table>:
60002000:	00 00 01 20 09 20 00 60                             ... . .`

60002008 <ResetISR_pre>:
60002008:	4b07      	ldr	r3, [pc, #28]	; (60002028 <ResetISR_pre+0x20>)
6000200a:	4a08      	ldr	r2, [pc, #32]	; (6000202c <ResetISR_pre+0x24>)
6000200c:	645a      	str	r2, [r3, #68]	; 0x44
6000200e:	2207      	movs	r2, #7
60002010:	641a      	str	r2, [r3, #64]	; 0x40
60002012:	f44f 022a 	mov.w	r2, #11141120	; 0xaa0000
60002016:	639a      	str	r2, [r3, #56]	; 0x38
60002018:	4a05      	ldr	r2, [pc, #20]	; (60002030 <ResetISR_pre+0x28>)
6000201a:	4906      	ldr	r1, [pc, #24]	; (60002034 <ResetISR_pre+0x2c>)
6000201c:	4806      	ldr	r0, [pc, #24]	; (60002038 <ResetISR_pre+0x30>)
6000201e:	f000 f80d 	bl	6000203c <memory_copy>
60002022:	f000 f819 	bl	60002058 <__ResetISR_veneer>
60002026:	bf00      	nop
60002028:	400ac000 	.word	0x400ac000
6000202c:	aaaaaaaf 	.word	0xaaaaaaaf
60002030:	0000de44 	.word	0x0000de44
60002034:	60002060 	.word	0x60002060
60002038:	00000000 	.word	0x00000000

6000203c <memory_copy>:
6000203c:	4288      	cmp	r0, r1
6000203e:	d006      	beq.n	6000204e <memory_copy+0x12>
60002040:	4290      	cmp	r0, r2
60002042:	d205      	bcs.n	60002050 <memory_copy+0x14>
60002044:	f851 3b04 	ldr.w	r3, [r1], #4
60002048:	f840 3b04 	str.w	r3, [r0], #4
6000204c:	e7f8      	b.n	60002040 <memory_copy+0x4>
6000204e:	4770      	bx	lr
60002050:	4770      	bx	lr
60002052:	ffff ffff 			; <UNDEFINED> instruction: 0xffffffff
60002056:	Address 0x60002056 is out of bounds.


60002058 <__ResetISR_veneer>:
60002058:	f85f f000 	ldr.w	pc, [pc]	; 6000205c <__ResetISR_veneer+0x4>
6000205c:	000002f5 	.word	0x000002f5

Disassembly of section .text:

00000000 <__Vectors>:
       0:	20002abc 000002f5 00000371 0000900f     .*. ....q.......
	...
      2c:	00000375 00000000 00000000 00000377     u...........w...
      3c:	00000379 00008299 000082a1 000082a9     y...............
      4c:	000082b1 000082b9 000082c1 000082c9     ................
      5c:	000082d1 000082d9 000082e1 000082e9     ................
      6c:	000082f1 000082f9 00008301 00008309     ................
      7c:	00008311 00008319 00008321 00008329     ........!...)...
      8c:	00008331 00008339 00008341 00008349     1...9...A...I...
      9c:	00008351 00008359 00008361 00008369     Q...Y...a...i...
      ac:	00008371 00008379 00008381 00008389     q...y...........
      bc:	00008391 00008399 000083a1 000083a9     ................
      cc:	000083b1 000083b9 000083c1 000083c9     ................
      dc:	000083d1 000083d9 000083e1 000083e9     ................
      ec:	000083f1 000083f9 00008401 00008409     ................
      fc:	00008411 00008419 00008421 00008429     ........!...)...
     10c:	00008431 00008439 00008441 00008449     1...9...A...I...
     11c:	00008451 00008459 00008461 00008469     Q...Y...a...i...
     12c:	00008471 00008479 00008481 00008489     q...y...........
     13c:	00008491 00008499 000084a1 000084a9     ................
     14c:	000084b1 000084b9 000084c1 000084c9     ................
     15c:	000084d1 000084d9 000084e1 000084e9     ................
     16c:	000084f1 000084f9 00008501 00008509     ................
     17c:	00008511 00008519 00008521 00008529     ........!...)...
     18c:	00008531 00008539 00008541 00008549     1...9...A...I...
     19c:	00008551 00008559 00008561 00008569     Q...Y...a...i...
     1ac:	00008571 00008579 00008581 00008589     q...y...........
     1bc:	00008591 00008599 000085a1 000085a9     ................
     1cc:	000085b1 000085b9 000085c1 000085c9     ................
     1dc:	000085d1 000085d9 000085e1 000085e9     ................
     1ec:	000085f1 000085f9 00008601 00008609     ................
     1fc:	00008611 00008619 00008621 00008629     ........!...)...
     20c:	00008631 00008639 00008641 00008649     1...9...A...I...
     21c:	00008651 00008659 00008661 00008669     Q...Y...a...i...
     22c:	00008671 00008679 00008681 00008689     q...y...........
     23c:	00008691 00008699 000086a1 000086a9     ................
     24c:	000086b1 000086b9 000086c1 000086c9     ................
     25c:	00002a99 000086d1 000086d9 000086e1     .*..............
     26c:	000086e9 000086f1 000086f9 00008701     ................
     27c:	00008709 00008711 00008719 00008721     ............!...
     28c:	00008729 00008731 00008739 00008741     )...1...9...A...
     29c:	00008749 00008751 00008759 00008761     I...Q...Y...a...
     2ac:	00008769 00008771 00008779              i...q...y...

000002b8 <__data_section_table>:
     2b8:	6000f3e8 	.word	0x6000f3e8
     2bc:	0000d388 	.word	0x0000d388
     2c0:	00000000 	.word	0x00000000
     2c4:	6000f3e8 	.word	0x6000f3e8
     2c8:	20000000 	.word	0x20000000
     2cc:	0000007c 	.word	0x0000007c
     2d0:	6000f3e8 	.word	0x6000f3e8
     2d4:	20200000 	.word	0x20200000
     2d8:	00000000 	.word	0x00000000

000002dc <__bss_section_table>:
     2dc:	0000d388 	.word	0x0000d388
     2e0:	00000000 	.word	0x00000000
     2e4:	2000007c 	.word	0x2000007c
     2e8:	00000a40 	.word	0x00000a40
     2ec:	20200000 	.word	0x20200000
     2f0:	00000000 	.word	0x00000000

000002f4 <ResetISR>:
     2f4:	b672b510 	.word	0xb672b510
     2f8:	f92af006 	.word	0xf92af006
     2fc:	e0074b0d 	.word	0xe0074b0d
     300:	040cf103 	.word	0x040cf103
     304:	6859689a 	.word	0x6859689a
     308:	f0006818 	.word	0xf0006818
     30c:	4623f819 	.word	0x4623f819
     310:	42934a09 	.word	0x42934a09
     314:	e006d3f4 	.word	0xe006d3f4
     318:	6859461c 	.word	0x6859461c
     31c:	0b08f854 	.word	0x0b08f854
     320:	f81df000 	.word	0xf81df000
     324:	4a054623 	.word	0x4a054623
     328:	d3f54293 	.word	0xd3f54293
     32c:	f009b662 	.word	0xf009b662
     330:	e7fefecd 	.word	0xe7fefecd
     334:	000002b8 	.word	0x000002b8
     338:	000002dc 	.word	0x000002dc
     33c:	000002f4 	.word	0x000002f4

00000340 <data_init>:
     340:	42932300 	.word	0x42932300
     344:	b410d20a 	.word	0xb410d20a
     348:	4b04f850 	.word	0x4b04f850
     34c:	f841 4b04 	str.w	r4, [r1], #4
     350:	3304      	adds	r3, #4
     352:	4293      	cmp	r3, r2
     354:	d3f8      	bcc.n	348 <data_init+0x8>
     356:	f85d 4b04 	ldr.w	r4, [sp], #4
     35a:	4770      	bx	lr
     35c:	4770      	bx	lr

0000035e <bss_init>:
     35e:	2300      	movs	r3, #0
     360:	428b      	cmp	r3, r1
     362:	d204      	bcs.n	36e <bss_init+0x10>
     364:	2200      	movs	r2, #0
     366:	f840 2b04 	str.w	r2, [r0], #4
     36a:	3304      	adds	r3, #4
     36c:	e7f8      	b.n	360 <bss_init+0x2>
     36e:	4770      	bx	lr

00000370 <NMI_Handler>:
     370:	e7fe      	b.n	370 <NMI_Handler>
     372:	e7fe      	b.n	372 <NMI_Handler+0x2>

00000374 <SVC_Handler>:
     374:	e7fe      	b.n	374 <SVC_Handler>

00000376 <PendSV_Handler>:
     376:	e7fe      	b.n	376 <PendSV_Handler>

00000378 <SysTick_Handler>:
     378:	e7fe      	b.n	378 <SysTick_Handler>

0000037a <ACMP1_DriverIRQHandler>:
     37a:	e7fe      	b.n	37a <ACMP1_DriverIRQHandler>
     37c:	ffff ffff 			; <UNDEFINED> instruction: 0xffffffff

00000380 <LPSPI_MasterSetDelayTimes>:
     380:	e92d 43f0 	stmdb	sp!, {r4, r5, r6, r7, r8, r9, lr}
     384:	b093      	sub	sp, #76	; 0x4c
     386:	af00      	add	r7, sp, #0
     388:	60f8      	str	r0, [r7, #12]
     38a:	60b9      	str	r1, [r7, #8]
     38c:	603b      	str	r3, [r7, #0]
     38e:	4613      	mov	r3, r2
     390:	71fb      	strb	r3, [r7, #7]
     392:	2300      	movs	r3, #0
     394:	627b      	str	r3, [r7, #36]	; 0x24
     396:	68fb      	ldr	r3, [r7, #12]
     398:	6e1b      	ldr	r3, [r3, #96]	; 0x60
     39a:	0edb      	lsrs	r3, r3, #27
     39c:	f003 0307 	and.w	r3, r3, #7
     3a0:	4a79      	ldr	r2, [pc, #484]	; (588 <LPSPI_MasterSetDelayTimes+0x208>)
     3a2:	5cd3      	ldrb	r3, [r2, r3]
     3a4:	461a      	mov	r2, r3
     3a6:	683b      	ldr	r3, [r7, #0]
     3a8:	fbb3 f3f2 	udiv	r3, r3, r2
     3ac:	623b      	str	r3, [r7, #32]
     3ae:	f04f 33ff 	mov.w	r3, #4294967295
     3b2:	637b      	str	r3, [r7, #52]	; 0x34
     3b4:	23ff      	movs	r3, #255	; 0xff
     3b6:	63bb      	str	r3, [r7, #56]	; 0x38
     3b8:	79fb      	ldrb	r3, [r7, #7]
     3ba:	2b03      	cmp	r3, #3
     3bc:	d141      	bne.n	442 <LPSPI_MasterSetDelayTimes+0xc2>
     3be:	a470      	add	r4, pc, #448	; (adr r4, 580 <LPSPI_MasterSetDelayTimes+0x200>)
     3c0:	e9d4 3400 	ldrd	r3, r4, [r4]
     3c4:	e9c7 340a 	strd	r3, r4, [r7, #40]	; 0x28
     3c8:	e9d7 340a 	ldrd	r3, r4, [r7, #40]	; 0x28
     3cc:	18dd      	adds	r5, r3, r3
     3ce:	eb44 0604 	adc.w	r6, r4, r4
     3d2:	e9c7 560a 	strd	r5, r6, [r7, #40]	; 0x28
     3d6:	6a3b      	ldr	r3, [r7, #32]
     3d8:	f04f 0400 	mov.w	r4, #0
     3dc:	461a      	mov	r2, r3
     3de:	4623      	mov	r3, r4
     3e0:	e9d7 010a 	ldrd	r0, r1, [r7, #40]	; 0x28
     3e4:	f00a f843 	bl	a46e <__aeabi_uldivmod>
     3e8:	4603      	mov	r3, r0
     3ea:	460c      	mov	r4, r1
     3ec:	e9c7 340a 	strd	r3, r4, [r7, #40]	; 0x28
     3f0:	a463      	add	r4, pc, #396	; (adr r4, 580 <LPSPI_MasterSetDelayTimes+0x200>)
     3f2:	e9d4 3400 	ldrd	r3, r4, [r4]
     3f6:	e9c7 3410 	strd	r3, r4, [r7, #64]	; 0x40
     3fa:	e9d7 5610 	ldrd	r5, r6, [r7, #64]	; 0x40
     3fe:	462b      	mov	r3, r5
     400:	4634      	mov	r4, r6
     402:	f04f 0100 	mov.w	r1, #0
     406:	f04f 0200 	mov.w	r2, #0
     40a:	0222      	lsls	r2, r4, #8
     40c:	ea42 6213 	orr.w	r2, r2, r3, lsr #24
     410:	0219      	lsls	r1, r3, #8
     412:	460b      	mov	r3, r1
     414:	4614      	mov	r4, r2
     416:	eb13 0805 	adds.w	r8, r3, r5
     41a:	eb44 0906 	adc.w	r9, r4, r6
     41e:	e9c7 8910 	strd	r8, r9, [r7, #64]	; 0x40
     422:	6a3b      	ldr	r3, [r7, #32]
     424:	f04f 0400 	mov.w	r4, #0
     428:	461a      	mov	r2, r3
     42a:	4623      	mov	r3, r4
     42c:	e9d7 0110 	ldrd	r0, r1, [r7, #64]	; 0x40
     430:	f00a f81d 	bl	a46e <__aeabi_uldivmod>
     434:	4603      	mov	r3, r0
     436:	460c      	mov	r4, r1
     438:	e9c7 3410 	strd	r3, r4, [r7, #64]	; 0x40
     43c:	2301      	movs	r3, #1
     43e:	627b      	str	r3, [r7, #36]	; 0x24
     440:	e031      	b.n	4a6 <LPSPI_MasterSetDelayTimes+0x126>
     442:	a44f      	add	r4, pc, #316	; (adr r4, 580 <LPSPI_MasterSetDelayTimes+0x200>)
     444:	e9d4 3400 	ldrd	r3, r4, [r4]
     448:	e9c7 340a 	strd	r3, r4, [r7, #40]	; 0x28
     44c:	6a3b      	ldr	r3, [r7, #32]
     44e:	f04f 0400 	mov.w	r4, #0
     452:	461a      	mov	r2, r3
     454:	4623      	mov	r3, r4
     456:	e9d7 010a 	ldrd	r0, r1, [r7, #40]	; 0x28
     45a:	f00a f808 	bl	a46e <__aeabi_uldivmod>
     45e:	4603      	mov	r3, r0
     460:	460c      	mov	r4, r1
     462:	e9c7 340a 	strd	r3, r4, [r7, #40]	; 0x28
     466:	a446      	add	r4, pc, #280	; (adr r4, 580 <LPSPI_MasterSetDelayTimes+0x200>)
     468:	e9d4 3400 	ldrd	r3, r4, [r4]
     46c:	e9c7 3410 	strd	r3, r4, [r7, #64]	; 0x40
     470:	e9d7 1210 	ldrd	r1, r2, [r7, #64]	; 0x40
     474:	f04f 0300 	mov.w	r3, #0
     478:	f04f 0400 	mov.w	r4, #0
     47c:	0214      	lsls	r4, r2, #8
     47e:	ea44 6411 	orr.w	r4, r4, r1, lsr #24
     482:	020b      	lsls	r3, r1, #8
     484:	e9c7 3410 	strd	r3, r4, [r7, #64]	; 0x40
     488:	6a3b      	ldr	r3, [r7, #32]
     48a:	f04f 0400 	mov.w	r4, #0
     48e:	461a      	mov	r2, r3
     490:	4623      	mov	r3, r4
     492:	e9d7 0110 	ldrd	r0, r1, [r7, #64]	; 0x40
     496:	f009 ffea 	bl	a46e <__aeabi_uldivmod>
     49a:	4603      	mov	r3, r0
     49c:	460c      	mov	r4, r1
     49e:	e9c7 3410 	strd	r3, r4, [r7, #64]	; 0x40
     4a2:	2300      	movs	r3, #0
     4a4:	627b      	str	r3, [r7, #36]	; 0x24
     4a6:	68bb      	ldr	r3, [r7, #8]
     4a8:	f04f 0400 	mov.w	r4, #0
     4ac:	e9d7 120a 	ldrd	r1, r2, [r7, #40]	; 0x28
     4b0:	42a2      	cmp	r2, r4
     4b2:	bf08      	it	eq
     4b4:	4299      	cmpeq	r1, r3
     4b6:	d307      	bcc.n	4c8 <LPSPI_MasterSetDelayTimes+0x148>
     4b8:	79fb      	ldrb	r3, [r7, #7]
     4ba:	461a      	mov	r2, r3
     4bc:	2100      	movs	r1, #0
     4be:	68f8      	ldr	r0, [r7, #12]
     4c0:	f004 f858 	bl	4574 <LPSPI_MasterSetDelayScaler>
     4c4:	6abb      	ldr	r3, [r7, #40]	; 0x28
     4c6:	e053      	b.n	570 <LPSPI_MasterSetDelayTimes+0x1f0>
     4c8:	2300      	movs	r3, #0
     4ca:	63fb      	str	r3, [r7, #60]	; 0x3c
     4cc:	e043      	b.n	556 <LPSPI_MasterSetDelayTimes+0x1d6>
     4ce:	a42c      	add	r4, pc, #176	; (adr r4, 580 <LPSPI_MasterSetDelayTimes+0x200>)
     4d0:	e9d4 3400 	ldrd	r3, r4, [r4]
     4d4:	e9c7 3406 	strd	r3, r4, [r7, #24]
     4d8:	6bfa      	ldr	r2, [r7, #60]	; 0x3c
     4da:	6a7b      	ldr	r3, [r7, #36]	; 0x24
     4dc:	4413      	add	r3, r2
     4de:	3301      	adds	r3, #1
     4e0:	f04f 0400 	mov.w	r4, #0
     4e4:	69fa      	ldr	r2, [r7, #28]
     4e6:	fb03 f102 	mul.w	r1, r3, r2
     4ea:	69ba      	ldr	r2, [r7, #24]
     4ec:	fb04 f202 	mul.w	r2, r4, r2
     4f0:	440a      	add	r2, r1
     4f2:	69b9      	ldr	r1, [r7, #24]
     4f4:	fba1 3403 	umull	r3, r4, r1, r3
     4f8:	4422      	add	r2, r4
     4fa:	4614      	mov	r4, r2
     4fc:	e9c7 3406 	strd	r3, r4, [r7, #24]
     500:	e9c7 3406 	strd	r3, r4, [r7, #24]
     504:	6a3b      	ldr	r3, [r7, #32]
     506:	f04f 0400 	mov.w	r4, #0
     50a:	461a      	mov	r2, r3
     50c:	4623      	mov	r3, r4
     50e:	e9d7 0106 	ldrd	r0, r1, [r7, #24]
     512:	f009 ffac 	bl	a46e <__aeabi_uldivmod>
     516:	4603      	mov	r3, r0
     518:	460c      	mov	r4, r1
     51a:	e9c7 3406 	strd	r3, r4, [r7, #24]
     51e:	68bb      	ldr	r3, [r7, #8]
     520:	f04f 0400 	mov.w	r4, #0
     524:	e9d7 1206 	ldrd	r1, r2, [r7, #24]
     528:	42a2      	cmp	r2, r4
     52a:	bf08      	it	eq
     52c:	4299      	cmpeq	r1, r3
     52e:	d30f      	bcc.n	550 <LPSPI_MasterSetDelayTimes+0x1d0>
     530:	69ba      	ldr	r2, [r7, #24]
     532:	68bb      	ldr	r3, [r7, #8]
     534:	1ad3      	subs	r3, r2, r3
     536:	617b      	str	r3, [r7, #20]
     538:	6b7a      	ldr	r2, [r7, #52]	; 0x34
     53a:	697b      	ldr	r3, [r7, #20]
     53c:	429a      	cmp	r2, r3
     53e:	d907      	bls.n	550 <LPSPI_MasterSetDelayTimes+0x1d0>
     540:	697b      	ldr	r3, [r7, #20]
     542:	637b      	str	r3, [r7, #52]	; 0x34
     544:	6bfb      	ldr	r3, [r7, #60]	; 0x3c
     546:	63bb      	str	r3, [r7, #56]	; 0x38
     548:	e9d7 3406 	ldrd	r3, r4, [r7, #24]
     54c:	e9c7 3410 	strd	r3, r4, [r7, #64]	; 0x40
     550:	6bfb      	ldr	r3, [r7, #60]	; 0x3c
     552:	3301      	adds	r3, #1
     554:	63fb      	str	r3, [r7, #60]	; 0x3c
     556:	6bfb      	ldr	r3, [r7, #60]	; 0x3c
     558:	2bff      	cmp	r3, #255	; 0xff
     55a:	d802      	bhi.n	562 <LPSPI_MasterSetDelayTimes+0x1e2>
     55c:	6b7b      	ldr	r3, [r7, #52]	; 0x34
     55e:	2b00      	cmp	r3, #0
     560:	d1b5      	bne.n	4ce <LPSPI_MasterSetDelayTimes+0x14e>
     562:	79fb      	ldrb	r3, [r7, #7]
     564:	461a      	mov	r2, r3
     566:	6bb9      	ldr	r1, [r7, #56]	; 0x38
     568:	68f8      	ldr	r0, [r7, #12]
     56a:	f004 f803 	bl	4574 <LPSPI_MasterSetDelayScaler>
     56e:	6c3b      	ldr	r3, [r7, #64]	; 0x40
     570:	4618      	mov	r0, r3
     572:	374c      	adds	r7, #76	; 0x4c
     574:	46bd      	mov	sp, r7
     576:	e8bd 83f0 	ldmia.w	sp!, {r4, r5, r6, r7, r8, r9, pc}
     57a:	bf00      	nop
     57c:	f3af 8000 	nop.w
     580:	ca00      	ldmia	r2!, {}
     582:	3b9a      	subs	r3, #154	; 0x9a
     584:	0000      	movs	r0, r0
     586:	0000      	movs	r0, r0
     588:	bff4      	ite	<und>
	...

0000058c <DbgConsole_SendDataReliable>:
     58c:	b580      	push	{r7, lr}
     58e:	b084      	sub<und>	sp, #16
     590:	af00      	addal	r7, sp, #0
     592:	6078      	str	r0, [r7, #4]
     594:	6039      	str	r1, [r7, #0]
     596:	f243 5321 	movw	r3, #13601	; 0x3521
     59a:	60fb      	str	r3, [r7, #12]
     59c:	687b      	ldr	r3, [r7, #4]
     59e:	2b00      	cmp	r3, #0
     5a0:	d102      	bne.n	5a8 <DbgConsole_SendDataReliable+0x1c>
     5a2:	480d      	ldr	r0, [pc, #52]	; (5d8 <DbgConsole_SendDataReliable+0x4c>)
     5a4:	f007 fa1a 	bl	79dc <__assertion_failed>
     5a8:	683b      	ldr	r3, [r7, #0]
     5aa:	2b00      	cmp	r3, #0
     5ac:	d102      	bne.n	5b4 <DbgConsole_SendDataReliable+0x28>
     5ae:	480b      	ldr	r0, [pc, #44]	; (5dc <DbgConsole_SendDataReliable+0x50>)
     5b0:	f007 fa14 	bl	79dc <__assertion_failed>
     5b4:	683a      	ldr	r2, [r7, #0]
     5b6:	6879      	ldr	r1, [r7, #4]
     5b8:	4809      	ldr	r0, [pc, #36]	; (5e0 <DbgConsole_SendDataReliable+0x54>)
     5ba:	f009 fcbb 	bl	9f34 <SerialManager_WriteBlocking>
     5be:	4603      	mov	r3, r0
     5c0:	60fb      	str	r3, [r7, #12]
     5c2:	68fb      	ldr	r3, [r7, #12]
     5c4:	2b00      	cmp	r3, #0
     5c6:	d101      	bne.n	5cc <DbgConsole_SendDataReliable+0x40>
     5c8:	683b      	ldr	r3, [r7, #0]
     5ca:	e001      	b.n	5d0 <DbgConsole_SendDataReliable+0x44>
     5cc:	f04f 33ff 	mov.w	r3, #4294967295
     5d0:	4618      	mov	r0, r3
     5d2:	3710      	adds	r7, #16
     5d4:	46bd      	mov	sp, r7
     5d6:	bd80      	pop	{r7, pc}
     5d8:	a6a8      	add	r6, pc, #672	; (adr r6, 87c <makeDHCPMSG+0xa0>)
     5da:	0000      	movs	r0, r0
     5dc:	a6dc      	add	r6, pc, #880	; (adr r6, 950 <makeDHCPMSG+0x174>)
     5de:	0000      	movs	r0, r0
     5e0:	0090      	lsls	r0, r2, #2
     5e2:	2000      	movs	r0, #0

000005e4 <DbgConsole_Init>:
     5e4:	b580      	push	{r7, lr}
     5e6:	b08e      	.short	0xb08e
     5e8:	af00      	add	r7, sp, #0
     5ea:	60b9      	.short	0x60b9
     5ec:	607b      	str	r3, [r7, #4]
     5ee:	4603      	.short	0x4603
     5f0:	73fb      	strb	r3, [r7, #15]
     5f2:	4613      	.short	0x4613
     5f4:	73bb      	strb	r3, [r7, #14]
     5f6:	f243      	.short	0xf243
     5f8:	5321      	strh	r1, [r4, r4]
     5fa:	637b      	.short	0x637b
     5fc:	687b      	ldr	r3, [r7, #4]
     5fe:	617b      	.short	0x617b
     600:	68bb      	ldr	r3, [r7, #8]
     602:	61bb      	.short	0x61bb
     604:	2300      	movs	r3, #0
     606:	773b      	.short	0x773b
     608:	2300      	movs	r3, #0
     60a:	777b      	.short	0x777b
     60c:	7bfb      	ldrb	r3, [r7, #15]
     60e:	77bb      	.short	0x77bb
     610:	2301      	movs	r3, #1
     612:	77fb      	.short	0x77fb
     614:	2301      	movs	r3, #1
     616:	f887      	.short	0xf887
     618:	3020      	adds	r0, #32
     61a:	7bbb      	.short	0x7bbb
     61c:	f887 302c 	strb.w	r3, [r7, #44]	; 0x2c
     620:	2b017bbb 	.word	0x2b017bbb
     624:	d118      	bne.n	658 <DbgConsole_Init+0x74>
     626:	f107      	.short	0xf107
     628:	0314      	lsls	r4, r2, #12
     62a:	633b      	.short	0x633b
     62c:	221c      	movs	r2, #28
     62e:	2100      	.short	0x2100
     630:	4826      	ldr	r0, [pc, #152]	; (6cc <DbgConsole_Init+0xe8>)
     632:	f009      	.short	0xf009
     634:	fd53 4b25 	ldc2l	11, cr4, [r3, #-148]	; 0xffffff6c	; <UNPREDICTABLE>
     638:	611a4a24 	.word	0x611a4a24
     63c:	4b23      	ldr	r3, [pc, #140]	; (6cc <DbgConsole_Init+0xe8>)
     63e:	691b      	.short	0x691b
     640:	f107 0224 	add.w	r2, r7, #36	; 0x24
     644:	46184611 	.word	0x46184611
     648:	f006 f8e4 	bl	6814 <SerialManager_Init>
     64c:	637b4603 	.word	0x637b4603
     650:	6b7b      	ldr	r3, [r7, #52]	; 0x34
     652:	2b00      	.short	0x2b00
     654:	d014      	beq.n	680 <DbgConsole_Init+0x9c>
     656:	e010      	.short	0xe010
     658:	7bbb      	ldrb	r3, [r7, #14]
     65a:	2b02      	.short	0x2b02
     65c:	d101      	bne.n	662 <DbgConsole_Init+0x7e>
     65e:	6b7b      	.short	0x6b7b
     660:	e02f      	b.n	6c2 <DbgConsole_Init+0xde>
     662:	7bbb      	.short	0x7bbb
     664:	2b03      	cmp	r3, #3
     666:	d101      	.short	0xd101
     668:	6b7b      	ldr	r3, [r7, #52]	; 0x34
     66a:	e02a      	.short	0xe02a
     66c:	7bbb      	ldrb	r3, [r7, #14]
     66e:	2b04      	.short	0x2b04
     670:	d101      	bne.n	676 <DbgConsole_Init+0x92>
     672:	6b7b      	.short	0x6b7b
     674:	e025      	b.n	6c2 <DbgConsole_Init+0xde>
     676:	6b7b      	.short	0x6b7b
     678:	e023      	b.n	6c2 <DbgConsole_Init+0xde>
     67a:	4815      	.short	0x4815
     67c:	f007 f9ae 	bl	79dc <__assertion_failed>
     680:	691b4b12 	.word	0x691b4b12
     684:	4913      	ldr	r1, [pc, #76]	; (6d4 <DbgConsole_Init+0xf0>)
     686:	4618      	.short	0x4618
     688:	f006 f8fe 	bl	6888 <SerialManager_OpenWriteHandle>
     68c:	637b4603 	.word	0x637b4603
     690:	6b7b      	ldr	r3, [r7, #52]	; 0x34
     692:	2b00      	.short	0x2b00
     694:	d002      	beq.n	69c <DbgConsole_Init+0xb8>
     696:	4810      	.short	0x4810
     698:	f007 f9a0 	bl	79dc <__assertion_failed>
     69c:	691b4b0b 	.word	0x691b4b0b
     6a0:	490e      	ldr	r1, [pc, #56]	; (6dc <DbgConsole_Init+0xf8>)
     6a2:	4618      	.short	0x4618
     6a4:	f006 f91c 	bl	68e0 <SerialManager_OpenReadHandle>
     6a8:	637b4603 	.word	0x637b4603
     6ac:	6b7b      	ldr	r3, [r7, #52]	; 0x34
     6ae:	2b00      	.short	0x2b00
     6b0:	d002      	beq.n	6b8 <DbgConsole_Init+0xd4>
     6b2:	480b      	.short	0x480b
     6b4:	f007 f992 	bl	79dc <__assertion_failed>
     6b8:	691b4b04 	.word	0x691b4b04
     6bc:	4a09      	ldr	r2, [pc, #36]	; (6e4 <DbgConsole_Init+0x100>)
     6be:	6013      	.short	0x6013
     6c0:	2300      	movs	r3, #0
     6c2:	4618      	.short	0x4618
     6c4:	3738      	adds	r7, #56	; 0x38
     6c6:	46bd      	.short	0x46bd
     6c8:	bd80      	pop	{r7, pc}
     6ca:	bf00      	.short	0xbf00
     6cc:	007c      	lsls	r4, r7, #1
     6ce:	2000      	.short	0x2000
     6d0:	a770      	add	r7, pc, #448	; (adr r7, 894 <makeDHCPMSG+0xb8>)
     6d2:	0000      	.short	0x0000
     6d4:	0090      	lsls	r0, r2, #2
     6d6:	2000      	.short	0x2000
     6d8:	a7c0      	add	r7, pc, #768	; (adr r7, 9dc <send_DHCP_DISCOVER+0x18>)
     6da:	0000      	.short	0x0000
     6dc:	0094      	lsls	r4, r2, #2
     6de:	2000      	.short	0x2000
     6e0:	a810      	add	r0, sp, #64	; 0x40
     6e2:	0000      	.short	0x0000
     6e4:	0098      	lsls	r0, r3, #2
     6e6:	2000      	.short	0x2000

000006e8 <DbgConsole_Printf>:
     6e8:	b40f      	push	{r0, r1, r2, r3}
     6ea:	b580      	.short	0xb580
     6ec:	b0a4      	sub	sp, #144	; 0x90
     6ee:	af00      	.short	0xaf00
     6f0:	2300      	movs	r3, #0
     6f2:	f8c7      	.short	0xf8c7
     6f4:	308c      	adds	r0, #140	; 0x8c
     6f6:	2300      	.short	0x2300
     6f8:	f8c7 3088 	str.w	r3, [r7, #136]	; 0x88
     6fc:	1d3b      	adds	r3, r7, #4
     6fe:	2280      	.short	0x2280
     700:	2100      	movs	r1, #0
     702:	4618      	.short	0x4618
     704:	f009 fcea 	bl	a0dc <memset>
     708:	681b4b12 	.word	0x681b4b12
     70c:	2b00      	cmp	r3, #0
     70e:	d101      	.short	0xd101
     710:	2300      	movs	r3, #0
     712:	e018      	.short	0xe018
     714:	f107 039c 	add.w	r3, r7, #156	; 0x9c
     718:	3084f8c7 	.word	0x3084f8c7
     71c:	1d3a      	adds	r2, r7, #4
     71e:	4b0e      	.short	0x4b0e
     720:	f8d7 1084 	ldr.w	r1, [r7, #132]	; 0x84
     724:	0098f8d7 	.word	0x0098f8d7
     728:	f007 fc30 	bl	7f8c <StrFormatPrintf>
     72c:	008cf8c7 	.word	0x008cf8c7
     730:	f8d7 208c 	ldr.w	r2, [r7, #140]	; 0x8c
     734:	46111d3b 	.word	0x46111d3b
     738:	4618      	mov	r0, r3
     73a:	f7ff      	.short	0xf7ff
     73c:	ff27 f8c7 	vsub.i32	<illegal reg q7.5>, <illegal reg q11.5>, <illegal reg q3.5>
     740:	f8d70088 	.word	0xf8d70088
     744:	3088      	adds	r0, #136	; 0x88
     746:	4618      	.short	0x4618
     748:	3790      	adds	r7, #144	; 0x90
     74a:	46bd      	.short	0x46bd
     74c:	e8bd 4080 	ldmia.w	sp!, {r7, lr}
     750:	4770b004 	.word	0x4770b004
     754:	0098      	lsls	r0, r3, #2
     756:	2000      	.short	0x2000
     758:	7e15      	ldrb	r5, [r2, #24]
	...

0000075c <default_ip_assign>:
     75c:	af00b580 	.word	0xaf00b580
     760:	2204      	movs	r2, #4
     762:	4908      	.short	0x4908
     764:	200f      	movs	r0, #15
     766:	f001      	.short	0xf001
     768:	fadb 2204 			; <UNDEFINED> instruction: 0xfadb2204
     76c:	20054906 	.word	0x20054906
     770:	f001 fad6 	bl	1d20 <WIZCHIP_WRITE_BUF>
     774:	49052204 	.word	0x49052204
     778:	2001      	movs	r0, #1
     77a:	f001      	.short	0xf001
     77c:	fad1 bf00 			; <UNDEFINED> instruction: 0xfad1bf00
     780:	bf00bd80 	.word	0xbf00bd80
     784:	00a4      	lsls	r4, r4, #2
     786:	2000      	.short	0x2000
     788:	00ac      	lsls	r4, r5, #2
     78a:	2000      	.short	0x2000
     78c:	00a8      	lsls	r0, r5, #2
     78e:	2000      	.short	0x2000

00000790 <default_ip_update>:
     790:	b580      	push	{r7, lr}
     792:	af00      	.short	0xaf00
     794:	2180      	movs	r1, #128	; 0x80
     796:	2000      	.short	0x2000
     798:	f001 fa66 	bl	1c68 <WIZCHIP_WRITE>
     79c:	f0012000 	.word	0xf0012000
     7a0:	fa91 f7ff 			; <UNDEFINED> instruction: 0xfa91f7ff
     7a4:	2206ffdb 	.word	0x2206ffdb
     7a8:	4902      	ldr	r1, [pc, #8]	; (7b4 <default_ip_update+0x24>)
     7aa:	2009      	.short	0x2009
     7ac:	f001 fab8 	bl	1d20 <WIZCHIP_WRITE_BUF>
     7b0:	bd80bf00 	.word	0xbd80bf00
     7b4:	00c0      	lsls	r0, r0, #3
     7b6:	2000      	.short	0x2000

000007b8 <default_ip_conflict>:
     7b8:	b580      	push	{r7, lr}
     7ba:	af00      	.short	0xaf00
     7bc:	2180      	movs	r1, #128	; 0x80
     7be:	2000      	.short	0x2000
     7c0:	f001 fa52 	bl	1c68 <WIZCHIP_WRITE>
     7c4:	f0012000 	.word	0xf0012000
     7c8:	fa7d 2206 			; <UNDEFINED> instruction: 0xfa7d2206
     7cc:	20094902 	.word	0x20094902
     7d0:	f001 faa6 	bl	1d20 <WIZCHIP_WRITE_BUF>
     7d4:	bd80bf00 	.word	0xbd80bf00
     7d8:	00c0      	lsls	r0, r0, #3
     7da:	2000      	.short	0x2000

000007dc <makeDHCPMSG>:
     7dc:	b580      	push	{r7, lr}
     7de:	b084      	.short	0xb084
     7e0:	af00      	add	r7, sp, #0
     7e2:	463b      	.short	0x463b
     7e4:	2206      	movs	r2, #6
     7e6:	4619      	.short	0x4619
     7e8:	2009      	movs	r0, #9
     7ea:	f001      	.short	0xf001
     7ec:	fae7 4b72 			; <UNDEFINED> instruction: 0xfae74b72
     7f0:	2201681b 	.word	0x2201681b
     7f4:	701a      	strb	r2, [r3, #0]
     7f6:	4b70      	.short	0x4b70
     7f8:	681b      	ldr	r3, [r3, #0]
     7fa:	2201      	.short	0x2201
     7fc:	705a      	strb	r2, [r3, #1]
     7fe:	4b6e      	.short	0x4b6e
     800:	681b      	ldr	r3, [r3, #0]
     802:	2206      	.short	0x2206
     804:	709a      	strb	r2, [r3, #2]
     806:	4b6c      	.short	0x4b6c
     808:	681b      	ldr	r3, [r3, #0]
     80a:	2200      	.short	0x2200
     80c:	70da      	strb	r2, [r3, #3]
     80e:	4b6a      	.short	0x4b6a
     810:	681b      	ldr	r3, [r3, #0]
     812:	3304      	adds	r3, #4
     814:	4b6960bb 	.word	0x4b6960bb
     818:	681b      	ldr	r3, [r3, #0]
     81a:	0e1b      	.short	0x0e1b
     81c:	b2da      	uxtb	r2, r3
     81e:	68bb      	.short	0x68bb
     820:	701a      	strb	r2, [r3, #0]
     822:	4b66      	.short	0x4b66
     824:	681b      	ldr	r3, [r3, #0]
     826:	0c1a      	.short	0x0c1a
     828:	68bb      	ldr	r3, [r7, #8]
     82a:	3301      	.short	0x3301
     82c:	b2d2      	uxtb	r2, r2
     82e:	701a      	.short	0x701a
     830:	4b62      	ldr	r3, [pc, #392]	; (9bc <makeDHCPMSG+0x1e0>)
     832:	681b      	.short	0x681b
     834:	0a1a      	lsrs	r2, r3, #8
     836:	68bb      	.short	0x68bb
     838:	3302      	adds	r3, #2
     83a:	b2d2      	.short	0xb2d2
     83c:	701a      	strb	r2, [r3, #0]
     83e:	4b5f      	.short	0x4b5f
     840:	681a      	ldr	r2, [r3, #0]
     842:	68bb      	.short	0x68bb
     844:	3303      	adds	r3, #3
     846:	b2d2      	.short	0xb2d2
     848:	701a      	strb	r2, [r3, #0]
     84a:	4b5b      	.short	0x4b5b
     84c:	681b      	ldr	r3, [r3, #0]
     84e:	2200      	.short	0x2200
     850:	811a      	strh	r2, [r3, #8]
     852:	4b59      	.short	0x4b59
     854:	681b      	ldr	r3, [r3, #0]
     856:	330a      	.short	0x330a
     858:	60bb      	str	r3, [r7, #8]
     85a:	68bb      	.short	0x68bb
     85c:	2280      	movs	r2, #128	; 0x80
     85e:	701a      	.short	0x701a
     860:	68bb      	ldr	r3, [r7, #8]
     862:	3301      	.short	0x3301
     864:	2200      	movs	r2, #0
     866:	701a      	.short	0x701a
     868:	4b53      	ldr	r3, [pc, #332]	; (9b8 <makeDHCPMSG+0x1dc>)
     86a:	681b      	.short	0x681b
     86c:	2200      	movs	r2, #0
     86e:	731a      	.short	0x731a
     870:	4b51      	ldr	r3, [pc, #324]	; (9b8 <makeDHCPMSG+0x1dc>)
     872:	681b      	.short	0x681b
     874:	2200      	movs	r2, #0
     876:	735a      	.short	0x735a
     878:	4b4f      	ldr	r3, [pc, #316]	; (9b8 <makeDHCPMSG+0x1dc>)
     87a:	681b      	.short	0x681b
     87c:	2200      	movs	r2, #0
     87e:	739a      	.short	0x739a
     880:	4b4d      	ldr	r3, [pc, #308]	; (9b8 <makeDHCPMSG+0x1dc>)
     882:	681b      	.short	0x681b
     884:	2200      	movs	r2, #0
     886:	73da      	.short	0x73da
     888:	4b4b      	ldr	r3, [pc, #300]	; (9b8 <makeDHCPMSG+0x1dc>)
     88a:	681b      	.short	0x681b
     88c:	2200      	movs	r2, #0
     88e:	741a      	.short	0x741a
     890:	4b49      	ldr	r3, [pc, #292]	; (9b8 <makeDHCPMSG+0x1dc>)
     892:	681b      	.short	0x681b
     894:	2200      	movs	r2, #0
     896:	745a      	.short	0x745a
     898:	4b47      	ldr	r3, [pc, #284]	; (9b8 <makeDHCPMSG+0x1dc>)
     89a:	681b      	.short	0x681b
     89c:	2200      	movs	r2, #0
     89e:	749a      	.short	0x749a
     8a0:	4b45      	ldr	r3, [pc, #276]	; (9b8 <makeDHCPMSG+0x1dc>)
     8a2:	681b      	.short	0x681b
     8a4:	2200      	movs	r2, #0
     8a6:	74da      	.short	0x74da
     8a8:	4b43      	ldr	r3, [pc, #268]	; (9b8 <makeDHCPMSG+0x1dc>)
     8aa:	681b      	.short	0x681b
     8ac:	2200      	movs	r2, #0
     8ae:	751a      	.short	0x751a
     8b0:	4b41      	ldr	r3, [pc, #260]	; (9b8 <makeDHCPMSG+0x1dc>)
     8b2:	681b      	.short	0x681b
     8b4:	2200      	movs	r2, #0
     8b6:	755a      	.short	0x755a
     8b8:	4b3f      	ldr	r3, [pc, #252]	; (9b8 <makeDHCPMSG+0x1dc>)
     8ba:	681b      	.short	0x681b
     8bc:	2200      	movs	r2, #0
     8be:	759a      	.short	0x759a
     8c0:	4b3d      	ldr	r3, [pc, #244]	; (9b8 <makeDHCPMSG+0x1dc>)
     8c2:	681b      	.short	0x681b
     8c4:	2200      	movs	r2, #0
     8c6:	75da      	.short	0x75da
     8c8:	4b3b      	ldr	r3, [pc, #236]	; (9b8 <makeDHCPMSG+0x1dc>)
     8ca:	681b      	.short	0x681b
     8cc:	2200      	movs	r2, #0
     8ce:	761a      	.short	0x761a
     8d0:	4b39      	ldr	r3, [pc, #228]	; (9b8 <makeDHCPMSG+0x1dc>)
     8d2:	681b      	.short	0x681b
     8d4:	2200      	movs	r2, #0
     8d6:	765a      	.short	0x765a
     8d8:	4b37      	ldr	r3, [pc, #220]	; (9b8 <makeDHCPMSG+0x1dc>)
     8da:	681b      	.short	0x681b
     8dc:	2200      	movs	r2, #0
     8de:	769a      	.short	0x769a
     8e0:	4b35      	ldr	r3, [pc, #212]	; (9b8 <makeDHCPMSG+0x1dc>)
     8e2:	681b      	.short	0x681b
     8e4:	2200      	movs	r2, #0
     8e6:	76da      	.short	0x76da
     8e8:	4b33      	ldr	r3, [pc, #204]	; (9b8 <makeDHCPMSG+0x1dc>)
     8ea:	681b      	.short	0x681b
     8ec:	4a34      	ldr	r2, [pc, #208]	; (9c0 <makeDHCPMSG+0x1e4>)
     8ee:	7812      	.short	0x7812
     8f0:	771a      	strb	r2, [r3, #28]
     8f2:	4b31      	.short	0x4b31
     8f4:	681b      	ldr	r3, [r3, #0]
     8f6:	4a32      	.short	0x4a32
     8f8:	7852      	ldrb	r2, [r2, #1]
     8fa:	775a      	.short	0x775a
     8fc:	4b2e      	ldr	r3, [pc, #184]	; (9b8 <makeDHCPMSG+0x1dc>)
     8fe:	681b      	.short	0x681b
     900:	4a2f      	ldr	r2, [pc, #188]	; (9c0 <makeDHCPMSG+0x1e4>)
     902:	7892      	.short	0x7892
     904:	779a      	strb	r2, [r3, #30]
     906:	4b2c      	.short	0x4b2c
     908:	681b      	ldr	r3, [r3, #0]
     90a:	4a2d      	.short	0x4a2d
     90c:	78d2      	ldrb	r2, [r2, #3]
     90e:	77da      	.short	0x77da
     910:	4b29      	ldr	r3, [pc, #164]	; (9b8 <makeDHCPMSG+0x1dc>)
     912:	681b      	.short	0x681b
     914:	4a2a      	ldr	r2, [pc, #168]	; (9c0 <makeDHCPMSG+0x1e4>)
     916:	7912      	.short	0x7912
     918:	f883 2020 	strb.w	r2, [r3, #32]
     91c:	681b4b26 	.word	0x681b4b26
     920:	4a27      	ldr	r2, [pc, #156]	; (9c0 <makeDHCPMSG+0x1e4>)
     922:	7952      	.short	0x7952
     924:	f883 2021 	strb.w	r2, [r3, #33]	; 0x21
     928:	73fb2306 	.word	0x73fb2306
     92c:	e008      	b.n	940 <makeDHCPMSG+0x164>
     92e:	4b22      	.short	0x4b22
     930:	681a      	ldr	r2, [r3, #0]
     932:	7bfb      	.short	0x7bfb
     934:	4413      	add	r3, r2
     936:	2200      	.short	0x2200
     938:	771a      	strb	r2, [r3, #28]
     93a:	7bfb      	.short	0x7bfb
     93c:	3301      	adds	r3, #1
     93e:	73fb      	.short	0x73fb
     940:	7bfb      	ldrb	r3, [r7, #15]
     942:	2b0f      	.short	0x2b0f
     944:	d9f3      	bls.n	92e <makeDHCPMSG+0x152>
     946:	2300      	.short	0x2300
     948:	73fb      	strb	r3, [r7, #15]
     94a:	e009      	.short	0xe009
     94c:	4b1a      	ldr	r3, [pc, #104]	; (9b8 <makeDHCPMSG+0x1dc>)
     94e:	681a      	.short	0x681a
     950:	7bfb      	ldrb	r3, [r7, #15]
     952:	4413      	.short	0x4413
     954:	2200      	movs	r2, #0
     956:	f883      	.short	0xf883
     958:	202c      	movs	r0, #44	; 0x2c
     95a:	7bfb      	.short	0x7bfb
     95c:	3301      	adds	r3, #1
     95e:	73fb      	.short	0x73fb
     960:	7bfb      	ldrb	r3, [r7, #15]
     962:	2b3f      	.short	0x2b3f
     964:	d9f2      	bls.n	94c <makeDHCPMSG+0x170>
     966:	2300      	.short	0x2300
     968:	73fb      	strb	r3, [r7, #15]
     96a:	e009      	.short	0xe009
     96c:	4b12      	ldr	r3, [pc, #72]	; (9b8 <makeDHCPMSG+0x1dc>)
     96e:	681a      	.short	0x681a
     970:	7bfb      	ldrb	r3, [r7, #15]
     972:	4413      	.short	0x4413
     974:	2200      	movs	r2, #0
     976:	f883      	.short	0xf883
     978:	206c      	movs	r0, #108	; 0x6c
     97a:	7bfb      	.short	0x7bfb
     97c:	3301      	adds	r3, #1
     97e:	73fb      	.short	0x73fb
     980:	f997 300f 	ldrsb.w	r3, [r7, #15]
     984:	2b00      	cmp	r3, #0
     986:	daf1      	bge.n	96c <makeDHCPMSG+0x190>
     988:	4b0b      	ldr	r3, [pc, #44]	; (9b8 <makeDHCPMSG+0x1dc>)
     98a:	681b      	ldr	r3, [r3, #0]
     98c:	2263      	movs	r2, #99	; 0x63
     98e:	f883 20ec 	strb.w	r2, [r3, #236]	; 0xec
     992:	4b09      	ldr	r3, [pc, #36]	; (9b8 <makeDHCPMSG+0x1dc>)
     994:	681b      	ldr	r3, [r3, #0]
     996:	2282      	movs	r2, #130	; 0x82
     998:	f883 20ed 	strb.w	r2, [r3, #237]	; 0xed
     99c:	4b06      	ldr	r3, [pc, #24]	; (9b8 <makeDHCPMSG+0x1dc>)
     99e:	681b      	ldr	r3, [r3, #0]
     9a0:	2253      	movs	r2, #83	; 0x53
     9a2:	f883 20ee 	strb.w	r2, [r3, #238]	; 0xee
     9a6:	4b04      	ldr	r3, [pc, #16]	; (9b8 <makeDHCPMSG+0x1dc>)
     9a8:	681b      	ldr	r3, [r3, #0]
     9aa:	2263      	movs	r2, #99	; 0x63
     9ac:	f883 20ef 	strb.w	r2, [r3, #239]	; 0xef
     9b0:	bf00      	nop
     9b2:	3710      	adds	r7, #16
     9b4:	46bd      	mov	sp, r7
     9b6:	bd80      	pop	{r7, pc}
     9b8:	200000bc 	.word	0x200000bc
     9bc:	200000b8 	.word	0x200000b8
     9c0:	200000c0 	.word	0x200000c0

000009c4 <send_DHCP_DISCOVER>:
     9c4:	b5b0      	push	{r4, r5, r7, lr}
     9c6:	b084      	sub	sp, #16
     9c8:	af02      	add	r7, sp, #8
     9ca:	2300      	movs	r3, #0
     9cc:	80bb      	strh	r3, [r7, #4]
     9ce:	f7ff ff05 	bl	7dc <makeDHCPMSG>
     9d2:	2304      	movs	r3, #4
     9d4:	80bb      	strh	r3, [r7, #4]
     9d6:	4b49      	ldr	r3, [pc, #292]	; (afc <send_DHCP_DISCOVER+0x138>)
     9d8:	681a      	ldr	r2, [r3, #0]
     9da:	88bb      	ldrh	r3, [r7, #4]
     9dc:	1c59      	adds	r1, r3, #1
     9de:	80b9      	strh	r1, [r7, #4]
     9e0:	4413      	add	r3, r2
     9e2:	2235      	movs	r2, #53	; 0x35
     9e4:	f883 20ec 	strb.w	r2, [r3, #236]	; 0xec
     9e8:	4b44      	ldr	r3, [pc, #272]	; (afc <send_DHCP_DISCOVER+0x138>)
     9ea:	681a      	ldr	r2, [r3, #0]
     9ec:	88bb      	ldrh	r3, [r7, #4]
     9ee:	1c59      	adds	r1, r3, #1
     9f0:	80b9      	strh	r1, [r7, #4]
     9f2:	4413      	add	r3, r2
     9f4:	2201      	movs	r2, #1
     9f6:	f883 20ec 	strb.w	r2, [r3, #236]	; 0xec
     9fa:	4b40      	ldr	r3, [pc, #256]	; (afc <send_DHCP_DISCOVER+0x138>)
     9fc:	681a      	ldr	r2, [r3, #0]
     9fe:	88bb      	ldrh	r3, [r7, #4]
     a00:	1c59      	adds	r1, r3, #1
     a02:	80b9      	strh	r1, [r7, #4]
     a04:	4413      	add	r3, r2
     a06:	2201      	movs	r2, #1
     a08:	f883 20ec 	strb.w	r2, [r3, #236]	; 0xec
     a0c:	4b3b      	ldr	r3, [pc, #236]	; (afc <send_DHCP_DISCOVER+0x138>)
     a0e:	681a      	ldr	r2, [r3, #0]
     a10:	88bb      	ldrh	r3, [r7, #4]
     a12:	1c59      	adds	r1, r3, #1
     a14:	80b9      	strh	r1, [r7, #4]
     a16:	4413      	add	r3, r2
     a18:	223d      	movs	r2, #61	; 0x3d
     a1a:	f883 20ec 	strb.w	r2, [r3, #236]	; 0xec
     a1e:	4b37      	ldr	r3, [pc, #220]	; (afc <send_DHCP_DISCOVER+0x138>)
     a20:	681a      	ldr	r2, [r3, #0]
     a22:	88bb      	ldrh	r3, [r7, #4]
     a24:	1c59      	adds	r1, r3, #1
     a26:	80b9      	strh	r1, [r7, #4]
     a28:	4413      	add	r3, r2
     a2a:	2207      	movs	r2, #7
     a2c:	f883 20ec 	strb.w	r2, [r3, #236]	; 0xec
     a30:	4b32      	ldr	r3, [pc, #200]	; (afc <send_DHCP_DISCOVER+0x138>)
     a32:	681a      	ldr	r2, [r3, #0]
     a34:	88bb      	ldrh	r3, [r7, #4]
     a36:	1c59      	adds	r1, r3, #1
     a38:	80b9      	strh	r1, [r7, #4]
     a3a:	4413      	add	r3, r2
     a3c:	2201      	movs	r2, #1
     a3e:	f883 20ec 	strb.w	r2, [r3, #236]	; 0xec
     a42:	4b2e      	ldr	r3, [pc, #184]	; (afc <send_DHCP_DISCOVER+0x138>)
     a44:	681a      	ldr	r2, [r3, #0]
     a46:	88bb      	ldrh	r3, [r7, #4]
     a48:	1c59      	adds	r1, r3, #1
     a4a:	80b9      	strh	r1, [r7, #4]
     a4c:	4618      	mov	r0, r3
     a4e:	4b2c      	ldr	r3, [pc, #176]	; (b00 <send_DHCP_DISCOVER+0x13c>)
     a50:	7819      	ldrb	r1, [r3, #0]
     a52:	1813      	adds	r3, r2, r0
     a54:	460a      	mov	r2, r1
     a56:	f883 20ec 	strb.w	r2, [r3, #236]	; 0xec
     a5a:	4b28      	ldr	r3, [pc, #160]	; (afc <send_DHCP_DISCOVER+0x138>)
     a5c:	681a      	ldr	r2, [r3, #0]
     a5e:	88bb      	ldrh	r3, [r7, #4]
     a60:	1c59      	adds	r1, r3, #1
     a62:	80b9      	strh	r1, [r7, #4]
     a64:	4618      	mov	r0, r3
     a66:	4b26      	ldr	r3, [pc, #152]	; (b00 <send_DHCP_DISCOVER+0x13c>)
     a68:	7859      	ldrb	r1, [r3, #1]
     a6a:	1813      	adds	r3, r2, r0
     a6c:	460a      	mov	r2, r1
     a6e:	f883 20ec 	strb.w	r2, [r3, #236]	; 0xec
     a72:	4b22      	ldr	r3, [pc, #136]	; (afc <send_DHCP_DISCOVER+0x138>)
     a74:	681a      	ldr	r2, [r3, #0]
     a76:	88bb      	ldrh	r3, [r7, #4]
     a78:	1c59      	adds	r1, r3, #1
     a7a:	80b9      	strh	r1, [r7, #4]
     a7c:	4618      	mov	r0, r3
     a7e:	4b20      	ldr	r3, [pc, #128]	; (b00 <send_DHCP_DISCOVER+0x13c>)
     a80:	7899      	ldrb	r1, [r3, #2]
     a82:	1813      	adds	r3, r2, r0
     a84:	460a      	mov	r2, r1
     a86:	f883 20ec 	strb.w	r2, [r3, #236]	; 0xec
     a8a:	4b1c      	ldr	r3, [pc, #112]	; (afc <send_DHCP_DISCOVER+0x138>)
     a8c:	681a      	ldr	r2, [r3, #0]
     a8e:	88bb      	ldrh	r3, [r7, #4]
     a90:	1c59      	adds	r1, r3, #1
     a92:	80b9      	strh	r1, [r7, #4]
     a94:	4618      	mov	r0, r3
     a96:	4b1a      	ldr	r3, [pc, #104]	; (b00 <send_DHCP_DISCOVER+0x13c>)
     a98:	78d9      	ldrb	r1, [r3, #3]
     a9a:	1813      	adds	r3, r2, r0
     a9c:	460a      	mov	r2, r1
     a9e:	f883 20ec 	strb.w	r2, [r3, #236]	; 0xec
     aa2:	4b16      	ldr	r3, [pc, #88]	; (afc <send_DHCP_DISCOVER+0x138>)
     aa4:	681a      	ldr	r2, [r3, #0]
     aa6:	88bb      	ldrh	r3, [r7, #4]
     aa8:	1c59      	adds	r1, r3, #1
     aaa:	80b9      	strh	r1, [r7, #4]
     aac:	4618      	mov	r0, r3
     aae:	4b14      	ldr	r3, [pc, #80]	; (b00 <send_DHCP_DISCOVER+0x13c>)
     ab0:	7919      	ldrb	r1, [r3, #4]
     ab2:	1813      	adds	r3, r2, r0
     ab4:	460a      	mov	r2, r1
     ab6:	f883 20ec 	strb.w	r2, [r3, #236]	; 0xec
     aba:	4b10      	ldr	r3, [pc, #64]	; (afc <send_DHCP_DISCOVER+0x138>)
     abc:	681a      	ldr	r2, [r3, #0]
     abe:	88bb      	ldrh	r3, [r7, #4]
     ac0:	1c59      	adds	r1, r3, #1
     ac2:	80b9      	strh	r1, [r7, #4]
     ac4:	4618      	mov	r0, r3
     ac6:	4b0e      	ldr	r3, [pc, #56]	; (b00 <send_DHCP_DISCOVER+0x13c>)
     ac8:	7959      	ldrb	r1, [r3, #5]
     aca:	1813      	adds	r3, r2, r0
     acc:	460a      	mov	r2, r1
     ace:	f883 20ec 	strb.w	r2, [r3, #236]	; 0xec
     ad2:	4b0a      	ldr	r3, [pc, #40]	; (afc <send_DHCP_DISCOVER+0x138>)
     ad4:	681a      	ldr	r2, [r3, #0]
     ad6:	88bb      	ldrh	r3, [r7, #4]
     ad8:	1c59      	adds	r1, r3, #1
     ada:	80b9      	strh	r1, [r7, #4]
     adc:	4413      	add	r3, r2
     ade:	220c      	movs	r2, #12
     ae0:	f883 20ec 	strb.w	r2, [r3, #236]	; 0xec
     ae4:	4b05      	ldr	r3, [pc, #20]	; (afc <send_DHCP_DISCOVER+0x138>)
     ae6:	681a      	ldr	r2, [r3, #0]
     ae8:	88bb      	ldrh	r3, [r7, #4]
     aea:	1c59      	adds	r1, r3, #1
     aec:	80b9      	strh	r1, [r7, #4]
     aee:	4413      	add	r3, r2
     af0:	2200      	movs	r2, #0
     af2:	f883 20ec 	strb.w	r2, [r3, #236]	; 0xec
     af6:	2300      	movs	r3, #0
     af8:	80fb      	strh	r3, [r7, #6]
     afa:	e013      	b.n	b24 <send_DHCP_DISCOVER+0x160>
     afc:	200000bc 	.word	0x200000bc
     b00:	200000c0 	.word	0x200000c0
     b04:	88f9      	ldrh	r1, [r7, #6]
     b06:	4b81      	ldr	r3, [pc, #516]	; (d0c <send_DHCP_DISCOVER+0x348>)
     b08:	681a      	ldr	r2, [r3, #0]
     b0a:	88bb      	ldrh	r3, [r7, #4]
     b0c:	1c58      	adds	r0, r3, #1
     b0e:	80b8      	strh	r0, [r7, #4]
     b10:	4618      	mov	r0, r3
     b12:	4b7f      	ldr	r3, [pc, #508]	; (d10 <send_DHCP_DISCOVER+0x34c>)
     b14:	5c59      	ldrb	r1, [r3, r1]
     b16:	1813      	adds	r3, r2, r0
     b18:	460a      	mov	r2, r1
     b1a:	f883 20ec 	strb.w	r2, [r3, #236]	; 0xec
     b1e:	88fb      	ldrh	r3, [r7, #6]
     b20:	3301      	adds	r3, #1
     b22:	80fb      	strh	r3, [r7, #6]
     b24:	88fb      	ldrh	r3, [r7, #6]
     b26:	4a7a      	ldr	r2, [pc, #488]	; (d10 <send_DHCP_DISCOVER+0x34c>)
     b28:	5cd3      	ldrb	r3, [r2, r3]
     b2a:	2b00      	cmp	r3, #0
     b2c:	d1ea      	bne.n	b04 <send_DHCP_DISCOVER+0x140>
     b2e:	4b79      	ldr	r3, [pc, #484]	; (d14 <send_DHCP_DISCOVER+0x350>)
     b30:	78db      	ldrb	r3, [r3, #3]
     b32:	091b      	lsrs	r3, r3, #4
     b34:	b2da      	uxtb	r2, r3
     b36:	4b75      	ldr	r3, [pc, #468]	; (d0c <send_DHCP_DISCOVER+0x348>)
     b38:	681c      	ldr	r4, [r3, #0]
     b3a:	88bb      	ldrh	r3, [r7, #4]
     b3c:	1c59      	adds	r1, r3, #1
     b3e:	80b9      	strh	r1, [r7, #4]
     b40:	461d      	mov	r5, r3
     b42:	4610      	mov	r0, r2
     b44:	f007 fe1c 	bl	8780 <NibbleToHex>
     b48:	4603      	mov	r3, r0
     b4a:	461a      	mov	r2, r3
     b4c:	1963      	adds	r3, r4, r5
     b4e:	f883 20ec 	strb.w	r2, [r3, #236]	; 0xec
     b52:	4b70      	ldr	r3, [pc, #448]	; (d14 <send_DHCP_DISCOVER+0x350>)
     b54:	78da      	ldrb	r2, [r3, #3]
     b56:	4b6d      	ldr	r3, [pc, #436]	; (d0c <send_DHCP_DISCOVER+0x348>)
     b58:	681c      	ldr	r4, [r3, #0]
     b5a:	88bb      	ldrh	r3, [r7, #4]
     b5c:	1c59      	adds	r1, r3, #1
     b5e:	80b9      	strh	r1, [r7, #4]
     b60:	461d      	mov	r5, r3
     b62:	4610      	mov	r0, r2
     b64:	f007 fe0c 	bl	8780 <NibbleToHex>
     b68:	4603      	mov	r3, r0
     b6a:	461a      	mov	r2, r3
     b6c:	1963      	adds	r3, r4, r5
     b6e:	f883 20ec 	strb.w	r2, [r3, #236]	; 0xec
     b72:	4b68      	ldr	r3, [pc, #416]	; (d14 <send_DHCP_DISCOVER+0x350>)
     b74:	791b      	ldrb	r3, [r3, #4]
     b76:	091b      	lsrs	r3, r3, #4
     b78:	b2da      	uxtb	r2, r3
     b7a:	4b64      	ldr	r3, [pc, #400]	; (d0c <send_DHCP_DISCOVER+0x348>)
     b7c:	681c      	ldr	r4, [r3, #0]
     b7e:	88bb      	ldrh	r3, [r7, #4]
     b80:	1c59      	adds	r1, r3, #1
     b82:	80b9      	strh	r1, [r7, #4]
     b84:	461d      	mov	r5, r3
     b86:	4610      	mov	r0, r2
     b88:	f007 fdfa 	bl	8780 <NibbleToHex>
     b8c:	4603      	mov	r3, r0
     b8e:	461a      	mov	r2, r3
     b90:	1963      	adds	r3, r4, r5
     b92:	f883 20ec 	strb.w	r2, [r3, #236]	; 0xec
     b96:	4b5f      	ldr	r3, [pc, #380]	; (d14 <send_DHCP_DISCOVER+0x350>)
     b98:	791a      	ldrb	r2, [r3, #4]
     b9a:	4b5c      	ldr	r3, [pc, #368]	; (d0c <send_DHCP_DISCOVER+0x348>)
     b9c:	681c      	ldr	r4, [r3, #0]
     b9e:	88bb      	ldrh	r3, [r7, #4]
     ba0:	1c59      	adds	r1, r3, #1
     ba2:	80b9      	strh	r1, [r7, #4]
     ba4:	461d      	mov	r5, r3
     ba6:	4610      	mov	r0, r2
     ba8:	f007 fdea 	bl	8780 <NibbleToHex>
     bac:	4603      	mov	r3, r0
     bae:	461a      	mov	r2, r3
     bb0:	1963      	adds	r3, r4, r5
     bb2:	f883 20ec 	strb.w	r2, [r3, #236]	; 0xec
     bb6:	4b57      	ldr	r3, [pc, #348]	; (d14 <send_DHCP_DISCOVER+0x350>)
     bb8:	795b      	ldrb	r3, [r3, #5]
     bba:	091b      	lsrs	r3, r3, #4
     bbc:	b2da      	uxtb	r2, r3
     bbe:	4b53      	ldr	r3, [pc, #332]	; (d0c <send_DHCP_DISCOVER+0x348>)
     bc0:	681c      	ldr	r4, [r3, #0]
     bc2:	88bb      	ldrh	r3, [r7, #4]
     bc4:	1c59      	adds	r1, r3, #1
     bc6:	80b9      	strh	r1, [r7, #4]
     bc8:	461d      	mov	r5, r3
     bca:	4610      	mov	r0, r2
     bcc:	f007 fdd8 	bl	8780 <NibbleToHex>
     bd0:	4603      	mov	r3, r0
     bd2:	461a      	mov	r2, r3
     bd4:	1963      	adds	r3, r4, r5
     bd6:	f883 20ec 	strb.w	r2, [r3, #236]	; 0xec
     bda:	4b4e      	ldr	r3, [pc, #312]	; (d14 <send_DHCP_DISCOVER+0x350>)
     bdc:	795a      	ldrb	r2, [r3, #5]
     bde:	4b4b      	ldr	r3, [pc, #300]	; (d0c <send_DHCP_DISCOVER+0x348>)
     be0:	681c      	ldr	r4, [r3, #0]
     be2:	88bb      	ldrh	r3, [r7, #4]
     be4:	1c59      	adds	r1, r3, #1
     be6:	80b9      	strh	r1, [r7, #4]
     be8:	461d      	mov	r5, r3
     bea:	4610      	mov	r0, r2
     bec:	f007 fdc8 	bl	8780 <NibbleToHex>
     bf0:	4603      	mov	r3, r0
     bf2:	461a      	mov	r2, r3
     bf4:	1963      	adds	r3, r4, r5
     bf6:	f883 20ec 	strb.w	r2, [r3, #236]	; 0xec
     bfa:	88fb      	ldrh	r3, [r7, #6]
     bfc:	b2d9      	uxtb	r1, r3
     bfe:	4b43      	ldr	r3, [pc, #268]	; (d0c <send_DHCP_DISCOVER+0x348>)
     c00:	681a      	ldr	r2, [r3, #0]
     c02:	88b8      	ldrh	r0, [r7, #4]
     c04:	88fb      	ldrh	r3, [r7, #6]
     c06:	3307      	adds	r3, #7
     c08:	1ac3      	subs	r3, r0, r3
     c0a:	3106      	adds	r1, #6
     c0c:	b2c9      	uxtb	r1, r1
     c0e:	4413      	add	r3, r2
     c10:	460a      	mov	r2, r1
     c12:	f883 20ec 	strb.w	r2, [r3, #236]	; 0xec
     c16:	4b3d      	ldr	r3, [pc, #244]	; (d0c <send_DHCP_DISCOVER+0x348>)
     c18:	681a      	ldr	r2, [r3, #0]
     c1a:	88bb      	ldrh	r3, [r7, #4]
     c1c:	1c59      	adds	r1, r3, #1
     c1e:	80b9      	strh	r1, [r7, #4]
     c20:	4413      	add	r3, r2
     c22:	2237      	movs	r2, #55	; 0x37
     c24:	f883 20ec 	strb.w	r2, [r3, #236]	; 0xec
     c28:	4b38      	ldr	r3, [pc, #224]	; (d0c <send_DHCP_DISCOVER+0x348>)
     c2a:	681a      	ldr	r2, [r3, #0]
     c2c:	88bb      	ldrh	r3, [r7, #4]
     c2e:	1c59      	adds	r1, r3, #1
     c30:	80b9      	strh	r1, [r7, #4]
     c32:	4413      	add	r3, r2
     c34:	2206      	movs	r2, #6
     c36:	f883 20ec 	strb.w	r2, [r3, #236]	; 0xec
     c3a:	4b34      	ldr	r3, [pc, #208]	; (d0c <send_DHCP_DISCOVER+0x348>)
     c3c:	681a      	ldr	r2, [r3, #0]
     c3e:	88bb      	ldrh	r3, [r7, #4]
     c40:	1c59      	adds	r1, r3, #1
     c42:	80b9      	strh	r1, [r7, #4]
     c44:	4413      	add	r3, r2
     c46:	2201      	movs	r2, #1
     c48:	f883 20ec 	strb.w	r2, [r3, #236]	; 0xec
     c4c:	4b2f      	ldr	r3, [pc, #188]	; (d0c <send_DHCP_DISCOVER+0x348>)
     c4e:	681a      	ldr	r2, [r3, #0]
     c50:	88bb      	ldrh	r3, [r7, #4]
     c52:	1c59      	adds	r1, r3, #1
     c54:	80b9      	strh	r1, [r7, #4]
     c56:	4413      	add	r3, r2
     c58:	2203      	movs	r2, #3
     c5a:	f883 20ec 	strb.w	r2, [r3, #236]	; 0xec
     c5e:	4b2b      	ldr	r3, [pc, #172]	; (d0c <send_DHCP_DISCOVER+0x348>)
     c60:	681a      	ldr	r2, [r3, #0]
     c62:	88bb      	ldrh	r3, [r7, #4]
     c64:	1c59      	adds	r1, r3, #1
     c66:	80b9      	strh	r1, [r7, #4]
     c68:	4413      	add	r3, r2
     c6a:	2206      	movs	r2, #6
     c6c:	f883 20ec 	strb.w	r2, [r3, #236]	; 0xec
     c70:	4b26      	ldr	r3, [pc, #152]	; (d0c <send_DHCP_DISCOVER+0x348>)
     c72:	681a      	ldr	r2, [r3, #0]
     c74:	88bb      	ldrh	r3, [r7, #4]
     c76:	1c59      	adds	r1, r3, #1
     c78:	80b9      	strh	r1, [r7, #4]
     c7a:	4413      	add	r3, r2
     c7c:	220f      	movs	r2, #15
     c7e:	f883 20ec 	strb.w	r2, [r3, #236]	; 0xec
     c82:	4b22      	ldr	r3, [pc, #136]	; (d0c <send_DHCP_DISCOVER+0x348>)
     c84:	681a      	ldr	r2, [r3, #0]
     c86:	88bb      	ldrh	r3, [r7, #4]
     c88:	1c59      	adds	r1, r3, #1
     c8a:	80b9      	strh	r1, [r7, #4]
     c8c:	4413      	add	r3, r2
     c8e:	223a      	movs	r2, #58	; 0x3a
     c90:	f883 20ec 	strb.w	r2, [r3, #236]	; 0xec
     c94:	4b1d      	ldr	r3, [pc, #116]	; (d0c <send_DHCP_DISCOVER+0x348>)
     c96:	681a      	ldr	r2, [r3, #0]
     c98:	88bb      	ldrh	r3, [r7, #4]
     c9a:	1c59      	adds	r1, r3, #1
     c9c:	80b9      	strh	r1, [r7, #4]
     c9e:	4413      	add	r3, r2
     ca0:	223b      	movs	r2, #59	; 0x3b
     ca2:	f883 20ec 	strb.w	r2, [r3, #236]	; 0xec
     ca6:	4b19      	ldr	r3, [pc, #100]	; (d0c <send_DHCP_DISCOVER+0x348>)
     ca8:	681a      	ldr	r2, [r3, #0]
     caa:	88bb      	ldrh	r3, [r7, #4]
     cac:	1c59      	adds	r1, r3, #1
     cae:	80b9      	strh	r1, [r7, #4]
     cb0:	4413      	add	r3, r2
     cb2:	22ff      	movs	r2, #255	; 0xff
     cb4:	f883 20ec 	strb.w	r2, [r3, #236]	; 0xec
     cb8:	88bb      	ldrh	r3, [r7, #4]
     cba:	80fb      	strh	r3, [r7, #6]
     cbc:	e009      	b.n	cd2 <send_DHCP_DISCOVER+0x30e>
     cbe:	4b13      	ldr	r3, [pc, #76]	; (d0c <send_DHCP_DISCOVER+0x348>)
     cc0:	681a      	ldr	r2, [r3, #0]
     cc2:	88fb      	ldrh	r3, [r7, #6]
     cc4:	4413      	add	r3, r2
     cc6:	2200      	movs	r2, #0
     cc8:	f883 20ec 	strb.w	r2, [r3, #236]	; 0xec
     ccc:	88fb      	ldrh	r3, [r7, #6]
     cce:	3301      	adds	r3, #1
     cd0:	80fb      	strh	r3, [r7, #6]
     cd2:	88fb      	ldrh	r3, [r7, #6]
     cd4:	f5b3 7f9c 	cmp.w	r3, #312	; 0x138
     cd8:	d3f1      	bcc.n	cbe <send_DHCP_DISCOVER+0x2fa>
     cda:	23ff      	movs	r3, #255	; 0xff
     cdc:	703b      	strb	r3, [r7, #0]
     cde:	23ff      	movs	r3, #255	; 0xff
     ce0:	707b      	strb	r3, [r7, #1]
     ce2:	23ff      	movs	r3, #255	; 0xff
     ce4:	70bb      	strb	r3, [r7, #2]
     ce6:	23ff      	movs	r3, #255	; 0xff
     ce8:	70fb      	strb	r3, [r7, #3]
     cea:	4b0b      	ldr	r3, [pc, #44]	; (d18 <send_DHCP_DISCOVER+0x354>)
     cec:	7818      	ldrb	r0, [r3, #0]
     cee:	4b07      	ldr	r3, [pc, #28]	; (d0c <send_DHCP_DISCOVER+0x348>)
     cf0:	6819      	ldr	r1, [r3, #0]
     cf2:	463a      	mov	r2, r7
     cf4:	2343      	movs	r3, #67	; 0x43
     cf6:	9300      	str	r3, [sp, #0]
     cf8:	4613      	mov	r3, r2
     cfa:	f44f 7209 	mov.w	r2, #548	; 0x224
     cfe:	f001 fa17 	bl	2130 <sendto>
     d02:	bf00      	nop
     d04:	3708      	adds	r7, #8
     d06:	46bd      	mov	sp, r7
     d08:	bdb0      	pop	{r4, r5, r7, pc}
     d0a:	bf00      	nop
     d0c:	200000bc 	.word	0x200000bc
     d10:	20000008 	.word	0x20000008
     d14:	200000c0 	.word	0x200000c0
     d18:	20000ab4 	.word	0x20000ab4

00000d1c <send_DHCP_REQUEST>:
     d1c:	b5b0      	push	{r4, r5, r7, lr}
     d1e:	b086      	sub	sp, #24
     d20:	af02      	add	r7, sp, #8
     d22:	2300      	movs	r3, #0
     d24:	817b      	strh	r3, [r7, #10]
     d26:	f7ff fd59 	bl	7dc <makeDHCPMSG>
     d2a:	4b1b      	ldr	r3, [pc, #108]	; (d98 <send_DHCP_REQUEST+0x7c>)
     d2c:	f993 3000 	ldrsb.w	r3, [r3]
     d30:	2b03      	cmp	r3, #3
     d32:	d004      	beq.n	d3e <send_DHCP_REQUEST+0x22>
     d34:	4b18      	ldr	r3, [pc, #96]	; (d98 <send_DHCP_REQUEST+0x7c>)
     d36:	f993 3000 	ldrsb.w	r3, [r3]
     d3a:	2b04      	cmp	r3, #4
     d3c:	d134      	bne.n	da8 <send_DHCP_REQUEST+0x8c>
     d3e:	4b17      	ldr	r3, [pc, #92]	; (d9c <send_DHCP_REQUEST+0x80>)
     d40:	681b      	ldr	r3, [r3, #0]
     d42:	330a      	adds	r3, #10
     d44:	2200      	movs	r2, #0
     d46:	701a      	strb	r2, [r3, #0]
     d48:	4b14      	ldr	r3, [pc, #80]	; (d9c <send_DHCP_REQUEST+0x80>)
     d4a:	681b      	ldr	r3, [r3, #0]
     d4c:	330a      	adds	r3, #10
     d4e:	3301      	adds	r3, #1
     d50:	2200      	movs	r2, #0
     d52:	701a      	strb	r2, [r3, #0]
     d54:	4b11      	ldr	r3, [pc, #68]	; (d9c <send_DHCP_REQUEST+0x80>)
     d56:	681b      	ldr	r3, [r3, #0]
     d58:	4a11      	ldr	r2, [pc, #68]	; (da0 <send_DHCP_REQUEST+0x84>)
     d5a:	7812      	ldrb	r2, [r2, #0]
     d5c:	731a      	strb	r2, [r3, #12]
     d5e:	4b0f      	ldr	r3, [pc, #60]	; (d9c <send_DHCP_REQUEST+0x80>)
     d60:	681b      	ldr	r3, [r3, #0]
     d62:	4a0f      	ldr	r2, [pc, #60]	; (da0 <send_DHCP_REQUEST+0x84>)
     d64:	7852      	ldrb	r2, [r2, #1]
     d66:	735a      	strb	r2, [r3, #13]
     d68:	4b0c      	ldr	r3, [pc, #48]	; (d9c <send_DHCP_REQUEST+0x80>)
     d6a:	681b      	ldr	r3, [r3, #0]
     d6c:	4a0c      	ldr	r2, [pc, #48]	; (da0 <send_DHCP_REQUEST+0x84>)
     d6e:	7892      	ldrb	r2, [r2, #2]
     d70:	739a      	strb	r2, [r3, #14]
     d72:	4b0a      	ldr	r3, [pc, #40]	; (d9c <send_DHCP_REQUEST+0x80>)
     d74:	681b      	ldr	r3, [r3, #0]
     d76:	4a0a      	ldr	r2, [pc, #40]	; (da0 <send_DHCP_REQUEST+0x84>)
     d78:	78d2      	ldrb	r2, [r2, #3]
     d7a:	73da      	strb	r2, [r3, #15]
     d7c:	4b09      	ldr	r3, [pc, #36]	; (da4 <send_DHCP_REQUEST+0x88>)
     d7e:	781b      	ldrb	r3, [r3, #0]
     d80:	713b      	strb	r3, [r7, #4]
     d82:	4b08      	ldr	r3, [pc, #32]	; (da4 <send_DHCP_REQUEST+0x88>)
     d84:	785b      	ldrb	r3, [r3, #1]
     d86:	717b      	strb	r3, [r7, #5]
     d88:	4b06      	ldr	r3, [pc, #24]	; (da4 <send_DHCP_REQUEST+0x88>)
     d8a:	789b      	ldrb	r3, [r3, #2]
     d8c:	71bb      	strb	r3, [r7, #6]
     d8e:	4b05      	ldr	r3, [pc, #20]	; (da4 <send_DHCP_REQUEST+0x88>)
     d90:	78db      	ldrb	r3, [r3, #3]
     d92:	71fb      	strb	r3, [r7, #7]
     d94:	e010      	b.n	db8 <send_DHCP_REQUEST+0x9c>
     d96:	bf00      	nop
     d98:	20000ab5 	.word	0x20000ab5
     d9c:	200000bc 	.word	0x200000bc
     da0:	200000a4 	.word	0x200000a4
     da4:	2000009c 	.word	0x2000009c
     da8:	23ff      	movs	r3, #255	; 0xff
     daa:	713b      	strb	r3, [r7, #4]
     dac:	23ff      	movs	r3, #255	; 0xff
     dae:	717b      	strb	r3, [r7, #5]
     db0:	23ff      	movs	r3, #255	; 0xff
     db2:	71bb      	strb	r3, [r7, #6]
     db4:	23ff      	movs	r3, #255	; 0xff
     db6:	71fb      	strb	r3, [r7, #7]
     db8:	2304      	movs	r3, #4
     dba:	817b      	strh	r3, [r7, #10]
     dbc:	4b8d      	ldr	r3, [pc, #564]	; (ff4 <send_DHCP_REQUEST+0x2d8>)
     dbe:	681a      	ldr	r2, [r3, #0]
     dc0:	897b      	ldrh	r3, [r7, #10]
     dc2:	1c59      	adds	r1, r3, #1
     dc4:	8179      	strh	r1, [r7, #10]
     dc6:	4413      	add	r3, r2
     dc8:	2235      	movs	r2, #53	; 0x35
     dca:	f883 20ec 	strb.w	r2, [r3, #236]	; 0xec
     dce:	4b89      	ldr	r3, [pc, #548]	; (ff4 <send_DHCP_REQUEST+0x2d8>)
     dd0:	681a      	ldr	r2, [r3, #0]
     dd2:	897b      	ldrh	r3, [r7, #10]
     dd4:	1c59      	adds	r1, r3, #1
     dd6:	8179      	strh	r1, [r7, #10]
     dd8:	4413      	add	r3, r2
     dda:	2201      	movs	r2, #1
     ddc:	f883 20ec 	strb.w	r2, [r3, #236]	; 0xec
     de0:	4b84      	ldr	r3, [pc, #528]	; (ff4 <send_DHCP_REQUEST+0x2d8>)
     de2:	681a      	ldr	r2, [r3, #0]
     de4:	897b      	ldrh	r3, [r7, #10]
     de6:	1c59      	adds	r1, r3, #1
     de8:	8179      	strh	r1, [r7, #10]
     dea:	4413      	add	r3, r2
     dec:	2203      	movs	r2, #3
     dee:	f883 20ec 	strb.w	r2, [r3, #236]	; 0xec
     df2:	4b80      	ldr	r3, [pc, #512]	; (ff4 <send_DHCP_REQUEST+0x2d8>)
     df4:	681a      	ldr	r2, [r3, #0]
     df6:	897b      	ldrh	r3, [r7, #10]
     df8:	1c59      	adds	r1, r3, #1
     dfa:	8179      	strh	r1, [r7, #10]
     dfc:	4413      	add	r3, r2
     dfe:	223d      	movs	r2, #61	; 0x3d
     e00:	f883 20ec 	strb.w	r2, [r3, #236]	; 0xec
     e04:	4b7b      	ldr	r3, [pc, #492]	; (ff4 <send_DHCP_REQUEST+0x2d8>)
     e06:	681a      	ldr	r2, [r3, #0]
     e08:	897b      	ldrh	r3, [r7, #10]
     e0a:	1c59      	adds	r1, r3, #1
     e0c:	8179      	strh	r1, [r7, #10]
     e0e:	4413      	add	r3, r2
     e10:	2207      	movs	r2, #7
     e12:	f883 20ec 	strb.w	r2, [r3, #236]	; 0xec
     e16:	4b77      	ldr	r3, [pc, #476]	; (ff4 <send_DHCP_REQUEST+0x2d8>)
     e18:	681a      	ldr	r2, [r3, #0]
     e1a:	897b      	ldrh	r3, [r7, #10]
     e1c:	1c59      	adds	r1, r3, #1
     e1e:	8179      	strh	r1, [r7, #10]
     e20:	4413      	add	r3, r2
     e22:	2201      	movs	r2, #1
     e24:	f883 20ec 	strb.w	r2, [r3, #236]	; 0xec
     e28:	4b72      	ldr	r3, [pc, #456]	; (ff4 <send_DHCP_REQUEST+0x2d8>)
     e2a:	681a      	ldr	r2, [r3, #0]
     e2c:	897b      	ldrh	r3, [r7, #10]
     e2e:	1c59      	adds	r1, r3, #1
     e30:	8179      	strh	r1, [r7, #10]
     e32:	4618      	mov	r0, r3
     e34:	4b70      	ldr	r3, [pc, #448]	; (ff8 <send_DHCP_REQUEST+0x2dc>)
     e36:	7819      	ldrb	r1, [r3, #0]
     e38:	1813      	adds	r3, r2, r0
     e3a:	460a      	mov	r2, r1
     e3c:	f883 20ec 	strb.w	r2, [r3, #236]	; 0xec
     e40:	4b6c      	ldr	r3, [pc, #432]	; (ff4 <send_DHCP_REQUEST+0x2d8>)
     e42:	681a      	ldr	r2, [r3, #0]
     e44:	897b      	ldrh	r3, [r7, #10]
     e46:	1c59      	adds	r1, r3, #1
     e48:	8179      	strh	r1, [r7, #10]
     e4a:	4618      	mov	r0, r3
     e4c:	4b6a      	ldr	r3, [pc, #424]	; (ff8 <send_DHCP_REQUEST+0x2dc>)
     e4e:	7859      	ldrb	r1, [r3, #1]
     e50:	1813      	adds	r3, r2, r0
     e52:	460a      	mov	r2, r1
     e54:	f883 20ec 	strb.w	r2, [r3, #236]	; 0xec
     e58:	4b66      	ldr	r3, [pc, #408]	; (ff4 <send_DHCP_REQUEST+0x2d8>)
     e5a:	681a      	ldr	r2, [r3, #0]
     e5c:	897b      	ldrh	r3, [r7, #10]
     e5e:	1c59      	adds	r1, r3, #1
     e60:	8179      	strh	r1, [r7, #10]
     e62:	4618      	mov	r0, r3
     e64:	4b64      	ldr	r3, [pc, #400]	; (ff8 <send_DHCP_REQUEST+0x2dc>)
     e66:	7899      	ldrb	r1, [r3, #2]
     e68:	1813      	adds	r3, r2, r0
     e6a:	460a      	mov	r2, r1
     e6c:	f883 20ec 	strb.w	r2, [r3, #236]	; 0xec
     e70:	4b60      	ldr	r3, [pc, #384]	; (ff4 <send_DHCP_REQUEST+0x2d8>)
     e72:	681a      	ldr	r2, [r3, #0]
     e74:	897b      	ldrh	r3, [r7, #10]
     e76:	1c59      	adds	r1, r3, #1
     e78:	8179      	strh	r1, [r7, #10]
     e7a:	4618      	mov	r0, r3
     e7c:	4b5e      	ldr	r3, [pc, #376]	; (ff8 <send_DHCP_REQUEST+0x2dc>)
     e7e:	78d9      	ldrb	r1, [r3, #3]
     e80:	1813      	adds	r3, r2, r0
     e82:	460a      	mov	r2, r1
     e84:	f883 20ec 	strb.w	r2, [r3, #236]	; 0xec
     e88:	4b5a      	ldr	r3, [pc, #360]	; (ff4 <send_DHCP_REQUEST+0x2d8>)
     e8a:	681a      	ldr	r2, [r3, #0]
     e8c:	897b      	ldrh	r3, [r7, #10]
     e8e:	1c59      	adds	r1, r3, #1
     e90:	8179      	strh	r1, [r7, #10]
     e92:	4618      	mov	r0, r3
     e94:	4b58      	ldr	r3, [pc, #352]	; (ff8 <send_DHCP_REQUEST+0x2dc>)
     e96:	7919      	ldrb	r1, [r3, #4]
     e98:	1813      	adds	r3, r2, r0
     e9a:	460a      	mov	r2, r1
     e9c:	f883 20ec 	strb.w	r2, [r3, #236]	; 0xec
     ea0:	4b54      	ldr	r3, [pc, #336]	; (ff4 <send_DHCP_REQUEST+0x2d8>)
     ea2:	681a      	ldr	r2, [r3, #0]
     ea4:	897b      	ldrh	r3, [r7, #10]
     ea6:	1c59      	adds	r1, r3, #1
     ea8:	8179      	strh	r1, [r7, #10]
     eaa:	4618      	mov	r0, r3
     eac:	4b52      	ldr	r3, [pc, #328]	; (ff8 <send_DHCP_REQUEST+0x2dc>)
     eae:	7959      	ldrb	r1, [r3, #5]
     eb0:	1813      	adds	r3, r2, r0
     eb2:	460a      	mov	r2, r1
     eb4:	f883 20ec 	strb.w	r2, [r3, #236]	; 0xec
     eb8:	79fb      	ldrb	r3, [r7, #7]
     eba:	2bff      	cmp	r3, #255	; 0xff
     ebc:	f040 8084 	bne.w	fc8 <send_DHCP_REQUEST+0x2ac>
     ec0:	4b4c      	ldr	r3, [pc, #304]	; (ff4 <send_DHCP_REQUEST+0x2d8>)
     ec2:	681a      	ldr	r2, [r3, #0]
     ec4:	897b      	ldrh	r3, [r7, #10]
     ec6:	1c59      	adds	r1, r3, #1
     ec8:	8179      	strh	r1, [r7, #10]
     eca:	4413      	add	r3, r2
     ecc:	2232      	movs	r2, #50	; 0x32
     ece:	f883 20ec 	strb.w	r2, [r3, #236]	; 0xec
     ed2:	4b48      	ldr	r3, [pc, #288]	; (ff4 <send_DHCP_REQUEST+0x2d8>)
     ed4:	681a      	ldr	r2, [r3, #0]
     ed6:	897b      	ldrh	r3, [r7, #10]
     ed8:	1c59      	adds	r1, r3, #1
     eda:	8179      	strh	r1, [r7, #10]
     edc:	4413      	add	r3, r2
     ede:	2204      	movs	r2, #4
     ee0:	f883 20ec 	strb.w	r2, [r3, #236]	; 0xec
     ee4:	4b43      	ldr	r3, [pc, #268]	; (ff4 <send_DHCP_REQUEST+0x2d8>)
     ee6:	681a      	ldr	r2, [r3, #0]
     ee8:	897b      	ldrh	r3, [r7, #10]
     eea:	1c59      	adds	r1, r3, #1
     eec:	8179      	strh	r1, [r7, #10]
     eee:	4618      	mov	r0, r3
     ef0:	4b42      	ldr	r3, [pc, #264]	; (ffc <send_DHCP_REQUEST+0x2e0>)
     ef2:	7819      	ldrb	r1, [r3, #0]
     ef4:	1813      	adds	r3, r2, r0
     ef6:	460a      	mov	r2, r1
     ef8:	f883 20ec 	strb.w	r2, [r3, #236]	; 0xec
     efc:	4b3d      	ldr	r3, [pc, #244]	; (ff4 <send_DHCP_REQUEST+0x2d8>)
     efe:	681a      	ldr	r2, [r3, #0]
     f00:	897b      	ldrh	r3, [r7, #10]
     f02:	1c59      	adds	r1, r3, #1
     f04:	8179      	strh	r1, [r7, #10]
     f06:	4618      	mov	r0, r3
     f08:	4b3c      	ldr	r3, [pc, #240]	; (ffc <send_DHCP_REQUEST+0x2e0>)
     f0a:	7859      	ldrb	r1, [r3, #1]
     f0c:	1813      	adds	r3, r2, r0
     f0e:	460a      	mov	r2, r1
     f10:	f883 20ec 	strb.w	r2, [r3, #236]	; 0xec
     f14:	4b37      	ldr	r3, [pc, #220]	; (ff4 <send_DHCP_REQUEST+0x2d8>)
     f16:	681a      	ldr	r2, [r3, #0]
     f18:	897b      	ldrh	r3, [r7, #10]
     f1a:	1c59      	adds	r1, r3, #1
     f1c:	8179      	strh	r1, [r7, #10]
     f1e:	4618      	mov	r0, r3
     f20:	4b36      	ldr	r3, [pc, #216]	; (ffc <send_DHCP_REQUEST+0x2e0>)
     f22:	7899      	ldrb	r1, [r3, #2]
     f24:	1813      	adds	r3, r2, r0
     f26:	460a      	mov	r2, r1
     f28:	f883 20ec 	strb.w	r2, [r3, #236]	; 0xec
     f2c:	4b31      	ldr	r3, [pc, #196]	; (ff4 <send_DHCP_REQUEST+0x2d8>)
     f2e:	681a      	ldr	r2, [r3, #0]
     f30:	897b      	ldrh	r3, [r7, #10]
     f32:	1c59      	adds	r1, r3, #1
     f34:	8179      	strh	r1, [r7, #10]
     f36:	4618      	mov	r0, r3
     f38:	4b30      	ldr	r3, [pc, #192]	; (ffc <send_DHCP_REQUEST+0x2e0>)
     f3a:	78d9      	ldrb	r1, [r3, #3]
     f3c:	1813      	adds	r3, r2, r0
     f3e:	460a      	mov	r2, r1
     f40:	f883 20ec 	strb.w	r2, [r3, #236]	; 0xec
     f44:	4b2b      	ldr	r3, [pc, #172]	; (ff4 <send_DHCP_REQUEST+0x2d8>)
     f46:	681a      	ldr	r2, [r3, #0]
     f48:	897b      	ldrh	r3, [r7, #10]
     f4a:	1c59      	adds	r1, r3, #1
     f4c:	8179      	strh	r1, [r7, #10]
     f4e:	4413      	add	r3, r2
     f50:	2236      	movs	r2, #54	; 0x36
     f52:	f883 20ec 	strb.w	r2, [r3, #236]	; 0xec
     f56:	4b27      	ldr	r3, [pc, #156]	; (ff4 <send_DHCP_REQUEST+0x2d8>)
     f58:	681a      	ldr	r2, [r3, #0]
     f5a:	897b      	ldrh	r3, [r7, #10]
     f5c:	1c59      	adds	r1, r3, #1
     f5e:	8179      	strh	r1, [r7, #10]
     f60:	4413      	add	r3, r2
     f62:	2204      	movs	r2, #4
     f64:	f883 20ec 	strb.w	r2, [r3, #236]	; 0xec
     f68:	4b22      	ldr	r3, [pc, #136]	; (ff4 <send_DHCP_REQUEST+0x2d8>)
     f6a:	681a      	ldr	r2, [r3, #0]
     f6c:	897b      	ldrh	r3, [r7, #10]
     f6e:	1c59      	adds	r1, r3, #1
     f70:	8179      	strh	r1, [r7, #10]
     f72:	4618      	mov	r0, r3
     f74:	4b22      	ldr	r3, [pc, #136]	; (1000 <_HeapSize>)
     f76:	7819      	ldrb	r1, [r3, #0]
     f78:	1813      	adds	r3, r2, r0
     f7a:	460a      	mov	r2, r1
     f7c:	f883 20ec 	strb.w	r2, [r3, #236]	; 0xec
     f80:	4b1c      	ldr	r3, [pc, #112]	; (ff4 <send_DHCP_REQUEST+0x2d8>)
     f82:	681a      	ldr	r2, [r3, #0]
     f84:	897b      	ldrh	r3, [r7, #10]
     f86:	1c59      	adds	r1, r3, #1
     f88:	8179      	strh	r1, [r7, #10]
     f8a:	4618      	mov	r0, r3
     f8c:	4b1c      	ldr	r3, [pc, #112]	; (1000 <_HeapSize>)
     f8e:	7859      	ldrb	r1, [r3, #1]
     f90:	1813      	adds	r3, r2, r0
     f92:	460a      	mov	r2, r1
     f94:	f883 20ec 	strb.w	r2, [r3, #236]	; 0xec
     f98:	4b16      	ldr	r3, [pc, #88]	; (ff4 <send_DHCP_REQUEST+0x2d8>)
     f9a:	681a      	ldr	r2, [r3, #0]
     f9c:	897b      	ldrh	r3, [r7, #10]
     f9e:	1c59      	adds	r1, r3, #1
     fa0:	8179      	strh	r1, [r7, #10]
     fa2:	4618      	mov	r0, r3
     fa4:	4b16      	ldr	r3, [pc, #88]	; (1000 <_HeapSize>)
     fa6:	7899      	ldrb	r1, [r3, #2]
     fa8:	1813      	adds	r3, r2, r0
     faa:	460a      	mov	r2, r1
     fac:	f883 20ec 	strb.w	r2, [r3, #236]	; 0xec
     fb0:	4b10      	ldr	r3, [pc, #64]	; (ff4 <send_DHCP_REQUEST+0x2d8>)
     fb2:	681a      	ldr	r2, [r3, #0]
     fb4:	897b      	ldrh	r3, [r7, #10]
     fb6:	1c59      	adds	r1, r3, #1
     fb8:	8179      	strh	r1, [r7, #10]
     fba:	4618      	mov	r0, r3
     fbc:	4b10      	ldr	r3, [pc, #64]	; (1000 <_HeapSize>)
     fbe:	78d9      	ldrb	r1, [r3, #3]
     fc0:	1813      	adds	r3, r2, r0
     fc2:	460a      	mov	r2, r1
     fc4:	f883 20ec 	strb.w	r2, [r3, #236]	; 0xec
     fc8:	4b0a      	ldr	r3, [pc, #40]	; (ff4 <send_DHCP_REQUEST+0x2d8>)
     fca:	681a      	ldr	r2, [r3, #0]
     fcc:	897b      	ldrh	r3, [r7, #10]
     fce:	1c59      	adds	r1, r3, #1
     fd0:	8179      	strh	r1, [r7, #10]
     fd2:	4413      	add	r3, r2
     fd4:	220c      	movs	r2, #12
     fd6:	f883 20ec 	strb.w	r2, [r3, #236]	; 0xec
     fda:	4b06      	ldr	r3, [pc, #24]	; (ff4 <send_DHCP_REQUEST+0x2d8>)
     fdc:	681a      	ldr	r2, [r3, #0]
     fde:	897b      	ldrh	r3, [r7, #10]
     fe0:	1c59      	adds	r1, r3, #1
     fe2:	8179      	strh	r1, [r7, #10]
     fe4:	4413      	add	r3, r2
     fe6:	2200      	movs	r2, #0
     fe8:	f883 20ec 	strb.w	r2, [r3, #236]	; 0xec
     fec:	2300      	movs	r3, #0
     fee:	60fb      	str	r3, [r7, #12]
     ff0:	e019      	b.n	1026 <_HeapSize+0x26>
     ff2:	bf00      	nop
     ff4:	200000bc 	.word	0x200000bc
     ff8:	200000c0 	.word	0x200000c0
     ffc:	200000a4 	.word	0x200000a4
    1000:	2000009c 	.word	0x2000009c
    1004:	4b87      	ldr	r3, [pc, #540]	; (1224 <_HeapSize+0x224>)
    1006:	681a      	ldr	r2, [r3, #0]
    1008:	897b      	ldrh	r3, [r7, #10]
    100a:	1c59      	adds	r1, r3, #1
    100c:	8179      	strh	r1, [r7, #10]
    100e:	4618      	mov	r0, r3
    1010:	4985      	ldr	r1, [pc, #532]	; (1228 <_HeapSize+0x228>)
    1012:	68fb      	ldr	r3, [r7, #12]
    1014:	440b      	add	r3, r1
    1016:	7819      	ldrb	r1, [r3, #0]
    1018:	1813      	adds	r3, r2, r0
    101a:	460a      	mov	r2, r1
    101c:	f883 20ec 	strb.w	r2, [r3, #236]	; 0xec
    1020:	68fb      	ldr	r3, [r7, #12]
    1022:	3301      	adds	r3, #1
    1024:	60fb      	str	r3, [r7, #12]
    1026:	4a80      	ldr	r2, [pc, #512]	; (1228 <_HeapSize+0x228>)
    1028:	68fb      	ldr	r3, [r7, #12]
    102a:	4413      	add	r3, r2
    102c:	781b      	ldrb	r3, [r3, #0]
    102e:	2b00      	cmp	r3, #0
    1030:	d1e8      	bne.n	1004 <_HeapSize+0x4>
    1032:	4b7e      	ldr	r3, [pc, #504]	; (122c <_HeapSize+0x22c>)
    1034:	78db      	ldrb	r3, [r3, #3]
    1036:	091b      	lsrs	r3, r3, #4
    1038:	b2da      	uxtb	r2, r3
    103a:	4b7a      	ldr	r3, [pc, #488]	; (1224 <_HeapSize+0x224>)
    103c:	681c      	ldr	r4, [r3, #0]
    103e:	897b      	ldrh	r3, [r7, #10]
    1040:	1c59      	adds	r1, r3, #1
    1042:	8179      	strh	r1, [r7, #10]
    1044:	461d      	mov	r5, r3
    1046:	4610      	mov	r0, r2
    1048:	f007 fb9a 	bl	8780 <NibbleToHex>
    104c:	4603      	mov	r3, r0
    104e:	461a      	mov	r2, r3
    1050:	1963      	adds	r3, r4, r5
    1052:	f883 20ec 	strb.w	r2, [r3, #236]	; 0xec
    1056:	4b75      	ldr	r3, [pc, #468]	; (122c <_HeapSize+0x22c>)
    1058:	78da      	ldrb	r2, [r3, #3]
    105a:	4b72      	ldr	r3, [pc, #456]	; (1224 <_HeapSize+0x224>)
    105c:	681c      	ldr	r4, [r3, #0]
    105e:	897b      	ldrh	r3, [r7, #10]
    1060:	1c59      	adds	r1, r3, #1
    1062:	8179      	strh	r1, [r7, #10]
    1064:	461d      	mov	r5, r3
    1066:	4610      	mov	r0, r2
    1068:	f007 fb8a 	bl	8780 <NibbleToHex>
    106c:	4603      	mov	r3, r0
    106e:	461a      	mov	r2, r3
    1070:	1963      	adds	r3, r4, r5
    1072:	f883 20ec 	strb.w	r2, [r3, #236]	; 0xec
    1076:	4b6d      	ldr	r3, [pc, #436]	; (122c <_HeapSize+0x22c>)
    1078:	791b      	ldrb	r3, [r3, #4]
    107a:	091b      	lsrs	r3, r3, #4
    107c:	b2da      	uxtb	r2, r3
    107e:	4b69      	ldr	r3, [pc, #420]	; (1224 <_HeapSize+0x224>)
    1080:	681c      	ldr	r4, [r3, #0]
    1082:	897b      	ldrh	r3, [r7, #10]
    1084:	1c59      	adds	r1, r3, #1
    1086:	8179      	strh	r1, [r7, #10]
    1088:	461d      	mov	r5, r3
    108a:	4610      	mov	r0, r2
    108c:	f007 fb78 	bl	8780 <NibbleToHex>
    1090:	4603      	mov	r3, r0
    1092:	461a      	mov	r2, r3
    1094:	1963      	adds	r3, r4, r5
    1096:	f883 20ec 	strb.w	r2, [r3, #236]	; 0xec
    109a:	4b64      	ldr	r3, [pc, #400]	; (122c <_HeapSize+0x22c>)
    109c:	791a      	ldrb	r2, [r3, #4]
    109e:	4b61      	ldr	r3, [pc, #388]	; (1224 <_HeapSize+0x224>)
    10a0:	681c      	ldr	r4, [r3, #0]
    10a2:	897b      	ldrh	r3, [r7, #10]
    10a4:	1c59      	adds	r1, r3, #1
    10a6:	8179      	strh	r1, [r7, #10]
    10a8:	461d      	mov	r5, r3
    10aa:	4610      	mov	r0, r2
    10ac:	f007 fb68 	bl	8780 <NibbleToHex>
    10b0:	4603      	mov	r3, r0
    10b2:	461a      	mov	r2, r3
    10b4:	1963      	adds	r3, r4, r5
    10b6:	f883 20ec 	strb.w	r2, [r3, #236]	; 0xec
    10ba:	4b5c      	ldr	r3, [pc, #368]	; (122c <_HeapSize+0x22c>)
    10bc:	795b      	ldrb	r3, [r3, #5]
    10be:	091b      	lsrs	r3, r3, #4
    10c0:	b2da      	uxtb	r2, r3
    10c2:	4b58      	ldr	r3, [pc, #352]	; (1224 <_HeapSize+0x224>)
    10c4:	681c      	ldr	r4, [r3, #0]
    10c6:	897b      	ldrh	r3, [r7, #10]
    10c8:	1c59      	adds	r1, r3, #1
    10ca:	8179      	strh	r1, [r7, #10]
    10cc:	461d      	mov	r5, r3
    10ce:	4610      	mov	r0, r2
    10d0:	f007 fb56 	bl	8780 <NibbleToHex>
    10d4:	4603      	mov	r3, r0
    10d6:	461a      	mov	r2, r3
    10d8:	1963      	adds	r3, r4, r5
    10da:	f883 20ec 	strb.w	r2, [r3, #236]	; 0xec
    10de:	4b53      	ldr	r3, [pc, #332]	; (122c <_HeapSize+0x22c>)
    10e0:	795a      	ldrb	r2, [r3, #5]
    10e2:	4b50      	ldr	r3, [pc, #320]	; (1224 <_HeapSize+0x224>)
    10e4:	681c      	ldr	r4, [r3, #0]
    10e6:	897b      	ldrh	r3, [r7, #10]
    10e8:	1c59      	adds	r1, r3, #1
    10ea:	8179      	strh	r1, [r7, #10]
    10ec:	461d      	mov	r5, r3
    10ee:	4610      	mov	r0, r2
    10f0:	f007 fb46 	bl	8780 <NibbleToHex>
    10f4:	4603      	mov	r3, r0
    10f6:	461a      	mov	r2, r3
    10f8:	1963      	adds	r3, r4, r5
    10fa:	f883 20ec 	strb.w	r2, [r3, #236]	; 0xec
    10fe:	68fb      	ldr	r3, [r7, #12]
    1100:	b2d9      	uxtb	r1, r3
    1102:	4b48      	ldr	r3, [pc, #288]	; (1224 <_HeapSize+0x224>)
    1104:	681a      	ldr	r2, [r3, #0]
    1106:	8978      	ldrh	r0, [r7, #10]
    1108:	68fb      	ldr	r3, [r7, #12]
    110a:	3307      	adds	r3, #7
    110c:	1ac3      	subs	r3, r0, r3
    110e:	3106      	adds	r1, #6
    1110:	b2c9      	uxtb	r1, r1
    1112:	4413      	add	r3, r2
    1114:	460a      	mov	r2, r1
    1116:	f883 20ec 	strb.w	r2, [r3, #236]	; 0xec
    111a:	4b42      	ldr	r3, [pc, #264]	; (1224 <_HeapSize+0x224>)
    111c:	681a      	ldr	r2, [r3, #0]
    111e:	897b      	ldrh	r3, [r7, #10]
    1120:	1c59      	adds	r1, r3, #1
    1122:	8179      	strh	r1, [r7, #10]
    1124:	4413      	add	r3, r2
    1126:	2237      	movs	r2, #55	; 0x37
    1128:	f883 20ec 	strb.w	r2, [r3, #236]	; 0xec
    112c:	4b3d      	ldr	r3, [pc, #244]	; (1224 <_HeapSize+0x224>)
    112e:	681a      	ldr	r2, [r3, #0]
    1130:	897b      	ldrh	r3, [r7, #10]
    1132:	1c59      	adds	r1, r3, #1
    1134:	8179      	strh	r1, [r7, #10]
    1136:	4413      	add	r3, r2
    1138:	2208      	movs	r2, #8
    113a:	f883 20ec 	strb.w	r2, [r3, #236]	; 0xec
    113e:	4b39      	ldr	r3, [pc, #228]	; (1224 <_HeapSize+0x224>)
    1140:	681a      	ldr	r2, [r3, #0]
    1142:	897b      	ldrh	r3, [r7, #10]
    1144:	1c59      	adds	r1, r3, #1
    1146:	8179      	strh	r1, [r7, #10]
    1148:	4413      	add	r3, r2
    114a:	2201      	movs	r2, #1
    114c:	f883 20ec 	strb.w	r2, [r3, #236]	; 0xec
    1150:	4b34      	ldr	r3, [pc, #208]	; (1224 <_HeapSize+0x224>)
    1152:	681a      	ldr	r2, [r3, #0]
    1154:	897b      	ldrh	r3, [r7, #10]
    1156:	1c59      	adds	r1, r3, #1
    1158:	8179      	strh	r1, [r7, #10]
    115a:	4413      	add	r3, r2
    115c:	2203      	movs	r2, #3
    115e:	f883 20ec 	strb.w	r2, [r3, #236]	; 0xec
    1162:	4b30      	ldr	r3, [pc, #192]	; (1224 <_HeapSize+0x224>)
    1164:	681a      	ldr	r2, [r3, #0]
    1166:	897b      	ldrh	r3, [r7, #10]
    1168:	1c59      	adds	r1, r3, #1
    116a:	8179      	strh	r1, [r7, #10]
    116c:	4413      	add	r3, r2
    116e:	2206      	movs	r2, #6
    1170:	f883 20ec 	strb.w	r2, [r3, #236]	; 0xec
    1174:	4b2b      	ldr	r3, [pc, #172]	; (1224 <_HeapSize+0x224>)
    1176:	681a      	ldr	r2, [r3, #0]
    1178:	897b      	ldrh	r3, [r7, #10]
    117a:	1c59      	adds	r1, r3, #1
    117c:	8179      	strh	r1, [r7, #10]
    117e:	4413      	add	r3, r2
    1180:	220f      	movs	r2, #15
    1182:	f883 20ec 	strb.w	r2, [r3, #236]	; 0xec
    1186:	4b27      	ldr	r3, [pc, #156]	; (1224 <_HeapSize+0x224>)
    1188:	681a      	ldr	r2, [r3, #0]
    118a:	897b      	ldrh	r3, [r7, #10]
    118c:	1c59      	adds	r1, r3, #1
    118e:	8179      	strh	r1, [r7, #10]
    1190:	4413      	add	r3, r2
    1192:	223a      	movs	r2, #58	; 0x3a
    1194:	f883 20ec 	strb.w	r2, [r3, #236]	; 0xec
    1198:	4b22      	ldr	r3, [pc, #136]	; (1224 <_HeapSize+0x224>)
    119a:	681a      	ldr	r2, [r3, #0]
    119c:	897b      	ldrh	r3, [r7, #10]
    119e:	1c59      	adds	r1, r3, #1
    11a0:	8179      	strh	r1, [r7, #10]
    11a2:	4413      	add	r3, r2
    11a4:	223b      	movs	r2, #59	; 0x3b
    11a6:	f883 20ec 	strb.w	r2, [r3, #236]	; 0xec
    11aa:	4b1e      	ldr	r3, [pc, #120]	; (1224 <_HeapSize+0x224>)
    11ac:	681a      	ldr	r2, [r3, #0]
    11ae:	897b      	ldrh	r3, [r7, #10]
    11b0:	1c59      	adds	r1, r3, #1
    11b2:	8179      	strh	r1, [r7, #10]
    11b4:	4413      	add	r3, r2
    11b6:	221f      	movs	r2, #31
    11b8:	f883 20ec 	strb.w	r2, [r3, #236]	; 0xec
    11bc:	4b19      	ldr	r3, [pc, #100]	; (1224 <_HeapSize+0x224>)
    11be:	681a      	ldr	r2, [r3, #0]
    11c0:	897b      	ldrh	r3, [r7, #10]
    11c2:	1c59      	adds	r1, r3, #1
    11c4:	8179      	strh	r1, [r7, #10]
    11c6:	4413      	add	r3, r2
    11c8:	2221      	movs	r2, #33	; 0x21
    11ca:	f883 20ec 	strb.w	r2, [r3, #236]	; 0xec
    11ce:	4b15      	ldr	r3, [pc, #84]	; (1224 <_HeapSize+0x224>)
    11d0:	681a      	ldr	r2, [r3, #0]
    11d2:	897b      	ldrh	r3, [r7, #10]
    11d4:	1c59      	adds	r1, r3, #1
    11d6:	8179      	strh	r1, [r7, #10]
    11d8:	4413      	add	r3, r2
    11da:	22ff      	movs	r2, #255	; 0xff
    11dc:	f883 20ec 	strb.w	r2, [r3, #236]	; 0xec
    11e0:	897b      	ldrh	r3, [r7, #10]
    11e2:	60fb      	str	r3, [r7, #12]
    11e4:	e009      	b.n	11fa <_HeapSize+0x1fa>
    11e6:	4b0f      	ldr	r3, [pc, #60]	; (1224 <_HeapSize+0x224>)
    11e8:	681a      	ldr	r2, [r3, #0]
    11ea:	68fb      	ldr	r3, [r7, #12]
    11ec:	4413      	add	r3, r2
    11ee:	33ec      	adds	r3, #236	; 0xec
    11f0:	2200      	movs	r2, #0
    11f2:	701a      	strb	r2, [r3, #0]
    11f4:	68fb      	ldr	r3, [r7, #12]
    11f6:	3301      	adds	r3, #1
    11f8:	60fb      	str	r3, [r7, #12]
    11fa:	68fb      	ldr	r3, [r7, #12]
    11fc:	f5b3 7f9c 	cmp.w	r3, #312	; 0x138
    1200:	dbf1      	blt.n	11e6 <_HeapSize+0x1e6>
    1202:	4b0b      	ldr	r3, [pc, #44]	; (1230 <_HeapSize+0x230>)
    1204:	7818      	ldrb	r0, [r3, #0]
    1206:	4b07      	ldr	r3, [pc, #28]	; (1224 <_HeapSize+0x224>)
    1208:	6819      	ldr	r1, [r3, #0]
    120a:	1d3a      	adds	r2, r7, #4
    120c:	2343      	movs	r3, #67	; 0x43
    120e:	9300      	str	r3, [sp, #0]
    1210:	4613      	mov	r3, r2
    1212:	f44f 7209 	mov.w	r2, #548	; 0x224
    1216:	f000 ff8b 	bl	2130 <sendto>
    121a:	bf00      	nop
    121c:	3710      	adds	r7, #16
    121e:	46bd      	mov	sp, r7
    1220:	bdb0      	pop	{r4, r5, r7, pc}
    1222:	bf00      	nop
    1224:	200000bc 	.word	0x200000bc
    1228:	20000008 	.word	0x20000008
    122c:	200000c0 	.word	0x200000c0
    1230:	20000ab4 	.word	0x20000ab4

00001234 <send_DHCP_DECLINE>:
    1234:	b580      	push	{r7, lr}
    1236:	b086      	sub	sp, #24
    1238:	af02      	add	r7, sp, #8
    123a:	2300      	movs	r3, #0
    123c:	817b      	strh	r3, [r7, #10]
    123e:	f7ff facd 	bl	7dc <makeDHCPMSG>
    1242:	2304      	movs	r3, #4
    1244:	817b      	strh	r3, [r7, #10]
    1246:	4b9f      	ldr	r3, [pc, #636]	; (14c4 <send_DHCP_DECLINE+0x290>)
    1248:	681b      	ldr	r3, [r3, #0]
    124a:	330a      	adds	r3, #10
    124c:	2200      	movs	r2, #0
    124e:	701a      	strb	r2, [r3, #0]
    1250:	4b9c      	ldr	r3, [pc, #624]	; (14c4 <send_DHCP_DECLINE+0x290>)
    1252:	681b      	ldr	r3, [r3, #0]
    1254:	330a      	adds	r3, #10
    1256:	3301      	adds	r3, #1
    1258:	2200      	movs	r2, #0
    125a:	701a      	strb	r2, [r3, #0]
    125c:	4b99      	ldr	r3, [pc, #612]	; (14c4 <send_DHCP_DECLINE+0x290>)
    125e:	681a      	ldr	r2, [r3, #0]
    1260:	897b      	ldrh	r3, [r7, #10]
    1262:	1c59      	adds	r1, r3, #1
    1264:	8179      	strh	r1, [r7, #10]
    1266:	4413      	add	r3, r2
    1268:	2235      	movs	r2, #53	; 0x35
    126a:	f883 20ec 	strb.w	r2, [r3, #236]	; 0xec
    126e:	4b95      	ldr	r3, [pc, #596]	; (14c4 <send_DHCP_DECLINE+0x290>)
    1270:	681a      	ldr	r2, [r3, #0]
    1272:	897b      	ldrh	r3, [r7, #10]
    1274:	1c59      	adds	r1, r3, #1
    1276:	8179      	strh	r1, [r7, #10]
    1278:	4413      	add	r3, r2
    127a:	2201      	movs	r2, #1
    127c:	f883 20ec 	strb.w	r2, [r3, #236]	; 0xec
    1280:	4b90      	ldr	r3, [pc, #576]	; (14c4 <send_DHCP_DECLINE+0x290>)
    1282:	681a      	ldr	r2, [r3, #0]
    1284:	897b      	ldrh	r3, [r7, #10]
    1286:	1c59      	adds	r1, r3, #1
    1288:	8179      	strh	r1, [r7, #10]
    128a:	4413      	add	r3, r2
    128c:	2204      	movs	r2, #4
    128e:	f883 20ec 	strb.w	r2, [r3, #236]	; 0xec
    1292:	4b8c      	ldr	r3, [pc, #560]	; (14c4 <send_DHCP_DECLINE+0x290>)
    1294:	681a      	ldr	r2, [r3, #0]
    1296:	897b      	ldrh	r3, [r7, #10]
    1298:	1c59      	adds	r1, r3, #1
    129a:	8179      	strh	r1, [r7, #10]
    129c:	4413      	add	r3, r2
    129e:	223d      	movs	r2, #61	; 0x3d
    12a0:	f883 20ec 	strb.w	r2, [r3, #236]	; 0xec
    12a4:	4b87      	ldr	r3, [pc, #540]	; (14c4 <send_DHCP_DECLINE+0x290>)
    12a6:	681a      	ldr	r2, [r3, #0]
    12a8:	897b      	ldrh	r3, [r7, #10]
    12aa:	1c59      	adds	r1, r3, #1
    12ac:	8179      	strh	r1, [r7, #10]
    12ae:	4413      	add	r3, r2
    12b0:	2207      	movs	r2, #7
    12b2:	f883 20ec 	strb.w	r2, [r3, #236]	; 0xec
    12b6:	4b83      	ldr	r3, [pc, #524]	; (14c4 <send_DHCP_DECLINE+0x290>)
    12b8:	681a      	ldr	r2, [r3, #0]
    12ba:	897b      	ldrh	r3, [r7, #10]
    12bc:	1c59      	adds	r1, r3, #1
    12be:	8179      	strh	r1, [r7, #10]
    12c0:	4413      	add	r3, r2
    12c2:	2201      	movs	r2, #1
    12c4:	f883 20ec 	strb.w	r2, [r3, #236]	; 0xec
    12c8:	4b7e      	ldr	r3, [pc, #504]	; (14c4 <send_DHCP_DECLINE+0x290>)
    12ca:	681a      	ldr	r2, [r3, #0]
    12cc:	897b      	ldrh	r3, [r7, #10]
    12ce:	1c59      	adds	r1, r3, #1
    12d0:	8179      	strh	r1, [r7, #10]
    12d2:	4618      	mov	r0, r3
    12d4:	4b7c      	ldr	r3, [pc, #496]	; (14c8 <send_DHCP_DECLINE+0x294>)
    12d6:	7819      	ldrb	r1, [r3, #0]
    12d8:	1813      	adds	r3, r2, r0
    12da:	460a      	mov	r2, r1
    12dc:	f883 20ec 	strb.w	r2, [r3, #236]	; 0xec
    12e0:	4b78      	ldr	r3, [pc, #480]	; (14c4 <send_DHCP_DECLINE+0x290>)
    12e2:	681a      	ldr	r2, [r3, #0]
    12e4:	897b      	ldrh	r3, [r7, #10]
    12e6:	1c59      	adds	r1, r3, #1
    12e8:	8179      	strh	r1, [r7, #10]
    12ea:	4618      	mov	r0, r3
    12ec:	4b76      	ldr	r3, [pc, #472]	; (14c8 <send_DHCP_DECLINE+0x294>)
    12ee:	7859      	ldrb	r1, [r3, #1]
    12f0:	1813      	adds	r3, r2, r0
    12f2:	460a      	mov	r2, r1
    12f4:	f883 20ec 	strb.w	r2, [r3, #236]	; 0xec
    12f8:	4b72      	ldr	r3, [pc, #456]	; (14c4 <send_DHCP_DECLINE+0x290>)
    12fa:	681a      	ldr	r2, [r3, #0]
    12fc:	897b      	ldrh	r3, [r7, #10]
    12fe:	1c59      	adds	r1, r3, #1
    1300:	8179      	strh	r1, [r7, #10]
    1302:	4618      	mov	r0, r3
    1304:	4b70      	ldr	r3, [pc, #448]	; (14c8 <send_DHCP_DECLINE+0x294>)
    1306:	7899      	ldrb	r1, [r3, #2]
    1308:	1813      	adds	r3, r2, r0
    130a:	460a      	mov	r2, r1
    130c:	f883 20ec 	strb.w	r2, [r3, #236]	; 0xec
    1310:	4b6c      	ldr	r3, [pc, #432]	; (14c4 <send_DHCP_DECLINE+0x290>)
    1312:	681a      	ldr	r2, [r3, #0]
    1314:	897b      	ldrh	r3, [r7, #10]
    1316:	1c59      	adds	r1, r3, #1
    1318:	8179      	strh	r1, [r7, #10]
    131a:	4618      	mov	r0, r3
    131c:	4b6a      	ldr	r3, [pc, #424]	; (14c8 <send_DHCP_DECLINE+0x294>)
    131e:	78d9      	ldrb	r1, [r3, #3]
    1320:	1813      	adds	r3, r2, r0
    1322:	460a      	mov	r2, r1
    1324:	f883 20ec 	strb.w	r2, [r3, #236]	; 0xec
    1328:	4b66      	ldr	r3, [pc, #408]	; (14c4 <send_DHCP_DECLINE+0x290>)
    132a:	681a      	ldr	r2, [r3, #0]
    132c:	897b      	ldrh	r3, [r7, #10]
    132e:	1c59      	adds	r1, r3, #1
    1330:	8179      	strh	r1, [r7, #10]
    1332:	4618      	mov	r0, r3
    1334:	4b64      	ldr	r3, [pc, #400]	; (14c8 <send_DHCP_DECLINE+0x294>)
    1336:	7919      	ldrb	r1, [r3, #4]
    1338:	1813      	adds	r3, r2, r0
    133a:	460a      	mov	r2, r1
    133c:	f883 20ec 	strb.w	r2, [r3, #236]	; 0xec
    1340:	4b60      	ldr	r3, [pc, #384]	; (14c4 <send_DHCP_DECLINE+0x290>)
    1342:	681a      	ldr	r2, [r3, #0]
    1344:	897b      	ldrh	r3, [r7, #10]
    1346:	1c59      	adds	r1, r3, #1
    1348:	8179      	strh	r1, [r7, #10]
    134a:	4618      	mov	r0, r3
    134c:	4b5e      	ldr	r3, [pc, #376]	; (14c8 <send_DHCP_DECLINE+0x294>)
    134e:	7959      	ldrb	r1, [r3, #5]
    1350:	1813      	adds	r3, r2, r0
    1352:	460a      	mov	r2, r1
    1354:	f883 20ec 	strb.w	r2, [r3, #236]	; 0xec
    1358:	4b5a      	ldr	r3, [pc, #360]	; (14c4 <send_DHCP_DECLINE+0x290>)
    135a:	681a      	ldr	r2, [r3, #0]
    135c:	897b      	ldrh	r3, [r7, #10]
    135e:	1c59      	adds	r1, r3, #1
    1360:	8179      	strh	r1, [r7, #10]
    1362:	4413      	add	r3, r2
    1364:	2232      	movs	r2, #50	; 0x32
    1366:	f883 20ec 	strb.w	r2, [r3, #236]	; 0xec
    136a:	4b56      	ldr	r3, [pc, #344]	; (14c4 <send_DHCP_DECLINE+0x290>)
    136c:	681a      	ldr	r2, [r3, #0]
    136e:	897b      	ldrh	r3, [r7, #10]
    1370:	1c59      	adds	r1, r3, #1
    1372:	8179      	strh	r1, [r7, #10]
    1374:	4413      	add	r3, r2
    1376:	2204      	movs	r2, #4
    1378:	f883 20ec 	strb.w	r2, [r3, #236]	; 0xec
    137c:	4b51      	ldr	r3, [pc, #324]	; (14c4 <send_DHCP_DECLINE+0x290>)
    137e:	681a      	ldr	r2, [r3, #0]
    1380:	897b      	ldrh	r3, [r7, #10]
    1382:	1c59      	adds	r1, r3, #1
    1384:	8179      	strh	r1, [r7, #10]
    1386:	4618      	mov	r0, r3
    1388:	4b50      	ldr	r3, [pc, #320]	; (14cc <send_DHCP_DECLINE+0x298>)
    138a:	7819      	ldrb	r1, [r3, #0]
    138c:	1813      	adds	r3, r2, r0
    138e:	460a      	mov	r2, r1
    1390:	f883 20ec 	strb.w	r2, [r3, #236]	; 0xec
    1394:	4b4b      	ldr	r3, [pc, #300]	; (14c4 <send_DHCP_DECLINE+0x290>)
    1396:	681a      	ldr	r2, [r3, #0]
    1398:	897b      	ldrh	r3, [r7, #10]
    139a:	1c59      	adds	r1, r3, #1
    139c:	8179      	strh	r1, [r7, #10]
    139e:	4618      	mov	r0, r3
    13a0:	4b4a      	ldr	r3, [pc, #296]	; (14cc <send_DHCP_DECLINE+0x298>)
    13a2:	7859      	ldrb	r1, [r3, #1]
    13a4:	1813      	adds	r3, r2, r0
    13a6:	460a      	mov	r2, r1
    13a8:	f883 20ec 	strb.w	r2, [r3, #236]	; 0xec
    13ac:	4b45      	ldr	r3, [pc, #276]	; (14c4 <send_DHCP_DECLINE+0x290>)
    13ae:	681a      	ldr	r2, [r3, #0]
    13b0:	897b      	ldrh	r3, [r7, #10]
    13b2:	1c59      	adds	r1, r3, #1
    13b4:	8179      	strh	r1, [r7, #10]
    13b6:	4618      	mov	r0, r3
    13b8:	4b44      	ldr	r3, [pc, #272]	; (14cc <send_DHCP_DECLINE+0x298>)
    13ba:	7899      	ldrb	r1, [r3, #2]
    13bc:	1813      	adds	r3, r2, r0
    13be:	460a      	mov	r2, r1
    13c0:	f883 20ec 	strb.w	r2, [r3, #236]	; 0xec
    13c4:	4b3f      	ldr	r3, [pc, #252]	; (14c4 <send_DHCP_DECLINE+0x290>)
    13c6:	681a      	ldr	r2, [r3, #0]
    13c8:	897b      	ldrh	r3, [r7, #10]
    13ca:	1c59      	adds	r1, r3, #1
    13cc:	8179      	strh	r1, [r7, #10]
    13ce:	4618      	mov	r0, r3
    13d0:	4b3e      	ldr	r3, [pc, #248]	; (14cc <send_DHCP_DECLINE+0x298>)
    13d2:	78d9      	ldrb	r1, [r3, #3]
    13d4:	1813      	adds	r3, r2, r0
    13d6:	460a      	mov	r2, r1
    13d8:	f883 20ec 	strb.w	r2, [r3, #236]	; 0xec
    13dc:	4b39      	ldr	r3, [pc, #228]	; (14c4 <send_DHCP_DECLINE+0x290>)
    13de:	681a      	ldr	r2, [r3, #0]
    13e0:	897b      	ldrh	r3, [r7, #10]
    13e2:	1c59      	adds	r1, r3, #1
    13e4:	8179      	strh	r1, [r7, #10]
    13e6:	4413      	add	r3, r2
    13e8:	2236      	movs	r2, #54	; 0x36
    13ea:	f883 20ec 	strb.w	r2, [r3, #236]	; 0xec
    13ee:	4b35      	ldr	r3, [pc, #212]	; (14c4 <send_DHCP_DECLINE+0x290>)
    13f0:	681a      	ldr	r2, [r3, #0]
    13f2:	897b      	ldrh	r3, [r7, #10]
    13f4:	1c59      	adds	r1, r3, #1
    13f6:	8179      	strh	r1, [r7, #10]
    13f8:	4413      	add	r3, r2
    13fa:	2204      	movs	r2, #4
    13fc:	f883 20ec 	strb.w	r2, [r3, #236]	; 0xec
    1400:	4b30      	ldr	r3, [pc, #192]	; (14c4 <send_DHCP_DECLINE+0x290>)
    1402:	681a      	ldr	r2, [r3, #0]
    1404:	897b      	ldrh	r3, [r7, #10]
    1406:	1c59      	adds	r1, r3, #1
    1408:	8179      	strh	r1, [r7, #10]
    140a:	4618      	mov	r0, r3
    140c:	4b30      	ldr	r3, [pc, #192]	; (14d0 <send_DHCP_DECLINE+0x29c>)
    140e:	7819      	ldrb	r1, [r3, #0]
    1410:	1813      	adds	r3, r2, r0
    1412:	460a      	mov	r2, r1
    1414:	f883 20ec 	strb.w	r2, [r3, #236]	; 0xec
    1418:	4b2a      	ldr	r3, [pc, #168]	; (14c4 <send_DHCP_DECLINE+0x290>)
    141a:	681a      	ldr	r2, [r3, #0]
    141c:	897b      	ldrh	r3, [r7, #10]
    141e:	1c59      	adds	r1, r3, #1
    1420:	8179      	strh	r1, [r7, #10]
    1422:	4618      	mov	r0, r3
    1424:	4b2a      	ldr	r3, [pc, #168]	; (14d0 <send_DHCP_DECLINE+0x29c>)
    1426:	7859      	ldrb	r1, [r3, #1]
    1428:	1813      	adds	r3, r2, r0
    142a:	460a      	mov	r2, r1
    142c:	f883 20ec 	strb.w	r2, [r3, #236]	; 0xec
    1430:	4b24      	ldr	r3, [pc, #144]	; (14c4 <send_DHCP_DECLINE+0x290>)
    1432:	681a      	ldr	r2, [r3, #0]
    1434:	897b      	ldrh	r3, [r7, #10]
    1436:	1c59      	adds	r1, r3, #1
    1438:	8179      	strh	r1, [r7, #10]
    143a:	4618      	mov	r0, r3
    143c:	4b24      	ldr	r3, [pc, #144]	; (14d0 <send_DHCP_DECLINE+0x29c>)
    143e:	7899      	ldrb	r1, [r3, #2]
    1440:	1813      	adds	r3, r2, r0
    1442:	460a      	mov	r2, r1
    1444:	f883 20ec 	strb.w	r2, [r3, #236]	; 0xec
    1448:	4b1e      	ldr	r3, [pc, #120]	; (14c4 <send_DHCP_DECLINE+0x290>)
    144a:	681a      	ldr	r2, [r3, #0]
    144c:	897b      	ldrh	r3, [r7, #10]
    144e:	1c59      	adds	r1, r3, #1
    1450:	8179      	strh	r1, [r7, #10]
    1452:	4618      	mov	r0, r3
    1454:	4b1e      	ldr	r3, [pc, #120]	; (14d0 <send_DHCP_DECLINE+0x29c>)
    1456:	78d9      	ldrb	r1, [r3, #3]
    1458:	1813      	adds	r3, r2, r0
    145a:	460a      	mov	r2, r1
    145c:	f883 20ec 	strb.w	r2, [r3, #236]	; 0xec
    1460:	4b18      	ldr	r3, [pc, #96]	; (14c4 <send_DHCP_DECLINE+0x290>)
    1462:	681a      	ldr	r2, [r3, #0]
    1464:	897b      	ldrh	r3, [r7, #10]
    1466:	1c59      	adds	r1, r3, #1
    1468:	8179      	strh	r1, [r7, #10]
    146a:	4413      	add	r3, r2
    146c:	22ff      	movs	r2, #255	; 0xff
    146e:	f883 20ec 	strb.w	r2, [r3, #236]	; 0xec
    1472:	897b      	ldrh	r3, [r7, #10]
    1474:	60fb      	str	r3, [r7, #12]
    1476:	e009      	b.n	148c <send_DHCP_DECLINE+0x258>
    1478:	4b12      	ldr	r3, [pc, #72]	; (14c4 <send_DHCP_DECLINE+0x290>)
    147a:	681a      	ldr	r2, [r3, #0]
    147c:	68fb      	ldr	r3, [r7, #12]
    147e:	4413      	add	r3, r2
    1480:	33ec      	adds	r3, #236	; 0xec
    1482:	2200      	movs	r2, #0
    1484:	701a      	strb	r2, [r3, #0]
    1486:	68fb      	ldr	r3, [r7, #12]
    1488:	3301      	adds	r3, #1
    148a:	60fb      	str	r3, [r7, #12]
    148c:	68fb      	ldr	r3, [r7, #12]
    148e:	f5b3 7f9c 	cmp.w	r3, #312	; 0x138
    1492:	dbf1      	blt.n	1478 <send_DHCP_DECLINE+0x244>
    1494:	23ff      	movs	r3, #255	; 0xff
    1496:	713b      	strb	r3, [r7, #4]
    1498:	23ff      	movs	r3, #255	; 0xff
    149a:	717b      	strb	r3, [r7, #5]
    149c:	23ff      	movs	r3, #255	; 0xff
    149e:	71bb      	strb	r3, [r7, #6]
    14a0:	23ff      	movs	r3, #255	; 0xff
    14a2:	71fb      	strb	r3, [r7, #7]
    14a4:	4b0b      	ldr	r3, [pc, #44]	; (14d4 <send_DHCP_DECLINE+0x2a0>)
    14a6:	7818      	ldrb	r0, [r3, #0]
    14a8:	4b06      	ldr	r3, [pc, #24]	; (14c4 <send_DHCP_DECLINE+0x290>)
    14aa:	6819      	ldr	r1, [r3, #0]
    14ac:	1d3a      	adds	r2, r7, #4
    14ae:	2343      	movs	r3, #67	; 0x43
    14b0:	9300      	str	r3, [sp, #0]
    14b2:	4613      	mov	r3, r2
    14b4:	f44f 7209 	mov.w	r2, #548	; 0x224
    14b8:	f000 fe3a 	bl	2130 <sendto>
    14bc:	bf00      	nop
    14be:	3710      	adds	r7, #16
    14c0:	46bd      	mov	sp, r7
    14c2:	bd80      	pop	{r7, pc}
    14c4:	200000bc 	.word	0x200000bc
    14c8:	200000c0 	.word	0x200000c0
    14cc:	200000a4 	.word	0x200000a4
    14d0:	2000009c 	.word	0x2000009c
    14d4:	20000ab4 	.word	0x20000ab4

000014d8 <parseDHCPMSG>:
    14d8:	b590      	push	{r4, r7, lr}
    14da:	b089      	sub	sp, #36	; 0x24
    14dc:	af02      	add	r7, sp, #8
    14de:	2300      	movs	r3, #0
    14e0:	74fb      	strb	r3, [r7, #19]
    14e2:	4b8f      	ldr	r3, [pc, #572]	; (1720 <parseDHCPMSG+0x248>)
    14e4:	781b      	ldrb	r3, [r3, #0]
    14e6:	4618      	mov	r0, r3
    14e8:	f007 f9a6 	bl	8838 <getSn_RX_RSR>
    14ec:	4603      	mov	r3, r0
    14ee:	823b      	strh	r3, [r7, #16]
    14f0:	8a3b      	ldrh	r3, [r7, #16]
    14f2:	2b00      	cmp	r3, #0
    14f4:	d011      	beq.n	151a <parseDHCPMSG+0x42>
    14f6:	4b8a      	ldr	r3, [pc, #552]	; (1720 <parseDHCPMSG+0x248>)
    14f8:	7818      	ldrb	r0, [r3, #0]
    14fa:	4b8a      	ldr	r3, [pc, #552]	; (1724 <parseDHCPMSG+0x24c>)
    14fc:	6819      	ldr	r1, [r3, #0]
    14fe:	1d3c      	adds	r4, r7, #4
    1500:	8a3a      	ldrh	r2, [r7, #16]
    1502:	1cbb      	adds	r3, r7, #2
    1504:	9300      	str	r3, [sp, #0]
    1506:	4623      	mov	r3, r4
    1508:	f000 ff68 	bl	23dc <recvfrom>
    150c:	4603      	mov	r3, r0
    150e:	823b      	strh	r3, [r7, #16]
    1510:	887b      	ldrh	r3, [r7, #2]
    1512:	2b43      	cmp	r3, #67	; 0x43
    1514:	f040 8145 	bne.w	17a2 <parseDHCPMSG+0x2ca>
    1518:	e001      	b.n	151e <parseDHCPMSG+0x46>
    151a:	2300      	movs	r3, #0
    151c:	e143      	b.n	17a6 <parseDHCPMSG+0x2ce>
    151e:	4b81      	ldr	r3, [pc, #516]	; (1724 <parseDHCPMSG+0x24c>)
    1520:	681b      	ldr	r3, [r3, #0]
    1522:	7f1a      	ldrb	r2, [r3, #28]
    1524:	4b80      	ldr	r3, [pc, #512]	; (1728 <parseDHCPMSG+0x250>)
    1526:	781b      	ldrb	r3, [r3, #0]
    1528:	429a      	cmp	r2, r3
    152a:	d124      	bne.n	1576 <parseDHCPMSG+0x9e>
    152c:	4b7d      	ldr	r3, [pc, #500]	; (1724 <parseDHCPMSG+0x24c>)
    152e:	681b      	ldr	r3, [r3, #0]
    1530:	7f5a      	ldrb	r2, [r3, #29]
    1532:	4b7d      	ldr	r3, [pc, #500]	; (1728 <parseDHCPMSG+0x250>)
    1534:	785b      	ldrb	r3, [r3, #1]
    1536:	429a      	cmp	r2, r3
    1538:	d11d      	bne.n	1576 <parseDHCPMSG+0x9e>
    153a:	4b7a      	ldr	r3, [pc, #488]	; (1724 <parseDHCPMSG+0x24c>)
    153c:	681b      	ldr	r3, [r3, #0]
    153e:	7f9a      	ldrb	r2, [r3, #30]
    1540:	4b79      	ldr	r3, [pc, #484]	; (1728 <parseDHCPMSG+0x250>)
    1542:	789b      	ldrb	r3, [r3, #2]
    1544:	429a      	cmp	r2, r3
    1546:	d116      	bne.n	1576 <parseDHCPMSG+0x9e>
    1548:	4b76      	ldr	r3, [pc, #472]	; (1724 <parseDHCPMSG+0x24c>)
    154a:	681b      	ldr	r3, [r3, #0]
    154c:	7fda      	ldrb	r2, [r3, #31]
    154e:	4b76      	ldr	r3, [pc, #472]	; (1728 <parseDHCPMSG+0x250>)
    1550:	78db      	ldrb	r3, [r3, #3]
    1552:	429a      	cmp	r2, r3
    1554:	d10f      	bne.n	1576 <parseDHCPMSG+0x9e>
    1556:	4b73      	ldr	r3, [pc, #460]	; (1724 <parseDHCPMSG+0x24c>)
    1558:	681b      	ldr	r3, [r3, #0]
    155a:	f893 2020 	ldrb.w	r2, [r3, #32]
    155e:	4b72      	ldr	r3, [pc, #456]	; (1728 <parseDHCPMSG+0x250>)
    1560:	791b      	ldrb	r3, [r3, #4]
    1562:	429a      	cmp	r2, r3
    1564:	d107      	bne.n	1576 <parseDHCPMSG+0x9e>
    1566:	4b6f      	ldr	r3, [pc, #444]	; (1724 <parseDHCPMSG+0x24c>)
    1568:	681b      	ldr	r3, [r3, #0]
    156a:	f893 2021 	ldrb.w	r2, [r3, #33]	; 0x21
    156e:	4b6e      	ldr	r3, [pc, #440]	; (1728 <parseDHCPMSG+0x250>)
    1570:	795b      	ldrb	r3, [r3, #5]
    1572:	429a      	cmp	r2, r3
    1574:	d001      	beq.n	157a <parseDHCPMSG+0xa2>
    1576:	2300      	movs	r3, #0
    1578:	e115      	b.n	17a6 <parseDHCPMSG+0x2ce>
    157a:	4b6a      	ldr	r3, [pc, #424]	; (1724 <parseDHCPMSG+0x24c>)
    157c:	681b      	ldr	r3, [r3, #0]
    157e:	617b      	str	r3, [r7, #20]
    1580:	697b      	ldr	r3, [r7, #20]
    1582:	33f0      	adds	r3, #240	; 0xf0
    1584:	617b      	str	r3, [r7, #20]
    1586:	8a3b      	ldrh	r3, [r7, #16]
    1588:	3bf0      	subs	r3, #240	; 0xf0
    158a:	697a      	ldr	r2, [r7, #20]
    158c:	4413      	add	r3, r2
    158e:	60fb      	str	r3, [r7, #12]
    1590:	e102      	b.n	1798 <parseDHCPMSG+0x2c0>
    1592:	697b      	ldr	r3, [r7, #20]
    1594:	781b      	ldrb	r3, [r3, #0]
    1596:	2b06      	cmp	r3, #6
    1598:	d06e      	beq.n	1678 <parseDHCPMSG+0x1a0>
    159a:	2b06      	cmp	r3, #6
    159c:	dc06      	bgt.n	15ac <parseDHCPMSG+0xd4>
    159e:	2b01      	cmp	r3, #1
    15a0:	d025      	beq.n	15ee <parseDHCPMSG+0x116>
    15a2:	2b03      	cmp	r3, #3
    15a4:	d042      	beq.n	162c <parseDHCPMSG+0x154>
    15a6:	2b00      	cmp	r3, #0
    15a8:	d011      	beq.n	15ce <parseDHCPMSG+0xf6>
    15aa:	e0e8      	b.n	177e <parseDHCPMSG+0x2a6>
    15ac:	2b35      	cmp	r3, #53	; 0x35
    15ae:	d012      	beq.n	15d6 <parseDHCPMSG+0xfe>
    15b0:	2b35      	cmp	r3, #53	; 0x35
    15b2:	dc03      	bgt.n	15bc <parseDHCPMSG+0xe4>
    15b4:	2b33      	cmp	r3, #51	; 0x33
    15b6:	f000 8085 	beq.w	16c4 <parseDHCPMSG+0x1ec>
    15ba:	e0e0      	b.n	177e <parseDHCPMSG+0x2a6>
    15bc:	2b36      	cmp	r3, #54	; 0x36
    15be:	f000 80bd 	beq.w	173c <parseDHCPMSG+0x264>
    15c2:	2bff      	cmp	r3, #255	; 0xff
    15c4:	f040 80db 	bne.w	177e <parseDHCPMSG+0x2a6>
    15c8:	68fb      	ldr	r3, [r7, #12]
    15ca:	617b      	str	r3, [r7, #20]
    15cc:	e0e4      	b.n	1798 <parseDHCPMSG+0x2c0>
    15ce:	697b      	ldr	r3, [r7, #20]
    15d0:	3301      	adds	r3, #1
    15d2:	617b      	str	r3, [r7, #20]
    15d4:	e0e0      	b.n	1798 <parseDHCPMSG+0x2c0>
    15d6:	697b      	ldr	r3, [r7, #20]
    15d8:	3301      	adds	r3, #1
    15da:	617b      	str	r3, [r7, #20]
    15dc:	697b      	ldr	r3, [r7, #20]
    15de:	3301      	adds	r3, #1
    15e0:	617b      	str	r3, [r7, #20]
    15e2:	697b      	ldr	r3, [r7, #20]
    15e4:	1c5a      	adds	r2, r3, #1
    15e6:	617a      	str	r2, [r7, #20]
    15e8:	781b      	ldrb	r3, [r3, #0]
    15ea:	74fb      	strb	r3, [r7, #19]
    15ec:	e0d4      	b.n	1798 <parseDHCPMSG+0x2c0>
    15ee:	697b      	ldr	r3, [r7, #20]
    15f0:	3301      	adds	r3, #1
    15f2:	617b      	str	r3, [r7, #20]
    15f4:	697b      	ldr	r3, [r7, #20]
    15f6:	3301      	adds	r3, #1
    15f8:	617b      	str	r3, [r7, #20]
    15fa:	697b      	ldr	r3, [r7, #20]
    15fc:	1c5a      	adds	r2, r3, #1
    15fe:	617a      	str	r2, [r7, #20]
    1600:	781a      	ldrb	r2, [r3, #0]
    1602:	4b4a      	ldr	r3, [pc, #296]	; (172c <parseDHCPMSG+0x254>)
    1604:	701a      	strb	r2, [r3, #0]
    1606:	697b      	ldr	r3, [r7, #20]
    1608:	1c5a      	adds	r2, r3, #1
    160a:	617a      	str	r2, [r7, #20]
    160c:	781a      	ldrb	r2, [r3, #0]
    160e:	4b47      	ldr	r3, [pc, #284]	; (172c <parseDHCPMSG+0x254>)
    1610:	705a      	strb	r2, [r3, #1]
    1612:	697b      	ldr	r3, [r7, #20]
    1614:	1c5a      	adds	r2, r3, #1
    1616:	617a      	str	r2, [r7, #20]
    1618:	781a      	ldrb	r2, [r3, #0]
    161a:	4b44      	ldr	r3, [pc, #272]	; (172c <parseDHCPMSG+0x254>)
    161c:	709a      	strb	r2, [r3, #2]
    161e:	697b      	ldr	r3, [r7, #20]
    1620:	1c5a      	adds	r2, r3, #1
    1622:	617a      	str	r2, [r7, #20]
    1624:	781a      	ldrb	r2, [r3, #0]
    1626:	4b41      	ldr	r3, [pc, #260]	; (172c <parseDHCPMSG+0x254>)
    1628:	70da      	strb	r2, [r3, #3]
    162a:	e0b5      	b.n	1798 <parseDHCPMSG+0x2c0>
    162c:	697b      	ldr	r3, [r7, #20]
    162e:	3301      	adds	r3, #1
    1630:	617b      	str	r3, [r7, #20]
    1632:	697b      	ldr	r3, [r7, #20]
    1634:	1c5a      	adds	r2, r3, #1
    1636:	617a      	str	r2, [r7, #20]
    1638:	781b      	ldrb	r3, [r3, #0]
    163a:	72fb      	strb	r3, [r7, #11]
    163c:	697b      	ldr	r3, [r7, #20]
    163e:	1c5a      	adds	r2, r3, #1
    1640:	617a      	str	r2, [r7, #20]
    1642:	781a      	ldrb	r2, [r3, #0]
    1644:	4b3a      	ldr	r3, [pc, #232]	; (1730 <parseDHCPMSG+0x258>)
    1646:	701a      	strb	r2, [r3, #0]
    1648:	697b      	ldr	r3, [r7, #20]
    164a:	1c5a      	adds	r2, r3, #1
    164c:	617a      	str	r2, [r7, #20]
    164e:	781a      	ldrb	r2, [r3, #0]
    1650:	4b37      	ldr	r3, [pc, #220]	; (1730 <parseDHCPMSG+0x258>)
    1652:	705a      	strb	r2, [r3, #1]
    1654:	697b      	ldr	r3, [r7, #20]
    1656:	1c5a      	adds	r2, r3, #1
    1658:	617a      	str	r2, [r7, #20]
    165a:	781a      	ldrb	r2, [r3, #0]
    165c:	4b34      	ldr	r3, [pc, #208]	; (1730 <parseDHCPMSG+0x258>)
    165e:	709a      	strb	r2, [r3, #2]
    1660:	697b      	ldr	r3, [r7, #20]
    1662:	1c5a      	adds	r2, r3, #1
    1664:	617a      	str	r2, [r7, #20]
    1666:	781a      	ldrb	r2, [r3, #0]
    1668:	4b31      	ldr	r3, [pc, #196]	; (1730 <parseDHCPMSG+0x258>)
    166a:	70da      	strb	r2, [r3, #3]
    166c:	7afb      	ldrb	r3, [r7, #11]
    166e:	3b04      	subs	r3, #4
    1670:	697a      	ldr	r2, [r7, #20]
    1672:	4413      	add	r3, r2
    1674:	617b      	str	r3, [r7, #20]
    1676:	e08f      	b.n	1798 <parseDHCPMSG+0x2c0>
    1678:	697b      	ldr	r3, [r7, #20]
    167a:	3301      	adds	r3, #1
    167c:	617b      	str	r3, [r7, #20]
    167e:	697b      	ldr	r3, [r7, #20]
    1680:	1c5a      	adds	r2, r3, #1
    1682:	617a      	str	r2, [r7, #20]
    1684:	781b      	ldrb	r3, [r3, #0]
    1686:	72fb      	strb	r3, [r7, #11]
    1688:	697b      	ldr	r3, [r7, #20]
    168a:	1c5a      	adds	r2, r3, #1
    168c:	617a      	str	r2, [r7, #20]
    168e:	781a      	ldrb	r2, [r3, #0]
    1690:	4b28      	ldr	r3, [pc, #160]	; (1734 <parseDHCPMSG+0x25c>)
    1692:	701a      	strb	r2, [r3, #0]
    1694:	697b      	ldr	r3, [r7, #20]
    1696:	1c5a      	adds	r2, r3, #1
    1698:	617a      	str	r2, [r7, #20]
    169a:	781a      	ldrb	r2, [r3, #0]
    169c:	4b25      	ldr	r3, [pc, #148]	; (1734 <parseDHCPMSG+0x25c>)
    169e:	705a      	strb	r2, [r3, #1]
    16a0:	697b      	ldr	r3, [r7, #20]
    16a2:	1c5a      	adds	r2, r3, #1
    16a4:	617a      	str	r2, [r7, #20]
    16a6:	781a      	ldrb	r2, [r3, #0]
    16a8:	4b22      	ldr	r3, [pc, #136]	; (1734 <parseDHCPMSG+0x25c>)
    16aa:	709a      	strb	r2, [r3, #2]
    16ac:	697b      	ldr	r3, [r7, #20]
    16ae:	1c5a      	adds	r2, r3, #1
    16b0:	617a      	str	r2, [r7, #20]
    16b2:	781a      	ldrb	r2, [r3, #0]
    16b4:	4b1f      	ldr	r3, [pc, #124]	; (1734 <parseDHCPMSG+0x25c>)
    16b6:	70da      	strb	r2, [r3, #3]
    16b8:	7afb      	ldrb	r3, [r7, #11]
    16ba:	3b04      	subs	r3, #4
    16bc:	697a      	ldr	r2, [r7, #20]
    16be:	4413      	add	r3, r2
    16c0:	617b      	str	r3, [r7, #20]
    16c2:	e069      	b.n	1798 <parseDHCPMSG+0x2c0>
    16c4:	697b      	ldr	r3, [r7, #20]
    16c6:	3301      	adds	r3, #1
    16c8:	617b      	str	r3, [r7, #20]
    16ca:	697b      	ldr	r3, [r7, #20]
    16cc:	1c5a      	adds	r2, r3, #1
    16ce:	617a      	str	r2, [r7, #20]
    16d0:	781b      	ldrb	r3, [r3, #0]
    16d2:	72fb      	strb	r3, [r7, #11]
    16d4:	697b      	ldr	r3, [r7, #20]
    16d6:	1c5a      	adds	r2, r3, #1
    16d8:	617a      	str	r2, [r7, #20]
    16da:	781b      	ldrb	r3, [r3, #0]
    16dc:	461a      	mov	r2, r3
    16de:	4b16      	ldr	r3, [pc, #88]	; (1738 <parseDHCPMSG+0x260>)
    16e0:	601a      	str	r2, [r3, #0]
    16e2:	4b15      	ldr	r3, [pc, #84]	; (1738 <parseDHCPMSG+0x260>)
    16e4:	681b      	ldr	r3, [r3, #0]
    16e6:	021a      	lsls	r2, r3, #8
    16e8:	697b      	ldr	r3, [r7, #20]
    16ea:	1c59      	adds	r1, r3, #1
    16ec:	6179      	str	r1, [r7, #20]
    16ee:	781b      	ldrb	r3, [r3, #0]
    16f0:	4413      	add	r3, r2
    16f2:	4a11      	ldr	r2, [pc, #68]	; (1738 <parseDHCPMSG+0x260>)
    16f4:	6013      	str	r3, [r2, #0]
    16f6:	4b10      	ldr	r3, [pc, #64]	; (1738 <parseDHCPMSG+0x260>)
    16f8:	681b      	ldr	r3, [r3, #0]
    16fa:	021a      	lsls	r2, r3, #8
    16fc:	697b      	ldr	r3, [r7, #20]
    16fe:	1c59      	adds	r1, r3, #1
    1700:	6179      	str	r1, [r7, #20]
    1702:	781b      	ldrb	r3, [r3, #0]
    1704:	4413      	add	r3, r2
    1706:	4a0c      	ldr	r2, [pc, #48]	; (1738 <parseDHCPMSG+0x260>)
    1708:	6013      	str	r3, [r2, #0]
    170a:	4b0b      	ldr	r3, [pc, #44]	; (1738 <parseDHCPMSG+0x260>)
    170c:	681b      	ldr	r3, [r3, #0]
    170e:	021a      	lsls	r2, r3, #8
    1710:	697b      	ldr	r3, [r7, #20]
    1712:	1c59      	adds	r1, r3, #1
    1714:	6179      	str	r1, [r7, #20]
    1716:	781b      	ldrb	r3, [r3, #0]
    1718:	4413      	add	r3, r2
    171a:	4a07      	ldr	r2, [pc, #28]	; (1738 <parseDHCPMSG+0x260>)
    171c:	6013      	str	r3, [r2, #0]
    171e:	e03b      	b.n	1798 <parseDHCPMSG+0x2c0>
    1720:	20000ab4 	.word	0x20000ab4
    1724:	200000bc 	.word	0x200000bc
    1728:	200000c0 	.word	0x200000c0
    172c:	200000ac 	.word	0x200000ac
    1730:	200000a8 	.word	0x200000a8
    1734:	200000b0 	.word	0x200000b0
    1738:	20000000 	.word	0x20000000
    173c:	697b      	ldr	r3, [r7, #20]
    173e:	3301      	adds	r3, #1
    1740:	617b      	str	r3, [r7, #20]
    1742:	697b      	ldr	r3, [r7, #20]
    1744:	1c5a      	adds	r2, r3, #1
    1746:	617a      	str	r2, [r7, #20]
    1748:	781b      	ldrb	r3, [r3, #0]
    174a:	72fb      	strb	r3, [r7, #11]
    174c:	697b      	ldr	r3, [r7, #20]
    174e:	1c5a      	adds	r2, r3, #1
    1750:	617a      	str	r2, [r7, #20]
    1752:	781a      	ldrb	r2, [r3, #0]
    1754:	4b16      	ldr	r3, [pc, #88]	; (17b0 <parseDHCPMSG+0x2d8>)
    1756:	701a      	strb	r2, [r3, #0]
    1758:	697b      	ldr	r3, [r7, #20]
    175a:	1c5a      	adds	r2, r3, #1
    175c:	617a      	str	r2, [r7, #20]
    175e:	781a      	ldrb	r2, [r3, #0]
    1760:	4b13      	ldr	r3, [pc, #76]	; (17b0 <parseDHCPMSG+0x2d8>)
    1762:	705a      	strb	r2, [r3, #1]
    1764:	697b      	ldr	r3, [r7, #20]
    1766:	1c5a      	adds	r2, r3, #1
    1768:	617a      	str	r2, [r7, #20]
    176a:	781a      	ldrb	r2, [r3, #0]
    176c:	4b10      	ldr	r3, [pc, #64]	; (17b0 <parseDHCPMSG+0x2d8>)
    176e:	709a      	strb	r2, [r3, #2]
    1770:	697b      	ldr	r3, [r7, #20]
    1772:	1c5a      	adds	r2, r3, #1
    1774:	617a      	str	r2, [r7, #20]
    1776:	781a      	ldrb	r2, [r3, #0]
    1778:	4b0d      	ldr	r3, [pc, #52]	; (17b0 <parseDHCPMSG+0x2d8>)
    177a:	70da      	strb	r2, [r3, #3]
    177c:	e00c      	b.n	1798 <parseDHCPMSG+0x2c0>
    177e:	697b      	ldr	r3, [r7, #20]
    1780:	3301      	adds	r3, #1
    1782:	617b      	str	r3, [r7, #20]
    1784:	697b      	ldr	r3, [r7, #20]
    1786:	1c5a      	adds	r2, r3, #1
    1788:	617a      	str	r2, [r7, #20]
    178a:	781b      	ldrb	r3, [r3, #0]
    178c:	72fb      	strb	r3, [r7, #11]
    178e:	7afb      	ldrb	r3, [r7, #11]
    1790:	697a      	ldr	r2, [r7, #20]
    1792:	4413      	add	r3, r2
    1794:	617b      	str	r3, [r7, #20]
    1796:	bf00      	nop
    1798:	697a      	ldr	r2, [r7, #20]
    179a:	68fb      	ldr	r3, [r7, #12]
    179c:	429a      	cmp	r2, r3
    179e:	f4ff aef8 	bcc.w	1592 <parseDHCPMSG+0xba>
    17a2:	f997 3013 	ldrsb.w	r3, [r7, #19]
    17a6:	4618      	mov	r0, r3
    17a8:	371c      	adds	r7, #28
    17aa:	46bd      	mov	sp, r7
    17ac:	bd90      	pop	{r4, r7, pc}
    17ae:	bf00      	nop
    17b0:	2000009c 	.word	0x2000009c

000017b4 <DHCP_run>:
    17b4:	b580      	push	{r7, lr}
    17b6:	b082      	sub	sp, #8
    17b8:	af00      	add	r7, sp, #0
    17ba:	4b7e      	ldr	r3, [pc, #504]	; (19b4 <DHCP_run+0x200>)
    17bc:	f993 3000 	ldrsb.w	r3, [r3]
    17c0:	2b06      	cmp	r3, #6
    17c2:	d101      	bne.n	17c8 <DHCP_run+0x14>
    17c4:	2305      	movs	r3, #5
    17c6:	e0f1      	b.n	19ac <DHCP_run+0x1f8>
    17c8:	4b7b      	ldr	r3, [pc, #492]	; (19b8 <DHCP_run+0x204>)
    17ca:	781b      	ldrb	r3, [r3, #0]
    17cc:	3304      	adds	r3, #4
    17ce:	021b      	lsls	r3, r3, #8
    17d0:	3303      	adds	r3, #3
    17d2:	4618      	mov	r0, r3
    17d4:	f000 fa76 	bl	1cc4 <WIZCHIP_READ>
    17d8:	4603      	mov	r3, r0
    17da:	2b22      	cmp	r3, #34	; 0x22
    17dc:	d006      	beq.n	17ec <DHCP_run+0x38>
    17de:	4b76      	ldr	r3, [pc, #472]	; (19b8 <DHCP_run+0x204>)
    17e0:	7818      	ldrb	r0, [r3, #0]
    17e2:	2300      	movs	r3, #0
    17e4:	2244      	movs	r2, #68	; 0x44
    17e6:	2102      	movs	r1, #2
    17e8:	f000 fb36 	bl	1e58 <socket>
    17ec:	2301      	movs	r3, #1
    17ee:	71fb      	strb	r3, [r7, #7]
    17f0:	f7ff fe72 	bl	14d8 <parseDHCPMSG>
    17f4:	4603      	mov	r3, r0
    17f6:	71bb      	strb	r3, [r7, #6]
    17f8:	4b6e      	ldr	r3, [pc, #440]	; (19b4 <DHCP_run+0x200>)
    17fa:	f993 3000 	ldrsb.w	r3, [r3]
    17fe:	2b04      	cmp	r3, #4
    1800:	f200 80d0 	bhi.w	19a4 <DHCP_run+0x1f0>
    1804:	a201      	add	r2, pc, #4	; (adr r2, 180c <DHCP_run+0x58>)
    1806:	f852 f023 	ldr.w	pc, [r2, r3, lsl #2]
    180a:	bf00      	nop
    180c:	00001821 	.word	0x00001821
    1810:	00001845 	.word	0x00001845
    1814:	00001889 	.word	0x00001889
    1818:	000018d9 	.word	0x000018d9
    181c:	00001933 	.word	0x00001933
    1820:	4b66      	ldr	r3, [pc, #408]	; (19bc <DHCP_run+0x208>)
    1822:	2200      	movs	r2, #0
    1824:	701a      	strb	r2, [r3, #0]
    1826:	4b65      	ldr	r3, [pc, #404]	; (19bc <DHCP_run+0x208>)
    1828:	2200      	movs	r2, #0
    182a:	705a      	strb	r2, [r3, #1]
    182c:	4b63      	ldr	r3, [pc, #396]	; (19bc <DHCP_run+0x208>)
    182e:	2200      	movs	r2, #0
    1830:	709a      	strb	r2, [r3, #2]
    1832:	4b62      	ldr	r3, [pc, #392]	; (19bc <DHCP_run+0x208>)
    1834:	2200      	movs	r2, #0
    1836:	70da      	strb	r2, [r3, #3]
    1838:	f7ff f8c4 	bl	9c4 <send_DHCP_DISCOVER>
    183c:	4b5d      	ldr	r3, [pc, #372]	; (19b4 <DHCP_run+0x200>)
    183e:	2201      	movs	r2, #1
    1840:	701a      	strb	r2, [r3, #0]
    1842:	e0b2      	b.n	19aa <DHCP_run+0x1f6>
    1844:	79bb      	ldrb	r3, [r7, #6]
    1846:	2b02      	cmp	r3, #2
    1848:	d119      	bne.n	187e <DHCP_run+0xca>
    184a:	4b5d      	ldr	r3, [pc, #372]	; (19c0 <DHCP_run+0x20c>)
    184c:	681b      	ldr	r3, [r3, #0]
    184e:	7c1a      	ldrb	r2, [r3, #16]
    1850:	4b5a      	ldr	r3, [pc, #360]	; (19bc <DHCP_run+0x208>)
    1852:	701a      	strb	r2, [r3, #0]
    1854:	4b5a      	ldr	r3, [pc, #360]	; (19c0 <DHCP_run+0x20c>)
    1856:	681b      	ldr	r3, [r3, #0]
    1858:	7c5a      	ldrb	r2, [r3, #17]
    185a:	4b58      	ldr	r3, [pc, #352]	; (19bc <DHCP_run+0x208>)
    185c:	705a      	strb	r2, [r3, #1]
    185e:	4b58      	ldr	r3, [pc, #352]	; (19c0 <DHCP_run+0x20c>)
    1860:	681b      	ldr	r3, [r3, #0]
    1862:	7c9a      	ldrb	r2, [r3, #18]
    1864:	4b55      	ldr	r3, [pc, #340]	; (19bc <DHCP_run+0x208>)
    1866:	709a      	strb	r2, [r3, #2]
    1868:	4b55      	ldr	r3, [pc, #340]	; (19c0 <DHCP_run+0x20c>)
    186a:	681b      	ldr	r3, [r3, #0]
    186c:	7cda      	ldrb	r2, [r3, #19]
    186e:	4b53      	ldr	r3, [pc, #332]	; (19bc <DHCP_run+0x208>)
    1870:	70da      	strb	r2, [r3, #3]
    1872:	f7ff fa53 	bl	d1c <send_DHCP_REQUEST>
    1876:	4b4f      	ldr	r3, [pc, #316]	; (19b4 <DHCP_run+0x200>)
    1878:	2202      	movs	r2, #2
    187a:	701a      	strb	r2, [r3, #0]
    187c:	e095      	b.n	19aa <DHCP_run+0x1f6>
    187e:	f000 f8b1 	bl	19e4 <check_DHCP_timeout>
    1882:	4603      	mov	r3, r0
    1884:	71fb      	strb	r3, [r7, #7]
    1886:	e090      	b.n	19aa <DHCP_run+0x1f6>
    1888:	79bb      	ldrb	r3, [r7, #6]
    188a:	2b05      	cmp	r3, #5
    188c:	d116      	bne.n	18bc <DHCP_run+0x108>
    188e:	f000 f903 	bl	1a98 <check_DHCP_leasedIP>
    1892:	4603      	mov	r3, r0
    1894:	2b00      	cmp	r3, #0
    1896:	d008      	beq.n	18aa <DHCP_run+0xf6>
    1898:	4b4a      	ldr	r3, [pc, #296]	; (19c4 <DHCP_run+0x210>)
    189a:	681b      	ldr	r3, [r3, #0]
    189c:	4798      	blx	r3
    189e:	f000 f99f 	bl	1be0 <reset_DHCP_timeout>
    18a2:	4b44      	ldr	r3, [pc, #272]	; (19b4 <DHCP_run+0x200>)
    18a4:	2203      	movs	r2, #3
    18a6:	701a      	strb	r2, [r3, #0]
    18a8:	e07f      	b.n	19aa <DHCP_run+0x1f6>
    18aa:	f000 f999 	bl	1be0 <reset_DHCP_timeout>
    18ae:	4b46      	ldr	r3, [pc, #280]	; (19c8 <DHCP_run+0x214>)
    18b0:	681b      	ldr	r3, [r3, #0]
    18b2:	4798      	blx	r3
    18b4:	4b3f      	ldr	r3, [pc, #252]	; (19b4 <DHCP_run+0x200>)
    18b6:	2200      	movs	r2, #0
    18b8:	701a      	strb	r2, [r3, #0]
    18ba:	e076      	b.n	19aa <DHCP_run+0x1f6>
    18bc:	79bb      	ldrb	r3, [r7, #6]
    18be:	2b06      	cmp	r3, #6
    18c0:	d105      	bne.n	18ce <DHCP_run+0x11a>
    18c2:	f000 f98d 	bl	1be0 <reset_DHCP_timeout>
    18c6:	4b3b      	ldr	r3, [pc, #236]	; (19b4 <DHCP_run+0x200>)
    18c8:	2201      	movs	r2, #1
    18ca:	701a      	strb	r2, [r3, #0]
    18cc:	e06d      	b.n	19aa <DHCP_run+0x1f6>
    18ce:	f000 f889 	bl	19e4 <check_DHCP_timeout>
    18d2:	4603      	mov	r3, r0
    18d4:	71fb      	strb	r3, [r7, #7]
    18d6:	e068      	b.n	19aa <DHCP_run+0x1f6>
    18d8:	2304      	movs	r3, #4
    18da:	71fb      	strb	r3, [r7, #7]
    18dc:	4b3b      	ldr	r3, [pc, #236]	; (19cc <DHCP_run+0x218>)
    18de:	681b      	ldr	r3, [r3, #0]
    18e0:	f1b3 3fff 	cmp.w	r3, #4294967295
    18e4:	d060      	beq.n	19a8 <DHCP_run+0x1f4>
    18e6:	4b39      	ldr	r3, [pc, #228]	; (19cc <DHCP_run+0x218>)
    18e8:	681b      	ldr	r3, [r3, #0]
    18ea:	085a      	lsrs	r2, r3, #1
    18ec:	4b38      	ldr	r3, [pc, #224]	; (19d0 <DHCP_run+0x21c>)
    18ee:	681b      	ldr	r3, [r3, #0]
    18f0:	429a      	cmp	r2, r3
    18f2:	d259      	bcs.n	19a8 <DHCP_run+0x1f4>
    18f4:	2300      	movs	r3, #0
    18f6:	71bb      	strb	r3, [r7, #6]
    18f8:	4b30      	ldr	r3, [pc, #192]	; (19bc <DHCP_run+0x208>)
    18fa:	781a      	ldrb	r2, [r3, #0]
    18fc:	4b35      	ldr	r3, [pc, #212]	; (19d4 <DHCP_run+0x220>)
    18fe:	701a      	strb	r2, [r3, #0]
    1900:	4b2e      	ldr	r3, [pc, #184]	; (19bc <DHCP_run+0x208>)
    1902:	785a      	ldrb	r2, [r3, #1]
    1904:	4b33      	ldr	r3, [pc, #204]	; (19d4 <DHCP_run+0x220>)
    1906:	705a      	strb	r2, [r3, #1]
    1908:	4b2c      	ldr	r3, [pc, #176]	; (19bc <DHCP_run+0x208>)
    190a:	789a      	ldrb	r2, [r3, #2]
    190c:	4b31      	ldr	r3, [pc, #196]	; (19d4 <DHCP_run+0x220>)
    190e:	709a      	strb	r2, [r3, #2]
    1910:	4b2a      	ldr	r3, [pc, #168]	; (19bc <DHCP_run+0x208>)
    1912:	78da      	ldrb	r2, [r3, #3]
    1914:	4b2f      	ldr	r3, [pc, #188]	; (19d4 <DHCP_run+0x220>)
    1916:	70da      	strb	r2, [r3, #3]
    1918:	4b2f      	ldr	r3, [pc, #188]	; (19d8 <DHCP_run+0x224>)
    191a:	681b      	ldr	r3, [r3, #0]
    191c:	3301      	adds	r3, #1
    191e:	4a2e      	ldr	r2, [pc, #184]	; (19d8 <DHCP_run+0x224>)
    1920:	6013      	str	r3, [r2, #0]
    1922:	f7ff f9fb 	bl	d1c <send_DHCP_REQUEST>
    1926:	f000 f95b 	bl	1be0 <reset_DHCP_timeout>
    192a:	4b22      	ldr	r3, [pc, #136]	; (19b4 <DHCP_run+0x200>)
    192c:	2204      	movs	r2, #4
    192e:	701a      	strb	r2, [r3, #0]
    1930:	e03a      	b.n	19a8 <DHCP_run+0x1f4>
    1932:	2304      	movs	r3, #4
    1934:	71fb      	strb	r3, [r7, #7]
    1936:	79bb      	ldrb	r3, [r7, #6]
    1938:	2b05      	cmp	r3, #5
    193a:	d125      	bne.n	1988 <DHCP_run+0x1d4>
    193c:	4b27      	ldr	r3, [pc, #156]	; (19dc <DHCP_run+0x228>)
    193e:	2200      	movs	r2, #0
    1940:	701a      	strb	r2, [r3, #0]
    1942:	4b24      	ldr	r3, [pc, #144]	; (19d4 <DHCP_run+0x220>)
    1944:	781a      	ldrb	r2, [r3, #0]
    1946:	4b1d      	ldr	r3, [pc, #116]	; (19bc <DHCP_run+0x208>)
    1948:	781b      	ldrb	r3, [r3, #0]
    194a:	429a      	cmp	r2, r3
    194c:	d111      	bne.n	1972 <DHCP_run+0x1be>
    194e:	4b21      	ldr	r3, [pc, #132]	; (19d4 <DHCP_run+0x220>)
    1950:	785a      	ldrb	r2, [r3, #1]
    1952:	4b1a      	ldr	r3, [pc, #104]	; (19bc <DHCP_run+0x208>)
    1954:	785b      	ldrb	r3, [r3, #1]
    1956:	429a      	cmp	r2, r3
    1958:	d10b      	bne.n	1972 <DHCP_run+0x1be>
    195a:	4b1e      	ldr	r3, [pc, #120]	; (19d4 <DHCP_run+0x220>)
    195c:	789a      	ldrb	r2, [r3, #2]
    195e:	4b17      	ldr	r3, [pc, #92]	; (19bc <DHCP_run+0x208>)
    1960:	789b      	ldrb	r3, [r3, #2]
    1962:	429a      	cmp	r2, r3
    1964:	d105      	bne.n	1972 <DHCP_run+0x1be>
    1966:	4b1b      	ldr	r3, [pc, #108]	; (19d4 <DHCP_run+0x220>)
    1968:	78da      	ldrb	r2, [r3, #3]
    196a:	4b14      	ldr	r3, [pc, #80]	; (19bc <DHCP_run+0x208>)
    196c:	78db      	ldrb	r3, [r3, #3]
    196e:	429a      	cmp	r2, r3
    1970:	d004      	beq.n	197c <DHCP_run+0x1c8>
    1972:	2303      	movs	r3, #3
    1974:	71fb      	strb	r3, [r7, #7]
    1976:	4b1a      	ldr	r3, [pc, #104]	; (19e0 <DHCP_run+0x22c>)
    1978:	681b      	ldr	r3, [r3, #0]
    197a:	4798      	blx	r3
    197c:	f000 f930 	bl	1be0 <reset_DHCP_timeout>
    1980:	4b0c      	ldr	r3, [pc, #48]	; (19b4 <DHCP_run+0x200>)
    1982:	2203      	movs	r2, #3
    1984:	701a      	strb	r2, [r3, #0]
    1986:	e010      	b.n	19aa <DHCP_run+0x1f6>
    1988:	79bb      	ldrb	r3, [r7, #6]
    198a:	2b06      	cmp	r3, #6
    198c:	d105      	bne.n	199a <DHCP_run+0x1e6>
    198e:	f000 f927 	bl	1be0 <reset_DHCP_timeout>
    1992:	4b08      	ldr	r3, [pc, #32]	; (19b4 <DHCP_run+0x200>)
    1994:	2201      	movs	r2, #1
    1996:	701a      	strb	r2, [r3, #0]
    1998:	e007      	b.n	19aa <DHCP_run+0x1f6>
    199a:	f000 f823 	bl	19e4 <check_DHCP_timeout>
    199e:	4603      	mov	r3, r0
    19a0:	71fb      	strb	r3, [r7, #7]
    19a2:	e002      	b.n	19aa <DHCP_run+0x1f6>
    19a4:	bf00      	nop
    19a6:	e000      	b.n	19aa <DHCP_run+0x1f6>
    19a8:	bf00      	nop
    19aa:	79fb      	ldrb	r3, [r7, #7]
    19ac:	4618      	mov	r0, r3
    19ae:	3708      	adds	r7, #8
    19b0:	46bd      	mov	sp, r7
    19b2:	bd80      	pop	{r7, pc}
    19b4:	20000ab5 	.word	0x20000ab5
    19b8:	20000ab4 	.word	0x20000ab4
    19bc:	200000a4 	.word	0x200000a4
    19c0:	200000bc 	.word	0x200000bc
    19c4:	20000010 	.word	0x20000010
    19c8:	20000018 	.word	0x20000018
    19cc:	20000000 	.word	0x20000000
    19d0:	200000b4 	.word	0x200000b4
    19d4:	200000a0 	.word	0x200000a0
    19d8:	200000b8 	.word	0x200000b8
    19dc:	20000ab6 	.word	0x20000ab6
    19e0:	20000014 	.word	0x20000014

000019e4 <check_DHCP_timeout>:
    19e4:	b580      	push	{r7, lr}
    19e6:	b082      	sub	sp, #8
    19e8:	af00      	add	r7, sp, #0
    19ea:	2301      	movs	r3, #1
    19ec:	71fb      	strb	r3, [r7, #7]
    19ee:	4b26      	ldr	r3, [pc, #152]	; (1a88 <check_DHCP_timeout+0xa4>)
    19f0:	f993 3000 	ldrsb.w	r3, [r3]
    19f4:	2b01      	cmp	r3, #1
    19f6:	dc2a      	bgt.n	1a4e <check_DHCP_timeout+0x6a>
    19f8:	4b24      	ldr	r3, [pc, #144]	; (1a8c <check_DHCP_timeout+0xa8>)
    19fa:	681a      	ldr	r2, [r3, #0]
    19fc:	4b24      	ldr	r3, [pc, #144]	; (1a90 <check_DHCP_timeout+0xac>)
    19fe:	681b      	ldr	r3, [r3, #0]
    1a00:	429a      	cmp	r2, r3
    1a02:	d23c      	bcs.n	1a7e <check_DHCP_timeout+0x9a>
    1a04:	4b23      	ldr	r3, [pc, #140]	; (1a94 <check_DHCP_timeout+0xb0>)
    1a06:	f993 3000 	ldrsb.w	r3, [r3]
    1a0a:	2b02      	cmp	r3, #2
    1a0c:	d006      	beq.n	1a1c <check_DHCP_timeout+0x38>
    1a0e:	2b04      	cmp	r3, #4
    1a10:	d007      	beq.n	1a22 <check_DHCP_timeout+0x3e>
    1a12:	2b01      	cmp	r3, #1
    1a14:	d108      	bne.n	1a28 <check_DHCP_timeout+0x44>
    1a16:	f7fe ffd5 	bl	9c4 <send_DHCP_DISCOVER>
    1a1a:	e006      	b.n	1a2a <check_DHCP_timeout+0x46>
    1a1c:	f7ff f97e 	bl	d1c <send_DHCP_REQUEST>
    1a20:	e003      	b.n	1a2a <check_DHCP_timeout+0x46>
    1a22:	f7ff f97b 	bl	d1c <send_DHCP_REQUEST>
    1a26:	e000      	b.n	1a2a <check_DHCP_timeout+0x46>
    1a28:	bf00      	nop
    1a2a:	4b19      	ldr	r3, [pc, #100]	; (1a90 <check_DHCP_timeout+0xac>)
    1a2c:	2200      	movs	r2, #0
    1a2e:	601a      	str	r2, [r3, #0]
    1a30:	4b17      	ldr	r3, [pc, #92]	; (1a90 <check_DHCP_timeout+0xac>)
    1a32:	681b      	ldr	r3, [r3, #0]
    1a34:	330a      	adds	r3, #10
    1a36:	4a15      	ldr	r2, [pc, #84]	; (1a8c <check_DHCP_timeout+0xa8>)
    1a38:	6013      	str	r3, [r2, #0]
    1a3a:	4b13      	ldr	r3, [pc, #76]	; (1a88 <check_DHCP_timeout+0xa4>)
    1a3c:	f993 3000 	ldrsb.w	r3, [r3]
    1a40:	b2db      	uxtb	r3, r3
    1a42:	3301      	adds	r3, #1
    1a44:	b2db      	uxtb	r3, r3
    1a46:	b25a      	sxtb	r2, r3
    1a48:	4b0f      	ldr	r3, [pc, #60]	; (1a88 <check_DHCP_timeout+0xa4>)
    1a4a:	701a      	strb	r2, [r3, #0]
    1a4c:	e017      	b.n	1a7e <check_DHCP_timeout+0x9a>
    1a4e:	4b11      	ldr	r3, [pc, #68]	; (1a94 <check_DHCP_timeout+0xb0>)
    1a50:	f993 3000 	ldrsb.w	r3, [r3]
    1a54:	2b02      	cmp	r3, #2
    1a56:	d009      	beq.n	1a6c <check_DHCP_timeout+0x88>
    1a58:	2b04      	cmp	r3, #4
    1a5a:	d007      	beq.n	1a6c <check_DHCP_timeout+0x88>
    1a5c:	2b01      	cmp	r3, #1
    1a5e:	d10b      	bne.n	1a78 <check_DHCP_timeout+0x94>
    1a60:	4b0c      	ldr	r3, [pc, #48]	; (1a94 <check_DHCP_timeout+0xb0>)
    1a62:	2200      	movs	r2, #0
    1a64:	701a      	strb	r2, [r3, #0]
    1a66:	2300      	movs	r3, #0
    1a68:	71fb      	strb	r3, [r7, #7]
    1a6a:	e006      	b.n	1a7a <check_DHCP_timeout+0x96>
    1a6c:	f7fe ffaa 	bl	9c4 <send_DHCP_DISCOVER>
    1a70:	4b08      	ldr	r3, [pc, #32]	; (1a94 <check_DHCP_timeout+0xb0>)
    1a72:	2201      	movs	r2, #1
    1a74:	701a      	strb	r2, [r3, #0]
    1a76:	e000      	b.n	1a7a <check_DHCP_timeout+0x96>
    1a78:	bf00      	nop
    1a7a:	f000 f8b1 	bl	1be0 <reset_DHCP_timeout>
    1a7e:	79fb      	ldrb	r3, [r7, #7]
    1a80:	4618      	mov	r0, r3
    1a82:	3708      	adds	r7, #8
    1a84:	46bd      	mov	sp, r7
    1a86:	bd80      	pop	{r7, pc}
    1a88:	20000ab6 	.word	0x20000ab6
    1a8c:	20000004 	.word	0x20000004
    1a90:	200000b4 	.word	0x200000b4
    1a94:	20000ab5 	.word	0x20000ab5

00001a98 <check_DHCP_leasedIP>:
    1a98:	b580      	push	{r7, lr}
    1a9a:	b084      	sub	sp, #16
    1a9c:	af02      	add	r7, sp, #8
    1a9e:	2019      	movs	r0, #25
    1aa0:	f000 f910 	bl	1cc4 <WIZCHIP_READ>
    1aa4:	4603      	mov	r3, r0
    1aa6:	71fb      	strb	r3, [r7, #7]
    1aa8:	2103      	movs	r1, #3
    1aaa:	2019      	movs	r0, #25
    1aac:	f000 f8dc 	bl	1c68 <WIZCHIP_WRITE>
    1ab0:	4b13      	ldr	r3, [pc, #76]	; (1b00 <check_DHCP_leasedIP+0x68>)
    1ab2:	7818      	ldrb	r0, [r3, #0]
    1ab4:	f241 3388 	movw	r3, #5000	; 0x1388
    1ab8:	9300      	str	r3, [sp, #0]
    1aba:	4b12      	ldr	r3, [pc, #72]	; (1b04 <check_DHCP_leasedIP+0x6c>)
    1abc:	2211      	movs	r2, #17
    1abe:	4912      	ldr	r1, [pc, #72]	; (1b08 <check_DHCP_leasedIP+0x70>)
    1ac0:	f000 fb36 	bl	2130 <sendto>
    1ac4:	6038      	str	r0, [r7, #0]
    1ac6:	79fb      	ldrb	r3, [r7, #7]
    1ac8:	4619      	mov	r1, r3
    1aca:	2019      	movs	r0, #25
    1acc:	f000 f8cc 	bl	1c68 <WIZCHIP_WRITE>
    1ad0:	683b      	ldr	r3, [r7, #0]
    1ad2:	f113 0f0d 	cmn.w	r3, #13
    1ad6:	d101      	bne.n	1adc <check_DHCP_leasedIP+0x44>
    1ad8:	2301      	movs	r3, #1
    1ada:	e00c      	b.n	1af6 <check_DHCP_leasedIP+0x5e>
    1adc:	f7ff fbaa 	bl	1234 <send_DHCP_DECLINE>
    1ae0:	4b0a      	ldr	r3, [pc, #40]	; (1b0c <check_DHCP_leasedIP+0x74>)
    1ae2:	681b      	ldr	r3, [r3, #0]
    1ae4:	603b      	str	r3, [r7, #0]
    1ae6:	bf00      	nop
    1ae8:	4b08      	ldr	r3, [pc, #32]	; (1b0c <check_DHCP_leasedIP+0x74>)
    1aea:	681a      	ldr	r2, [r3, #0]
    1aec:	683b      	ldr	r3, [r7, #0]
    1aee:	1ad3      	subs	r3, r2, r3
    1af0:	2b01      	cmp	r3, #1
    1af2:	d9f9      	bls.n	1ae8 <check_DHCP_leasedIP+0x50>
    1af4:	2300      	movs	r3, #0
    1af6:	4618      	mov	r0, r3
    1af8:	3708      	adds	r7, #8
    1afa:	46bd      	mov	sp, r7
    1afc:	bd80      	pop	{r7, pc}
    1afe:	bf00      	nop
    1b00:	20000ab4 	.word	0x20000ab4
    1b04:	200000a4 	.word	0x200000a4
    1b08:	0000a860 	.word	0x0000a860
    1b0c:	200000b4 	.word	0x200000b4

00001b10 <DHCP_init>:
    1b10:	b580      	push	{r7, lr}
    1b12:	b084      	sub	sp, #16
    1b14:	af00      	add	r7, sp, #0
    1b16:	4603      	mov	r3, r0
    1b18:	6039      	str	r1, [r7, #0]
    1b1a:	71fb      	strb	r3, [r7, #7]
    1b1c:	2300      	movs	r3, #0
    1b1e:	60fb      	str	r3, [r7, #12]
    1b20:	2206      	movs	r2, #6
    1b22:	4929      	ldr	r1, [pc, #164]	; (1bc8 <DHCP_init+0xb8>)
    1b24:	2009      	movs	r0, #9
    1b26:	f000 f949 	bl	1dbc <WIZCHIP_READ_BUF>
    1b2a:	4b27      	ldr	r3, [pc, #156]	; (1bc8 <DHCP_init+0xb8>)
    1b2c:	781a      	ldrb	r2, [r3, #0]
    1b2e:	4b26      	ldr	r3, [pc, #152]	; (1bc8 <DHCP_init+0xb8>)
    1b30:	785b      	ldrb	r3, [r3, #1]
    1b32:	4313      	orrs	r3, r2
    1b34:	b2da      	uxtb	r2, r3
    1b36:	4b24      	ldr	r3, [pc, #144]	; (1bc8 <DHCP_init+0xb8>)
    1b38:	789b      	ldrb	r3, [r3, #2]
    1b3a:	4313      	orrs	r3, r2
    1b3c:	b2da      	uxtb	r2, r3
    1b3e:	4b22      	ldr	r3, [pc, #136]	; (1bc8 <DHCP_init+0xb8>)
    1b40:	78db      	ldrb	r3, [r3, #3]
    1b42:	4313      	orrs	r3, r2
    1b44:	b2da      	uxtb	r2, r3
    1b46:	4b20      	ldr	r3, [pc, #128]	; (1bc8 <DHCP_init+0xb8>)
    1b48:	791b      	ldrb	r3, [r3, #4]
    1b4a:	4313      	orrs	r3, r2
    1b4c:	b2da      	uxtb	r2, r3
    1b4e:	4b1e      	ldr	r3, [pc, #120]	; (1bc8 <DHCP_init+0xb8>)
    1b50:	795b      	ldrb	r3, [r3, #5]
    1b52:	4313      	orrs	r3, r2
    1b54:	b2db      	uxtb	r3, r3
    1b56:	2b00      	cmp	r3, #0
    1b58:	d116      	bne.n	1b88 <DHCP_init+0x78>
    1b5a:	4b1b      	ldr	r3, [pc, #108]	; (1bc8 <DHCP_init+0xb8>)
    1b5c:	2200      	movs	r2, #0
    1b5e:	701a      	strb	r2, [r3, #0]
    1b60:	4b19      	ldr	r3, [pc, #100]	; (1bc8 <DHCP_init+0xb8>)
    1b62:	2208      	movs	r2, #8
    1b64:	705a      	strb	r2, [r3, #1]
    1b66:	4b18      	ldr	r3, [pc, #96]	; (1bc8 <DHCP_init+0xb8>)
    1b68:	22dc      	movs	r2, #220	; 0xdc
    1b6a:	709a      	strb	r2, [r3, #2]
    1b6c:	4b16      	ldr	r3, [pc, #88]	; (1bc8 <DHCP_init+0xb8>)
    1b6e:	2200      	movs	r2, #0
    1b70:	70da      	strb	r2, [r3, #3]
    1b72:	4b15      	ldr	r3, [pc, #84]	; (1bc8 <DHCP_init+0xb8>)
    1b74:	2200      	movs	r2, #0
    1b76:	711a      	strb	r2, [r3, #4]
    1b78:	4b13      	ldr	r3, [pc, #76]	; (1bc8 <DHCP_init+0xb8>)
    1b7a:	2200      	movs	r2, #0
    1b7c:	715a      	strb	r2, [r3, #5]
    1b7e:	2206      	movs	r2, #6
    1b80:	4911      	ldr	r1, [pc, #68]	; (1bc8 <DHCP_init+0xb8>)
    1b82:	2009      	movs	r0, #9
    1b84:	f000 f8cc 	bl	1d20 <WIZCHIP_WRITE_BUF>
    1b88:	4a10      	ldr	r2, [pc, #64]	; (1bcc <DHCP_init+0xbc>)
    1b8a:	79fb      	ldrb	r3, [r7, #7]
    1b8c:	7013      	strb	r3, [r2, #0]
    1b8e:	4a10      	ldr	r2, [pc, #64]	; (1bd0 <DHCP_init+0xc0>)
    1b90:	683b      	ldr	r3, [r7, #0]
    1b92:	6013      	str	r3, [r2, #0]
    1b94:	4b0f      	ldr	r3, [pc, #60]	; (1bd4 <DHCP_init+0xc4>)
    1b96:	4a10      	ldr	r2, [pc, #64]	; (1bd8 <DHCP_init+0xc8>)
    1b98:	601a      	str	r2, [r3, #0]
    1b9a:	f107 030c 	add.w	r3, r7, #12
    1b9e:	2204      	movs	r2, #4
    1ba0:	4619      	mov	r1, r3
    1ba2:	200f      	movs	r0, #15
    1ba4:	f000 f8bc 	bl	1d20 <WIZCHIP_WRITE_BUF>
    1ba8:	f107 030c 	add.w	r3, r7, #12
    1bac:	2204      	movs	r2, #4
    1bae:	4619      	mov	r1, r3
    1bb0:	2001      	movs	r0, #1
    1bb2:	f000 f8b5 	bl	1d20 <WIZCHIP_WRITE_BUF>
    1bb6:	f000 f813 	bl	1be0 <reset_DHCP_timeout>
    1bba:	4b08      	ldr	r3, [pc, #32]	; (1bdc <DHCP_init+0xcc>)
    1bbc:	2200      	movs	r2, #0
    1bbe:	701a      	strb	r2, [r3, #0]
    1bc0:	bf00      	nop
    1bc2:	3710      	adds	r7, #16
    1bc4:	46bd      	mov	sp, r7
    1bc6:	bd80      	pop	{r7, pc}
    1bc8:	200000c0 	.word	0x200000c0
    1bcc:	20000ab4 	.word	0x20000ab4
    1bd0:	200000bc 	.word	0x200000bc
    1bd4:	200000b8 	.word	0x200000b8
    1bd8:	12345678 	.word	0x12345678
    1bdc:	20000ab5 	.word	0x20000ab5

00001be0 <reset_DHCP_timeout>:
    1be0:	b480      	push	{r7}
    1be2:	af00      	add	r7, sp, #0
    1be4:	4b06      	ldr	r3, [pc, #24]	; (1c00 <reset_DHCP_timeout+0x20>)
    1be6:	2200      	movs	r2, #0
    1be8:	601a      	str	r2, [r3, #0]
    1bea:	4b06      	ldr	r3, [pc, #24]	; (1c04 <reset_DHCP_timeout+0x24>)
    1bec:	220a      	movs	r2, #10
    1bee:	601a      	str	r2, [r3, #0]
    1bf0:	4b05      	ldr	r3, [pc, #20]	; (1c08 <reset_DHCP_timeout+0x28>)
    1bf2:	2200      	movs	r2, #0
    1bf4:	701a      	strb	r2, [r3, #0]
    1bf6:	bf00      	nop
    1bf8:	46bd      	mov	sp, r7
    1bfa:	f85d 7b04 	ldr.w	r7, [sp], #4
    1bfe:	4770      	bx	lr
    1c00:	200000b4 	.word	0x200000b4
    1c04:	20000004 	.word	0x20000004
    1c08:	20000ab6 	.word	0x20000ab6

00001c0c <DHCP_time_handler>:
    1c0c:	b480      	push	{r7}
    1c0e:	af00      	add	r7, sp, #0
    1c10:	4b04      	ldr	r3, [pc, #16]	; (1c24 <DHCP_time_handler+0x18>)
    1c12:	681b      	ldr	r3, [r3, #0]
    1c14:	3301      	adds	r3, #1
    1c16:	4a03      	ldr	r2, [pc, #12]	; (1c24 <DHCP_time_handler+0x18>)
    1c18:	6013      	str	r3, [r2, #0]
    1c1a:	bf00      	nop
    1c1c:	46bd      	mov	sp, r7
    1c1e:	f85d 7b04 	ldr.w	r7, [sp], #4
    1c22:	4770      	bx	lr
    1c24:	200000b4 	.word	0x200000b4

00001c28 <getIPfromDHCP>:
    1c28:	b480      	push	{r7}
    1c2a:	b083      	sub	sp, #12
    1c2c:	af00      	add	r7, sp, #0
    1c2e:	6078      	str	r0, [r7, #4]
    1c30:	4b0c      	ldr	r3, [pc, #48]	; (1c64 <getIPfromDHCP+0x3c>)
    1c32:	781a      	ldrb	r2, [r3, #0]
    1c34:	687b      	ldr	r3, [r7, #4]
    1c36:	701a      	strb	r2, [r3, #0]
    1c38:	687b      	ldr	r3, [r7, #4]
    1c3a:	3301      	adds	r3, #1
    1c3c:	4a09      	ldr	r2, [pc, #36]	; (1c64 <getIPfromDHCP+0x3c>)
    1c3e:	7852      	ldrb	r2, [r2, #1]
    1c40:	701a      	strb	r2, [r3, #0]
    1c42:	687b      	ldr	r3, [r7, #4]
    1c44:	3302      	adds	r3, #2
    1c46:	4a07      	ldr	r2, [pc, #28]	; (1c64 <getIPfromDHCP+0x3c>)
    1c48:	7892      	ldrb	r2, [r2, #2]
    1c4a:	701a      	strb	r2, [r3, #0]
    1c4c:	687b      	ldr	r3, [r7, #4]
    1c4e:	3303      	adds	r3, #3
    1c50:	4a04      	ldr	r2, [pc, #16]	; (1c64 <getIPfromDHCP+0x3c>)
    1c52:	78d2      	ldrb	r2, [r2, #3]
    1c54:	701a      	strb	r2, [r3, #0]
    1c56:	bf00      	nop
    1c58:	370c      	adds	r7, #12
    1c5a:	46bd      	mov	sp, r7
    1c5c:	f85d 7b04 	ldr.w	r7, [sp], #4
    1c60:	4770      	bx	lr
    1c62:	bf00      	nop
    1c64:	200000a4 	.word	0x200000a4

00001c68 <WIZCHIP_WRITE>:
    1c68:	b580      	push	{r7, lr}
    1c6a:	b082      	sub	sp, #8
    1c6c:	af00      	add	r7, sp, #0
    1c6e:	6078      	str	r0, [r7, #4]
    1c70:	460b      	mov	r3, r1
    1c72:	70fb      	strb	r3, [r7, #3]
    1c74:	4b12      	ldr	r3, [pc, #72]	; (1cc0 <WIZCHIP_WRITE+0x58>)
    1c76:	68db      	ldr	r3, [r3, #12]
    1c78:	4798      	blx	r3
    1c7a:	4b11      	ldr	r3, [pc, #68]	; (1cc0 <WIZCHIP_WRITE+0x58>)
    1c7c:	695b      	ldr	r3, [r3, #20]
    1c7e:	4798      	blx	r3
    1c80:	4b0f      	ldr	r3, [pc, #60]	; (1cc0 <WIZCHIP_WRITE+0x58>)
    1c82:	6a1b      	ldr	r3, [r3, #32]
    1c84:	20f0      	movs	r0, #240	; 0xf0
    1c86:	4798      	blx	r3
    1c88:	4b0d      	ldr	r3, [pc, #52]	; (1cc0 <WIZCHIP_WRITE+0x58>)
    1c8a:	6a1b      	ldr	r3, [r3, #32]
    1c8c:	687a      	ldr	r2, [r7, #4]
    1c8e:	0a12      	lsrs	r2, r2, #8
    1c90:	b2d2      	uxtb	r2, r2
    1c92:	4610      	mov	r0, r2
    1c94:	4798      	blx	r3
    1c96:	4b0a      	ldr	r3, [pc, #40]	; (1cc0 <WIZCHIP_WRITE+0x58>)
    1c98:	6a1b      	ldr	r3, [r3, #32]
    1c9a:	687a      	ldr	r2, [r7, #4]
    1c9c:	b2d2      	uxtb	r2, r2
    1c9e:	4610      	mov	r0, r2
    1ca0:	4798      	blx	r3
    1ca2:	4b07      	ldr	r3, [pc, #28]	; (1cc0 <WIZCHIP_WRITE+0x58>)
    1ca4:	6a1b      	ldr	r3, [r3, #32]
    1ca6:	78fa      	ldrb	r2, [r7, #3]
    1ca8:	4610      	mov	r0, r2
    1caa:	4798      	blx	r3
    1cac:	4b04      	ldr	r3, [pc, #16]	; (1cc0 <WIZCHIP_WRITE+0x58>)
    1cae:	699b      	ldr	r3, [r3, #24]
    1cb0:	4798      	blx	r3
    1cb2:	4b03      	ldr	r3, [pc, #12]	; (1cc0 <WIZCHIP_WRITE+0x58>)
    1cb4:	691b      	ldr	r3, [r3, #16]
    1cb6:	4798      	blx	r3
    1cb8:	bf00      	nop
    1cba:	3708      	adds	r7, #8
    1cbc:	46bd      	mov	sp, r7
    1cbe:	bd80      	pop	{r7, pc}
    1cc0:	2000001c 	.word	0x2000001c

00001cc4 <WIZCHIP_READ>:
    1cc4:	b580      	push	{r7, lr}
    1cc6:	b084      	sub	sp, #16
    1cc8:	af00      	add	r7, sp, #0
    1cca:	6078      	str	r0, [r7, #4]
    1ccc:	4b13      	ldr	r3, [pc, #76]	; (1d1c <WIZCHIP_READ+0x58>)
    1cce:	68db      	ldr	r3, [r3, #12]
    1cd0:	4798      	blx	r3
    1cd2:	4b12      	ldr	r3, [pc, #72]	; (1d1c <WIZCHIP_READ+0x58>)
    1cd4:	695b      	ldr	r3, [r3, #20]
    1cd6:	4798      	blx	r3
    1cd8:	4b10      	ldr	r3, [pc, #64]	; (1d1c <WIZCHIP_READ+0x58>)
    1cda:	6a1b      	ldr	r3, [r3, #32]
    1cdc:	200f      	movs	r0, #15
    1cde:	4798      	blx	r3
    1ce0:	4b0e      	ldr	r3, [pc, #56]	; (1d1c <WIZCHIP_READ+0x58>)
    1ce2:	6a1b      	ldr	r3, [r3, #32]
    1ce4:	687a      	ldr	r2, [r7, #4]
    1ce6:	0a12      	lsrs	r2, r2, #8
    1ce8:	b2d2      	uxtb	r2, r2
    1cea:	4610      	mov	r0, r2
    1cec:	4798      	blx	r3
    1cee:	4b0b      	ldr	r3, [pc, #44]	; (1d1c <WIZCHIP_READ+0x58>)
    1cf0:	6a1b      	ldr	r3, [r3, #32]
    1cf2:	687a      	ldr	r2, [r7, #4]
    1cf4:	b2d2      	uxtb	r2, r2
    1cf6:	4610      	mov	r0, r2
    1cf8:	4798      	blx	r3
    1cfa:	4b08      	ldr	r3, [pc, #32]	; (1d1c <WIZCHIP_READ+0x58>)
    1cfc:	69db      	ldr	r3, [r3, #28]
    1cfe:	4798      	blx	r3
    1d00:	4603      	mov	r3, r0
    1d02:	73fb      	strb	r3, [r7, #15]
    1d04:	4b05      	ldr	r3, [pc, #20]	; (1d1c <WIZCHIP_READ+0x58>)
    1d06:	699b      	ldr	r3, [r3, #24]
    1d08:	4798      	blx	r3
    1d0a:	4b04      	ldr	r3, [pc, #16]	; (1d1c <WIZCHIP_READ+0x58>)
    1d0c:	691b      	ldr	r3, [r3, #16]
    1d0e:	4798      	blx	r3
    1d10:	7bfb      	ldrb	r3, [r7, #15]
    1d12:	4618      	mov	r0, r3
    1d14:	3710      	adds	r7, #16
    1d16:	46bd      	mov	sp, r7
    1d18:	bd80      	pop	{r7, pc}
    1d1a:	bf00      	nop
    1d1c:	2000001c 	.word	0x2000001c

00001d20 <WIZCHIP_WRITE_BUF>:
    1d20:	b580      	push	{r7, lr}
    1d22:	b086      	sub	sp, #24
    1d24:	af00      	add	r7, sp, #0
    1d26:	60f8      	str	r0, [r7, #12]
    1d28:	60b9      	str	r1, [r7, #8]
    1d2a:	4613      	mov	r3, r2
    1d2c:	80fb      	strh	r3, [r7, #6]
    1d2e:	2300      	movs	r3, #0
    1d30:	82fb      	strh	r3, [r7, #22]
    1d32:	4b21      	ldr	r3, [pc, #132]	; (1db8 <WIZCHIP_WRITE_BUF+0x98>)
    1d34:	68db      	ldr	r3, [r3, #12]
    1d36:	4798      	blx	r3
    1d38:	4b1f      	ldr	r3, [pc, #124]	; (1db8 <WIZCHIP_WRITE_BUF+0x98>)
    1d3a:	695b      	ldr	r3, [r3, #20]
    1d3c:	4798      	blx	r3
    1d3e:	2300      	movs	r3, #0
    1d40:	82fb      	strh	r3, [r7, #22]
    1d42:	e02a      	b.n	1d9a <WIZCHIP_WRITE_BUF+0x7a>
    1d44:	4b1c      	ldr	r3, [pc, #112]	; (1db8 <WIZCHIP_WRITE_BUF+0x98>)
    1d46:	695b      	ldr	r3, [r3, #20]
    1d48:	4798      	blx	r3
    1d4a:	4b1b      	ldr	r3, [pc, #108]	; (1db8 <WIZCHIP_WRITE_BUF+0x98>)
    1d4c:	6a1b      	ldr	r3, [r3, #32]
    1d4e:	20f0      	movs	r0, #240	; 0xf0
    1d50:	4798      	blx	r3
    1d52:	4b19      	ldr	r3, [pc, #100]	; (1db8 <WIZCHIP_WRITE_BUF+0x98>)
    1d54:	6a1b      	ldr	r3, [r3, #32]
    1d56:	68fa      	ldr	r2, [r7, #12]
    1d58:	b291      	uxth	r1, r2
    1d5a:	8afa      	ldrh	r2, [r7, #22]
    1d5c:	440a      	add	r2, r1
    1d5e:	b292      	uxth	r2, r2
    1d60:	0a12      	lsrs	r2, r2, #8
    1d62:	b292      	uxth	r2, r2
    1d64:	b2d2      	uxtb	r2, r2
    1d66:	4610      	mov	r0, r2
    1d68:	4798      	blx	r3
    1d6a:	4b13      	ldr	r3, [pc, #76]	; (1db8 <WIZCHIP_WRITE_BUF+0x98>)
    1d6c:	6a1b      	ldr	r3, [r3, #32]
    1d6e:	68fa      	ldr	r2, [r7, #12]
    1d70:	b2d1      	uxtb	r1, r2
    1d72:	8afa      	ldrh	r2, [r7, #22]
    1d74:	b2d2      	uxtb	r2, r2
    1d76:	440a      	add	r2, r1
    1d78:	b2d2      	uxtb	r2, r2
    1d7a:	4610      	mov	r0, r2
    1d7c:	4798      	blx	r3
    1d7e:	4b0e      	ldr	r3, [pc, #56]	; (1db8 <WIZCHIP_WRITE_BUF+0x98>)
    1d80:	6a1b      	ldr	r3, [r3, #32]
    1d82:	8afa      	ldrh	r2, [r7, #22]
    1d84:	68b9      	ldr	r1, [r7, #8]
    1d86:	440a      	add	r2, r1
    1d88:	7812      	ldrb	r2, [r2, #0]
    1d8a:	4610      	mov	r0, r2
    1d8c:	4798      	blx	r3
    1d8e:	4b0a      	ldr	r3, [pc, #40]	; (1db8 <WIZCHIP_WRITE_BUF+0x98>)
    1d90:	699b      	ldr	r3, [r3, #24]
    1d92:	4798      	blx	r3
    1d94:	8afb      	ldrh	r3, [r7, #22]
    1d96:	3301      	adds	r3, #1
    1d98:	82fb      	strh	r3, [r7, #22]
    1d9a:	8afa      	ldrh	r2, [r7, #22]
    1d9c:	88fb      	ldrh	r3, [r7, #6]
    1d9e:	429a      	cmp	r2, r3
    1da0:	d3d0      	bcc.n	1d44 <WIZCHIP_WRITE_BUF+0x24>
    1da2:	4b05      	ldr	r3, [pc, #20]	; (1db8 <WIZCHIP_WRITE_BUF+0x98>)
    1da4:	699b      	ldr	r3, [r3, #24]
    1da6:	4798      	blx	r3
    1da8:	4b03      	ldr	r3, [pc, #12]	; (1db8 <WIZCHIP_WRITE_BUF+0x98>)
    1daa:	691b      	ldr	r3, [r3, #16]
    1dac:	4798      	blx	r3
    1dae:	bf00      	nop
    1db0:	3718      	adds	r7, #24
    1db2:	46bd      	mov	sp, r7
    1db4:	bd80      	pop	{r7, pc}
    1db6:	bf00      	nop
    1db8:	2000001c 	.word	0x2000001c

00001dbc <WIZCHIP_READ_BUF>:
    1dbc:	b590      	push	{r4, r7, lr}
    1dbe:	b087      	sub	sp, #28
    1dc0:	af00      	add	r7, sp, #0
    1dc2:	60f8      	str	r0, [r7, #12]
    1dc4:	60b9      	str	r1, [r7, #8]
    1dc6:	4613      	mov	r3, r2
    1dc8:	80fb      	strh	r3, [r7, #6]
    1dca:	2300      	movs	r3, #0
    1dcc:	82fb      	strh	r3, [r7, #22]
    1dce:	4b21      	ldr	r3, [pc, #132]	; (1e54 <WIZCHIP_READ_BUF+0x98>)
    1dd0:	68db      	ldr	r3, [r3, #12]
    1dd2:	4798      	blx	r3
    1dd4:	4b1f      	ldr	r3, [pc, #124]	; (1e54 <WIZCHIP_READ_BUF+0x98>)
    1dd6:	695b      	ldr	r3, [r3, #20]
    1dd8:	4798      	blx	r3
    1dda:	2300      	movs	r3, #0
    1ddc:	82fb      	strh	r3, [r7, #22]
    1dde:	e02a      	b.n	1e36 <WIZCHIP_READ_BUF+0x7a>
    1de0:	4b1c      	ldr	r3, [pc, #112]	; (1e54 <WIZCHIP_READ_BUF+0x98>)
    1de2:	695b      	ldr	r3, [r3, #20]
    1de4:	4798      	blx	r3
    1de6:	4b1b      	ldr	r3, [pc, #108]	; (1e54 <WIZCHIP_READ_BUF+0x98>)
    1de8:	6a1b      	ldr	r3, [r3, #32]
    1dea:	200f      	movs	r0, #15
    1dec:	4798      	blx	r3
    1dee:	4b19      	ldr	r3, [pc, #100]	; (1e54 <WIZCHIP_READ_BUF+0x98>)
    1df0:	6a1b      	ldr	r3, [r3, #32]
    1df2:	68fa      	ldr	r2, [r7, #12]
    1df4:	b291      	uxth	r1, r2
    1df6:	8afa      	ldrh	r2, [r7, #22]
    1df8:	440a      	add	r2, r1
    1dfa:	b292      	uxth	r2, r2
    1dfc:	0a12      	lsrs	r2, r2, #8
    1dfe:	b292      	uxth	r2, r2
    1e00:	b2d2      	uxtb	r2, r2
    1e02:	4610      	mov	r0, r2
    1e04:	4798      	blx	r3
    1e06:	4b13      	ldr	r3, [pc, #76]	; (1e54 <WIZCHIP_READ_BUF+0x98>)
    1e08:	6a1b      	ldr	r3, [r3, #32]
    1e0a:	68fa      	ldr	r2, [r7, #12]
    1e0c:	b2d1      	uxtb	r1, r2
    1e0e:	8afa      	ldrh	r2, [r7, #22]
    1e10:	b2d2      	uxtb	r2, r2
    1e12:	440a      	add	r2, r1
    1e14:	b2d2      	uxtb	r2, r2
    1e16:	4610      	mov	r0, r2
    1e18:	4798      	blx	r3
    1e1a:	4b0e      	ldr	r3, [pc, #56]	; (1e54 <WIZCHIP_READ_BUF+0x98>)
    1e1c:	69db      	ldr	r3, [r3, #28]
    1e1e:	8afa      	ldrh	r2, [r7, #22]
    1e20:	68b9      	ldr	r1, [r7, #8]
    1e22:	188c      	adds	r4, r1, r2
    1e24:	4798      	blx	r3
    1e26:	4603      	mov	r3, r0
    1e28:	7023      	strb	r3, [r4, #0]
    1e2a:	4b0a      	ldr	r3, [pc, #40]	; (1e54 <WIZCHIP_READ_BUF+0x98>)
    1e2c:	699b      	ldr	r3, [r3, #24]
    1e2e:	4798      	blx	r3
    1e30:	8afb      	ldrh	r3, [r7, #22]
    1e32:	3301      	adds	r3, #1
    1e34:	82fb      	strh	r3, [r7, #22]
    1e36:	8afa      	ldrh	r2, [r7, #22]
    1e38:	88fb      	ldrh	r3, [r7, #6]
    1e3a:	429a      	cmp	r2, r3
    1e3c:	d3d0      	bcc.n	1de0 <WIZCHIP_READ_BUF+0x24>
    1e3e:	4b05      	ldr	r3, [pc, #20]	; (1e54 <WIZCHIP_READ_BUF+0x98>)
    1e40:	699b      	ldr	r3, [r3, #24]
    1e42:	4798      	blx	r3
    1e44:	4b03      	ldr	r3, [pc, #12]	; (1e54 <WIZCHIP_READ_BUF+0x98>)
    1e46:	691b      	ldr	r3, [r3, #16]
    1e48:	4798      	blx	r3
    1e4a:	bf00      	nop
    1e4c:	371c      	adds	r7, #28
    1e4e:	46bd      	mov	sp, r7
    1e50:	bd90      	pop	{r4, r7, pc}
    1e52:	bf00      	nop
    1e54:	2000001c 	.word	0x2000001c

00001e58 <socket>:
    1e58:	b590      	push	{r4, r7, lr}
    1e5a:	b085      	sub	sp, #20
    1e5c:	af00      	add	r7, sp, #0
    1e5e:	4604      	mov	r4, r0
    1e60:	4608      	mov	r0, r1
    1e62:	4611      	mov	r1, r2
    1e64:	461a      	mov	r2, r3
    1e66:	4623      	mov	r3, r4
    1e68:	71fb      	strb	r3, [r7, #7]
    1e6a:	4603      	mov	r3, r0
    1e6c:	71bb      	strb	r3, [r7, #6]
    1e6e:	460b      	mov	r3, r1
    1e70:	80bb      	strh	r3, [r7, #4]
    1e72:	4613      	mov	r3, r2
    1e74:	70fb      	strb	r3, [r7, #3]
    1e76:	79fb      	ldrb	r3, [r7, #7]
    1e78:	2b04      	cmp	r3, #4
    1e7a:	d902      	bls.n	1e82 <socket+0x2a>
    1e7c:	f04f 33ff 	mov.w	r3, #4294967295
    1e80:	e0e2      	b.n	2048 <socket+0x1f0>
    1e82:	79bb      	ldrb	r3, [r7, #6]
    1e84:	3b01      	subs	r3, #1
    1e86:	2b04      	cmp	r3, #4
    1e88:	d819      	bhi.n	1ebe <socket+0x66>
    1e8a:	a201      	add	r2, pc, #4	; (adr r2, 1e90 <socket+0x38>)
    1e8c:	f852 f023 	ldr.w	pc, [r2, r3, lsl #2]
    1e90:	00001ea5 	.word	0x00001ea5
    1e94:	00001ec5 	.word	0x00001ec5
    1e98:	00001ec5 	.word	0x00001ec5
    1e9c:	00001ec5 	.word	0x00001ec5
    1ea0:	00001ec5 	.word	0x00001ec5
    1ea4:	f107 030c 	add.w	r3, r7, #12
    1ea8:	2204      	movs	r2, #4
    1eaa:	4619      	mov	r1, r3
    1eac:	200f      	movs	r0, #15
    1eae:	f7ff ff85 	bl	1dbc <WIZCHIP_READ_BUF>
    1eb2:	68fb      	ldr	r3, [r7, #12]
    1eb4:	2b00      	cmp	r3, #0
    1eb6:	d105      	bne.n	1ec4 <socket+0x6c>
    1eb8:	f06f 0302 	mvn.w	r3, #2
    1ebc:	e0c4      	b.n	2048 <socket+0x1f0>
    1ebe:	f06f 0304 	mvn.w	r3, #4
    1ec2:	e0c1      	b.n	2048 <socket+0x1f0>
    1ec4:	bf00      	nop
    1ec6:	78fb      	ldrb	r3, [r7, #3]
    1ec8:	f003 0304 	and.w	r3, r3, #4
    1ecc:	2b00      	cmp	r3, #0
    1ece:	d002      	beq.n	1ed6 <socket+0x7e>
    1ed0:	f06f 0305 	mvn.w	r3, #5
    1ed4:	e0b8      	b.n	2048 <socket+0x1f0>
    1ed6:	78fb      	ldrb	r3, [r7, #3]
    1ed8:	2b00      	cmp	r3, #0
    1eda:	d019      	beq.n	1f10 <socket+0xb8>
    1edc:	79bb      	ldrb	r3, [r7, #6]
    1ede:	2b01      	cmp	r3, #1
    1ee0:	d002      	beq.n	1ee8 <socket+0x90>
    1ee2:	2b02      	cmp	r3, #2
    1ee4:	d008      	beq.n	1ef8 <socket+0xa0>
    1ee6:	e018      	b.n	1f1a <socket+0xc2>
    1ee8:	78fb      	ldrb	r3, [r7, #3]
    1eea:	f003 0321 	and.w	r3, r3, #33	; 0x21
    1eee:	2b00      	cmp	r3, #0
    1ef0:	d110      	bne.n	1f14 <socket+0xbc>
    1ef2:	f06f 0305 	mvn.w	r3, #5
    1ef6:	e0a7      	b.n	2048 <socket+0x1f0>
    1ef8:	78fb      	ldrb	r3, [r7, #3]
    1efa:	f003 0320 	and.w	r3, r3, #32
    1efe:	2b00      	cmp	r3, #0
    1f00:	d00a      	beq.n	1f18 <socket+0xc0>
    1f02:	f997 3003 	ldrsb.w	r3, [r7, #3]
    1f06:	2b00      	cmp	r3, #0
    1f08:	db06      	blt.n	1f18 <socket+0xc0>
    1f0a:	f06f 0305 	mvn.w	r3, #5
    1f0e:	e09b      	b.n	2048 <socket+0x1f0>
    1f10:	bf00      	nop
    1f12:	e002      	b.n	1f1a <socket+0xc2>
    1f14:	bf00      	nop
    1f16:	e000      	b.n	1f1a <socket+0xc2>
    1f18:	bf00      	nop
    1f1a:	79fb      	ldrb	r3, [r7, #7]
    1f1c:	4618      	mov	r0, r3
    1f1e:	f000 f8a1 	bl	2064 <close>
    1f22:	79fb      	ldrb	r3, [r7, #7]
    1f24:	3304      	adds	r3, #4
    1f26:	021b      	lsls	r3, r3, #8
    1f28:	4618      	mov	r0, r3
    1f2a:	f997 3003 	ldrsb.w	r3, [r7, #3]
    1f2e:	f023 030f 	bic.w	r3, r3, #15
    1f32:	b25a      	sxtb	r2, r3
    1f34:	f997 3006 	ldrsb.w	r3, [r7, #6]
    1f38:	4313      	orrs	r3, r2
    1f3a:	b25b      	sxtb	r3, r3
    1f3c:	b2db      	uxtb	r3, r3
    1f3e:	4619      	mov	r1, r3
    1f40:	f7ff fe92 	bl	1c68 <WIZCHIP_WRITE>
    1f44:	88bb      	ldrh	r3, [r7, #4]
    1f46:	2b00      	cmp	r3, #0
    1f48:	d110      	bne.n	1f6c <socket+0x114>
    1f4a:	4b41      	ldr	r3, [pc, #260]	; (2050 <socket+0x1f8>)
    1f4c:	881b      	ldrh	r3, [r3, #0]
    1f4e:	1c5a      	adds	r2, r3, #1
    1f50:	b291      	uxth	r1, r2
    1f52:	4a3f      	ldr	r2, [pc, #252]	; (2050 <socket+0x1f8>)
    1f54:	8011      	strh	r1, [r2, #0]
    1f56:	80bb      	strh	r3, [r7, #4]
    1f58:	4b3d      	ldr	r3, [pc, #244]	; (2050 <socket+0x1f8>)
    1f5a:	881b      	ldrh	r3, [r3, #0]
    1f5c:	f64f 72f0 	movw	r2, #65520	; 0xfff0
    1f60:	4293      	cmp	r3, r2
    1f62:	d103      	bne.n	1f6c <socket+0x114>
    1f64:	4b3a      	ldr	r3, [pc, #232]	; (2050 <socket+0x1f8>)
    1f66:	f44f 4240 	mov.w	r2, #49152	; 0xc000
    1f6a:	801a      	strh	r2, [r3, #0]
    1f6c:	79fb      	ldrb	r3, [r7, #7]
    1f6e:	3304      	adds	r3, #4
    1f70:	021b      	lsls	r3, r3, #8
    1f72:	3304      	adds	r3, #4
    1f74:	461a      	mov	r2, r3
    1f76:	88bb      	ldrh	r3, [r7, #4]
    1f78:	0a1b      	lsrs	r3, r3, #8
    1f7a:	b29b      	uxth	r3, r3
    1f7c:	b2db      	uxtb	r3, r3
    1f7e:	4619      	mov	r1, r3
    1f80:	4610      	mov	r0, r2
    1f82:	f7ff fe71 	bl	1c68 <WIZCHIP_WRITE>
    1f86:	79fb      	ldrb	r3, [r7, #7]
    1f88:	3304      	adds	r3, #4
    1f8a:	021b      	lsls	r3, r3, #8
    1f8c:	3305      	adds	r3, #5
    1f8e:	461a      	mov	r2, r3
    1f90:	88bb      	ldrh	r3, [r7, #4]
    1f92:	b2db      	uxtb	r3, r3
    1f94:	4619      	mov	r1, r3
    1f96:	4610      	mov	r0, r2
    1f98:	f7ff fe66 	bl	1c68 <WIZCHIP_WRITE>
    1f9c:	79fb      	ldrb	r3, [r7, #7]
    1f9e:	3304      	adds	r3, #4
    1fa0:	021b      	lsls	r3, r3, #8
    1fa2:	3301      	adds	r3, #1
    1fa4:	2101      	movs	r1, #1
    1fa6:	4618      	mov	r0, r3
    1fa8:	f7ff fe5e 	bl	1c68 <WIZCHIP_WRITE>
    1fac:	bf00      	nop
    1fae:	79fb      	ldrb	r3, [r7, #7]
    1fb0:	3304      	adds	r3, #4
    1fb2:	021b      	lsls	r3, r3, #8
    1fb4:	3301      	adds	r3, #1
    1fb6:	4618      	mov	r0, r3
    1fb8:	f7ff fe84 	bl	1cc4 <WIZCHIP_READ>
    1fbc:	4603      	mov	r3, r0
    1fbe:	2b00      	cmp	r3, #0
    1fc0:	d1f5      	bne.n	1fae <socket+0x156>
    1fc2:	79fb      	ldrb	r3, [r7, #7]
    1fc4:	2201      	movs	r2, #1
    1fc6:	fa02 f303 	lsl.w	r3, r2, r3
    1fca:	b21b      	sxth	r3, r3
    1fcc:	43db      	mvns	r3, r3
    1fce:	b21a      	sxth	r2, r3
    1fd0:	4b20      	ldr	r3, [pc, #128]	; (2054 <socket+0x1fc>)
    1fd2:	881b      	ldrh	r3, [r3, #0]
    1fd4:	b21b      	sxth	r3, r3
    1fd6:	4013      	ands	r3, r2
    1fd8:	b21b      	sxth	r3, r3
    1fda:	b29a      	uxth	r2, r3
    1fdc:	4b1d      	ldr	r3, [pc, #116]	; (2054 <socket+0x1fc>)
    1fde:	801a      	strh	r2, [r3, #0]
    1fe0:	78fb      	ldrb	r3, [r7, #3]
    1fe2:	f003 0201 	and.w	r2, r3, #1
    1fe6:	79fb      	ldrb	r3, [r7, #7]
    1fe8:	fa02 f303 	lsl.w	r3, r2, r3
    1fec:	b21a      	sxth	r2, r3
    1fee:	4b19      	ldr	r3, [pc, #100]	; (2054 <socket+0x1fc>)
    1ff0:	881b      	ldrh	r3, [r3, #0]
    1ff2:	b21b      	sxth	r3, r3
    1ff4:	4313      	orrs	r3, r2
    1ff6:	b21b      	sxth	r3, r3
    1ff8:	b29a      	uxth	r2, r3
    1ffa:	4b16      	ldr	r3, [pc, #88]	; (2054 <socket+0x1fc>)
    1ffc:	801a      	strh	r2, [r3, #0]
    1ffe:	79fb      	ldrb	r3, [r7, #7]
    2000:	2201      	movs	r2, #1
    2002:	fa02 f303 	lsl.w	r3, r2, r3
    2006:	b21b      	sxth	r3, r3
    2008:	43db      	mvns	r3, r3
    200a:	b21a      	sxth	r2, r3
    200c:	4b12      	ldr	r3, [pc, #72]	; (2058 <socket+0x200>)
    200e:	881b      	ldrh	r3, [r3, #0]
    2010:	b21b      	sxth	r3, r3
    2012:	4013      	ands	r3, r2
    2014:	b21b      	sxth	r3, r3
    2016:	b29a      	uxth	r2, r3
    2018:	4b0f      	ldr	r3, [pc, #60]	; (2058 <socket+0x200>)
    201a:	801a      	strh	r2, [r3, #0]
    201c:	79fb      	ldrb	r3, [r7, #7]
    201e:	4a0f      	ldr	r2, [pc, #60]	; (205c <socket+0x204>)
    2020:	2100      	movs	r1, #0
    2022:	f822 1013 	strh.w	r1, [r2, r3, lsl #1]
    2026:	79fb      	ldrb	r3, [r7, #7]
    2028:	4a0d      	ldr	r2, [pc, #52]	; (2060 <socket+0x208>)
    202a:	2100      	movs	r1, #0
    202c:	54d1      	strb	r1, [r2, r3]
    202e:	bf00      	nop
    2030:	79fb      	ldrb	r3, [r7, #7]
    2032:	3304      	adds	r3, #4
    2034:	021b      	lsls	r3, r3, #8
    2036:	3303      	adds	r3, #3
    2038:	4618      	mov	r0, r3
    203a:	f7ff fe43 	bl	1cc4 <WIZCHIP_READ>
    203e:	4603      	mov	r3, r0
    2040:	2b00      	cmp	r3, #0
    2042:	d0f5      	beq.n	2030 <socket+0x1d8>
    2044:	f997 3007 	ldrsb.w	r3, [r7, #7]
    2048:	4618      	mov	r0, r3
    204a:	3714      	adds	r7, #20
    204c:	46bd      	mov	sp, r7
    204e:	bd90      	pop	{r4, r7, pc}
    2050:	20000078 	.word	0x20000078
    2054:	20000ab0 	.word	0x20000ab0
    2058:	20000ab2 	.word	0x20000ab2
    205c:	200000c8 	.word	0x200000c8
    2060:	200000d0 	.word	0x200000d0

00002064 <close>:
    2064:	b580      	push	{r7, lr}
    2066:	b082      	sub	sp, #8
    2068:	af00      	add	r7, sp, #0
    206a:	4603      	mov	r3, r0
    206c:	71fb      	strb	r3, [r7, #7]
    206e:	79fb      	ldrb	r3, [r7, #7]
    2070:	2b04      	cmp	r3, #4
    2072:	d902      	bls.n	207a <close+0x16>
    2074:	f04f 33ff 	mov.w	r3, #4294967295
    2078:	e04d      	b.n	2116 <close+0xb2>
    207a:	79fb      	ldrb	r3, [r7, #7]
    207c:	3304      	adds	r3, #4
    207e:	021b      	lsls	r3, r3, #8
    2080:	3301      	adds	r3, #1
    2082:	2110      	movs	r1, #16
    2084:	4618      	mov	r0, r3
    2086:	f7ff fdef 	bl	1c68 <WIZCHIP_WRITE>
    208a:	bf00      	nop
    208c:	79fb      	ldrb	r3, [r7, #7]
    208e:	3304      	adds	r3, #4
    2090:	021b      	lsls	r3, r3, #8
    2092:	3301      	adds	r3, #1
    2094:	4618      	mov	r0, r3
    2096:	f7ff fe15 	bl	1cc4 <WIZCHIP_READ>
    209a:	4603      	mov	r3, r0
    209c:	2b00      	cmp	r3, #0
    209e:	d1f5      	bne.n	208c <close+0x28>
    20a0:	79fb      	ldrb	r3, [r7, #7]
    20a2:	3304      	adds	r3, #4
    20a4:	021b      	lsls	r3, r3, #8
    20a6:	3302      	adds	r3, #2
    20a8:	21ff      	movs	r1, #255	; 0xff
    20aa:	4618      	mov	r0, r3
    20ac:	f7ff fddc 	bl	1c68 <WIZCHIP_WRITE>
    20b0:	79fb      	ldrb	r3, [r7, #7]
    20b2:	2201      	movs	r2, #1
    20b4:	fa02 f303 	lsl.w	r3, r2, r3
    20b8:	b21b      	sxth	r3, r3
    20ba:	43db      	mvns	r3, r3
    20bc:	b21a      	sxth	r2, r3
    20be:	4b18      	ldr	r3, [pc, #96]	; (2120 <close+0xbc>)
    20c0:	881b      	ldrh	r3, [r3, #0]
    20c2:	b21b      	sxth	r3, r3
    20c4:	4013      	ands	r3, r2
    20c6:	b21b      	sxth	r3, r3
    20c8:	b29a      	uxth	r2, r3
    20ca:	4b15      	ldr	r3, [pc, #84]	; (2120 <close+0xbc>)
    20cc:	801a      	strh	r2, [r3, #0]
    20ce:	79fb      	ldrb	r3, [r7, #7]
    20d0:	2201      	movs	r2, #1
    20d2:	fa02 f303 	lsl.w	r3, r2, r3
    20d6:	b21b      	sxth	r3, r3
    20d8:	43db      	mvns	r3, r3
    20da:	b21a      	sxth	r2, r3
    20dc:	4b11      	ldr	r3, [pc, #68]	; (2124 <close+0xc0>)
    20de:	881b      	ldrh	r3, [r3, #0]
    20e0:	b21b      	sxth	r3, r3
    20e2:	4013      	ands	r3, r2
    20e4:	b21b      	sxth	r3, r3
    20e6:	b29a      	uxth	r2, r3
    20e8:	4b0e      	ldr	r3, [pc, #56]	; (2124 <close+0xc0>)
    20ea:	801a      	strh	r2, [r3, #0]
    20ec:	79fb      	ldrb	r3, [r7, #7]
    20ee:	4a0e      	ldr	r2, [pc, #56]	; (2128 <close+0xc4>)
    20f0:	2100      	movs	r1, #0
    20f2:	f822 1013 	strh.w	r1, [r2, r3, lsl #1]
    20f6:	79fb      	ldrb	r3, [r7, #7]
    20f8:	4a0c      	ldr	r2, [pc, #48]	; (212c <close+0xc8>)
    20fa:	2100      	movs	r1, #0
    20fc:	54d1      	strb	r1, [r2, r3]
    20fe:	bf00      	nop
    2100:	79fb      	ldrb	r3, [r7, #7]
    2102:	3304      	adds	r3, #4
    2104:	021b      	lsls	r3, r3, #8
    2106:	3303      	adds	r3, #3
    2108:	4618      	mov	r0, r3
    210a:	f7ff fddb 	bl	1cc4 <WIZCHIP_READ>
    210e:	4603      	mov	r3, r0
    2110:	2b00      	cmp	r3, #0
    2112:	d1f5      	bne.n	2100 <close+0x9c>
    2114:	2301      	movs	r3, #1
    2116:	4618      	mov	r0, r3
    2118:	3708      	adds	r7, #8
    211a:	46bd      	mov	sp, r7
    211c:	bd80      	pop	{r7, pc}
    211e:	bf00      	nop
    2120:	20000ab0 	.word	0x20000ab0
    2124:	20000ab2 	.word	0x20000ab2
    2128:	200000c8 	.word	0x200000c8
    212c:	200000d0 	.word	0x200000d0

00002130 <sendto>:
    2130:	b580      	push	{r7, lr}
    2132:	b086      	sub	sp, #24
    2134:	af00      	add	r7, sp, #0
    2136:	60b9      	str	r1, [r7, #8]
    2138:	607b      	str	r3, [r7, #4]
    213a:	4603      	mov	r3, r0
    213c:	73fb      	strb	r3, [r7, #15]
    213e:	4613      	mov	r3, r2
    2140:	81bb      	strh	r3, [r7, #12]
    2142:	2300      	movs	r3, #0
    2144:	75fb      	strb	r3, [r7, #23]
    2146:	2300      	movs	r3, #0
    2148:	82bb      	strh	r3, [r7, #20]
    214a:	7bfb      	ldrb	r3, [r7, #15]
    214c:	2b04      	cmp	r3, #4
    214e:	d902      	bls.n	2156 <sendto+0x26>
    2150:	f04f 33ff 	mov.w	r3, #4294967295
    2154:	e139      	b.n	23ca <sendto+0x29a>
    2156:	7bfb      	ldrb	r3, [r7, #15]
    2158:	3304      	adds	r3, #4
    215a:	021b      	lsls	r3, r3, #8
    215c:	4618      	mov	r0, r3
    215e:	f7ff fdb1 	bl	1cc4 <WIZCHIP_READ>
    2162:	4603      	mov	r3, r0
    2164:	f003 030f 	and.w	r3, r3, #15
    2168:	3b02      	subs	r3, #2
    216a:	2b02      	cmp	r3, #2
    216c:	d902      	bls.n	2174 <sendto+0x44>
    216e:	f06f 0304 	mvn.w	r3, #4
    2172:	e12a      	b.n	23ca <sendto+0x29a>
    2174:	bf00      	nop
    2176:	89bb      	ldrh	r3, [r7, #12]
    2178:	2b00      	cmp	r3, #0
    217a:	d102      	bne.n	2182 <sendto+0x52>
    217c:	f06f 030d 	mvn.w	r3, #13
    2180:	e123      	b.n	23ca <sendto+0x29a>
    2182:	687b      	ldr	r3, [r7, #4]
    2184:	781b      	ldrb	r3, [r3, #0]
    2186:	613b      	str	r3, [r7, #16]
    2188:	693b      	ldr	r3, [r7, #16]
    218a:	021b      	lsls	r3, r3, #8
    218c:	687a      	ldr	r2, [r7, #4]
    218e:	3201      	adds	r2, #1
    2190:	7812      	ldrb	r2, [r2, #0]
    2192:	4413      	add	r3, r2
    2194:	613b      	str	r3, [r7, #16]
    2196:	693b      	ldr	r3, [r7, #16]
    2198:	021b      	lsls	r3, r3, #8
    219a:	687a      	ldr	r2, [r7, #4]
    219c:	3202      	adds	r2, #2
    219e:	7812      	ldrb	r2, [r2, #0]
    21a0:	4413      	add	r3, r2
    21a2:	613b      	str	r3, [r7, #16]
    21a4:	693b      	ldr	r3, [r7, #16]
    21a6:	021b      	lsls	r3, r3, #8
    21a8:	687a      	ldr	r2, [r7, #4]
    21aa:	3203      	adds	r2, #3
    21ac:	7812      	ldrb	r2, [r2, #0]
    21ae:	4413      	add	r3, r2
    21b0:	613b      	str	r3, [r7, #16]
    21b2:	693b      	ldr	r3, [r7, #16]
    21b4:	2b00      	cmp	r3, #0
    21b6:	d10d      	bne.n	21d4 <sendto+0xa4>
    21b8:	7bfb      	ldrb	r3, [r7, #15]
    21ba:	3304      	adds	r3, #4
    21bc:	021b      	lsls	r3, r3, #8
    21be:	4618      	mov	r0, r3
    21c0:	f7ff fd80 	bl	1cc4 <WIZCHIP_READ>
    21c4:	4603      	mov	r3, r0
    21c6:	f003 0304 	and.w	r3, r3, #4
    21ca:	2b04      	cmp	r3, #4
    21cc:	d002      	beq.n	21d4 <sendto+0xa4>
    21ce:	f06f 030b 	mvn.w	r3, #11
    21d2:	e0fa      	b.n	23ca <sendto+0x29a>
    21d4:	8c3b      	ldrh	r3, [r7, #32]
    21d6:	2b00      	cmp	r3, #0
    21d8:	d10d      	bne.n	21f6 <sendto+0xc6>
    21da:	7bfb      	ldrb	r3, [r7, #15]
    21dc:	3304      	adds	r3, #4
    21de:	021b      	lsls	r3, r3, #8
    21e0:	4618      	mov	r0, r3
    21e2:	f7ff fd6f 	bl	1cc4 <WIZCHIP_READ>
    21e6:	4603      	mov	r3, r0
    21e8:	f003 0304 	and.w	r3, r3, #4
    21ec:	2b04      	cmp	r3, #4
    21ee:	d002      	beq.n	21f6 <sendto+0xc6>
    21f0:	f06f 030a 	mvn.w	r3, #10
    21f4:	e0e9      	b.n	23ca <sendto+0x29a>
    21f6:	7bfb      	ldrb	r3, [r7, #15]
    21f8:	3304      	adds	r3, #4
    21fa:	021b      	lsls	r3, r3, #8
    21fc:	3303      	adds	r3, #3
    21fe:	4618      	mov	r0, r3
    2200:	f7ff fd60 	bl	1cc4 <WIZCHIP_READ>
    2204:	4603      	mov	r3, r0
    2206:	75fb      	strb	r3, [r7, #23]
    2208:	7dfb      	ldrb	r3, [r7, #23]
    220a:	2b42      	cmp	r3, #66	; 0x42
    220c:	d008      	beq.n	2220 <sendto+0xf0>
    220e:	7dfb      	ldrb	r3, [r7, #23]
    2210:	2b22      	cmp	r3, #34	; 0x22
    2212:	d005      	beq.n	2220 <sendto+0xf0>
    2214:	7dfb      	ldrb	r3, [r7, #23]
    2216:	2b32      	cmp	r3, #50	; 0x32
    2218:	d002      	beq.n	2220 <sendto+0xf0>
    221a:	f06f 0306 	mvn.w	r3, #6
    221e:	e0d4      	b.n	23ca <sendto+0x29a>
    2220:	7bfb      	ldrb	r3, [r7, #15]
    2222:	3304      	adds	r3, #4
    2224:	021b      	lsls	r3, r3, #8
    2226:	330c      	adds	r3, #12
    2228:	2204      	movs	r2, #4
    222a:	6879      	ldr	r1, [r7, #4]
    222c:	4618      	mov	r0, r3
    222e:	f7ff fd77 	bl	1d20 <WIZCHIP_WRITE_BUF>
    2232:	7bfb      	ldrb	r3, [r7, #15]
    2234:	3304      	adds	r3, #4
    2236:	021b      	lsls	r3, r3, #8
    2238:	3310      	adds	r3, #16
    223a:	461a      	mov	r2, r3
    223c:	8c3b      	ldrh	r3, [r7, #32]
    223e:	0a1b      	lsrs	r3, r3, #8
    2240:	b29b      	uxth	r3, r3
    2242:	b2db      	uxtb	r3, r3
    2244:	4619      	mov	r1, r3
    2246:	4610      	mov	r0, r2
    2248:	f7ff fd0e 	bl	1c68 <WIZCHIP_WRITE>
    224c:	7bfb      	ldrb	r3, [r7, #15]
    224e:	3304      	adds	r3, #4
    2250:	021b      	lsls	r3, r3, #8
    2252:	3311      	adds	r3, #17
    2254:	461a      	mov	r2, r3
    2256:	8c3b      	ldrh	r3, [r7, #32]
    2258:	b2db      	uxtb	r3, r3
    225a:	4619      	mov	r1, r3
    225c:	4610      	mov	r0, r2
    225e:	f7ff fd03 	bl	1c68 <WIZCHIP_WRITE>
    2262:	201b      	movs	r0, #27
    2264:	f7ff fd2e 	bl	1cc4 <WIZCHIP_READ>
    2268:	4603      	mov	r3, r0
    226a:	4619      	mov	r1, r3
    226c:	7bfb      	ldrb	r3, [r7, #15]
    226e:	005b      	lsls	r3, r3, #1
    2270:	2203      	movs	r2, #3
    2272:	fa02 f303 	lsl.w	r3, r2, r3
    2276:	ea01 0203 	and.w	r2, r1, r3
    227a:	7bfb      	ldrb	r3, [r7, #15]
    227c:	005b      	lsls	r3, r3, #1
    227e:	fa42 f303 	asr.w	r3, r2, r3
    2282:	2201      	movs	r2, #1
    2284:	fa02 f303 	lsl.w	r3, r2, r3
    2288:	b29b      	uxth	r3, r3
    228a:	029b      	lsls	r3, r3, #10
    228c:	82bb      	strh	r3, [r7, #20]
    228e:	89ba      	ldrh	r2, [r7, #12]
    2290:	8abb      	ldrh	r3, [r7, #20]
    2292:	429a      	cmp	r2, r3
    2294:	d901      	bls.n	229a <sendto+0x16a>
    2296:	8abb      	ldrh	r3, [r7, #20]
    2298:	81bb      	strh	r3, [r7, #12]
    229a:	7bfb      	ldrb	r3, [r7, #15]
    229c:	4618      	mov	r0, r3
    229e:	f006 fa88 	bl	87b2 <getSn_TX_FSR>
    22a2:	4603      	mov	r3, r0
    22a4:	82bb      	strh	r3, [r7, #20]
    22a6:	7bfb      	ldrb	r3, [r7, #15]
    22a8:	3304      	adds	r3, #4
    22aa:	021b      	lsls	r3, r3, #8
    22ac:	3303      	adds	r3, #3
    22ae:	4618      	mov	r0, r3
    22b0:	f7ff fd08 	bl	1cc4 <WIZCHIP_READ>
    22b4:	4603      	mov	r3, r0
    22b6:	2b00      	cmp	r3, #0
    22b8:	d102      	bne.n	22c0 <sendto+0x190>
    22ba:	f06f 0303 	mvn.w	r3, #3
    22be:	e084      	b.n	23ca <sendto+0x29a>
    22c0:	4b44      	ldr	r3, [pc, #272]	; (23d4 <sendto+0x2a4>)
    22c2:	881b      	ldrh	r3, [r3, #0]
    22c4:	461a      	mov	r2, r3
    22c6:	7bfb      	ldrb	r3, [r7, #15]
    22c8:	fa42 f303 	asr.w	r3, r2, r3
    22cc:	f003 0301 	and.w	r3, r3, #1
    22d0:	2b00      	cmp	r3, #0
    22d2:	d005      	beq.n	22e0 <sendto+0x1b0>
    22d4:	89ba      	ldrh	r2, [r7, #12]
    22d6:	8abb      	ldrh	r3, [r7, #20]
    22d8:	429a      	cmp	r2, r3
    22da:	d901      	bls.n	22e0 <sendto+0x1b0>
    22dc:	2300      	movs	r3, #0
    22de:	e074      	b.n	23ca <sendto+0x29a>
    22e0:	89ba      	ldrh	r2, [r7, #12]
    22e2:	8abb      	ldrh	r3, [r7, #20]
    22e4:	429a      	cmp	r2, r3
    22e6:	d900      	bls.n	22ea <sendto+0x1ba>
    22e8:	e7d7      	b.n	229a <sendto+0x16a>
    22ea:	bf00      	nop
    22ec:	89ba      	ldrh	r2, [r7, #12]
    22ee:	7bfb      	ldrb	r3, [r7, #15]
    22f0:	68b9      	ldr	r1, [r7, #8]
    22f2:	4618      	mov	r0, r3
    22f4:	f006 fb4f 	bl	8996 <wiz_send_data>
    22f8:	f107 0310 	add.w	r3, r7, #16
    22fc:	2204      	movs	r2, #4
    22fe:	4619      	mov	r1, r3
    2300:	200f      	movs	r0, #15
    2302:	f7ff fd5b 	bl	1dbc <WIZCHIP_READ_BUF>
    2306:	693b      	ldr	r3, [r7, #16]
    2308:	2b00      	cmp	r3, #0
    230a:	d10c      	bne.n	2326 <sendto+0x1f6>
    230c:	f107 0310 	add.w	r3, r7, #16
    2310:	2204      	movs	r2, #4
    2312:	4619      	mov	r1, r3
    2314:	2005      	movs	r0, #5
    2316:	f7ff fd51 	bl	1dbc <WIZCHIP_READ_BUF>
    231a:	2204      	movs	r2, #4
    231c:	492e      	ldr	r1, [pc, #184]	; (23d8 <sendto+0x2a8>)
    231e:	2005      	movs	r0, #5
    2320:	f7ff fcfe 	bl	1d20 <WIZCHIP_WRITE_BUF>
    2324:	e001      	b.n	232a <sendto+0x1fa>
    2326:	2300      	movs	r3, #0
    2328:	613b      	str	r3, [r7, #16]
    232a:	7bfb      	ldrb	r3, [r7, #15]
    232c:	3304      	adds	r3, #4
    232e:	021b      	lsls	r3, r3, #8
    2330:	3301      	adds	r3, #1
    2332:	2120      	movs	r1, #32
    2334:	4618      	mov	r0, r3
    2336:	f7ff fc97 	bl	1c68 <WIZCHIP_WRITE>
    233a:	bf00      	nop
    233c:	7bfb      	ldrb	r3, [r7, #15]
    233e:	3304      	adds	r3, #4
    2340:	021b      	lsls	r3, r3, #8
    2342:	3301      	adds	r3, #1
    2344:	4618      	mov	r0, r3
    2346:	f7ff fcbd 	bl	1cc4 <WIZCHIP_READ>
    234a:	4603      	mov	r3, r0
    234c:	2b00      	cmp	r3, #0
    234e:	d1f5      	bne.n	233c <sendto+0x20c>
    2350:	7bfb      	ldrb	r3, [r7, #15]
    2352:	3304      	adds	r3, #4
    2354:	021b      	lsls	r3, r3, #8
    2356:	3302      	adds	r3, #2
    2358:	4618      	mov	r0, r3
    235a:	f7ff fcb3 	bl	1cc4 <WIZCHIP_READ>
    235e:	4603      	mov	r3, r0
    2360:	75fb      	strb	r3, [r7, #23]
    2362:	7dfb      	ldrb	r3, [r7, #23]
    2364:	f003 0310 	and.w	r3, r3, #16
    2368:	2b00      	cmp	r3, #0
    236a:	d00c      	beq.n	2386 <sendto+0x256>
    236c:	7bfb      	ldrb	r3, [r7, #15]
    236e:	3304      	adds	r3, #4
    2370:	021b      	lsls	r3, r3, #8
    2372:	3302      	adds	r3, #2
    2374:	2110      	movs	r1, #16
    2376:	4618      	mov	r0, r3
    2378:	f7ff fc76 	bl	1c68 <WIZCHIP_WRITE>
    237c:	bf00      	nop
    237e:	693b      	ldr	r3, [r7, #16]
    2380:	2b00      	cmp	r3, #0
    2382:	d021      	beq.n	23c8 <sendto+0x298>
    2384:	e019      	b.n	23ba <sendto+0x28a>
    2386:	7dfb      	ldrb	r3, [r7, #23]
    2388:	f003 0308 	and.w	r3, r3, #8
    238c:	2b00      	cmp	r3, #0
    238e:	d0df      	beq.n	2350 <sendto+0x220>
    2390:	7bfb      	ldrb	r3, [r7, #15]
    2392:	3304      	adds	r3, #4
    2394:	021b      	lsls	r3, r3, #8
    2396:	3302      	adds	r3, #2
    2398:	2108      	movs	r1, #8
    239a:	4618      	mov	r0, r3
    239c:	f7ff fc64 	bl	1c68 <WIZCHIP_WRITE>
    23a0:	693b      	ldr	r3, [r7, #16]
    23a2:	2b00      	cmp	r3, #0
    23a4:	d006      	beq.n	23b4 <sendto+0x284>
    23a6:	f107 0310 	add.w	r3, r7, #16
    23aa:	2204      	movs	r2, #4
    23ac:	4619      	mov	r1, r3
    23ae:	2005      	movs	r0, #5
    23b0:	f7ff fcb6 	bl	1d20 <WIZCHIP_WRITE_BUF>
    23b4:	f06f 030c 	mvn.w	r3, #12
    23b8:	e007      	b.n	23ca <sendto+0x29a>
    23ba:	f107 0310 	add.w	r3, r7, #16
    23be:	2204      	movs	r2, #4
    23c0:	4619      	mov	r1, r3
    23c2:	2005      	movs	r0, #5
    23c4:	f7ff fcac 	bl	1d20 <WIZCHIP_WRITE_BUF>
    23c8:	89bb      	ldrh	r3, [r7, #12]
    23ca:	4618      	mov	r0, r3
    23cc:	3718      	adds	r7, #24
    23ce:	46bd      	mov	sp, r7
    23d0:	bd80      	pop	{r7, pc}
    23d2:	bf00      	nop
    23d4:	20000ab0 	.word	0x20000ab0
    23d8:	0000a874 	.word	0x0000a874

000023dc <recvfrom>:
    23dc:	b580      	push	{r7, lr}
    23de:	b088      	sub	sp, #32
    23e0:	af00      	add	r7, sp, #0
    23e2:	60b9      	str	r1, [r7, #8]
    23e4:	607b      	str	r3, [r7, #4]
    23e6:	4603      	mov	r3, r0
    23e8:	73fb      	strb	r3, [r7, #15]
    23ea:	4613      	mov	r3, r2
    23ec:	81bb      	strh	r3, [r7, #12]
    23ee:	2300      	movs	r3, #0
    23f0:	83fb      	strh	r3, [r7, #30]
    23f2:	7bfb      	ldrb	r3, [r7, #15]
    23f4:	2b04      	cmp	r3, #4
    23f6:	d902      	bls.n	23fe <recvfrom+0x22>
    23f8:	f04f 33ff 	mov.w	r3, #4294967295
    23fc:	e1c3      	b.n	2786 <recvfrom+0x3aa>
    23fe:	7bfb      	ldrb	r3, [r7, #15]
    2400:	3304      	adds	r3, #4
    2402:	021b      	lsls	r3, r3, #8
    2404:	4618      	mov	r0, r3
    2406:	f7ff fc5d 	bl	1cc4 <WIZCHIP_READ>
    240a:	4603      	mov	r3, r0
    240c:	777b      	strb	r3, [r7, #29]
    240e:	7f7b      	ldrb	r3, [r7, #29]
    2410:	f003 030f 	and.w	r3, r3, #15
    2414:	2b02      	cmp	r3, #2
    2416:	db03      	blt.n	2420 <recvfrom+0x44>
    2418:	2b04      	cmp	r3, #4
    241a:	dd04      	ble.n	2426 <recvfrom+0x4a>
    241c:	2b05      	cmp	r3, #5
    241e:	d004      	beq.n	242a <recvfrom+0x4e>
    2420:	f06f 0304 	mvn.w	r3, #4
    2424:	e1af      	b.n	2786 <recvfrom+0x3aa>
    2426:	bf00      	nop
    2428:	e000      	b.n	242c <recvfrom+0x50>
    242a:	bf00      	nop
    242c:	89bb      	ldrh	r3, [r7, #12]
    242e:	2b00      	cmp	r3, #0
    2430:	d102      	bne.n	2438 <recvfrom+0x5c>
    2432:	f06f 030d 	mvn.w	r3, #13
    2436:	e1a6      	b.n	2786 <recvfrom+0x3aa>
    2438:	7bfb      	ldrb	r3, [r7, #15]
    243a:	4aaa      	ldr	r2, [pc, #680]	; (26e4 <recvfrom+0x308>)
    243c:	f832 3013 	ldrh.w	r3, [r2, r3, lsl #1]
    2440:	2b00      	cmp	r3, #0
    2442:	d126      	bne.n	2492 <recvfrom+0xb6>
    2444:	7bfb      	ldrb	r3, [r7, #15]
    2446:	4618      	mov	r0, r3
    2448:	f006 f9f6 	bl	8838 <getSn_RX_RSR>
    244c:	4603      	mov	r3, r0
    244e:	83fb      	strh	r3, [r7, #30]
    2450:	7bfb      	ldrb	r3, [r7, #15]
    2452:	3304      	adds	r3, #4
    2454:	021b      	lsls	r3, r3, #8
    2456:	3303      	adds	r3, #3
    2458:	4618      	mov	r0, r3
    245a:	f7ff fc33 	bl	1cc4 <WIZCHIP_READ>
    245e:	4603      	mov	r3, r0
    2460:	2b00      	cmp	r3, #0
    2462:	d102      	bne.n	246a <recvfrom+0x8e>
    2464:	f06f 0303 	mvn.w	r3, #3
    2468:	e18d      	b.n	2786 <recvfrom+0x3aa>
    246a:	4b9f      	ldr	r3, [pc, #636]	; (26e8 <recvfrom+0x30c>)
    246c:	881b      	ldrh	r3, [r3, #0]
    246e:	461a      	mov	r2, r3
    2470:	7bfb      	ldrb	r3, [r7, #15]
    2472:	fa42 f303 	asr.w	r3, r2, r3
    2476:	f003 0301 	and.w	r3, r3, #1
    247a:	2b00      	cmp	r3, #0
    247c:	d004      	beq.n	2488 <recvfrom+0xac>
    247e:	8bfb      	ldrh	r3, [r7, #30]
    2480:	2b00      	cmp	r3, #0
    2482:	d101      	bne.n	2488 <recvfrom+0xac>
    2484:	2300      	movs	r3, #0
    2486:	e17e      	b.n	2786 <recvfrom+0x3aa>
    2488:	8bfb      	ldrh	r3, [r7, #30]
    248a:	2b00      	cmp	r3, #0
    248c:	d100      	bne.n	2490 <recvfrom+0xb4>
    248e:	e7d9      	b.n	2444 <recvfrom+0x68>
    2490:	bf00      	nop
    2492:	7f7b      	ldrb	r3, [r7, #29]
    2494:	f003 0307 	and.w	r3, r3, #7
    2498:	2b03      	cmp	r3, #3
    249a:	f000 80d1 	beq.w	2640 <recvfrom+0x264>
    249e:	2b04      	cmp	r3, #4
    24a0:	d06f      	beq.n	2582 <recvfrom+0x1a6>
    24a2:	2b02      	cmp	r3, #2
    24a4:	f040 8130 	bne.w	2708 <recvfrom+0x32c>
    24a8:	7bfb      	ldrb	r3, [r7, #15]
    24aa:	4a8e      	ldr	r2, [pc, #568]	; (26e4 <recvfrom+0x308>)
    24ac:	f832 3013 	ldrh.w	r3, [r2, r3, lsl #1]
    24b0:	2b00      	cmp	r3, #0
    24b2:	d14e      	bne.n	2552 <recvfrom+0x176>
    24b4:	f107 0114 	add.w	r1, r7, #20
    24b8:	7bfb      	ldrb	r3, [r7, #15]
    24ba:	2208      	movs	r2, #8
    24bc:	4618      	mov	r0, r3
    24be:	f006 fb23 	bl	8b08 <wiz_recv_data>
    24c2:	7bfb      	ldrb	r3, [r7, #15]
    24c4:	3304      	adds	r3, #4
    24c6:	021b      	lsls	r3, r3, #8
    24c8:	3301      	adds	r3, #1
    24ca:	2140      	movs	r1, #64	; 0x40
    24cc:	4618      	mov	r0, r3
    24ce:	f7ff fbcb 	bl	1c68 <WIZCHIP_WRITE>
    24d2:	bf00      	nop
    24d4:	7bfb      	ldrb	r3, [r7, #15]
    24d6:	3304      	adds	r3, #4
    24d8:	021b      	lsls	r3, r3, #8
    24da:	3301      	adds	r3, #1
    24dc:	4618      	mov	r0, r3
    24de:	f7ff fbf1 	bl	1cc4 <WIZCHIP_READ>
    24e2:	4603      	mov	r3, r0
    24e4:	2b00      	cmp	r3, #0
    24e6:	d1f5      	bne.n	24d4 <recvfrom+0xf8>
    24e8:	7d3a      	ldrb	r2, [r7, #20]
    24ea:	687b      	ldr	r3, [r7, #4]
    24ec:	701a      	strb	r2, [r3, #0]
    24ee:	687b      	ldr	r3, [r7, #4]
    24f0:	3301      	adds	r3, #1
    24f2:	7d7a      	ldrb	r2, [r7, #21]
    24f4:	701a      	strb	r2, [r3, #0]
    24f6:	687b      	ldr	r3, [r7, #4]
    24f8:	3302      	adds	r3, #2
    24fa:	7dba      	ldrb	r2, [r7, #22]
    24fc:	701a      	strb	r2, [r3, #0]
    24fe:	687b      	ldr	r3, [r7, #4]
    2500:	3303      	adds	r3, #3
    2502:	7dfa      	ldrb	r2, [r7, #23]
    2504:	701a      	strb	r2, [r3, #0]
    2506:	7e3b      	ldrb	r3, [r7, #24]
    2508:	b29a      	uxth	r2, r3
    250a:	6abb      	ldr	r3, [r7, #40]	; 0x28
    250c:	801a      	strh	r2, [r3, #0]
    250e:	6abb      	ldr	r3, [r7, #40]	; 0x28
    2510:	881b      	ldrh	r3, [r3, #0]
    2512:	021b      	lsls	r3, r3, #8
    2514:	b29a      	uxth	r2, r3
    2516:	7e7b      	ldrb	r3, [r7, #25]
    2518:	b29b      	uxth	r3, r3
    251a:	4413      	add	r3, r2
    251c:	b29a      	uxth	r2, r3
    251e:	6abb      	ldr	r3, [r7, #40]	; 0x28
    2520:	801a      	strh	r2, [r3, #0]
    2522:	7eba      	ldrb	r2, [r7, #26]
    2524:	7bfb      	ldrb	r3, [r7, #15]
    2526:	b291      	uxth	r1, r2
    2528:	4a6e      	ldr	r2, [pc, #440]	; (26e4 <recvfrom+0x308>)
    252a:	f822 1013 	strh.w	r1, [r2, r3, lsl #1]
    252e:	7bfb      	ldrb	r3, [r7, #15]
    2530:	4a6c      	ldr	r2, [pc, #432]	; (26e4 <recvfrom+0x308>)
    2532:	f832 3013 	ldrh.w	r3, [r2, r3, lsl #1]
    2536:	021b      	lsls	r3, r3, #8
    2538:	b299      	uxth	r1, r3
    253a:	7efb      	ldrb	r3, [r7, #27]
    253c:	b29a      	uxth	r2, r3
    253e:	7bfb      	ldrb	r3, [r7, #15]
    2540:	440a      	add	r2, r1
    2542:	b291      	uxth	r1, r2
    2544:	4a67      	ldr	r2, [pc, #412]	; (26e4 <recvfrom+0x308>)
    2546:	f822 1013 	strh.w	r1, [r2, r3, lsl #1]
    254a:	7bfb      	ldrb	r3, [r7, #15]
    254c:	4a67      	ldr	r2, [pc, #412]	; (26ec <recvfrom+0x310>)
    254e:	2180      	movs	r1, #128	; 0x80
    2550:	54d1      	strb	r1, [r2, r3]
    2552:	7bfb      	ldrb	r3, [r7, #15]
    2554:	4a63      	ldr	r2, [pc, #396]	; (26e4 <recvfrom+0x308>)
    2556:	f832 3013 	ldrh.w	r3, [r2, r3, lsl #1]
    255a:	89ba      	ldrh	r2, [r7, #12]
    255c:	429a      	cmp	r2, r3
    255e:	d202      	bcs.n	2566 <recvfrom+0x18a>
    2560:	89bb      	ldrh	r3, [r7, #12]
    2562:	83fb      	strh	r3, [r7, #30]
    2564:	e004      	b.n	2570 <recvfrom+0x194>
    2566:	7bfb      	ldrb	r3, [r7, #15]
    2568:	4a5e      	ldr	r2, [pc, #376]	; (26e4 <recvfrom+0x308>)
    256a:	f832 3013 	ldrh.w	r3, [r2, r3, lsl #1]
    256e:	83fb      	strh	r3, [r7, #30]
    2570:	8bfb      	ldrh	r3, [r7, #30]
    2572:	81bb      	strh	r3, [r7, #12]
    2574:	8bfa      	ldrh	r2, [r7, #30]
    2576:	7bfb      	ldrb	r3, [r7, #15]
    2578:	68b9      	ldr	r1, [r7, #8]
    257a:	4618      	mov	r0, r3
    257c:	f006 fac4 	bl	8b08 <wiz_recv_data>
    2580:	e0ce      	b.n	2720 <recvfrom+0x344>
    2582:	7bfb      	ldrb	r3, [r7, #15]
    2584:	4a57      	ldr	r2, [pc, #348]	; (26e4 <recvfrom+0x308>)
    2586:	f832 3013 	ldrh.w	r3, [r2, r3, lsl #1]
    258a:	2b00      	cmp	r3, #0
    258c:	d142      	bne.n	2614 <recvfrom+0x238>
    258e:	f107 0114 	add.w	r1, r7, #20
    2592:	7bfb      	ldrb	r3, [r7, #15]
    2594:	2202      	movs	r2, #2
    2596:	4618      	mov	r0, r3
    2598:	f006 fab6 	bl	8b08 <wiz_recv_data>
    259c:	7bfb      	ldrb	r3, [r7, #15]
    259e:	3304      	adds	r3, #4
    25a0:	021b      	lsls	r3, r3, #8
    25a2:	3301      	adds	r3, #1
    25a4:	2140      	movs	r1, #64	; 0x40
    25a6:	4618      	mov	r0, r3
    25a8:	f7ff fb5e 	bl	1c68 <WIZCHIP_WRITE>
    25ac:	bf00      	nop
    25ae:	7bfb      	ldrb	r3, [r7, #15]
    25b0:	3304      	adds	r3, #4
    25b2:	021b      	lsls	r3, r3, #8
    25b4:	3301      	adds	r3, #1
    25b6:	4618      	mov	r0, r3
    25b8:	f7ff fb84 	bl	1cc4 <WIZCHIP_READ>
    25bc:	4603      	mov	r3, r0
    25be:	2b00      	cmp	r3, #0
    25c0:	d1f5      	bne.n	25ae <recvfrom+0x1d2>
    25c2:	7d3a      	ldrb	r2, [r7, #20]
    25c4:	7bfb      	ldrb	r3, [r7, #15]
    25c6:	b291      	uxth	r1, r2
    25c8:	4a46      	ldr	r2, [pc, #280]	; (26e4 <recvfrom+0x308>)
    25ca:	f822 1013 	strh.w	r1, [r2, r3, lsl #1]
    25ce:	7bfb      	ldrb	r3, [r7, #15]
    25d0:	4a44      	ldr	r2, [pc, #272]	; (26e4 <recvfrom+0x308>)
    25d2:	f832 3013 	ldrh.w	r3, [r2, r3, lsl #1]
    25d6:	021b      	lsls	r3, r3, #8
    25d8:	b29a      	uxth	r2, r3
    25da:	7d7b      	ldrb	r3, [r7, #21]
    25dc:	b29b      	uxth	r3, r3
    25de:	4413      	add	r3, r2
    25e0:	b29a      	uxth	r2, r3
    25e2:	7bfb      	ldrb	r3, [r7, #15]
    25e4:	3a02      	subs	r2, #2
    25e6:	b291      	uxth	r1, r2
    25e8:	4a3e      	ldr	r2, [pc, #248]	; (26e4 <recvfrom+0x308>)
    25ea:	f822 1013 	strh.w	r1, [r2, r3, lsl #1]
    25ee:	7bfb      	ldrb	r3, [r7, #15]
    25f0:	4a3c      	ldr	r2, [pc, #240]	; (26e4 <recvfrom+0x308>)
    25f2:	f832 3013 	ldrh.w	r3, [r2, r3, lsl #1]
    25f6:	f240 52ea 	movw	r2, #1514	; 0x5ea
    25fa:	4293      	cmp	r3, r2
    25fc:	d906      	bls.n	260c <recvfrom+0x230>
    25fe:	7bfb      	ldrb	r3, [r7, #15]
    2600:	4618      	mov	r0, r3
    2602:	f7ff fd2f 	bl	2064 <close>
    2606:	f46f 737a 	mvn.w	r3, #1000	; 0x3e8
    260a:	e0bc      	b.n	2786 <recvfrom+0x3aa>
    260c:	7bfb      	ldrb	r3, [r7, #15]
    260e:	4a37      	ldr	r2, [pc, #220]	; (26ec <recvfrom+0x310>)
    2610:	2180      	movs	r1, #128	; 0x80
    2612:	54d1      	strb	r1, [r2, r3]
    2614:	7bfb      	ldrb	r3, [r7, #15]
    2616:	4a33      	ldr	r2, [pc, #204]	; (26e4 <recvfrom+0x308>)
    2618:	f832 3013 	ldrh.w	r3, [r2, r3, lsl #1]
    261c:	89ba      	ldrh	r2, [r7, #12]
    261e:	429a      	cmp	r2, r3
    2620:	d202      	bcs.n	2628 <recvfrom+0x24c>
    2622:	89bb      	ldrh	r3, [r7, #12]
    2624:	83fb      	strh	r3, [r7, #30]
    2626:	e004      	b.n	2632 <recvfrom+0x256>
    2628:	7bfb      	ldrb	r3, [r7, #15]
    262a:	4a2e      	ldr	r2, [pc, #184]	; (26e4 <recvfrom+0x308>)
    262c:	f832 3013 	ldrh.w	r3, [r2, r3, lsl #1]
    2630:	83fb      	strh	r3, [r7, #30]
    2632:	8bfa      	ldrh	r2, [r7, #30]
    2634:	7bfb      	ldrb	r3, [r7, #15]
    2636:	68b9      	ldr	r1, [r7, #8]
    2638:	4618      	mov	r0, r3
    263a:	f006 fa65 	bl	8b08 <wiz_recv_data>
    263e:	e06f      	b.n	2720 <recvfrom+0x344>
    2640:	7bfb      	ldrb	r3, [r7, #15]
    2642:	4a28      	ldr	r2, [pc, #160]	; (26e4 <recvfrom+0x308>)
    2644:	f832 3013 	ldrh.w	r3, [r2, r3, lsl #1]
    2648:	2b00      	cmp	r3, #0
    264a:	d140      	bne.n	26ce <recvfrom+0x2f2>
    264c:	f107 0114 	add.w	r1, r7, #20
    2650:	7bfb      	ldrb	r3, [r7, #15]
    2652:	2206      	movs	r2, #6
    2654:	4618      	mov	r0, r3
    2656:	f006 fa57 	bl	8b08 <wiz_recv_data>
    265a:	7bfb      	ldrb	r3, [r7, #15]
    265c:	3304      	adds	r3, #4
    265e:	021b      	lsls	r3, r3, #8
    2660:	3301      	adds	r3, #1
    2662:	2140      	movs	r1, #64	; 0x40
    2664:	4618      	mov	r0, r3
    2666:	f7ff faff 	bl	1c68 <WIZCHIP_WRITE>
    266a:	bf00      	nop
    266c:	7bfb      	ldrb	r3, [r7, #15]
    266e:	3304      	adds	r3, #4
    2670:	021b      	lsls	r3, r3, #8
    2672:	3301      	adds	r3, #1
    2674:	4618      	mov	r0, r3
    2676:	f7ff fb25 	bl	1cc4 <WIZCHIP_READ>
    267a:	4603      	mov	r3, r0
    267c:	2b00      	cmp	r3, #0
    267e:	d1f5      	bne.n	266c <recvfrom+0x290>
    2680:	7d3a      	ldrb	r2, [r7, #20]
    2682:	687b      	ldr	r3, [r7, #4]
    2684:	701a      	strb	r2, [r3, #0]
    2686:	687b      	ldr	r3, [r7, #4]
    2688:	3301      	adds	r3, #1
    268a:	7d7a      	ldrb	r2, [r7, #21]
    268c:	701a      	strb	r2, [r3, #0]
    268e:	687b      	ldr	r3, [r7, #4]
    2690:	3302      	adds	r3, #2
    2692:	7dba      	ldrb	r2, [r7, #22]
    2694:	701a      	strb	r2, [r3, #0]
    2696:	687b      	ldr	r3, [r7, #4]
    2698:	3303      	adds	r3, #3
    269a:	7dfa      	ldrb	r2, [r7, #23]
    269c:	701a      	strb	r2, [r3, #0]
    269e:	7e3a      	ldrb	r2, [r7, #24]
    26a0:	7bfb      	ldrb	r3, [r7, #15]
    26a2:	b291      	uxth	r1, r2
    26a4:	4a0f      	ldr	r2, [pc, #60]	; (26e4 <recvfrom+0x308>)
    26a6:	f822 1013 	strh.w	r1, [r2, r3, lsl #1]
    26aa:	7bfb      	ldrb	r3, [r7, #15]
    26ac:	4a0d      	ldr	r2, [pc, #52]	; (26e4 <recvfrom+0x308>)
    26ae:	f832 3013 	ldrh.w	r3, [r2, r3, lsl #1]
    26b2:	021b      	lsls	r3, r3, #8
    26b4:	b299      	uxth	r1, r3
    26b6:	7e7b      	ldrb	r3, [r7, #25]
    26b8:	b29a      	uxth	r2, r3
    26ba:	7bfb      	ldrb	r3, [r7, #15]
    26bc:	440a      	add	r2, r1
    26be:	b291      	uxth	r1, r2
    26c0:	4a08      	ldr	r2, [pc, #32]	; (26e4 <recvfrom+0x308>)
    26c2:	f822 1013 	strh.w	r1, [r2, r3, lsl #1]
    26c6:	7bfb      	ldrb	r3, [r7, #15]
    26c8:	4a08      	ldr	r2, [pc, #32]	; (26ec <recvfrom+0x310>)
    26ca:	2180      	movs	r1, #128	; 0x80
    26cc:	54d1      	strb	r1, [r2, r3]
    26ce:	7bfb      	ldrb	r3, [r7, #15]
    26d0:	4a04      	ldr	r2, [pc, #16]	; (26e4 <recvfrom+0x308>)
    26d2:	f832 3013 	ldrh.w	r3, [r2, r3, lsl #1]
    26d6:	89ba      	ldrh	r2, [r7, #12]
    26d8:	429a      	cmp	r2, r3
    26da:	d209      	bcs.n	26f0 <recvfrom+0x314>
    26dc:	89bb      	ldrh	r3, [r7, #12]
    26de:	83fb      	strh	r3, [r7, #30]
    26e0:	e00b      	b.n	26fa <recvfrom+0x31e>
    26e2:	bf00      	nop
    26e4:	200000c8 	.word	0x200000c8
    26e8:	20000ab0 	.word	0x20000ab0
    26ec:	200000d0 	.word	0x200000d0
    26f0:	7bfb      	ldrb	r3, [r7, #15]
    26f2:	4a27      	ldr	r2, [pc, #156]	; (2790 <recvfrom+0x3b4>)
    26f4:	f832 3013 	ldrh.w	r3, [r2, r3, lsl #1]
    26f8:	83fb      	strh	r3, [r7, #30]
    26fa:	8bfa      	ldrh	r2, [r7, #30]
    26fc:	7bfb      	ldrb	r3, [r7, #15]
    26fe:	68b9      	ldr	r1, [r7, #8]
    2700:	4618      	mov	r0, r3
    2702:	f006 fa01 	bl	8b08 <wiz_recv_data>
    2706:	e00b      	b.n	2720 <recvfrom+0x344>
    2708:	8bfa      	ldrh	r2, [r7, #30]
    270a:	7bfb      	ldrb	r3, [r7, #15]
    270c:	4611      	mov	r1, r2
    270e:	4618      	mov	r0, r3
    2710:	f006 fab0 	bl	8c74 <wiz_recv_ignore>
    2714:	7bfb      	ldrb	r3, [r7, #15]
    2716:	491e      	ldr	r1, [pc, #120]	; (2790 <recvfrom+0x3b4>)
    2718:	8bfa      	ldrh	r2, [r7, #30]
    271a:	f821 2013 	strh.w	r2, [r1, r3, lsl #1]
    271e:	bf00      	nop
    2720:	7bfb      	ldrb	r3, [r7, #15]
    2722:	3304      	adds	r3, #4
    2724:	021b      	lsls	r3, r3, #8
    2726:	3301      	adds	r3, #1
    2728:	2140      	movs	r1, #64	; 0x40
    272a:	4618      	mov	r0, r3
    272c:	f7ff fa9c 	bl	1c68 <WIZCHIP_WRITE>
    2730:	bf00      	nop
    2732:	7bfb      	ldrb	r3, [r7, #15]
    2734:	3304      	adds	r3, #4
    2736:	021b      	lsls	r3, r3, #8
    2738:	3301      	adds	r3, #1
    273a:	4618      	mov	r0, r3
    273c:	f7ff fac2 	bl	1cc4 <WIZCHIP_READ>
    2740:	4603      	mov	r3, r0
    2742:	2b00      	cmp	r3, #0
    2744:	d1f5      	bne.n	2732 <recvfrom+0x356>
    2746:	7bfb      	ldrb	r3, [r7, #15]
    2748:	4a11      	ldr	r2, [pc, #68]	; (2790 <recvfrom+0x3b4>)
    274a:	f832 1013 	ldrh.w	r1, [r2, r3, lsl #1]
    274e:	7bfb      	ldrb	r3, [r7, #15]
    2750:	8bfa      	ldrh	r2, [r7, #30]
    2752:	1a8a      	subs	r2, r1, r2
    2754:	b291      	uxth	r1, r2
    2756:	4a0e      	ldr	r2, [pc, #56]	; (2790 <recvfrom+0x3b4>)
    2758:	f822 1013 	strh.w	r1, [r2, r3, lsl #1]
    275c:	7bfb      	ldrb	r3, [r7, #15]
    275e:	4a0c      	ldr	r2, [pc, #48]	; (2790 <recvfrom+0x3b4>)
    2760:	f832 3013 	ldrh.w	r3, [r2, r3, lsl #1]
    2764:	2b00      	cmp	r3, #0
    2766:	d009      	beq.n	277c <recvfrom+0x3a0>
    2768:	7bfb      	ldrb	r3, [r7, #15]
    276a:	4a0a      	ldr	r2, [pc, #40]	; (2794 <recvfrom+0x3b8>)
    276c:	5cd2      	ldrb	r2, [r2, r3]
    276e:	7bfb      	ldrb	r3, [r7, #15]
    2770:	f042 0201 	orr.w	r2, r2, #1
    2774:	b2d1      	uxtb	r1, r2
    2776:	4a07      	ldr	r2, [pc, #28]	; (2794 <recvfrom+0x3b8>)
    2778:	54d1      	strb	r1, [r2, r3]
    277a:	e003      	b.n	2784 <recvfrom+0x3a8>
    277c:	7bfb      	ldrb	r3, [r7, #15]
    277e:	4a05      	ldr	r2, [pc, #20]	; (2794 <recvfrom+0x3b8>)
    2780:	2100      	movs	r1, #0
    2782:	54d1      	strb	r1, [r2, r3]
    2784:	8bfb      	ldrh	r3, [r7, #30]
    2786:	4618      	mov	r0, r3
    2788:	3720      	adds	r7, #32
    278a:	46bd      	mov	sp, r7
    278c:	bd80      	pop	{r7, pc}
    278e:	bf00      	nop
    2790:	200000c8 	.word	0x200000c8
    2794:	200000d0 	.word	0x200000d0

00002798 <setintflags>:
    2798:	b480      	push	{r7}
    279a:	af00      	add	r7, sp, #0
    279c:	4b05      	ldr	r3, [pc, #20]	; (27b4 <setintflags+0x1c>)
    279e:	2200      	movs	r2, #0
    27a0:	701a      	strb	r2, [r3, #0]
    27a2:	4b05      	ldr	r3, [pc, #20]	; (27b8 <setintflags+0x20>)
    27a4:	2201      	movs	r2, #1
    27a6:	701a      	strb	r2, [r3, #0]
    27a8:	bf00      	nop
    27aa:	46bd      	mov	sp, r7
    27ac:	f85d 7b04 	ldr.w	r7, [sp], #4
    27b0:	4770      	bx	lr
    27b2:	bf00      	nop
    27b4:	20000ab7 	.word	0x20000ab7
    27b8:	20000ab8 	.word	0x20000ab8

000027bc <waitfortransfer>:
    27bc:	b480      	push	{r7}
    27be:	af00      	add	r7, sp, #0
    27c0:	bf00      	nop
    27c2:	4b06      	ldr	r3, [pc, #24]	; (27dc <waitfortransfer+0x20>)
    27c4:	781b      	ldrb	r3, [r3, #0]
    27c6:	b2db      	uxtb	r3, r3
    27c8:	f083 0301 	eor.w	r3, r3, #1
    27cc:	b2db      	uxtb	r3, r3
    27ce:	2b00      	cmp	r3, #0
    27d0:	d1f7      	bne.n	27c2 <waitfortransfer+0x6>
    27d2:	bf00      	nop
    27d4:	46bd      	mov	sp, r7
    27d6:	f85d 7b04 	ldr.w	r7, [sp], #4
    27da:	4770      	bx	lr
    27dc:	20000ab7 	.word	0x20000ab7

000027e0 <LPSPI_MasterSignalEvent_t>:
    27e0:	b480      	push	{r7}
    27e2:	b083      	sub	sp, #12
    27e4:	af00      	add	r7, sp, #0
    27e6:	6078      	str	r0, [r7, #4]
    27e8:	4b0c      	ldr	r3, [pc, #48]	; (281c <LPSPI_MasterSignalEvent_t+0x3c>)
    27ea:	781b      	ldrb	r3, [r3, #0]
    27ec:	b2db      	uxtb	r3, r3
    27ee:	2b00      	cmp	r3, #0
    27f0:	d002      	beq.n	27f8 <LPSPI_MasterSignalEvent_t+0x18>
    27f2:	4b0a      	ldr	r3, [pc, #40]	; (281c <LPSPI_MasterSignalEvent_t+0x3c>)
    27f4:	2200      	movs	r2, #0
    27f6:	701a      	strb	r2, [r3, #0]
    27f8:	4b09      	ldr	r3, [pc, #36]	; (2820 <LPSPI_MasterSignalEvent_t+0x40>)
    27fa:	781b      	ldrb	r3, [r3, #0]
    27fc:	b2db      	uxtb	r3, r3
    27fe:	2b00      	cmp	r3, #0
    2800:	d002      	beq.n	2808 <LPSPI_MasterSignalEvent_t+0x28>
    2802:	4b07      	ldr	r3, [pc, #28]	; (2820 <LPSPI_MasterSignalEvent_t+0x40>)
    2804:	2200      	movs	r2, #0
    2806:	701a      	strb	r2, [r3, #0]
    2808:	4b06      	ldr	r3, [pc, #24]	; (2824 <LPSPI_MasterSignalEvent_t+0x44>)
    280a:	2201      	movs	r2, #1
    280c:	701a      	strb	r2, [r3, #0]
    280e:	bf00      	nop
    2810:	370c      	adds	r7, #12
    2812:	46bd      	mov	sp, r7
    2814:	f85d 7b04 	ldr.w	r7, [sp], #4
    2818:	4770      	bx	lr
    281a:	bf00      	nop
    281c:	20000ab9 	.word	0x20000ab9
    2820:	20000ab8 	.word	0x20000ab8
    2824:	20000ab7 	.word	0x20000ab7

00002828 <wizchip_cs_select>:
    2828:	b580      	push	{r7, lr}
    282a:	af00      	add	r7, sp, #0
    282c:	2200      	movs	r2, #0
    282e:	2100      	movs	r1, #0
    2830:	4802      	ldr	r0, [pc, #8]	; (283c <wizchip_cs_select+0x14>)
    2832:	f001 fb71 	bl	3f18 <GPIO_PinWrite>
    2836:	bf00      	nop
    2838:	bd80      	pop	{r7, pc}
    283a:	bf00      	nop
    283c:	401bc000 	.word	0x401bc000

00002840 <wizchip_cs_deselect>:
    2840:	b580      	push	{r7, lr}
    2842:	af00      	add	r7, sp, #0
    2844:	2201      	movs	r2, #1
    2846:	2100      	movs	r1, #0
    2848:	4802      	ldr	r0, [pc, #8]	; (2854 <wizchip_cs_deselect+0x14>)
    284a:	f001 fb65 	bl	3f18 <GPIO_PinWrite>
    284e:	bf00      	nop
    2850:	bd80      	pop	{r7, pc}
    2852:	bf00      	nop
    2854:	401bc000 	.word	0x401bc000

00002858 <wizchip_spi_readbyte>:
    2858:	b580      	push	{r7, lr}
    285a:	b082      	sub	sp, #8
    285c:	af00      	add	r7, sp, #0
    285e:	2300      	movs	r3, #0
    2860:	71fb      	strb	r3, [r7, #7]
    2862:	2300      	movs	r3, #0
    2864:	71bb      	strb	r3, [r7, #6]
    2866:	f7ff ff97 	bl	2798 <setintflags>
    286a:	4b06      	ldr	r3, [pc, #24]	; (2884 <wizchip_spi_readbyte+0x2c>)
    286c:	69db      	ldr	r3, [r3, #28]
    286e:	1df9      	adds	r1, r7, #7
    2870:	1db8      	adds	r0, r7, #6
    2872:	2201      	movs	r2, #1
    2874:	4798      	blx	r3
    2876:	f7ff ffa1 	bl	27bc <waitfortransfer>
    287a:	79fb      	ldrb	r3, [r7, #7]
    287c:	4618      	mov	r0, r3
    287e:	3708      	adds	r7, #8
    2880:	46bd      	mov	sp, r7
    2882:	bd80      	pop	{r7, pc}
    2884:	0000c070 	.word	0x0000c070

00002888 <wizchip_spi_writebyte>:
    2888:	b580      	push	{r7, lr}
    288a:	b084      	sub	sp, #16
    288c:	af00      	add	r7, sp, #0
    288e:	4603      	mov	r3, r0
    2890:	71fb      	strb	r3, [r7, #7]
    2892:	79fb      	ldrb	r3, [r7, #7]
    2894:	73fb      	strb	r3, [r7, #15]
    2896:	2300      	movs	r3, #0
    2898:	73bb      	strb	r3, [r7, #14]
    289a:	f7ff ff7d 	bl	2798 <setintflags>
    289e:	4b07      	ldr	r3, [pc, #28]	; (28bc <wizchip_spi_writebyte+0x34>)
    28a0:	69db      	ldr	r3, [r3, #28]
    28a2:	f107 010e 	add.w	r1, r7, #14
    28a6:	f107 000f 	add.w	r0, r7, #15
    28aa:	2201      	movs	r2, #1
    28ac:	4798      	blx	r3
    28ae:	f7ff ff85 	bl	27bc <waitfortransfer>
    28b2:	bf00      	nop
    28b4:	3710      	adds	r7, #16
    28b6:	46bd      	mov	sp, r7
    28b8:	bd80      	pop	{r7, pc}
    28ba:	bf00      	nop
    28bc:	0000c070 	.word	0x0000c070

000028c0 <reg_wizchip_cs_cbfunc>:
    28c0:	b480      	push	{r7}
    28c2:	b083      	sub	sp, #12
    28c4:	af00      	add	r7, sp, #0
    28c6:	6078      	str	r0, [r7, #4]
    28c8:	6039      	str	r1, [r7, #0]
    28ca:	687b      	ldr	r3, [r7, #4]
    28cc:	2b00      	cmp	r3, #0
    28ce:	d002      	beq.n	28d6 <reg_wizchip_cs_cbfunc+0x16>
    28d0:	683b      	ldr	r3, [r7, #0]
    28d2:	2b00      	cmp	r3, #0
    28d4:	d106      	bne.n	28e4 <reg_wizchip_cs_cbfunc+0x24>
    28d6:	4b0c      	ldr	r3, [pc, #48]	; (2908 <reg_wizchip_cs_cbfunc+0x48>)
    28d8:	4a0c      	ldr	r2, [pc, #48]	; (290c <reg_wizchip_cs_cbfunc+0x4c>)
    28da:	615a      	str	r2, [r3, #20]
    28dc:	4b0a      	ldr	r3, [pc, #40]	; (2908 <reg_wizchip_cs_cbfunc+0x48>)
    28de:	4a0c      	ldr	r2, [pc, #48]	; (2910 <reg_wizchip_cs_cbfunc+0x50>)
    28e0:	619a      	str	r2, [r3, #24]
    28e2:	e005      	b.n	28f0 <reg_wizchip_cs_cbfunc+0x30>
    28e4:	4a08      	ldr	r2, [pc, #32]	; (2908 <reg_wizchip_cs_cbfunc+0x48>)
    28e6:	687b      	ldr	r3, [r7, #4]
    28e8:	6153      	str	r3, [r2, #20]
    28ea:	4a07      	ldr	r2, [pc, #28]	; (2908 <reg_wizchip_cs_cbfunc+0x48>)
    28ec:	683b      	ldr	r3, [r7, #0]
    28ee:	6193      	str	r3, [r2, #24]
    28f0:	4b05      	ldr	r3, [pc, #20]	; (2908 <reg_wizchip_cs_cbfunc+0x48>)
    28f2:	4a08      	ldr	r2, [pc, #32]	; (2914 <reg_wizchip_cs_cbfunc+0x54>)
    28f4:	61da      	str	r2, [r3, #28]
    28f6:	4b04      	ldr	r3, [pc, #16]	; (2908 <reg_wizchip_cs_cbfunc+0x48>)
    28f8:	4a07      	ldr	r2, [pc, #28]	; (2918 <reg_wizchip_cs_cbfunc+0x58>)
    28fa:	621a      	str	r2, [r3, #32]
    28fc:	bf00      	nop
    28fe:	370c      	adds	r7, #12
    2900:	46bd      	mov	sp, r7
    2902:	f85d 7b04 	ldr.w	r7, [sp], #4
    2906:	4770      	bx	lr
    2908:	2000001c 	.word	0x2000001c
    290c:	00002829 	.word	0x00002829
    2910:	00002841 	.word	0x00002841
    2914:	00002859 	.word	0x00002859
    2918:	00002889 	.word	0x00002889

0000291c <reg_wizchip_spi_cbfunc>:
    291c:	b480      	push	{r7}
    291e:	b083      	sub	sp, #12
    2920:	af00      	add	r7, sp, #0
    2922:	6078      	str	r0, [r7, #4]
    2924:	6039      	str	r1, [r7, #0]
    2926:	bf00      	nop
    2928:	4b0f      	ldr	r3, [pc, #60]	; (2968 <reg_wizchip_spi_cbfunc+0x4c>)
    292a:	881b      	ldrh	r3, [r3, #0]
    292c:	f403 7300 	and.w	r3, r3, #512	; 0x200
    2930:	2b00      	cmp	r3, #0
    2932:	d0f9      	beq.n	2928 <reg_wizchip_spi_cbfunc+0xc>
    2934:	687b      	ldr	r3, [r7, #4]
    2936:	2b00      	cmp	r3, #0
    2938:	d002      	beq.n	2940 <reg_wizchip_spi_cbfunc+0x24>
    293a:	683b      	ldr	r3, [r7, #0]
    293c:	2b00      	cmp	r3, #0
    293e:	d106      	bne.n	294e <reg_wizchip_spi_cbfunc+0x32>
    2940:	4b09      	ldr	r3, [pc, #36]	; (2968 <reg_wizchip_spi_cbfunc+0x4c>)
    2942:	4a0a      	ldr	r2, [pc, #40]	; (296c <reg_wizchip_spi_cbfunc+0x50>)
    2944:	61da      	str	r2, [r3, #28]
    2946:	4b08      	ldr	r3, [pc, #32]	; (2968 <reg_wizchip_spi_cbfunc+0x4c>)
    2948:	4a09      	ldr	r2, [pc, #36]	; (2970 <reg_wizchip_spi_cbfunc+0x54>)
    294a:	621a      	str	r2, [r3, #32]
    294c:	e005      	b.n	295a <reg_wizchip_spi_cbfunc+0x3e>
    294e:	4a06      	ldr	r2, [pc, #24]	; (2968 <reg_wizchip_spi_cbfunc+0x4c>)
    2950:	687b      	ldr	r3, [r7, #4]
    2952:	61d3      	str	r3, [r2, #28]
    2954:	4a04      	ldr	r2, [pc, #16]	; (2968 <reg_wizchip_spi_cbfunc+0x4c>)
    2956:	683b      	ldr	r3, [r7, #0]
    2958:	6213      	str	r3, [r2, #32]
    295a:	bf00      	nop
    295c:	370c      	adds	r7, #12
    295e:	46bd      	mov	sp, r7
    2960:	f85d 7b04 	ldr.w	r7, [sp], #4
    2964:	4770      	bx	lr
    2966:	bf00      	nop
    2968:	2000001c 	.word	0x2000001c
    296c:	00002859 	.word	0x00002859
    2970:	00002889 	.word	0x00002889

00002974 <wizchip_setnetinfo>:
    2974:	b580      	push	{r7, lr}
    2976:	b082      	sub	sp, #8
    2978:	af00      	add	r7, sp, #0
    297a:	6078      	str	r0, [r7, #4]
    297c:	687b      	ldr	r3, [r7, #4]
    297e:	2206      	movs	r2, #6
    2980:	4619      	mov	r1, r3
    2982:	2009      	movs	r0, #9
    2984:	f7ff f9cc 	bl	1d20 <WIZCHIP_WRITE_BUF>
    2988:	687b      	ldr	r3, [r7, #4]
    298a:	330e      	adds	r3, #14
    298c:	2204      	movs	r2, #4
    298e:	4619      	mov	r1, r3
    2990:	2001      	movs	r0, #1
    2992:	f7ff f9c5 	bl	1d20 <WIZCHIP_WRITE_BUF>
    2996:	687b      	ldr	r3, [r7, #4]
    2998:	330a      	adds	r3, #10
    299a:	2204      	movs	r2, #4
    299c:	4619      	mov	r1, r3
    299e:	2005      	movs	r0, #5
    29a0:	f7ff f9be 	bl	1d20 <WIZCHIP_WRITE_BUF>
    29a4:	687b      	ldr	r3, [r7, #4]
    29a6:	3306      	adds	r3, #6
    29a8:	2204      	movs	r2, #4
    29aa:	4619      	mov	r1, r3
    29ac:	200f      	movs	r0, #15
    29ae:	f7ff f9b7 	bl	1d20 <WIZCHIP_WRITE_BUF>
    29b2:	687b      	ldr	r3, [r7, #4]
    29b4:	7c9a      	ldrb	r2, [r3, #18]
    29b6:	4b0b      	ldr	r3, [pc, #44]	; (29e4 <wizchip_setnetinfo+0x70>)
    29b8:	701a      	strb	r2, [r3, #0]
    29ba:	687b      	ldr	r3, [r7, #4]
    29bc:	7cda      	ldrb	r2, [r3, #19]
    29be:	4b09      	ldr	r3, [pc, #36]	; (29e4 <wizchip_setnetinfo+0x70>)
    29c0:	705a      	strb	r2, [r3, #1]
    29c2:	687b      	ldr	r3, [r7, #4]
    29c4:	7d1a      	ldrb	r2, [r3, #20]
    29c6:	4b07      	ldr	r3, [pc, #28]	; (29e4 <wizchip_setnetinfo+0x70>)
    29c8:	709a      	strb	r2, [r3, #2]
    29ca:	687b      	ldr	r3, [r7, #4]
    29cc:	7d5a      	ldrb	r2, [r3, #21]
    29ce:	4b05      	ldr	r3, [pc, #20]	; (29e4 <wizchip_setnetinfo+0x70>)
    29d0:	70da      	strb	r2, [r3, #3]
    29d2:	687b      	ldr	r3, [r7, #4]
    29d4:	7d9a      	ldrb	r2, [r3, #22]
    29d6:	4b04      	ldr	r3, [pc, #16]	; (29e8 <wizchip_setnetinfo+0x74>)
    29d8:	701a      	strb	r2, [r3, #0]
    29da:	bf00      	nop
    29dc:	3708      	adds	r7, #8
    29de:	46bd      	mov	sp, r7
    29e0:	bd80      	pop	{r7, pc}
    29e2:	bf00      	nop
    29e4:	200000d4 	.word	0x200000d4
    29e8:	20000aba 	.word	0x20000aba

000029ec <dhcp_timer_enable>:
    29ec:	b598      	push	{r3, r4, r7, lr}
    29ee:	af00      	add	r7, sp, #0
    29f0:	4821      	ldr	r0, [pc, #132]	; (2a78 <dhcp_timer_enable+0x8c>)
    29f2:	f7fd fe79 	bl	6e8 <DbgConsole_Printf>
    29f6:	4821      	ldr	r0, [pc, #132]	; (2a7c <dhcp_timer_enable+0x90>)
    29f8:	f003 fd20 	bl	643c <QTMR_GetDefaultConfig>
    29fc:	4b1f      	ldr	r3, [pc, #124]	; (2a7c <dhcp_timer_enable+0x90>)
    29fe:	220f      	movs	r2, #15
    2a00:	701a      	strb	r2, [r3, #0]
    2a02:	4a1e      	ldr	r2, [pc, #120]	; (2a7c <dhcp_timer_enable+0x90>)
    2a04:	2100      	movs	r1, #0
    2a06:	481e      	ldr	r0, [pc, #120]	; (2a80 <dhcp_timer_enable+0x94>)
    2a08:	f003 fc94 	bl	6334 <QTMR_Init>
    2a0c:	4b1b      	ldr	r3, [pc, #108]	; (2a7c <dhcp_timer_enable+0x90>)
    2a0e:	2204      	movs	r2, #4
    2a10:	701a      	strb	r2, [r3, #0]
    2a12:	4a1a      	ldr	r2, [pc, #104]	; (2a7c <dhcp_timer_enable+0x90>)
    2a14:	2101      	movs	r1, #1
    2a16:	481a      	ldr	r0, [pc, #104]	; (2a80 <dhcp_timer_enable+0x94>)
    2a18:	f003 fc8c 	bl	6334 <QTMR_Init>
    2a1c:	2003      	movs	r0, #3
    2a1e:	f000 fab1 	bl	2f84 <CLOCK_GetFreq>
    2a22:	4603      	mov	r3, r0
    2a24:	09db      	lsrs	r3, r3, #7
    2a26:	4618      	mov	r0, r3
    2a28:	f04f 0100 	mov.w	r1, #0
    2a2c:	f44f 727a 	mov.w	r2, #1000	; 0x3e8
    2a30:	f04f 0300 	mov.w	r3, #0
    2a34:	f007 fd1b 	bl	a46e <__aeabi_uldivmod>
    2a38:	4603      	mov	r3, r0
    2a3a:	460c      	mov	r4, r1
    2a3c:	b29b      	uxth	r3, r3
    2a3e:	461a      	mov	r2, r3
    2a40:	2100      	movs	r1, #0
    2a42:	480f      	ldr	r0, [pc, #60]	; (2a80 <dhcp_timer_enable+0x94>)
    2a44:	f007 fa01 	bl	9e4a <QTMR_SetTimerPeriod>
    2a48:	f44f 727a 	mov.w	r2, #1000	; 0x3e8
    2a4c:	2101      	movs	r1, #1
    2a4e:	480c      	ldr	r0, [pc, #48]	; (2a80 <dhcp_timer_enable+0x94>)
    2a50:	f007 f9fb 	bl	9e4a <QTMR_SetTimerPeriod>
    2a54:	2201      	movs	r2, #1
    2a56:	2101      	movs	r1, #1
    2a58:	4809      	ldr	r0, [pc, #36]	; (2a80 <dhcp_timer_enable+0x94>)
    2a5a:	f007 f939 	bl	9cd0 <QTMR_EnableInterrupts>
    2a5e:	2207      	movs	r2, #7
    2a60:	2101      	movs	r1, #1
    2a62:	4807      	ldr	r0, [pc, #28]	; (2a80 <dhcp_timer_enable+0x94>)
    2a64:	f006 fa94 	bl	8f90 <QTMR_StartTimer>
    2a68:	2201      	movs	r2, #1
    2a6a:	2100      	movs	r1, #0
    2a6c:	4804      	ldr	r0, [pc, #16]	; (2a80 <dhcp_timer_enable+0x94>)
    2a6e:	f006 fa8f 	bl	8f90 <QTMR_StartTimer>
    2a72:	bf00      	nop
    2a74:	bd98      	pop	{r3, r4, r7, pc}
    2a76:	bf00      	nop
    2a78:	0000a87c 	.word	0x0000a87c
    2a7c:	200008e0 	.word	0x200008e0
    2a80:	401e4000 	.word	0x401e4000

00002a84 <LPSPI4_GetFreq>:
    2a84:	b480      	push	{r7}
    2a86:	af00      	add	r7, sp, #0
    2a88:	4b02      	ldr	r3, [pc, #8]	; (2a94 <LPSPI4_GetFreq+0x10>)
    2a8a:	4618      	mov	r0, r3
    2a8c:	46bd      	mov	sp, r7
    2a8e:	f85d 7b04 	ldr.w	r7, [sp], #4
    2a92:	4770      	bx	lr
    2a94:	03ef1480 	.word	0x03ef1480

00002a98 <TMR3_IRQHandler>:
    2a98:	b580      	push	{r7, lr}
    2a9a:	af00      	add	r7, sp, #0
    2a9c:	2201      	movs	r2, #1
    2a9e:	2101      	movs	r1, #1
    2aa0:	4803      	ldr	r0, [pc, #12]	; (2ab0 <TMR3_IRQHandler+0x18>)
    2aa2:	f007 f97c 	bl	9d9e <QTMR_ClearStatusFlags>
    2aa6:	f7ff f8b1 	bl	1c0c <DHCP_time_handler>
    2aaa:	bf00      	nop
    2aac:	bd80      	pop	{r7, pc}
    2aae:	bf00      	nop
    2ab0:	401e4000 	.word	0x401e4000

00002ab4 <main>:
    2ab4:	b580      	push	{r7, lr}
    2ab6:	b082      	sub	sp, #8
    2ab8:	af02      	add	r7, sp, #8
    2aba:	f004 f925 	bl	6d08 <BOARD_ConfigMPU>
    2abe:	f004 fe4d 	bl	775c <BOARD_InitPins>
    2ac2:	f004 fad5 	bl	7070 <BOARD_BootClockRUN>
    2ac6:	f007 fa45 	bl	9f54 <BOARD_InitDebugConsole>
    2aca:	4860      	ldr	r0, [pc, #384]	; (2c4c <main+0x198>)
    2acc:	f7fd fe0c 	bl	6e8 <DbgConsole_Printf>
    2ad0:	485f      	ldr	r0, [pc, #380]	; (2c50 <main+0x19c>)
    2ad2:	f7fd fe09 	bl	6e8 <DbgConsole_Printf>
    2ad6:	485f      	ldr	r0, [pc, #380]	; (2c54 <main+0x1a0>)
    2ad8:	f7fd fe06 	bl	6e8 <DbgConsole_Printf>
    2adc:	485e      	ldr	r0, [pc, #376]	; (2c58 <main+0x1a4>)
    2ade:	f7fd fe03 	bl	6e8 <DbgConsole_Printf>
    2ae2:	485e      	ldr	r0, [pc, #376]	; (2c5c <main+0x1a8>)
    2ae4:	f7fd fe00 	bl	6e8 <DbgConsole_Printf>
    2ae8:	485d      	ldr	r0, [pc, #372]	; (2c60 <main+0x1ac>)
    2aea:	f7fd fdfd 	bl	6e8 <DbgConsole_Printf>
    2aee:	485d      	ldr	r0, [pc, #372]	; (2c64 <main+0x1b0>)
    2af0:	f7fd fdfa 	bl	6e8 <DbgConsole_Printf>
    2af4:	485c      	ldr	r0, [pc, #368]	; (2c68 <main+0x1b4>)
    2af6:	f7fd fdf7 	bl	6e8 <DbgConsole_Printf>
    2afa:	485c      	ldr	r0, [pc, #368]	; (2c6c <main+0x1b8>)
    2afc:	f7fd fdf4 	bl	6e8 <DbgConsole_Printf>
    2b00:	485b      	ldr	r0, [pc, #364]	; (2c70 <main+0x1bc>)
    2b02:	f7fd fdf1 	bl	6e8 <DbgConsole_Printf>
    2b06:	2201      	movs	r2, #1
    2b08:	2100      	movs	r1, #0
    2b0a:	485a      	ldr	r0, [pc, #360]	; (2c74 <main+0x1c0>)
    2b0c:	f001 fa04 	bl	3f18 <GPIO_PinWrite>
    2b10:	4b59      	ldr	r3, [pc, #356]	; (2c78 <main+0x1c4>)
    2b12:	689b      	ldr	r3, [r3, #8]
    2b14:	4859      	ldr	r0, [pc, #356]	; (2c7c <main+0x1c8>)
    2b16:	4798      	blx	r3
    2b18:	4b57      	ldr	r3, [pc, #348]	; (2c78 <main+0x1c4>)
    2b1a:	691b      	ldr	r3, [r3, #16]
    2b1c:	2002      	movs	r0, #2
    2b1e:	4798      	blx	r3
    2b20:	4b55      	ldr	r3, [pc, #340]	; (2c78 <main+0x1c4>)
    2b22:	6a5b      	ldr	r3, [r3, #36]	; 0x24
    2b24:	4956      	ldr	r1, [pc, #344]	; (2c80 <main+0x1cc>)
    2b26:	2001      	movs	r0, #1
    2b28:	4798      	blx	r3
    2b2a:	2100      	movs	r1, #0
    2b2c:	2000      	movs	r0, #0
    2b2e:	f006 f94d 	bl	8dcc <wizchip_init>
    2b32:	4603      	mov	r3, r0
    2b34:	4619      	mov	r1, r3
    2b36:	4853      	ldr	r0, [pc, #332]	; (2c84 <main+0x1d0>)
    2b38:	f7fd fdd6 	bl	6e8 <DbgConsole_Printf>
    2b3c:	2100      	movs	r1, #0
    2b3e:	2000      	movs	r0, #0
    2b40:	f7ff febe 	bl	28c0 <reg_wizchip_cs_cbfunc>
    2b44:	2100      	movs	r1, #0
    2b46:	2000      	movs	r0, #0
    2b48:	f7ff fee8 	bl	291c <reg_wizchip_spi_cbfunc>
    2b4c:	2064      	movs	r0, #100	; 0x64
    2b4e:	f006 fa46 	bl	8fde <_delay_ms>
    2b52:	484d      	ldr	r0, [pc, #308]	; (2c88 <main+0x1d4>)
    2b54:	f7fd fdc8 	bl	6e8 <DbgConsole_Printf>
    2b58:	2100      	movs	r1, #0
    2b5a:	2000      	movs	r0, #0
    2b5c:	f006 f936 	bl	8dcc <wizchip_init>
    2b60:	4603      	mov	r3, r0
    2b62:	4619      	mov	r1, r3
    2b64:	4849      	ldr	r0, [pc, #292]	; (2c8c <main+0x1d8>)
    2b66:	f7fd fdbf 	bl	6e8 <DbgConsole_Printf>
    2b6a:	4849      	ldr	r0, [pc, #292]	; (2c90 <main+0x1dc>)
    2b6c:	f7fd fdbc 	bl	6e8 <DbgConsole_Printf>
    2b70:	4848      	ldr	r0, [pc, #288]	; (2c94 <main+0x1e0>)
    2b72:	f7ff feff 	bl	2974 <wizchip_setnetinfo>
    2b76:	f7ff ff39 	bl	29ec <dhcp_timer_enable>
    2b7a:	4847      	ldr	r0, [pc, #284]	; (2c98 <main+0x1e4>)
    2b7c:	f7fd fdb4 	bl	6e8 <DbgConsole_Printf>
    2b80:	4946      	ldr	r1, [pc, #280]	; (2c9c <main+0x1e8>)
    2b82:	2000      	movs	r0, #0
    2b84:	f7fe ffc4 	bl	1b10 <DHCP_init>
    2b88:	4845      	ldr	r0, [pc, #276]	; (2ca0 <main+0x1ec>)
    2b8a:	f7fd fdad 	bl	6e8 <DbgConsole_Printf>
    2b8e:	20fa      	movs	r0, #250	; 0xfa
    2b90:	f006 fa25 	bl	8fde <_delay_ms>
    2b94:	4b43      	ldr	r3, [pc, #268]	; (2ca4 <main+0x1f0>)
    2b96:	681b      	ldr	r3, [r3, #0]
    2b98:	3301      	adds	r3, #1
    2b9a:	4a42      	ldr	r2, [pc, #264]	; (2ca4 <main+0x1f0>)
    2b9c:	6013      	str	r3, [r2, #0]
    2b9e:	4b41      	ldr	r3, [pc, #260]	; (2ca4 <main+0x1f0>)
    2ba0:	681b      	ldr	r3, [r3, #0]
    2ba2:	4619      	mov	r1, r3
    2ba4:	4840      	ldr	r0, [pc, #256]	; (2ca8 <main+0x1f4>)
    2ba6:	f7fd fd9f 	bl	6e8 <DbgConsole_Printf>
    2baa:	f7fe fe03 	bl	17b4 <DHCP_run>
    2bae:	4603      	mov	r3, r0
    2bb0:	2b04      	cmp	r3, #4
    2bb2:	d843      	bhi.n	2c3c <main+0x188>
    2bb4:	a201      	add	r2, pc, #4	; (adr r2, 2bbc <main+0x108>)
    2bb6:	f852 f023 	ldr.w	pc, [r2, r3, lsl #2]
    2bba:	bf00      	nop
    2bbc:	00002c35 	.word	0x00002c35
    2bc0:	00002c3d 	.word	0x00002c3d
    2bc4:	00002bd1 	.word	0x00002bd1
    2bc8:	00002bff 	.word	0x00002bff
    2bcc:	00002c07 	.word	0x00002c07
    2bd0:	4836      	ldr	r0, [pc, #216]	; (2cac <main+0x1f8>)
    2bd2:	f7fd fd89 	bl	6e8 <DbgConsole_Printf>
    2bd6:	4836      	ldr	r0, [pc, #216]	; (2cb0 <main+0x1fc>)
    2bd8:	f7ff f826 	bl	1c28 <getIPfromDHCP>
    2bdc:	4b34      	ldr	r3, [pc, #208]	; (2cb0 <main+0x1fc>)
    2bde:	781b      	ldrb	r3, [r3, #0]
    2be0:	4619      	mov	r1, r3
    2be2:	4b33      	ldr	r3, [pc, #204]	; (2cb0 <main+0x1fc>)
    2be4:	785b      	ldrb	r3, [r3, #1]
    2be6:	461a      	mov	r2, r3
    2be8:	4b31      	ldr	r3, [pc, #196]	; (2cb0 <main+0x1fc>)
    2bea:	789b      	ldrb	r3, [r3, #2]
    2bec:	4618      	mov	r0, r3
    2bee:	4b30      	ldr	r3, [pc, #192]	; (2cb0 <main+0x1fc>)
    2bf0:	78db      	ldrb	r3, [r3, #3]
    2bf2:	9300      	str	r3, [sp, #0]
    2bf4:	4603      	mov	r3, r0
    2bf6:	482f      	ldr	r0, [pc, #188]	; (2cb4 <main+0x200>)
    2bf8:	f7fd fd76 	bl	6e8 <DbgConsole_Printf>
    2bfc:	e022      	b.n	2c44 <main+0x190>
    2bfe:	482e      	ldr	r0, [pc, #184]	; (2cb8 <main+0x204>)
    2c00:	f7fd fd72 	bl	6e8 <DbgConsole_Printf>
    2c04:	e01e      	b.n	2c44 <main+0x190>
    2c06:	482d      	ldr	r0, [pc, #180]	; (2cbc <main+0x208>)
    2c08:	f7fd fd6e 	bl	6e8 <DbgConsole_Printf>
    2c0c:	4828      	ldr	r0, [pc, #160]	; (2cb0 <main+0x1fc>)
    2c0e:	f7ff f80b 	bl	1c28 <getIPfromDHCP>
    2c12:	4b27      	ldr	r3, [pc, #156]	; (2cb0 <main+0x1fc>)
    2c14:	781b      	ldrb	r3, [r3, #0]
    2c16:	4619      	mov	r1, r3
    2c18:	4b25      	ldr	r3, [pc, #148]	; (2cb0 <main+0x1fc>)
    2c1a:	785b      	ldrb	r3, [r3, #1]
    2c1c:	461a      	mov	r2, r3
    2c1e:	4b24      	ldr	r3, [pc, #144]	; (2cb0 <main+0x1fc>)
    2c20:	789b      	ldrb	r3, [r3, #2]
    2c22:	4618      	mov	r0, r3
    2c24:	4b22      	ldr	r3, [pc, #136]	; (2cb0 <main+0x1fc>)
    2c26:	78db      	ldrb	r3, [r3, #3]
    2c28:	9300      	str	r3, [sp, #0]
    2c2a:	4603      	mov	r3, r0
    2c2c:	4821      	ldr	r0, [pc, #132]	; (2cb4 <main+0x200>)
    2c2e:	f7fd fd5b 	bl	6e8 <DbgConsole_Printf>
    2c32:	e007      	b.n	2c44 <main+0x190>
    2c34:	4822      	ldr	r0, [pc, #136]	; (2cc0 <main+0x20c>)
    2c36:	f7fd fd57 	bl	6e8 <DbgConsole_Printf>
    2c3a:	e003      	b.n	2c44 <main+0x190>
    2c3c:	4821      	ldr	r0, [pc, #132]	; (2cc4 <main+0x210>)
    2c3e:	f7fd fd53 	bl	6e8 <DbgConsole_Printf>
    2c42:	bf00      	nop
    2c44:	2064      	movs	r0, #100	; 0x64
    2c46:	f006 f9ca 	bl	8fde <_delay_ms>
    2c4a:	e7a3      	b.n	2b94 <main+0xe0>
    2c4c:	0000a8b0 	.word	0x0000a8b0
    2c50:	0000a8e8 	.word	0x0000a8e8
    2c54:	0000a928 	.word	0x0000a928
    2c58:	0000a96c 	.word	0x0000a96c
    2c5c:	0000a9c4 	.word	0x0000a9c4
    2c60:	0000a9e8 	.word	0x0000a9e8
    2c64:	0000aa04 	.word	0x0000aa04
    2c68:	0000aa20 	.word	0x0000aa20
    2c6c:	0000aa3c 	.word	0x0000aa3c
    2c70:	0000aa58 	.word	0x0000aa58
    2c74:	401bc000 	.word	0x401bc000
    2c78:	0000c070 	.word	0x0000c070
    2c7c:	000027e1 	.word	0x000027e1
    2c80:	000186a0 	.word	0x000186a0
    2c84:	0000aa74 	.word	0x0000aa74
    2c88:	0000aa78 	.word	0x0000aa78
    2c8c:	0000aa88 	.word	0x0000aa88
    2c90:	0000aa8c 	.word	0x0000aa8c
    2c94:	20000048 	.word	0x20000048
    2c98:	0000aaa0 	.word	0x0000aaa0
    2c9c:	200000dc 	.word	0x200000dc
    2ca0:	0000aaac 	.word	0x0000aaac
    2ca4:	200000d8 	.word	0x200000d8
    2ca8:	0000aab8 	.word	0x0000aab8
    2cac:	0000aac0 	.word	0x0000aac0
    2cb0:	200008dc 	.word	0x200008dc
    2cb4:	0000aad0 	.word	0x0000aad0
    2cb8:	0000aae0 	.word	0x0000aae0
    2cbc:	0000aaec 	.word	0x0000aaec
    2cc0:	0000aaf8 	.word	0x0000aaf8
    2cc4:	0000ab08 	.word	0x0000ab08

00002cc8 <CLOCK_GetOscFreq>:
    2cc8:	b480      	push	{r7}
    2cca:	af00      	add	r7, sp, #0
    2ccc:	4b07      	ldr	r3, [pc, #28]	; (2cec <CLOCK_GetOscFreq+0x24>)
    2cce:	f8d3 3270 	ldr.w	r3, [r3, #624]	; 0x270
    2cd2:	f003 0310 	and.w	r3, r3, #16
    2cd6:	2b00      	cmp	r3, #0
    2cd8:	d102      	bne.n	2ce0 <CLOCK_GetOscFreq+0x18>
    2cda:	4b05      	ldr	r3, [pc, #20]	; (2cf0 <CLOCK_GetOscFreq+0x28>)
    2cdc:	681b      	ldr	r3, [r3, #0]
    2cde:	e000      	b.n	2ce2 <CLOCK_GetOscFreq+0x1a>
    2ce0:	4b04      	ldr	r3, [pc, #16]	; (2cf4 <CLOCK_GetOscFreq+0x2c>)
    2ce2:	4618      	mov	r0, r3
    2ce4:	46bd      	mov	sp, r7
    2ce6:	f85d 7b04 	ldr.w	r7, [sp], #4
    2cea:	4770      	bx	lr
    2cec:	400d8000 	.word	0x400d8000
    2cf0:	200008e8 	.word	0x200008e8
    2cf4:	016e3600 	.word	0x016e3600

00002cf8 <CLOCK_GetPeriphClkFreq>:
    2cf8:	b580      	push	{r7, lr}
    2cfa:	b082      	sub	sp, #8
    2cfc:	af00      	add	r7, sp, #0
    2cfe:	4b33      	ldr	r3, [pc, #204]	; (2dcc <CLOCK_GetPeriphClkFreq+0xd4>)
    2d00:	695b      	ldr	r3, [r3, #20]
    2d02:	f003 7300 	and.w	r3, r3, #33554432	; 0x2000000
    2d06:	2b00      	cmp	r3, #0
    2d08:	d027      	beq.n	2d5a <CLOCK_GetPeriphClkFreq+0x62>
    2d0a:	4b30      	ldr	r3, [pc, #192]	; (2dcc <CLOCK_GetPeriphClkFreq+0xd4>)
    2d0c:	699b      	ldr	r3, [r3, #24]
    2d0e:	f403 5340 	and.w	r3, r3, #12288	; 0x3000
    2d12:	f5b3 5f80 	cmp.w	r3, #4096	; 0x1000
    2d16:	d009      	beq.n	2d2c <CLOCK_GetPeriphClkFreq+0x34>
    2d18:	f5b3 5f00 	cmp.w	r3, #8192	; 0x2000
    2d1c:	d00a      	beq.n	2d34 <CLOCK_GetPeriphClkFreq+0x3c>
    2d1e:	2b00      	cmp	r3, #0
    2d20:	d10d      	bne.n	2d3e <CLOCK_GetPeriphClkFreq+0x46>
    2d22:	482b      	ldr	r0, [pc, #172]	; (2dd0 <CLOCK_GetPeriphClkFreq+0xd8>)
    2d24:	f000 faa8 	bl	3278 <CLOCK_GetPllFreq>
    2d28:	6078      	str	r0, [r7, #4]
    2d2a:	e00b      	b.n	2d44 <CLOCK_GetPeriphClkFreq+0x4c>
    2d2c:	f7ff ffcc 	bl	2cc8 <CLOCK_GetOscFreq>
    2d30:	6078      	str	r0, [r7, #4]
    2d32:	e007      	b.n	2d44 <CLOCK_GetPeriphClkFreq+0x4c>
    2d34:	4827      	ldr	r0, [pc, #156]	; (2dd4 <CLOCK_GetPeriphClkFreq+0xdc>)
    2d36:	f000 fa9f 	bl	3278 <CLOCK_GetPllFreq>
    2d3a:	6078      	str	r0, [r7, #4]
    2d3c:	e002      	b.n	2d44 <CLOCK_GetPeriphClkFreq+0x4c>
    2d3e:	2300      	movs	r3, #0
    2d40:	607b      	str	r3, [r7, #4]
    2d42:	bf00      	nop
    2d44:	4b21      	ldr	r3, [pc, #132]	; (2dcc <CLOCK_GetPeriphClkFreq+0xd4>)
    2d46:	695b      	ldr	r3, [r3, #20]
    2d48:	0edb      	lsrs	r3, r3, #27
    2d4a:	f003 0307 	and.w	r3, r3, #7
    2d4e:	3301      	adds	r3, #1
    2d50:	687a      	ldr	r2, [r7, #4]
    2d52:	fbb2 f3f3 	udiv	r3, r2, r3
    2d56:	607b      	str	r3, [r7, #4]
    2d58:	e032      	b.n	2dc0 <CLOCK_GetPeriphClkFreq+0xc8>
    2d5a:	4b1c      	ldr	r3, [pc, #112]	; (2dcc <CLOCK_GetPeriphClkFreq+0xd4>)
    2d5c:	699b      	ldr	r3, [r3, #24]
    2d5e:	f403 2340 	and.w	r3, r3, #786432	; 0xc0000
    2d62:	f5b3 2f80 	cmp.w	r3, #262144	; 0x40000
    2d66:	d011      	beq.n	2d8c <CLOCK_GetPeriphClkFreq+0x94>
    2d68:	f5b3 2f80 	cmp.w	r3, #262144	; 0x40000
    2d6c:	d802      	bhi.n	2d74 <CLOCK_GetPeriphClkFreq+0x7c>
    2d6e:	2b00      	cmp	r3, #0
    2d70:	d007      	beq.n	2d82 <CLOCK_GetPeriphClkFreq+0x8a>
    2d72:	e022      	b.n	2dba <CLOCK_GetPeriphClkFreq+0xc2>
    2d74:	f5b3 2f00 	cmp.w	r3, #524288	; 0x80000
    2d78:	d00d      	beq.n	2d96 <CLOCK_GetPeriphClkFreq+0x9e>
    2d7a:	f5b3 2f40 	cmp.w	r3, #786432	; 0xc0000
    2d7e:	d00f      	beq.n	2da0 <CLOCK_GetPeriphClkFreq+0xa8>
    2d80:	e01b      	b.n	2dba <CLOCK_GetPeriphClkFreq+0xc2>
    2d82:	4814      	ldr	r0, [pc, #80]	; (2dd4 <CLOCK_GetPeriphClkFreq+0xdc>)
    2d84:	f000 fa78 	bl	3278 <CLOCK_GetPllFreq>
    2d88:	6078      	str	r0, [r7, #4]
    2d8a:	e019      	b.n	2dc0 <CLOCK_GetPeriphClkFreq+0xc8>
    2d8c:	2002      	movs	r0, #2
    2d8e:	f000 fc43 	bl	3618 <CLOCK_GetSysPfdFreq>
    2d92:	6078      	str	r0, [r7, #4]
    2d94:	e014      	b.n	2dc0 <CLOCK_GetPeriphClkFreq+0xc8>
    2d96:	2000      	movs	r0, #0
    2d98:	f000 fc3e 	bl	3618 <CLOCK_GetSysPfdFreq>
    2d9c:	6078      	str	r0, [r7, #4]
    2d9e:	e00f      	b.n	2dc0 <CLOCK_GetPeriphClkFreq+0xc8>
    2da0:	200d      	movs	r0, #13
    2da2:	f000 fa69 	bl	3278 <CLOCK_GetPllFreq>
    2da6:	4602      	mov	r2, r0
    2da8:	4b08      	ldr	r3, [pc, #32]	; (2dcc <CLOCK_GetPeriphClkFreq+0xd4>)
    2daa:	691b      	ldr	r3, [r3, #16]
    2dac:	f003 0307 	and.w	r3, r3, #7
    2db0:	3301      	adds	r3, #1
    2db2:	fbb2 f3f3 	udiv	r3, r2, r3
    2db6:	607b      	str	r3, [r7, #4]
    2db8:	e002      	b.n	2dc0 <CLOCK_GetPeriphClkFreq+0xc8>
    2dba:	2300      	movs	r3, #0
    2dbc:	607b      	str	r3, [r7, #4]
    2dbe:	bf00      	nop
    2dc0:	687b      	ldr	r3, [r7, #4]
    2dc2:	4618      	mov	r0, r3
    2dc4:	3708      	adds	r7, #8
    2dc6:	46bd      	mov	sp, r7
